
ProPilot.cof:     file format coff-pic30

Disassembly of section .reset:

00000000 <.reset>:
   0:	00 02 04    	goto      0x200 <__reset>
   2:	00 00 00 
Disassembly of section .text:

00000200 <__reset>:
     200:	0f 90 22    	mov.w     #0x2900, w15
     202:	00 5f 27    	mov.w     #0x75f0, w0
     204:	00 01 88    	mov.w     w0, 0x20
     206:	00 00 00    	nop       
     208:	0c 00 07    	rcall     0x222 <__psv_init>
     20a:	20 a1 21    	mov.w     #0x1a12, w0
     20c:	01 00 20    	mov.w     #0x0, w1
     20e:	11 00 07    	rcall     0x232 <__data_init>
     210:	00 00 20    	mov.w     #0x0, w0
     212:	00 00 e0    	cp0.w     w0
     214:	02 00 32    	bra       Z, 0x21a <L11>
     216:	00 00 02    	call      0x0 <__reset-0x200>
     218:	00 00 00 

0000021a <L11>:
     21a:	80 af 02    	call      0xaf80 <_main>
     21c:	00 00 00 
     21e:	00 40 da    	.pword 0xda4000
     220:	00 00 fe    	reset     

00000222 <__psv_init>:
     222:	44 40 a9    	bclr.b    0x44, #0x2
     224:	60 68 20    	mov.w     #0x686, w0
     226:	00 00 e0    	cp0.w     w0
     228:	03 00 32    	bra       Z, 0x230 <L12>
     22a:	00 00 20    	mov.w     #0x0, w0
     22c:	a0 01 88    	mov.w     w0, 0x34
     22e:	44 40 a8    	bset.b    0x44, #0x2

00000230 <L12>:
     230:	00 00 06    	return    

00000232 <__data_init>:
     232:	91 01 88    	mov.w     w1, 0x32
     234:	80 00 78    	mov.w     w0, w1
     236:	00 00 eb    	clr.w     w0
     238:	15 00 37    	bra       0x264 <L41>

0000023a <L11>:
     23a:	e2 80 40    	add.w     w1, #0x2, w1
     23c:	32 a0 b4    	addc.w    0x32
     23e:	91 01 ba    	tblrdl.w  [w1], w3
     240:	e2 80 40    	add.w     w1, #0x2, w1
     242:	32 a0 b4    	addc.w    0x32
     244:	91 02 ba    	tblrdl.w  [w1], w5
     246:	e2 80 40    	add.w     w1, #0x2, w1
     248:	32 a0 b4    	addc.w    0x32
     24a:	00 02 eb    	clr.w     w4
     24c:	47 2b de    	lsr.w     w5, #0x7, w6
     24e:	f5 07 b2    	and.w     #0x7f, w5
     250:	60 2c e1    	cp.b      w5, #0x0
     252:	04 00 3a    	bra       NZ, 0x25c <L21>

00000254 <L91>:
     254:	00 59 eb    	clr.b     [w2++]
     256:	83 01 e9    	dec.w     w3, w3
     258:	fd ff 3e    	bra       GTU, 0x254 <L91>
     25a:	04 00 37    	bra       0x264 <L41>

0000025c <L21>:
     25c:	61 28 e1    	cp.w      w5, #0x1
     25e:	01 00 32    	bra       Z, 0x262 <L31>
     260:	00 82 eb    	setm.w    w4

00000262 <L31>:
     262:	04 00 07    	rcall     0x26c <L12>

00000264 <L41>:
     264:	11 01 ba    	tblrdl.w  [w1], w2
     266:	02 00 e0    	cp0.w     w2
     268:	e8 ff 3a    	bra       NZ, 0x23a <L11>
     26a:	00 00 06    	return    

0000026c <L12>:
     26c:	31 59 ba    	tblrdl.b  [w1++], [w2++]
     26e:	83 01 e9    	dec.w     w3, w3
     270:	0c 00 32    	bra       Z, 0x28a <L22>
     272:	21 59 ba    	tblrdl.b  [w1--], [w2++]
     274:	83 01 e9    	dec.w     w3, w3
     276:	08 00 32    	bra       Z, 0x288 <L42>
     278:	04 00 e0    	cp0.w     w4
     27a:	03 00 3a    	bra       NZ, 0x282 <L13>

0000027c <L32>:
     27c:	e2 80 40    	add.w     w1, #0x2, w1
     27e:	32 a0 b4    	addc.w    0x32
     280:	f5 ff 37    	bra       0x26c <L12>

00000282 <L13>:
     282:	11 d9 ba    	tblrdh.b  [w1], [w2++]
     284:	83 01 e9    	dec.w     w3, w3
     286:	fa ff 3a    	bra       NZ, 0x27c <L32>

00000288 <L42>:
     288:	81 00 e8    	inc.w     w1, w1

0000028a <L22>:
     28a:	e1 80 40    	add.w     w1, #0x1, w1
     28c:	32 a0 b4    	addc.w    0x32
     28e:	00 00 06    	return    

00000290 <.handle>:
     290:	68 88 04    	goto      0x8868 <_startS>
     292:	00 00 00 
     294:	70 88 04    	goto      0x8870 <_calibrateS>
     296:	00 00 00 
     298:	ae 88 04    	goto      0x88ae <_acquiringS>
     29a:	00 00 00 
     29c:	18 89 04    	goto      0x8918 <_manualS>
     29e:	00 00 00 
     2a0:	5e 89 04    	goto      0x895e <_stabilizedS>
     2a2:	00 00 00 
     2a4:	a0 89 04    	goto      0x89a0 <_waypointS>
     2a6:	00 00 00 
     2a8:	ea 89 04    	goto      0x89ea <_returnS>
     2aa:	00 00 00 
     2ac:	ee 9f 04    	goto      0x9fee <_msg_A0>
     2ae:	00 00 00 
     2b0:	0a a0 04    	goto      0xa00a <_msg_A2>
     2b2:	00 00 00 
     2b4:	dc 9f 04    	goto      0x9fdc <_msg_B3>
     2b6:	00 00 00 
     2b8:	1a a0 04    	goto      0xa01a <_msg_PL1>
     2ba:	00 00 00 
     2bc:	30 a0 04    	goto      0xa030 <_msg_PL2>
     2be:	00 00 00 
     2c0:	78 a0 04    	goto      0xa078 <_msg_MSG2>
     2c2:	00 00 00 
     2c4:	ae a0 04    	goto      0xa0ae <_msg_MSG41>
     2c6:	00 00 00 
     2c8:	e6 a0 04    	goto      0xa0e6 <_msg_MSGU>
     2ca:	00 00 00 
     2cc:	0c a1 04    	goto      0xa10c <_msg_B0>
     2ce:	00 00 00 
     2d0:	f6 50 04    	goto      0x50f6 <_doneReadMagData>
     2d2:	00 00 00 
     2d4:	06 56 04    	goto      0x5606 <_doneReadAccData>
     2d6:	00 00 00 
     2d8:	6e 78 04    	goto      0x786e <_doneEE>
     2da:	00 00 00 
     2dc:	56 5e 04    	goto      0x5e56 <_I2C_default>
     2de:	00 00 00 
     2e0:	f2 02 04    	goto      0x2f2 <_prout>
     2e2:	00 00 00 

000002e4 <_memset>:
     2e4:	80 01 eb    	clr.w     w3
     2e6:	02 00 37    	bra       0x2ec <.L2>

000002e8 <.L3>:
     2e8:	81 71 78    	mov.b     w1, [w3+w0]
     2ea:	83 01 e8    	inc.w     w3, w3

000002ec <.L2>:
     2ec:	82 8f 51    	sub.w     w3, w2, [w15]
     2ee:	fc ff 3a    	bra       NZ, 0x2e8 <.L3>
     2f0:	00 00 06    	return    

000002f2 <_prout>:
     2f2:	88 1f 78    	mov.w     w8, [w15++]
     2f4:	02 04 78    	mov.w     w2, w8
     2f6:	26 00 07    	rcall     0x344 <_memcpy>
     2f8:	08 00 40    	add.w     w0, w8, w0
     2fa:	4f 04 78    	mov.w     [--w15], w8
     2fc:	00 00 06    	return    

000002fe <__isprintf>:
     2fe:	00 00 fa    	lnk       #0x0
     300:	88 1f 78    	mov.w     w8, [w15++]
     302:	00 04 78    	mov.w     w0, w8
     304:	3f b9 97    	mov.w     [w15-10], w2
     306:	ea 81 57    	sub.w     w15, #0xa, w3
     308:	80 00 78    	mov.w     w0, w1
     30a:	20 2f 20    	mov.w     #0x2f2, w0
     30c:	22 00 07    	rcall     0x352 <___iPrintf>
     30e:	80 00 78    	mov.w     w0, w1
     310:	00 00 e0    	cp0.w     w0
     312:	02 00 35    	bra       LT, 0x318 <.L4>
     314:	00 40 eb    	clr.b     w0
     316:	00 f4 78    	mov.b     w0, [w8+w1]

00000318 <.L4>:
     318:	01 00 78    	mov.w     w1, w0
     31a:	4f 04 78    	mov.w     [--w15], w8
     31c:	00 80 fa    	ulnk      
     31e:	00 00 06    	return    

00000320 <_strncmp>:
     320:	00 02 78    	mov.w     w0, w4
     322:	00 00 eb    	clr.w     w0
     324:	0b 00 37    	bra       0x33c <.L2>

00000326 <.L3>:
     326:	94 41 78    	mov.b     [w4], w3
     328:	91 cf 51    	sub.b     w3, [w1], [w15]
     32a:	03 00 32    	bra       Z, 0x332 <.L4>
     32c:	00 80 eb    	setm.w    w0
     32e:	09 00 39    	bra       NC, 0x342 <.L8>
     330:	10 00 05    	retlw.w   #0x1, w0

00000332 <.L4>:
     332:	00 00 e8    	inc.w     w0, w0
     334:	03 04 e0    	cp0.b     w3
     336:	04 00 32    	bra       Z, 0x340 <.L9>
     338:	04 02 e8    	inc.w     w4, w4
     33a:	81 00 e8    	inc.w     w1, w1

0000033c <.L2>:
     33c:	82 0f 50    	sub.w     w0, w2, [w15]
     33e:	f3 ff 3a    	bra       NZ, 0x326 <.L3>

00000340 <.L9>:
     340:	00 00 eb    	clr.w     w0

00000342 <.L8>:
     342:	00 00 06    	return    

00000344 <_memcpy>:
     344:	80 01 eb    	clr.w     w3
     346:	02 00 37    	bra       0x34c <.L2>

00000348 <.L3>:
     348:	61 f0 79    	mov.b     [w1+w3], [w0+w3]
     34a:	83 01 e8    	inc.w     w3, w3

0000034c <.L2>:
     34c:	82 8f 51    	sub.w     w3, w2, [w15]
     34e:	fc ff 3a    	bra       NZ, 0x348 <.L3>
     350:	00 00 06    	return    

00000352 <___iPrintf>:
     352:	62 00 fa    	lnk       #0x62
     354:	88 9f be    	mov.d     w8, [w15++]
     356:	8a 9f be    	mov.d     w10, [w15++]
     358:	00 04 be    	mov.d     w0, w8
     35a:	02 05 78    	mov.w     w2, w10
     35c:	83 00 78    	mov.w     w3, w1
     35e:	60 f9 2f    	mov.w     #0xff96, w0
     360:	0f 00 40    	add.w     w0, w15, w0
     362:	b0 00 07    	rcall     0x4c4 <__Vacopy>
     364:	88 97 9f    	mov.w     w8, [w15-96]
     366:	99 97 9f    	mov.w     w9, [w15-94]
     368:	00 00 eb    	clr.w     w0
     36a:	a0 9f 9f    	mov.w     w0, [w15-76]

0000036c <.L56>:
     36c:	9a 45 78    	mov.b     [w10], w11
     36e:	0b 80 fb    	ze        w11, w0
     370:	00 00 ea    	neg.w     w0, w0
     372:	cf 04 de    	lsr.w     w0, #0xf, w9
     374:	50 c2 b3    	mov.b     #0x25, w0
     376:	80 cf 55    	sub.b     w11, w0, [w15]
     378:	02 00 32    	bra       Z, 0x37e <.L4>
     37a:	09 04 78    	mov.w     w9, w8
     37c:	01 00 37    	bra       0x380 <.L6>

0000037e <.L4>:
     37e:	09 04 e9    	dec.w     w9, w8

00000380 <.L6>:
     380:	08 00 e0    	cp0.w     w8
     382:	0b 00 34    	bra       LE, 0x39a <.L7>
     384:	1f 90 97    	mov.w     [w15-94], w0
     386:	08 01 78    	mov.w     w8, w2
     388:	8a 00 78    	mov.w     w10, w1
     38a:	8f 91 97    	mov.w     [w15-96], w3
     38c:	03 00 01    	call      w3
     38e:	90 97 9f    	mov.w     w0, [w15-94]
     390:	00 00 e0    	cp0.w     w0
     392:	93 00 32    	bra       Z, 0x4ba <.L9>
     394:	2f 98 97    	mov.w     [w15-76], w0
     396:	00 00 44    	add.w     w8, w0, w0
     398:	a0 9f 9f    	mov.w     w0, [w15-76]

0000039a <.L7>:
     39a:	09 05 45    	add.w     w10, w9, w10
     39c:	50 c2 b3    	mov.b     #0x25, w0
     39e:	80 cf 55    	sub.b     w11, w0, [w15]
     3a0:	04 00 32    	bra       Z, 0x3aa <.L11>
     3a2:	0b 04 e0    	cp0.b     w11
     3a4:	e3 ff 3a    	bra       NZ, 0x36c <.L56>
     3a6:	2f 98 97    	mov.w     [w15-76], w0
     3a8:	89 00 37    	bra       0x4bc <.L14>

000003aa <.L11>:
     3aa:	00 00 eb    	clr.w     w0
     3ac:	80 9f 9f    	mov.w     w0, [w15-80]
     3ae:	f0 97 9f    	mov.w     w0, [w15-82]
     3b0:	e0 97 9f    	mov.w     w0, [w15-84]
     3b2:	d0 97 9f    	mov.w     w0, [w15-86]
     3b4:	c0 97 9f    	mov.w     w0, [w15-88]
     3b6:	b0 97 9f    	mov.w     w0, [w15-90]
     3b8:	c0 9f 9f    	mov.w     w0, [w15-72]
     3ba:	09 00 37    	bra       0x3ce <.L15>

000003bc <.L16>:
     3bc:	60 7c 21    	mov.w     #0x17c6, w0
     3be:	00 80 50    	sub.w     w1, w0, w0
     3c0:	00 00 40    	add.w     w0, w0, w0
     3c2:	a1 7b 21    	mov.w     #0x17ba, w1
     3c4:	e1 00 78    	mov.w     [w1+w0], w1
     3c6:	4f 98 97    	mov.w     [w15-72], w0
     3c8:	01 00 70    	ior.w     w0, w1, w0
     3ca:	c0 9f 9f    	mov.w     w0, [w15-72]
     3cc:	0a 05 e8    	inc.w     w10, w10

000003ce <.L15>:
     3ce:	1a 44 78    	mov.b     [w10], w8
     3d0:	88 00 fb    	se        w8, w1
     3d2:	60 7c 21    	mov.w     #0x17c6, w0
     3d4:	7c 00 07    	rcall     0x4ce <_strchr>
     3d6:	80 00 78    	mov.w     w0, w1
     3d8:	00 00 e0    	cp0.w     w0
     3da:	f0 ff 3a    	bra       NZ, 0x3bc <.L16>
     3dc:	a0 c2 b3    	mov.b     #0x2a, w0
     3de:	80 4f 54    	sub.b     w8, w0, [w15]
     3e0:	0e 00 3a    	bra       NZ, 0x3fe <.L18>
     3e2:	bf 88 97    	mov.w     [w15-106], w1
     3e4:	01 80 e9    	dec2.w    w1, w0
     3e6:	b0 8f 9f    	mov.w     w0, [w15-106]
     3e8:	10 00 78    	mov.w     [w0], w0
     3ea:	b0 9f 9f    	mov.w     w0, [w15-74]
     3ec:	00 00 e0    	cp0.w     w0
     3ee:	05 00 3d    	bra       GE, 0x3fa <.L20>
     3f0:	00 00 ea    	neg.w     w0, w0
     3f2:	b0 9f 9f    	mov.w     w0, [w15-74]
     3f4:	4f 98 97    	mov.w     [w15-72], w0
     3f6:	00 20 a0    	bset.w    w0, #0x2
     3f8:	c0 9f 9f    	mov.w     w0, [w15-72]

000003fa <.L20>:
     3fa:	0a 05 e8    	inc.w     w10, w10
     3fc:	10 00 37    	bra       0x41e <.L22>

000003fe <.L18>:
     3fe:	b1 9f 9f    	mov.w     w1, [w15-74]
     400:	03 fd 2f    	mov.w     #0xffd0, w3
     402:	f4 ff 27    	mov.w     #0x7fff, w4
     404:	08 00 37    	bra       0x416 <.L23>

00000406 <.L24>:
     406:	3f 98 97    	mov.w     [w15-74], w0
     408:	84 0f 50    	sub.w     w0, w4, [w15]
     40a:	04 00 32    	bra       Z, 0x414 <.L25>
     40c:	6a 00 b9    	mul.su    w0, #0xa, w0
     40e:	00 00 41    	add.w     w2, w0, w0
     410:	03 00 40    	add.w     w0, w3, w0
     412:	b0 9f 9f    	mov.w     w0, [w15-74]

00000414 <.L25>:
     414:	0a 05 e8    	inc.w     w10, w10

00000416 <.L23>:
     416:	1a 01 fb    	se        [w10], w2
     418:	03 00 41    	add.w     w2, w3, w0
     41a:	e9 0f 50    	sub.w     w0, #0x9, [w15]
     41c:	f4 ff 36    	bra       LEU, 0x406 <.L24>

0000041e <.L22>:
     41e:	e0 c2 b3    	mov.b     #0x2e, w0
     420:	9a 4f 10    	subr.b    w0, [w10], [w15]
     422:	04 00 32    	bra       Z, 0x42c <.L27>
     424:	00 80 eb    	setm.w    w0
     426:	90 9f 9f    	mov.w     w0, [w15-78]
     428:	8a 04 78    	mov.w     w10, w9
     42a:	1c 00 37    	bra       0x464 <.L29>

0000042c <.L27>:
     42c:	8a 04 e8    	inc.w     w10, w9
     42e:	a0 c2 b3    	mov.b     #0x2a, w0
     430:	99 4f 10    	subr.b    w0, [w9], [w15]
     432:	07 00 3a    	bra       NZ, 0x442 <.L30>
     434:	bf 88 97    	mov.w     [w15-106], w1
     436:	01 80 e9    	dec2.w    w1, w0
     438:	b0 8f 9f    	mov.w     w0, [w15-106]
     43a:	10 00 78    	mov.w     [w0], w0
     43c:	90 9f 9f    	mov.w     w0, [w15-78]
     43e:	8a 84 e8    	inc2.w    w10, w9
     440:	11 00 37    	bra       0x464 <.L29>

00000442 <.L30>:
     442:	00 00 eb    	clr.w     w0
     444:	90 9f 9f    	mov.w     w0, [w15-78]
     446:	03 fd 2f    	mov.w     #0xffd0, w3
     448:	f4 ff 27    	mov.w     #0x7fff, w4
     44a:	08 00 37    	bra       0x45c <.L32>

0000044c <.L33>:
     44c:	1f 98 97    	mov.w     [w15-78], w0
     44e:	84 0f 50    	sub.w     w0, w4, [w15]
     450:	04 00 32    	bra       Z, 0x45a <.L34>
     452:	6a 00 b9    	mul.su    w0, #0xa, w0
     454:	00 00 41    	add.w     w2, w0, w0
     456:	03 00 40    	add.w     w0, w3, w0
     458:	90 9f 9f    	mov.w     w0, [w15-78]

0000045a <.L34>:
     45a:	89 04 e8    	inc.w     w9, w9

0000045c <.L32>:
     45c:	19 01 fb    	se        [w9], w2
     45e:	03 00 41    	add.w     w2, w3, w0
     460:	e9 0f 50    	sub.w     w0, #0x9, [w15]
     462:	f4 ff 36    	bra       LEU, 0x44c <.L33>

00000464 <.L29>:
     464:	19 44 78    	mov.b     [w9], w8
     466:	88 00 fb    	se        w8, w1
     468:	00 6c 27    	mov.w     #0x76c0, w0
     46a:	31 00 07    	rcall     0x4ce <_strchr>
     46c:	00 00 e0    	cp0.w     w0
     46e:	02 00 3a    	bra       NZ, 0x474 <.L36>
     470:	00 44 78    	mov.b     w0, w8
     472:	01 00 37    	bra       0x476 <.L38>

00000474 <.L36>:
     474:	89 04 e8    	inc.w     w9, w9

00000476 <.L38>:
     476:	a8 7f 9f    	mov.b     w8, [w15-70]
     478:	80 c6 b3    	mov.b     #0x68, w0
     47a:	80 4f 54    	sub.b     w8, w0, [w15]
     47c:	04 00 3a    	bra       NZ, 0x486 <.L39>
     47e:	99 4f 14    	subr.b    w8, [w9], [w15]
     480:	0a 00 3a    	bra       NZ, 0x496 <.L41>
     482:	66 40 50    	sub.b     w0, #0x6, w0
     484:	06 00 37    	bra       0x492 <.L55>

00000486 <.L39>:
     486:	c0 c6 b3    	mov.b     #0x6c, w0
     488:	80 4f 54    	sub.b     w8, w0, [w15]
     48a:	05 00 3a    	bra       NZ, 0x496 <.L41>
     48c:	99 4f 14    	subr.b    w8, [w9], [w15]
     48e:	03 00 3a    	bra       NZ, 0x496 <.L41>
     490:	65 40 40    	add.b     w0, #0x5, w0

00000492 <.L55>:
     492:	a0 7f 9f    	mov.b     w0, [w15-70]
     494:	89 04 e8    	inc.w     w9, w9

00000496 <.L41>:
     496:	09 05 e8    	inc.w     w9, w10
     498:	cb fb 2f    	mov.w     #0xffbc, w11
     49a:	8f 85 45    	add.w     w11, w15, w11
     49c:	19 01 fb    	se        [w9], w2
     49e:	60 f9 2f    	mov.w     #0xff96, w0
     4a0:	0f 00 40    	add.w     w0, w15, w0
     4a2:	00 84 e8    	inc2.w    w0, w8
     4a4:	8b 01 78    	mov.w     w11, w3
     4a6:	80 00 78    	mov.w     w0, w1
     4a8:	08 00 78    	mov.w     w8, w0
     4aa:	1a 00 07    	rcall     0x4e0 <___iPutfld>
     4ac:	00 00 e0    	cp0.w     w0
     4ae:	05 00 3a    	bra       NZ, 0x4ba <.L9>
     4b0:	8b 00 78    	mov.w     w11, w1
     4b2:	08 00 78    	mov.w     w8, w0
     4b4:	58 01 07    	rcall     0x766 <__Puttxt>
     4b6:	00 00 e0    	cp0.w     w0
     4b8:	59 ff 3d    	bra       GE, 0x36c <.L56>

000004ba <.L9>:
     4ba:	00 80 eb    	setm.w    w0

000004bc <.L14>:
     4bc:	4f 05 be    	mov.d     [--w15], w10
     4be:	4f 04 be    	mov.d     [--w15], w8
     4c0:	00 80 fa    	ulnk      
     4c2:	00 00 06    	return    

000004c4 <__Vacopy>:
     4c4:	02 00 fa    	lnk       #0x2
     4c6:	f1 bf 9f    	mov.w     w1, [w15-2]
     4c8:	01 08 78    	mov.w     w1, [w0]
     4ca:	00 80 fa    	ulnk      
     4cc:	00 00 06    	return    

000004ce <_strchr>:
     4ce:	04 00 37    	bra       0x4d8 <.L2>

000004d0 <.L3>:
     4d0:	02 04 e0    	cp0.b     w2
     4d2:	01 00 3a    	bra       NZ, 0x4d6 <.L4>
     4d4:	00 00 05    	retlw.w   #0x0, w0

000004d6 <.L4>:
     4d6:	00 00 e8    	inc.w     w0, w0

000004d8 <.L2>:
     4d8:	10 41 78    	mov.b     [w0], w2
     4da:	81 4f 51    	sub.b     w2, w1, [w15]
     4dc:	f9 ff 3a    	bra       NZ, 0x4d0 <.L3>
     4de:	00 00 06    	return    

000004e0 <___iPutfld>:
     4e0:	88 9f be    	mov.d     w8, [w15++]
     4e2:	8a 1f 78    	mov.w     w10, [w15++]
     4e4:	00 04 78    	mov.w     w0, w8
     4e6:	01 02 78    	mov.w     w1, w4
     4e8:	82 44 78    	mov.b     w2, w9
     4ea:	03 05 78    	mov.w     w3, w10
     4ec:	e0 c6 b3    	mov.b     #0x6e, w0
     4ee:	80 4f 51    	sub.b     w2, w0, [w15]
     4f0:	d2 00 32    	bra       Z, 0x696 <.L8>
     4f2:	15 00 3c    	bra       GT, 0x51e <.L10>
     4f4:	6b 40 50    	sub.b     w0, #0xb, w0
     4f6:	80 4f 51    	sub.b     w2, w0, [w15]
     4f8:	24 00 32    	bra       Z, 0x542 <.L6>
     4fa:	0a 00 3c    	bra       GT, 0x510 <.L11>
     4fc:	70 40 50    	sub.b     w0, #0x10, w0
     4fe:	80 4f 51    	sub.b     w2, w0, [w15]
     500:	0f 01 32    	bra       Z, 0x720 <.L4>
     502:	65 40 40    	add.b     w0, #0x5, w0
     504:	80 4f 51    	sub.b     w2, w0, [w15]
     506:	74 00 32    	bra       Z, 0x5f0 <.L5>
     508:	50 c2 b3    	mov.b     #0x25, w0
     50a:	80 4f 51    	sub.b     w2, w0, [w15]
     50c:	20 01 3a    	bra       NZ, 0x74e <.L2>
     50e:	1c 01 37    	bra       0x748 <.L3>

00000510 <.L11>:
     510:	40 c6 b3    	mov.b     #0x64, w0
     512:	80 4f 51    	sub.b     w2, w0, [w15]
     514:	1b 00 32    	bra       Z, 0x54c <.L7>
     516:	65 40 40    	add.b     w0, #0x5, w0
     518:	80 4f 51    	sub.b     w2, w0, [w15]
     51a:	19 01 3a    	bra       NZ, 0x74e <.L2>
     51c:	17 00 37    	bra       0x54c <.L7>

0000051e <.L10>:
     51e:	30 c7 b3    	mov.b     #0x73, w0
     520:	80 4f 51    	sub.b     w2, w0, [w15]
     522:	fe 00 32    	bra       Z, 0x720 <.L4>
     524:	07 00 3c    	bra       GT, 0x534 <.L12>
     526:	64 40 50    	sub.b     w0, #0x4, w0
     528:	80 4f 51    	sub.b     w2, w0, [w15]
     52a:	62 00 32    	bra       Z, 0x5f0 <.L5>
     52c:	00 40 e8    	inc.b     w0, w0
     52e:	80 4f 51    	sub.b     w2, w0, [w15]
     530:	0e 01 3a    	bra       NZ, 0x74e <.L2>
     532:	e7 00 37    	bra       0x702 <.L9>

00000534 <.L12>:
     534:	50 c7 b3    	mov.b     #0x75, w0
     536:	80 4f 51    	sub.b     w2, w0, [w15]
     538:	5b 00 32    	bra       Z, 0x5f0 <.L5>
     53a:	63 40 40    	add.b     w0, #0x3, w0
     53c:	80 4f 51    	sub.b     w2, w0, [w15]
     53e:	07 01 3a    	bra       NZ, 0x74e <.L2>
     540:	57 00 37    	bra       0x5f0 <.L5>

00000542 <.L6>:
     542:	91 80 e9    	dec2.w    [w1], w1
     544:	01 0a 78    	mov.w     w1, [w4]
     546:	78 00 90    	mov.w     [w8+14], w0
     548:	91 71 78    	mov.b     [w1], [w3+w0]
     54a:	07 01 37    	bra       0x75a <.L75>

0000054c <.L7>:
     54c:	a8 60 90    	mov.b     [w8+34], w1
     54e:	c0 c6 b3    	mov.b     #0x6c, w0
     550:	80 cf 50    	sub.b     w1, w0, [w15]
     552:	0a 00 3a    	bra       NZ, 0x568 <.L14>
     554:	94 00 78    	mov.w     [w4], w1
     556:	64 80 50    	sub.w     w1, #0x4, w0
     558:	00 0a 78    	mov.w     w0, [w4]
     55a:	10 00 be    	mov.d     [w0], w0
     55c:	4f 89 de    	asr.w     w1, #0xf, w2
     55e:	cf 91 de    	asr.w     w2, #0xf, w3
     560:	00 02 be    	mov.d     w0, w4
     562:	02 03 78    	mov.w     w2, w6
     564:	82 03 78    	mov.w     w2, w7
     566:	13 00 37    	bra       0x58e <.L16>

00000568 <.L14>:
     568:	10 c7 b3    	mov.b     #0x71, w0
     56a:	80 cf 50    	sub.b     w1, w0, [w15]
     56c:	03 00 32    	bra       Z, 0x574 <.L70>
     56e:	a0 c6 b3    	mov.b     #0x6a, w0
     570:	80 cf 50    	sub.b     w1, w0, [w15]
     572:	06 00 3a    	bra       NZ, 0x580 <.L19>

00000574 <.L70>:
     574:	94 00 78    	mov.w     [w4], w1
     576:	68 80 50    	sub.w     w1, #0x8, w0
     578:	00 0a 78    	mov.w     w0, [w4]
     57a:	30 02 be    	mov.d     [w0++], w4
     57c:	20 03 be    	mov.d     [w0--], w6
     57e:	07 00 37    	bra       0x58e <.L16>

00000580 <.L19>:
     580:	14 80 e9    	dec2.w    [w4], w0
     582:	00 0a 78    	mov.w     w0, [w4]
     584:	10 00 78    	mov.w     [w0], w0
     586:	00 02 78    	mov.w     w0, w4
     588:	cf a2 de    	asr.w     w4, #0xf, w5
     58a:	05 03 78    	mov.w     w5, w6
     58c:	86 03 78    	mov.w     w6, w7

0000058e <.L16>:
     58e:	04 9c be    	mov.d     w4, [w8++]
     590:	06 94 be    	mov.d     w6, [w8--]
     592:	a8 60 90    	mov.b     [w8+34], w1
     594:	80 c6 b3    	mov.b     #0x68, w0
     596:	80 cf 50    	sub.b     w1, w0, [w15]
     598:	0e 00 32    	bra       Z, 0x5b6 <.L26>
     59a:	20 c6 b3    	mov.b     #0x62, w0
     59c:	80 cf 50    	sub.b     w1, w0, [w15]
     59e:	05 00 3a    	bra       NZ, 0x5aa <.L24>
     5a0:	04 00 fb    	se        w4, w0
     5a2:	cf 80 de    	asr.w     w0, #0xf, w1
     5a4:	01 01 78    	mov.w     w1, w2
     5a6:	82 01 78    	mov.w     w2, w3
     5a8:	0a 00 37    	bra       0x5be <.L71>

000005aa <.L24>:
     5aa:	40 c7 b3    	mov.b     #0x74, w0
     5ac:	80 cf 50    	sub.b     w1, w0, [w15]
     5ae:	03 00 32    	bra       Z, 0x5b6 <.L26>
     5b0:	66 40 40    	add.b     w0, #0x6, w0
     5b2:	80 cf 50    	sub.b     w1, w0, [w15]
     5b4:	06 00 3a    	bra       NZ, 0x5c2 <.L23>

000005b6 <.L26>:
     5b6:	04 00 78    	mov.w     w4, w0
     5b8:	cf 80 de    	asr.w     w0, #0xf, w1
     5ba:	01 01 78    	mov.w     w1, w2
     5bc:	82 01 78    	mov.w     w2, w3

000005be <.L71>:
     5be:	00 9c be    	mov.d     w0, [w8++]
     5c0:	02 94 be    	mov.d     w2, [w8--]

000005c2 <.L23>:
     5c2:	38 00 be    	mov.d     [w8++], w0
     5c4:	28 01 be    	mov.d     [w8--], w2
     5c6:	e0 0f 50    	sub.w     w0, #0x0, [w15]
     5c8:	e0 8f 58    	subb.w    w1, #0x0, [w15]
     5ca:	e0 0f 59    	subb.w    w2, #0x0, [w15]
     5cc:	e0 8f 59    	subb.w    w3, #0x0, [w15]
     5ce:	03 00 3d    	bra       GE, 0x5d6 <.L28>
     5d0:	78 00 90    	mov.w     [w8+14], w0
     5d2:	d1 c2 b3    	mov.b     #0x2d, w1
     5d4:	0a 00 37    	bra       0x5ea <.L72>

000005d6 <.L28>:
     5d6:	08 10 90    	mov.w     [w8+32], w0
     5d8:	00 18 a3    	btst.z    w0, #0x1
     5da:	03 00 32    	bra       Z, 0x5e2 <.L31>
     5dc:	78 00 90    	mov.w     [w8+14], w0
     5de:	b1 c2 b3    	mov.b     #0x2b, w1
     5e0:	04 00 37    	bra       0x5ea <.L72>

000005e2 <.L31>:
     5e2:	00 08 a3    	btst.z    w0, #0x0
     5e4:	53 00 32    	bra       Z, 0x68c <.L48>
     5e6:	78 00 90    	mov.w     [w8+14], w0
     5e8:	01 c2 b3    	mov.b     #0x20, w1

000005ea <.L72>:
     5ea:	01 75 78    	mov.b     w1, [w10+w0]
     5ec:	00 00 e8    	inc.w     w0, w0
     5ee:	4d 00 37    	bra       0x68a <.L77>

000005f0 <.L5>:
     5f0:	a8 60 90    	mov.b     [w8+34], w1
     5f2:	c0 c6 b3    	mov.b     #0x6c, w0
     5f4:	80 cf 50    	sub.b     w1, w0, [w15]
     5f6:	06 00 3a    	bra       NZ, 0x604 <.L34>
     5f8:	94 00 78    	mov.w     [w4], w1
     5fa:	64 80 50    	sub.w     w1, #0x4, w0
     5fc:	00 0a 78    	mov.w     w0, [w4]
     5fe:	10 02 be    	mov.d     [w0], w4
     600:	60 33 b8    	mul.uu    w6, #0x0, w6
     602:	13 00 37    	bra       0x62a <.L36>

00000604 <.L34>:
     604:	10 c7 b3    	mov.b     #0x71, w0
     606:	80 cf 50    	sub.b     w1, w0, [w15]
     608:	03 00 32    	bra       Z, 0x610 <.L73>
     60a:	a0 c6 b3    	mov.b     #0x6a, w0
     60c:	80 cf 50    	sub.b     w1, w0, [w15]
     60e:	06 00 3a    	bra       NZ, 0x61c <.L39>

00000610 <.L73>:
     610:	94 00 78    	mov.w     [w4], w1
     612:	68 80 50    	sub.w     w1, #0x8, w0
     614:	00 0a 78    	mov.w     w0, [w4]
     616:	30 02 be    	mov.d     [w0++], w4
     618:	20 03 be    	mov.d     [w0--], w6
     61a:	07 00 37    	bra       0x62a <.L36>

0000061c <.L39>:
     61c:	14 80 e9    	dec2.w    [w4], w0
     61e:	00 0a 78    	mov.w     w0, [w4]
     620:	10 00 78    	mov.w     [w0], w0
     622:	00 02 78    	mov.w     w0, w4
     624:	05 00 20    	mov.w     #0x0, w5
     626:	06 00 20    	mov.w     #0x0, w6
     628:	07 00 20    	mov.w     #0x0, w7

0000062a <.L36>:
     62a:	04 9c be    	mov.d     w4, [w8++]
     62c:	06 94 be    	mov.d     w6, [w8--]
     62e:	a8 60 90    	mov.b     [w8+34], w1
     630:	80 c6 b3    	mov.b     #0x68, w0
     632:	80 cf 50    	sub.b     w1, w0, [w15]
     634:	0e 00 32    	bra       Z, 0x652 <.L46>
     636:	20 c6 b3    	mov.b     #0x62, w0
     638:	80 cf 50    	sub.b     w1, w0, [w15]
     63a:	05 00 3a    	bra       NZ, 0x646 <.L44>
     63c:	04 80 fb    	ze        w4, w0
     63e:	01 00 20    	mov.w     #0x0, w1
     640:	02 00 20    	mov.w     #0x0, w2
     642:	03 00 20    	mov.w     #0x0, w3
     644:	0a 00 37    	bra       0x65a <.L74>

00000646 <.L44>:
     646:	40 c7 b3    	mov.b     #0x74, w0
     648:	80 cf 50    	sub.b     w1, w0, [w15]
     64a:	03 00 32    	bra       Z, 0x652 <.L46>
     64c:	66 40 40    	add.b     w0, #0x6, w0
     64e:	80 cf 50    	sub.b     w1, w0, [w15]
     650:	06 00 3a    	bra       NZ, 0x65e <.L43>

00000652 <.L46>:
     652:	04 00 78    	mov.w     w4, w0
     654:	01 00 20    	mov.w     #0x0, w1
     656:	02 00 20    	mov.w     #0x0, w2
     658:	03 00 20    	mov.w     #0x0, w3

0000065a <.L74>:
     65a:	00 9c be    	mov.d     w0, [w8++]
     65c:	02 94 be    	mov.d     w2, [w8--]

0000065e <.L43>:
     65e:	08 10 90    	mov.w     [w8+32], w0
     660:	00 38 a3    	btst.z    w0, #0x3
     662:	14 00 32    	bra       Z, 0x68c <.L48>
     664:	38 00 be    	mov.d     [w8++], w0
     666:	28 01 be    	mov.d     [w8--], w2
     668:	e0 0f 50    	sub.w     w0, #0x0, [w15]
     66a:	e0 8f 58    	subb.w    w1, #0x0, [w15]
     66c:	e0 0f 59    	subb.w    w2, #0x0, [w15]
     66e:	e0 8f 59    	subb.w    w3, #0x0, [w15]
     670:	0d 00 32    	bra       Z, 0x68c <.L48>
     672:	80 c7 b3    	mov.b     #0x78, w0
     674:	80 cf 54    	sub.b     w9, w0, [w15]
     676:	03 00 32    	bra       Z, 0x67e <.L51>
     678:	80 c5 b3    	mov.b     #0x58, w0
     67a:	80 cf 54    	sub.b     w9, w0, [w15]
     67c:	07 00 3a    	bra       NZ, 0x68c <.L48>

0000067e <.L51>:
     67e:	78 00 90    	mov.w     [w8+14], w0
     680:	01 c3 b3    	mov.b     #0x30, w1
     682:	01 75 78    	mov.b     w1, [w10+w0]
     684:	80 00 e8    	inc.w     w0, w1
     686:	09 f5 78    	mov.b     w9, [w10+w1]
     688:	00 80 e8    	inc2.w    w0, w0

0000068a <.L77>:
     68a:	70 04 98    	mov.w     w0, [w8+14]

0000068c <.L48>:
     68c:	78 00 90    	mov.w     [w8+14], w0
     68e:	00 00 45    	add.w     w10, w0, w0
     690:	60 04 98    	mov.w     w0, [w8+12]
     692:	89 40 78    	mov.b     w9, w1
     694:	42 00 37    	bra       0x71a <.L76>

00000696 <.L8>:
     696:	a8 60 90    	mov.b     [w8+34], w1
     698:	c0 c6 b3    	mov.b     #0x6c, w0
     69a:	80 cf 50    	sub.b     w1, w0, [w15]
     69c:	25 00 32    	bra       Z, 0x6e8 <.L57>
     69e:	0a 00 3c    	bra       GT, 0x6b4 <.L61>
     6a0:	64 40 50    	sub.b     w0, #0x4, w0
     6a2:	80 cf 50    	sub.b     w1, w0, [w15]
     6a4:	28 00 32    	bra       Z, 0x6f6 <.L53>
     6a6:	00 c0 e8    	inc2.b    w0, w0
     6a8:	80 cf 50    	sub.b     w1, w0, [w15]
     6aa:	14 00 32    	bra       Z, 0x6d4 <.L56>
     6ac:	68 40 50    	sub.b     w0, #0x8, w0
     6ae:	80 cf 50    	sub.b     w1, w0, [w15]
     6b0:	22 00 3a    	bra       NZ, 0x6f6 <.L53>
     6b2:	0a 00 37    	bra       0x6c8 <.L54>

000006b4 <.L61>:
     6b4:	40 c7 b3    	mov.b     #0x74, w0
     6b6:	80 cf 50    	sub.b     w1, w0, [w15]
     6b8:	1e 00 32    	bra       Z, 0x6f6 <.L53>
     6ba:	66 40 40    	add.b     w0, #0x6, w0
     6bc:	80 cf 50    	sub.b     w1, w0, [w15]
     6be:	1b 00 32    	bra       Z, 0x6f6 <.L53>
     6c0:	69 40 50    	sub.b     w0, #0x9, w0
     6c2:	80 cf 50    	sub.b     w1, w0, [w15]
     6c4:	18 00 3a    	bra       NZ, 0x6f6 <.L53>
     6c6:	06 00 37    	bra       0x6d4 <.L56>

000006c8 <.L54>:
     6c8:	14 80 e9    	dec2.w    [w4], w0
     6ca:	00 0a 78    	mov.w     w0, [w4]
     6cc:	10 00 78    	mov.w     [w0], w0
     6ce:	48 5c 90    	mov.b     [w8+28], w8
     6d0:	08 48 78    	mov.b     w8, [w0]
     6d2:	45 00 37    	bra       0x75e <.L13>

000006d4 <.L56>:
     6d4:	14 80 e9    	dec2.w    [w4], w0
     6d6:	00 0a 78    	mov.w     w0, [w4]
     6d8:	10 02 78    	mov.w     [w0], w4
     6da:	68 08 90    	mov.w     [w8+28], w0
     6dc:	cf 80 de    	asr.w     w0, #0xf, w1
     6de:	01 01 78    	mov.w     w1, w2
     6e0:	82 01 78    	mov.w     w2, w3
     6e2:	00 9a be    	mov.d     w0, [w4++]
     6e4:	02 92 be    	mov.d     w2, [w4--]
     6e6:	3b 00 37    	bra       0x75e <.L13>

000006e8 <.L57>:
     6e8:	14 80 e9    	dec2.w    [w4], w0
     6ea:	00 0a 78    	mov.w     w0, [w4]
     6ec:	10 01 78    	mov.w     [w0], w2
     6ee:	68 08 90    	mov.w     [w8+28], w0
     6f0:	cf 80 de    	asr.w     w0, #0xf, w1
     6f2:	00 89 be    	mov.d     w0, [w2]
     6f4:	34 00 37    	bra       0x75e <.L13>

000006f6 <.L53>:
     6f6:	14 80 e9    	dec2.w    [w4], w0
     6f8:	00 0a 78    	mov.w     w0, [w4]
     6fa:	10 00 78    	mov.w     [w0], w0
     6fc:	68 0c 90    	mov.w     [w8+28], w8
     6fe:	08 08 78    	mov.w     w8, [w0]
     700:	2e 00 37    	bra       0x75e <.L13>

00000702 <.L9>:
     702:	11 80 e9    	dec2.w    [w1], w0
     704:	80 08 78    	mov.w     w0, [w1]
     706:	10 00 78    	mov.w     [w0], w0
     708:	cf 80 de    	asr.w     w0, #0xf, w1
     70a:	01 01 78    	mov.w     w1, w2
     70c:	82 01 78    	mov.w     w2, w3
     70e:	00 9c be    	mov.d     w0, [w8++]
     710:	02 94 be    	mov.d     w2, [w8--]
     712:	78 00 90    	mov.w     [w8+14], w0
     714:	00 00 45    	add.w     w10, w0, w0
     716:	60 04 98    	mov.w     w0, [w8+12]
     718:	81 c7 b3    	mov.b     #0x78, w1

0000071a <.L76>:
     71a:	08 00 78    	mov.w     w8, w0
     71c:	ee 00 07    	rcall     0x8fa <__Litob>
     71e:	1f 00 37    	bra       0x75e <.L13>

00000720 <.L4>:
     720:	14 80 e9    	dec2.w    [w4], w0
     722:	00 0a 78    	mov.w     w0, [w4]
     724:	10 00 78    	mov.w     [w0], w0
     726:	60 04 98    	mov.w     w0, [w8+12]
     728:	58 09 90    	mov.w     [w8+26], w2
     72a:	02 00 e0    	cp0.w     w2
     72c:	02 00 3d    	bra       GE, 0x732 <.L62>
     72e:	6e 02 07    	rcall     0xc0c <_strlen>
     730:	09 00 37    	bra       0x744 <.L64>

00000732 <.L62>:
     732:	80 00 eb    	clr.w     w1
     734:	72 02 07    	rcall     0xc1a <_memchr>
     736:	80 00 78    	mov.w     w0, w1
     738:	00 00 e0    	cp0.w     w0
     73a:	03 00 32    	bra       Z, 0x742 <.L65>
     73c:	68 00 90    	mov.w     [w8+12], w0
     73e:	00 80 50    	sub.w     w1, w0, w0
     740:	01 00 37    	bra       0x744 <.L64>

00000742 <.L65>:
     742:	58 08 90    	mov.w     [w8+26], w0

00000744 <.L64>:
     744:	10 0c 98    	mov.w     w0, [w8+18]
     746:	0b 00 37    	bra       0x75e <.L13>

00000748 <.L3>:
     748:	78 00 90    	mov.w     [w8+14], w0
     74a:	02 75 78    	mov.b     w2, [w10+w0]
     74c:	06 00 37    	bra       0x75a <.L75>

0000074e <.L2>:
     74e:	78 00 90    	mov.w     [w8+14], w0
     750:	80 00 45    	add.w     w10, w0, w1
     752:	09 04 e0    	cp0.b     w9
     754:	01 00 3a    	bra       NZ, 0x758 <.L67>
     756:	59 c2 b3    	mov.b     #0x25, w9

00000758 <.L67>:
     758:	89 48 78    	mov.b     w9, [w1]

0000075a <.L75>:
     75a:	00 00 e8    	inc.w     w0, w0
     75c:	70 04 98    	mov.w     w0, [w8+14]

0000075e <.L13>:
     75e:	00 00 eb    	clr.w     w0
     760:	4f 05 78    	mov.w     [--w15], w10
     762:	4f 04 be    	mov.d     [--w15], w8
     764:	00 00 06    	return    

00000766 <__Puttxt>:
     766:	04 00 fa    	lnk       #0x4
     768:	88 9f be    	mov.d     w8, [w15++]
     76a:	8a 9f be    	mov.d     w10, [w15++]
     76c:	8c 1f 78    	mov.w     w12, [w15++]
     76e:	00 04 78    	mov.w     w0, w8
     770:	01 06 78    	mov.w     w1, w12
     772:	70 08 90    	mov.w     [w0+30], w0
     774:	f8 00 90    	mov.w     [w8+14], w1
     776:	01 00 50    	sub.w     w0, w1, w0
     778:	88 08 90    	mov.w     [w8+16], w1
     77a:	01 00 50    	sub.w     w0, w1, w0
     77c:	98 08 90    	mov.w     [w8+18], w1
     77e:	01 00 50    	sub.w     w0, w1, w0
     780:	a8 08 90    	mov.w     [w8+20], w1
     782:	01 00 50    	sub.w     w0, w1, w0
     784:	b8 08 90    	mov.w     [w8+22], w1
     786:	01 00 50    	sub.w     w0, w1, w0
     788:	c8 08 90    	mov.w     [w8+24], w1
     78a:	81 05 50    	sub.w     w0, w1, w11
     78c:	00 02 22    	mov.w     #0x2020, w0
     78e:	90 bf 9f    	mov.w     w0, [w15-14]
     790:	00 03 23    	mov.w     #0x3030, w0
     792:	a0 bf 9f    	mov.w     w0, [w15-12]
     794:	08 10 90    	mov.w     [w8+32], w0
     796:	00 28 a3    	btst.z    w0, #0x2
     798:	18 00 3a    	bra       NZ, 0x7ca <.L2>
     79a:	0b 00 e0    	cp0.w     w11
     79c:	16 00 34    	bra       LE, 0x7ca <.L2>
     79e:	8b 04 78    	mov.w     w11, w9

000007a0 <.L5>:
     7a0:	09 05 78    	mov.w     w9, w10
     7a2:	e2 8f 54    	sub.w     w9, #0x2, [w15]
     7a4:	02 00 36    	bra       LEU, 0x7aa <.L6>
     7a6:	2a 00 20    	mov.w     #0x2, w10
     7a8:	02 00 37    	bra       0x7ae <.L48>

000007aa <.L6>:
     7aa:	09 00 e0    	cp0.w     w9
     7ac:	0b 00 34    	bra       LE, 0x7c4 <.L7>

000007ae <.L48>:
     7ae:	58 00 90    	mov.w     [w8+10], w0
     7b0:	c8 01 90    	mov.w     [w8+8], w3
     7b2:	0a 01 78    	mov.w     w10, w2
     7b4:	ee 80 57    	sub.w     w15, #0xe, w1
     7b6:	03 00 01    	call      w3
     7b8:	50 04 98    	mov.w     w0, [w8+10]
     7ba:	00 00 e0    	cp0.w     w0
     7bc:	96 00 32    	bra       Z, 0x8ea <.L9>
     7be:	68 08 90    	mov.w     [w8+28], w0
     7c0:	00 00 45    	add.w     w10, w0, w0
     7c2:	60 0c 98    	mov.w     w0, [w8+28]

000007c4 <.L7>:
     7c4:	8a 84 54    	sub.w     w9, w10, w9
     7c6:	42 40 a9    	bclr.b    0x42, #0x2
     7c8:	eb ff 3c    	bra       GT, 0x7a0 <.L5>

000007ca <.L2>:
     7ca:	78 01 90    	mov.w     [w8+14], w2
     7cc:	02 00 e0    	cp0.w     w2
     7ce:	0b 00 34    	bra       LE, 0x7e6 <.L11>
     7d0:	58 00 90    	mov.w     [w8+10], w0
     7d2:	c8 01 90    	mov.w     [w8+8], w3
     7d4:	8c 00 78    	mov.w     w12, w1
     7d6:	03 00 01    	call      w3
     7d8:	50 04 98    	mov.w     w0, [w8+10]
     7da:	00 00 e0    	cp0.w     w0
     7dc:	86 00 32    	bra       Z, 0x8ea <.L9>
     7de:	68 08 90    	mov.w     [w8+28], w0
     7e0:	f8 00 90    	mov.w     [w8+14], w1
     7e2:	01 00 40    	add.w     w0, w1, w0
     7e4:	60 0c 98    	mov.w     w0, [w8+28]

000007e6 <.L11>:
     7e6:	88 0c 90    	mov.w     [w8+16], w9
     7e8:	09 00 e0    	cp0.w     w9
     7ea:	15 00 34    	bra       LE, 0x816 <.L14>

000007ec <.L53>:
     7ec:	09 05 78    	mov.w     w9, w10
     7ee:	e2 8f 54    	sub.w     w9, #0x2, [w15]
     7f0:	02 00 36    	bra       LEU, 0x7f6 <.L16>
     7f2:	2a 00 20    	mov.w     #0x2, w10
     7f4:	02 00 37    	bra       0x7fa <.L49>

000007f6 <.L16>:
     7f6:	09 00 e0    	cp0.w     w9
     7f8:	0b 00 34    	bra       LE, 0x810 <.L17>

000007fa <.L49>:
     7fa:	58 00 90    	mov.w     [w8+10], w0
     7fc:	c8 01 90    	mov.w     [w8+8], w3
     7fe:	0a 01 78    	mov.w     w10, w2
     800:	ec 80 57    	sub.w     w15, #0xc, w1
     802:	03 00 01    	call      w3
     804:	50 04 98    	mov.w     w0, [w8+10]
     806:	00 00 e0    	cp0.w     w0
     808:	70 00 32    	bra       Z, 0x8ea <.L9>
     80a:	68 08 90    	mov.w     [w8+28], w0
     80c:	00 00 45    	add.w     w10, w0, w0
     80e:	60 0c 98    	mov.w     w0, [w8+28]

00000810 <.L17>:
     810:	8a 84 54    	sub.w     w9, w10, w9
     812:	42 40 a9    	bclr.b    0x42, #0x2
     814:	eb ff 3c    	bra       GT, 0x7ec <.L53>

00000816 <.L14>:
     816:	18 09 90    	mov.w     [w8+18], w2
     818:	02 00 e0    	cp0.w     w2
     81a:	0b 00 34    	bra       LE, 0x832 <.L20>
     81c:	e8 00 90    	mov.w     [w8+12], w1
     81e:	58 00 90    	mov.w     [w8+10], w0
     820:	c8 01 90    	mov.w     [w8+8], w3
     822:	03 00 01    	call      w3
     824:	50 04 98    	mov.w     w0, [w8+10]
     826:	00 00 e0    	cp0.w     w0
     828:	60 00 32    	bra       Z, 0x8ea <.L9>
     82a:	68 08 90    	mov.w     [w8+28], w0
     82c:	98 08 90    	mov.w     [w8+18], w1
     82e:	01 00 40    	add.w     w0, w1, w0
     830:	60 0c 98    	mov.w     w0, [w8+28]

00000832 <.L20>:
     832:	a8 0c 90    	mov.w     [w8+20], w9
     834:	09 00 e0    	cp0.w     w9
     836:	15 00 34    	bra       LE, 0x862 <.L23>

00000838 <.L54>:
     838:	09 05 78    	mov.w     w9, w10
     83a:	e2 8f 54    	sub.w     w9, #0x2, [w15]
     83c:	02 00 36    	bra       LEU, 0x842 <.L25>
     83e:	2a 00 20    	mov.w     #0x2, w10
     840:	02 00 37    	bra       0x846 <.L50>

00000842 <.L25>:
     842:	09 00 e0    	cp0.w     w9
     844:	0b 00 34    	bra       LE, 0x85c <.L26>

00000846 <.L50>:
     846:	58 00 90    	mov.w     [w8+10], w0
     848:	c8 01 90    	mov.w     [w8+8], w3
     84a:	0a 01 78    	mov.w     w10, w2
     84c:	ec 80 57    	sub.w     w15, #0xc, w1
     84e:	03 00 01    	call      w3
     850:	50 04 98    	mov.w     w0, [w8+10]
     852:	00 00 e0    	cp0.w     w0
     854:	4a 00 32    	bra       Z, 0x8ea <.L9>
     856:	68 08 90    	mov.w     [w8+28], w0
     858:	00 00 45    	add.w     w10, w0, w0
     85a:	60 0c 98    	mov.w     w0, [w8+28]

0000085c <.L26>:
     85c:	8a 84 54    	sub.w     w9, w10, w9
     85e:	42 40 a9    	bclr.b    0x42, #0x2
     860:	eb ff 3c    	bra       GT, 0x838 <.L54>

00000862 <.L23>:
     862:	38 09 90    	mov.w     [w8+22], w2
     864:	02 00 e0    	cp0.w     w2
     866:	0d 00 34    	bra       LE, 0x882 <.L29>
     868:	e8 00 90    	mov.w     [w8+12], w1
     86a:	18 08 90    	mov.w     [w8+18], w0
     86c:	80 80 40    	add.w     w1, w0, w1
     86e:	58 00 90    	mov.w     [w8+10], w0
     870:	c8 01 90    	mov.w     [w8+8], w3
     872:	03 00 01    	call      w3
     874:	50 04 98    	mov.w     w0, [w8+10]
     876:	00 00 e0    	cp0.w     w0
     878:	38 00 32    	bra       Z, 0x8ea <.L9>
     87a:	68 08 90    	mov.w     [w8+28], w0
     87c:	b8 08 90    	mov.w     [w8+22], w1
     87e:	01 00 40    	add.w     w0, w1, w0
     880:	60 0c 98    	mov.w     w0, [w8+28]

00000882 <.L29>:
     882:	c8 0c 90    	mov.w     [w8+24], w9
     884:	09 00 e0    	cp0.w     w9
     886:	15 00 34    	bra       LE, 0x8b2 <.L32>

00000888 <.L55>:
     888:	09 05 78    	mov.w     w9, w10
     88a:	e2 8f 54    	sub.w     w9, #0x2, [w15]
     88c:	02 00 36    	bra       LEU, 0x892 <.L34>
     88e:	2a 00 20    	mov.w     #0x2, w10
     890:	02 00 37    	bra       0x896 <.L51>

00000892 <.L34>:
     892:	09 00 e0    	cp0.w     w9
     894:	0b 00 34    	bra       LE, 0x8ac <.L35>

00000896 <.L51>:
     896:	58 00 90    	mov.w     [w8+10], w0
     898:	c8 01 90    	mov.w     [w8+8], w3
     89a:	0a 01 78    	mov.w     w10, w2
     89c:	ec 80 57    	sub.w     w15, #0xc, w1
     89e:	03 00 01    	call      w3
     8a0:	50 04 98    	mov.w     w0, [w8+10]
     8a2:	00 00 e0    	cp0.w     w0
     8a4:	22 00 32    	bra       Z, 0x8ea <.L9>
     8a6:	68 08 90    	mov.w     [w8+28], w0
     8a8:	00 00 45    	add.w     w10, w0, w0
     8aa:	60 0c 98    	mov.w     w0, [w8+28]

000008ac <.L35>:
     8ac:	8a 84 54    	sub.w     w9, w10, w9
     8ae:	42 40 a9    	bclr.b    0x42, #0x2
     8b0:	eb ff 3c    	bra       GT, 0x888 <.L55>

000008b2 <.L32>:
     8b2:	08 10 90    	mov.w     [w8+32], w0
     8b4:	00 28 a3    	btst.z    w0, #0x2
     8b6:	1b 00 32    	bra       Z, 0x8ee <.L38>
     8b8:	0b 00 e0    	cp0.w     w11
     8ba:	19 00 34    	bra       LE, 0x8ee <.L38>
     8bc:	8b 04 78    	mov.w     w11, w9

000008be <.L41>:
     8be:	09 05 78    	mov.w     w9, w10
     8c0:	e2 8f 54    	sub.w     w9, #0x2, [w15]
     8c2:	02 00 36    	bra       LEU, 0x8c8 <.L42>
     8c4:	2a 00 20    	mov.w     #0x2, w10
     8c6:	02 00 37    	bra       0x8cc <.L52>

000008c8 <.L42>:
     8c8:	09 00 e0    	cp0.w     w9
     8ca:	0b 00 34    	bra       LE, 0x8e2 <.L43>

000008cc <.L52>:
     8cc:	58 00 90    	mov.w     [w8+10], w0
     8ce:	c8 01 90    	mov.w     [w8+8], w3
     8d0:	0a 01 78    	mov.w     w10, w2
     8d2:	ee 80 57    	sub.w     w15, #0xe, w1
     8d4:	03 00 01    	call      w3
     8d6:	50 04 98    	mov.w     w0, [w8+10]
     8d8:	00 00 e0    	cp0.w     w0
     8da:	07 00 32    	bra       Z, 0x8ea <.L9>
     8dc:	68 08 90    	mov.w     [w8+28], w0
     8de:	00 00 45    	add.w     w10, w0, w0
     8e0:	60 0c 98    	mov.w     w0, [w8+28]

000008e2 <.L43>:
     8e2:	8a 84 54    	sub.w     w9, w10, w9
     8e4:	42 40 a9    	bclr.b    0x42, #0x2
     8e6:	03 00 34    	bra       LE, 0x8ee <.L38>
     8e8:	ea ff 37    	bra       0x8be <.L41>

000008ea <.L9>:
     8ea:	00 80 eb    	setm.w    w0
     8ec:	01 00 37    	bra       0x8f0 <.L46>

000008ee <.L38>:
     8ee:	00 00 eb    	clr.w     w0

000008f0 <.L46>:
     8f0:	4f 06 78    	mov.w     [--w15], w12
     8f2:	4f 05 be    	mov.d     [--w15], w10
     8f4:	4f 04 be    	mov.d     [--w15], w8
     8f6:	00 80 fa    	ulnk      
     8f8:	00 00 06    	return    

000008fa <__Litob>:
     8fa:	2f 03 b0    	add.w     #0x32, w15
     8fc:	88 9f be    	mov.d     w8, [w15++]
     8fe:	8a 9f be    	mov.d     w10, [w15++]
     900:	8c 9f be    	mov.d     w12, [w15++]
     902:	8e 1f 78    	mov.w     w14, [w15++]
     904:	00 07 78    	mov.w     w0, w14
     906:	d0 7d 21    	mov.w     #0x17dd, w0
     908:	c0 b7 9f    	mov.w     w0, [w15-24]
     90a:	80 c5 b3    	mov.b     #0x58, w0
     90c:	80 cf 50    	sub.b     w1, w0, [w15]
     90e:	08 00 32    	bra       Z, 0x920 <.L4>
     910:	c2 7c 21    	mov.w     #0x17cc, w2
     912:	c2 b7 9f    	mov.w     w2, [w15-24]
     914:	77 40 40    	add.b     w0, #0x17, w0
     916:	80 cf 50    	sub.b     w1, w0, [w15]
     918:	03 00 3a    	bra       NZ, 0x920 <.L4>
     91a:	83 00 20    	mov.w     #0x8, w3
     91c:	b3 b7 9f    	mov.w     w3, [w15-26]
     91e:	0a 00 37    	bra       0x934 <.L7>

00000920 <.L4>:
     920:	80 c7 b3    	mov.b     #0x78, w0
     922:	80 cf 50    	sub.b     w1, w0, [w15]
     924:	05 00 32    	bra       Z, 0x930 <.L8>
     926:	a4 00 20    	mov.w     #0xa, w4
     928:	b4 b7 9f    	mov.w     w4, [w15-26]
     92a:	80 c5 b3    	mov.b     #0x58, w0
     92c:	80 cf 50    	sub.b     w1, w0, [w15]
     92e:	02 00 3a    	bra       NZ, 0x934 <.L7>

00000930 <.L8>:
     930:	05 01 20    	mov.w     #0x10, w5
     932:	b5 b7 9f    	mov.w     w5, [w15-26]

00000934 <.L7>:
     934:	3e 04 be    	mov.d     [w14++], w8
     936:	2e 05 be    	mov.d     [w14--], w10
     938:	40 c6 b3    	mov.b     #0x64, w0
     93a:	80 cf 50    	sub.b     w1, w0, [w15]
     93c:	03 00 32    	bra       Z, 0x944 <.L11>
     93e:	65 40 40    	add.b     w0, #0x5, w0
     940:	80 cf 50    	sub.b     w1, w0, [w15]
     942:	0b 00 3a    	bra       NZ, 0x95a <.L13>

00000944 <.L11>:
     944:	e0 0f 54    	sub.w     w8, #0x0, [w15]
     946:	e0 8f 5c    	subb.w    w9, #0x0, [w15]
     948:	e0 0f 5d    	subb.w    w10, #0x0, [w15]
     94a:	e0 8f 5d    	subb.w    w11, #0x0, [w15]
     94c:	06 00 3d    	bra       GE, 0x95a <.L13>
     94e:	60 00 b8    	mul.uu    w0, #0x0, w0
     950:	60 11 b8    	mul.uu    w2, #0x0, w2
     952:	08 04 50    	sub.w     w0, w8, w8
     954:	89 84 58    	subb.w    w1, w9, w9
     956:	0a 05 59    	subb.w    w2, w10, w10
     958:	8b 85 59    	subb.w    w3, w11, w11

0000095a <.L13>:
     95a:	bf b3 97    	mov.w     [w15-26], w7
     95c:	e8 8f 53    	sub.w     w7, #0x8, [w15]
     95e:	03 00 32    	bra       Z, 0x966 <.L16>
     960:	f0 8f 53    	sub.w     w7, #0x10, [w15]
     962:	45 00 3a    	bra       NZ, 0x9ee <.L66>
     964:	02 00 37    	bra       0x96a <.L17>

00000966 <.L16>:
     966:	36 00 20    	mov.w     #0x3, w6
     968:	01 00 37    	bra       0x96c <.L18>

0000096a <.L17>:
     96a:	46 00 20    	mov.w     #0x4, w6

0000096c <.L18>:
     96c:	e0 0f 54    	sub.w     w8, #0x0, [w15]
     96e:	e0 8f 5c    	subb.w    w9, #0x0, [w15]
     970:	e0 0f 5d    	subb.w    w10, #0x0, [w15]
     972:	e0 8f 5d    	subb.w    w11, #0x0, [w15]
     974:	05 00 3a    	bra       NZ, 0x980 <.L19>
     976:	5e 08 90    	mov.w     [w14+26], w0
     978:	81 01 20    	mov.w     #0x18, w1
     97a:	a1 b7 9f    	mov.w     w1, [w15-28]
     97c:	00 00 e0    	cp0.w     w0
     97e:	08 00 32    	bra       Z, 0x990 <.L22>

00000980 <.L19>:
     980:	3f b1 97    	mov.w     [w15-26], w2
     982:	02 00 e9    	dec.w     w2, w0
     984:	08 00 60    	and.w     w0, w8, w0
     986:	cf b1 97    	mov.w     [w15-24], w3
     988:	63 40 78    	mov.b     [w3+w0], w0
     98a:	90 df 9f    	mov.b     w0, [w15-39]
     98c:	74 01 20    	mov.w     #0x17, w4
     98e:	a4 b7 9f    	mov.w     w4, [w15-28]

00000990 <.L22>:
     990:	86 02 78    	mov.w     w6, w5

00000992 <.LB102>:
     992:	85 02 e9    	dec.w     w5, w5
     994:	05 00 33    	bra       N, 0x9a0 <.LE102>
     996:	8b 05 d1    	lsr.w     w11, w11
     998:	0a 85 d3    	rrc.w     w10, w10
     99a:	89 84 d3    	rrc.w     w9, w9
     99c:	08 84 d3    	rrc.w     w8, w8
     99e:	f9 ff 37    	bra       0x992 <.LB102>

000009a0 <.LE102>:
     9a0:	08 9f be    	mov.d     w8, [w14++]
     9a2:	0a 97 be    	mov.d     w10, [w14--]
     9a4:	af b3 97    	mov.w     [w15-28], w7
     9a6:	07 00 e9    	dec.w     w7, w0
     9a8:	21 fc 2f    	mov.w     #0xffc2, w1
     9aa:	8f 80 40    	add.w     w1, w15, w1
     9ac:	00 82 40    	add.w     w1, w0, w4
     9ae:	3f b1 97    	mov.w     [w15-26], w2
     9b0:	82 02 e9    	dec.w     w2, w5
     9b2:	12 00 37    	bra       0x9d8 <.L23>

000009b4 <.L24>:
     9b4:	af b3 97    	mov.w     [w15-28], w7
     9b6:	87 03 e9    	dec.w     w7, w7
     9b8:	a7 b7 9f    	mov.w     w7, [w15-28]
     9ba:	00 80 62    	and.w     w5, w0, w0
     9bc:	cf b0 97    	mov.w     [w15-24], w1
     9be:	61 52 78    	mov.b     [w1+w0], [w4--]
     9c0:	3e 00 be    	mov.d     [w14++], w0
     9c2:	2e 01 be    	mov.d     [w14--], w2
     9c4:	86 03 78    	mov.w     w6, w7

000009c6 <.LB124>:
     9c6:	87 03 e9    	dec.w     w7, w7
     9c8:	05 00 33    	bra       N, 0x9d4 <.LE124>
     9ca:	83 81 d1    	asr.w     w3, w3
     9cc:	02 81 d3    	rrc.w     w2, w2
     9ce:	81 80 d3    	rrc.w     w1, w1
     9d0:	00 80 d3    	rrc.w     w0, w0
     9d2:	f9 ff 37    	bra       0x9c6 <.LB124>

000009d4 <.LE124>:
     9d4:	00 9f be    	mov.d     w0, [w14++]
     9d6:	02 97 be    	mov.d     w2, [w14--]

000009d8 <.L23>:
     9d8:	3e 00 be    	mov.d     [w14++], w0
     9da:	2e 01 be    	mov.d     [w14--], w2
     9dc:	e0 0f 50    	sub.w     w0, #0x0, [w15]
     9de:	e0 8f 58    	subb.w    w1, #0x0, [w15]
     9e0:	e0 0f 59    	subb.w    w2, #0x0, [w15]
     9e2:	e0 8f 59    	subb.w    w3, #0x0, [w15]
     9e4:	d6 00 34    	bra       LE, 0xb92 <.L25>
     9e6:	af b3 97    	mov.w     [w15-28], w7
     9e8:	07 00 e0    	cp0.w     w7
     9ea:	e4 ff 3c    	bra       GT, 0x9b4 <.L24>
     9ec:	d2 00 37    	bra       0xb92 <.L25>

000009ee <.L66>:
     9ee:	ae 60 90    	mov.b     [w14+34], w1
     9f0:	80 c6 b3    	mov.b     #0x68, w0
     9f2:	80 cf 50    	sub.b     w1, w0, [w15]
     9f4:	0b 00 32    	bra       Z, 0xa0c <.L28>
     9f6:	06 00 3c    	bra       GT, 0xa04 <.L30>
     9f8:	01 04 e0    	cp0.b     w1
     9fa:	08 00 32    	bra       Z, 0xa0c <.L28>
     9fc:	66 40 50    	sub.b     w0, #0x6, w0
     9fe:	80 cf 50    	sub.b     w1, w0, [w15]
     a00:	73 00 3a    	bra       NZ, 0xae8 <.L27>
     a02:	04 00 37    	bra       0xa0c <.L28>

00000a04 <.L30>:
     a04:	c0 c6 b3    	mov.b     #0x6c, w0
     a06:	80 cf 50    	sub.b     w1, w0, [w15]
     a08:	6f 00 3a    	bra       NZ, 0xae8 <.L27>
     a0a:	31 00 37    	bra       0xa6e <.L29>

00000a0c <.L28>:
     a0c:	08 01 78    	mov.w     w8, w2
     a0e:	08 00 e0    	cp0.w     w8
     a10:	05 00 3a    	bra       NZ, 0xa1c <.L31>
     a12:	5e 08 90    	mov.w     [w14+26], w0
     a14:	81 01 20    	mov.w     #0x18, w1
     a16:	a1 b7 9f    	mov.w     w1, [w15-28]
     a18:	00 00 e0    	cp0.w     w0
     a1a:	09 00 32    	bra       Z, 0xa2e <.L34>

00000a1c <.L31>:
     a1c:	bf b1 97    	mov.w     [w15-26], w3
     a1e:	11 00 09    	repeat    #0x11
     a20:	03 81 d8    	div.uw    w2, w3
     a22:	80 00 fd    	exch      w0, w1
     a24:	4f b2 97    	mov.w     [w15-24], w4
     a26:	64 40 78    	mov.b     [w4+w0], w0
     a28:	90 df 9f    	mov.b     w0, [w15-39]
     a2a:	75 01 20    	mov.w     #0x17, w5
     a2c:	a5 b7 9f    	mov.w     w5, [w15-28]

00000a2e <.L34>:
     a2e:	bf b3 97    	mov.w     [w15-26], w7
     a30:	11 00 09    	repeat    #0x11
     a32:	07 81 d8    	div.uw    w2, w7
     a34:	80 01 78    	mov.w     w0, w3
     a36:	af b0 97    	mov.w     [w15-28], w1
     a38:	01 00 e9    	dec.w     w1, w0
     a3a:	22 fc 2f    	mov.w     #0xffc2, w2
     a3c:	0f 01 41    	add.w     w2, w15, w2
     a3e:	00 02 41    	add.w     w2, w0, w4
     a40:	0c 00 37    	bra       0xa5a <.L35>

00000a42 <.L36>:
     a42:	bf b2 97    	mov.w     [w15-26], w5
     a44:	11 00 09    	repeat    #0x11
     a46:	85 01 d8    	div.sw    w3, w5
     a48:	00 01 78    	mov.w     w0, w2
     a4a:	af b3 97    	mov.w     [w15-28], w7
     a4c:	87 03 e9    	dec.w     w7, w7
     a4e:	a7 b7 9f    	mov.w     w7, [w15-28]
     a50:	05 90 b9    	mul.ss    w2, w5, w0
     a52:	00 80 51    	sub.w     w3, w0, w0
     a54:	cf b0 97    	mov.w     [w15-24], w1
     a56:	61 52 78    	mov.b     [w1+w0], [w4--]
     a58:	82 01 78    	mov.w     w2, w3

00000a5a <.L35>:
     a5a:	03 00 e0    	cp0.w     w3
     a5c:	03 00 34    	bra       LE, 0xa64 <.L37>
     a5e:	2f b1 97    	mov.w     [w15-28], w2
     a60:	02 00 e0    	cp0.w     w2
     a62:	ef ff 3c    	bra       GT, 0xa42 <.L36>

00000a64 <.L37>:
     a64:	03 00 78    	mov.w     w3, w0
     a66:	cf 80 de    	asr.w     w0, #0xf, w1
     a68:	01 01 78    	mov.w     w1, w2
     a6a:	82 01 78    	mov.w     w2, w3
     a6c:	3a 00 37    	bra       0xae2 <.L67>

00000a6e <.L29>:
     a6e:	08 06 be    	mov.d     w8, w12
     a70:	e0 0f 54    	sub.w     w8, #0x0, [w15]
     a72:	e0 8f 5c    	subb.w    w9, #0x0, [w15]
     a74:	05 00 3a    	bra       NZ, 0xa80 <.L39>
     a76:	5e 08 90    	mov.w     [w14+26], w0
     a78:	83 01 20    	mov.w     #0x18, w3
     a7a:	a3 b7 9f    	mov.w     w3, [w15-28]
     a7c:	00 00 e0    	cp0.w     w0
     a7e:	09 00 32    	bra       Z, 0xa92 <.L42>

00000a80 <.L39>:
     a80:	3f b2 97    	mov.w     [w15-26], w4
     a82:	61 21 b9    	mul.su    w4, #0x1, w2
     a84:	0c 00 be    	mov.d     w12, w0
     a86:	a5 02 07    	rcall     0xfd2 <___umodsi3>
     a88:	cf b2 97    	mov.w     [w15-24], w5
     a8a:	65 40 78    	mov.b     [w5+w0], w0
     a8c:	90 df 9f    	mov.b     w0, [w15-39]
     a8e:	77 01 20    	mov.w     #0x17, w7
     a90:	a7 b7 9f    	mov.w     w7, [w15-28]

00000a92 <.L42>:
     a92:	3f b2 97    	mov.w     [w15-26], w4
     a94:	61 21 b9    	mul.su    w4, #0x1, w2
     a96:	0c 00 be    	mov.d     w12, w0
     a98:	5f 01 07    	rcall     0xd58 <___udivsi3>
     a9a:	00 06 be    	mov.d     w0, w12
     a9c:	af b2 97    	mov.w     [w15-28], w5
     a9e:	05 00 e9    	dec.w     w5, w0
     aa0:	27 fc 2f    	mov.w     #0xffc2, w7
     aa2:	8f 83 43    	add.w     w7, w15, w7
     aa4:	80 83 43    	add.w     w7, w0, w7
     aa6:	97 b7 9f    	mov.w     w7, [w15-30]
     aa8:	11 00 37    	bra       0xacc <.L43>

00000aaa <.L44>:
     aaa:	3f b1 97    	mov.w     [w15-26], w2
     aac:	61 14 b9    	mul.su    w2, #0x1, w8
     aae:	08 01 be    	mov.d     w8, w2
     ab0:	0c 00 be    	mov.d     w12, w0
     ab2:	c3 00 07    	rcall     0xc3a <___divsi3>
     ab4:	00 05 be    	mov.d     w0, w10
     ab6:	af b1 97    	mov.w     [w15-28], w3
     ab8:	83 01 e9    	dec.w     w3, w3
     aba:	a3 b7 9f    	mov.w     w3, [w15-28]
     abc:	08 01 be    	mov.d     w8, w2
     abe:	b7 00 07    	rcall     0xc2e <___mulp32eds3>
     ac0:	00 00 56    	sub.w     w12, w0, w0
     ac2:	1f b2 97    	mov.w     [w15-30], w4
     ac4:	cf b2 97    	mov.w     [w15-24], w5
     ac6:	65 52 78    	mov.b     [w5+w0], [w4--]
     ac8:	94 b7 9f    	mov.w     w4, [w15-30]
     aca:	0a 06 be    	mov.d     w10, w12

00000acc <.L43>:
     acc:	e0 0f 56    	sub.w     w12, #0x0, [w15]
     ace:	e0 8f 5e    	subb.w    w13, #0x0, [w15]
     ad0:	03 00 34    	bra       LE, 0xad8 <.L45>
     ad2:	af b3 97    	mov.w     [w15-28], w7
     ad4:	07 00 e0    	cp0.w     w7
     ad6:	e9 ff 3c    	bra       GT, 0xaaa <.L44>

00000ad8 <.L45>:
     ad8:	4f ea de    	asr.w     w13, #0xf, w4
     ada:	cf a2 de    	asr.w     w4, #0xf, w5
     adc:	0c 00 be    	mov.d     w12, w0
     ade:	04 01 78    	mov.w     w4, w2
     ae0:	84 01 78    	mov.w     w4, w3

00000ae2 <.L67>:
     ae2:	00 9f be    	mov.d     w0, [w14++]
     ae4:	02 97 be    	mov.d     w2, [w14--]
     ae6:	55 00 37    	bra       0xb92 <.L25>

00000ae8 <.L27>:
     ae8:	e0 0f 54    	sub.w     w8, #0x0, [w15]
     aea:	e0 8f 5c    	subb.w    w9, #0x0, [w15]
     aec:	e0 0f 5d    	subb.w    w10, #0x0, [w15]
     aee:	e0 8f 5d    	subb.w    w11, #0x0, [w15]
     af0:	05 00 3a    	bra       NZ, 0xafc <.L47>
     af2:	5e 08 90    	mov.w     [w14+26], w0
     af4:	81 01 20    	mov.w     #0x18, w1
     af6:	a1 b7 9f    	mov.w     w1, [w15-28]
     af8:	00 00 e0    	cp0.w     w0
     afa:	0d 00 32    	bra       Z, 0xb16 <.L50>

00000afc <.L47>:
     afc:	3f b1 97    	mov.w     [w15-26], w2
     afe:	02 02 78    	mov.w     w2, w4
     b00:	cf a2 de    	asr.w     w4, #0xf, w5
     b02:	05 03 78    	mov.w     w5, w6
     b04:	86 03 78    	mov.w     w6, w7
     b06:	08 00 be    	mov.d     w8, w0
     b08:	0a 01 be    	mov.d     w10, w2
     b0a:	e7 02 07    	rcall     0x10da <___umoddi3>
     b0c:	4f b2 97    	mov.w     [w15-24], w4
     b0e:	64 40 78    	mov.b     [w4+w0], w0
     b10:	90 df 9f    	mov.b     w0, [w15-39]
     b12:	75 01 20    	mov.w     #0x17, w5
     b14:	a5 b7 9f    	mov.w     w5, [w15-28]

00000b16 <.L50>:
     b16:	3f b1 97    	mov.w     [w15-26], w2
     b18:	02 02 78    	mov.w     w2, w4
     b1a:	cf a2 de    	asr.w     w4, #0xf, w5
     b1c:	05 03 78    	mov.w     w5, w6
     b1e:	86 03 78    	mov.w     w6, w7
     b20:	08 00 be    	mov.d     w8, w0
     b22:	0a 01 be    	mov.d     w10, w2
     b24:	d3 02 07    	rcall     0x10cc <___udivdi3>
     b26:	00 9f be    	mov.d     w0, [w14++]
     b28:	02 97 be    	mov.d     w2, [w14--]
     b2a:	af b1 97    	mov.w     [w15-28], w3
     b2c:	03 00 e9    	dec.w     w3, w0
     b2e:	24 fc 2f    	mov.w     #0xffc2, w4
     b30:	0f 02 42    	add.w     w4, w15, w4
     b32:	00 06 42    	add.w     w4, w0, w12
     b34:	20 00 37    	bra       0xb76 <.L51>

00000b36 <.L52>:
     b36:	bf b2 97    	mov.w     [w15-26], w5
     b38:	05 04 78    	mov.w     w5, w8
     b3a:	cf c4 de    	asr.w     w8, #0xf, w9
     b3c:	09 05 78    	mov.w     w9, w10
     b3e:	8a 05 78    	mov.w     w10, w11
     b40:	08 02 be    	mov.d     w8, w4
     b42:	0a 03 be    	mov.d     w10, w6
     b44:	5f a8 97    	mov.w     [w15-38], w0
     b46:	ef a8 97    	mov.w     [w15-36], w1
     b48:	7f a9 97    	mov.w     [w15-34], w2
     b4a:	8f b1 97    	mov.w     [w15-32], w3
     b4c:	ca 02 07    	rcall     0x10e2 <___divdi3>
     b4e:	d0 b7 9f    	mov.w     w0, [w15-22]
     b50:	e1 b7 9f    	mov.w     w1, [w15-20]
     b52:	f2 b7 9f    	mov.w     w2, [w15-18]
     b54:	83 bf 9f    	mov.w     w3, [w15-16]
     b56:	af b3 97    	mov.w     [w15-28], w7
     b58:	87 03 e9    	dec.w     w7, w7
     b5a:	a7 b7 9f    	mov.w     w7, [w15-28]
     b5c:	08 02 be    	mov.d     w8, w4
     b5e:	0a 03 be    	mov.d     w10, w6
     b60:	46 03 07    	rcall     0x11ee <___muldi3>
     b62:	5f aa 97    	mov.w     [w15-38], w4
     b64:	00 00 52    	sub.w     w4, w0, w0
     b66:	cf b2 97    	mov.w     [w15-24], w5
     b68:	65 56 78    	mov.b     [w5+w0], [w12--]
     b6a:	5f b0 97    	mov.w     [w15-22], w0
     b6c:	ef b0 97    	mov.w     [w15-20], w1
     b6e:	7f b1 97    	mov.w     [w15-18], w2
     b70:	8f b9 97    	mov.w     [w15-16], w3
     b72:	00 9f be    	mov.d     w0, [w14++]
     b74:	02 97 be    	mov.d     w2, [w14--]

00000b76 <.L51>:
     b76:	3e 00 be    	mov.d     [w14++], w0
     b78:	2e 01 be    	mov.d     [w14--], w2
     b7a:	d0 af 9f    	mov.w     w0, [w15-38]
     b7c:	e1 af 9f    	mov.w     w1, [w15-36]
     b7e:	f2 af 9f    	mov.w     w2, [w15-34]
     b80:	83 b7 9f    	mov.w     w3, [w15-32]
     b82:	e0 0f 50    	sub.w     w0, #0x0, [w15]
     b84:	e0 8f 58    	subb.w    w1, #0x0, [w15]
     b86:	e0 0f 59    	subb.w    w2, #0x0, [w15]
     b88:	e0 8f 59    	subb.w    w3, #0x0, [w15]
     b8a:	03 00 34    	bra       LE, 0xb92 <.L25>
     b8c:	af b0 97    	mov.w     [w15-28], w1
     b8e:	01 00 e0    	cp0.w     w1
     b90:	d2 ff 3c    	bra       GT, 0xb36 <.L52>

00000b92 <.L25>:
     b92:	3f b1 97    	mov.w     [w15-26], w2
     b94:	e8 0f 51    	sub.w     w2, #0x8, [w15]
     b96:	13 00 3a    	bra       NZ, 0xbbe <.L54>
     b98:	0e 10 90    	mov.w     [w14+32], w0
     b9a:	00 38 a3    	btst.z    w0, #0x3
     b9c:	10 00 32    	bra       Z, 0xbbe <.L54>
     b9e:	af b1 97    	mov.w     [w15-28], w3
     ba0:	f7 8f 51    	sub.w     w3, #0x17, [w15]
     ba2:	06 00 3e    	bra       GTU, 0xbb0 <.L57>
     ba4:	24 fc 2f    	mov.w     #0xffc2, w4
     ba6:	0f 02 42    	add.w     w4, w15, w4
     ba8:	83 00 42    	add.w     w4, w3, w1
     baa:	00 c3 b3    	mov.b     #0x30, w0
     bac:	91 4f 10    	subr.b    w0, [w1], [w15]
     bae:	07 00 32    	bra       Z, 0xbbe <.L54>

00000bb0 <.L57>:
     bb0:	af b2 97    	mov.w     [w15-28], w5
     bb2:	85 02 e9    	dec.w     w5, w5
     bb4:	a5 b7 9f    	mov.w     w5, [w15-28]
     bb6:	00 c3 b3    	mov.b     #0x30, w0
     bb8:	27 fc 2f    	mov.w     #0xffc2, w7
     bba:	8f 83 43    	add.w     w7, w15, w7
     bbc:	80 f3 7a    	mov.b     w0, [w7+w5]

00000bbe <.L54>:
     bbe:	af b1 97    	mov.w     [w15-28], w3
     bc0:	78 81 11    	subr.w    w3, #0x18, w2
     bc2:	12 0f 98    	mov.w     w2, [w14+18]
     bc4:	6e 00 90    	mov.w     [w14+12], w0
     bc6:	24 fc 2f    	mov.w     #0xffc2, w4
     bc8:	0f 02 42    	add.w     w4, w15, w4
     bca:	83 00 42    	add.w     w4, w3, w1
     bcc:	bb fb 07    	rcall     0x344 <_memcpy>
     bce:	1e 09 90    	mov.w     [w14+18], w2
     bd0:	5e 08 90    	mov.w     [w14+26], w0
     bd2:	80 0f 51    	sub.w     w2, w0, [w15]
     bd4:	06 00 3d    	bra       GE, 0xbe2 <.L59>
     bd6:	02 00 50    	sub.w     w0, w2, w0
     bd8:	00 0f 98    	mov.w     w0, [w14+16]
     bda:	0e 10 90    	mov.w     [w14+32], w0
     bdc:	00 40 a1    	bclr.w    w0, #0x4
     bde:	00 17 98    	mov.w     w0, [w14+32]
     be0:	0f 00 37    	bra       0xc00 <.L65>

00000be2 <.L59>:
     be2:	00 00 e0    	cp0.w     w0
     be4:	0d 00 3d    	bra       GE, 0xc00 <.L65>
     be6:	0e 10 90    	mov.w     [w14+32], w0
     be8:	74 00 60    	and.w     w0, #0x14, w0
     bea:	f0 0f 50    	sub.w     w0, #0x10, [w15]
     bec:	09 00 3a    	bra       NZ, 0xc00 <.L65>
     bee:	7e 08 90    	mov.w     [w14+30], w0
     bf0:	fe 00 90    	mov.w     [w14+14], w1
     bf2:	01 00 50    	sub.w     w0, w1, w0
     bf4:	8e 08 90    	mov.w     [w14+16], w1
     bf6:	01 00 50    	sub.w     w0, w1, w0
     bf8:	02 00 50    	sub.w     w0, w2, w0
     bfa:	42 40 a9    	bclr.b    0x42, #0x2
     bfc:	01 00 34    	bra       LE, 0xc00 <.L65>
     bfe:	00 0f 98    	mov.w     w0, [w14+16]

00000c00 <.L65>:
     c00:	4f 07 78    	mov.w     [--w15], w14
     c02:	4f 06 be    	mov.d     [--w15], w12
     c04:	4f 05 be    	mov.d     [--w15], w10
     c06:	4f 04 be    	mov.d     [--w15], w8
     c08:	2f 03 b1    	sub.w     #0x32, w15
     c0a:	00 00 06    	return    

00000c0c <_strlen>:
     c0c:	80 00 78    	mov.w     w0, w1
     c0e:	01 00 37    	bra       0xc12 <.L2>

00000c10 <.L3>:
     c10:	00 00 e8    	inc.w     w0, w0

00000c12 <.L2>:
     c12:	10 04 e0    	cp0.b     [w0]
     c14:	fd ff 3a    	bra       NZ, 0xc10 <.L3>
     c16:	01 00 50    	sub.w     w0, w1, w0
     c18:	00 00 06    	return    

00000c1a <_memchr>:
     c1a:	80 01 eb    	clr.w     w3
     c1c:	04 00 37    	bra       0xc26 <.L2>

00000c1e <.L3>:
     c1e:	83 01 e8    	inc.w     w3, w3
     c20:	90 cf 10    	subr.b    w1, [w0], [w15]
     c22:	04 00 32    	bra       Z, 0xc2c <.L6>
     c24:	00 00 e8    	inc.w     w0, w0

00000c26 <.L2>:
     c26:	82 8f 51    	sub.w     w3, w2, [w15]
     c28:	fa ff 3a    	bra       NZ, 0xc1e <.L3>
     c2a:	00 00 eb    	clr.w     w0

00000c2c <.L6>:
     c2c:	00 00 06    	return    

00000c2e <___mulp32eds3>:
     c2e:	02 0a b9    	mul.su    w1, w2, w4
     c30:	00 1b b9    	mul.su    w3, w0, w6
     c32:	02 00 b8    	mul.uu    w0, w2, w0
     c34:	81 00 42    	add.w     w4, w1, w1
     c36:	81 00 43    	add.w     w6, w1, w1
     c38:	00 00 06    	return    

00000c3a <___divsi3>:
     c3a:	83 9f 68    	xor.w     w1, w3, [w15++]
     c3c:	01 00 e0    	cp0.w     w1
     c3e:	02 00 3d    	bra       GE, 0xc44 <divtestb>
     c40:	60 00 10    	subr.w    w0, #0x0, w0
     c42:	e0 80 18    	subbr.w   w1, #0x0, w1

00000c44 <divtestb>:
     c44:	03 00 e0    	cp0.w     w3
     c46:	02 00 3d    	bra       GE, 0xc4c <calcquot>
     c48:	60 01 11    	subr.w    w2, #0x0, w2
     c4a:	e0 81 19    	subbr.w   w3, #0x0, w3

00000c4c <calcquot>:
     c4c:	85 00 07    	rcall     0xd58 <___udivsi3>
     c4e:	4f 00 e0    	cp0.w     [--w15]
     c50:	02 00 3b    	bra       NN, 0xc56 <returnq>
     c52:	60 00 10    	subr.w    w0, #0x0, w0
     c54:	e0 80 18    	subbr.w   w1, #0x0, w1

00000c56 <returnq>:
     c56:	00 00 06    	return    

00000c58 <___floatsisf>:
     c58:	88 9f be    	mov.d     w8, [w15++]
     c5a:	8a 9f be    	mov.d     w10, [w15++]
     c5c:	01 05 78    	mov.w     w1, w10
     c5e:	01 00 e0    	cp0.w     w1
     c60:	04 00 35    	bra       LT, 0xc6a <negative>
     c62:	08 00 3c    	bra       GT, 0xc74 <notspecial>
     c64:	00 00 e0    	cp0.w     w0
     c66:	20 00 32    	bra       Z, 0xca8 <return0>
     c68:	05 00 37    	bra       0xc74 <notspecial>

00000c6a <negative>:
     c6a:	60 00 10    	subr.w    w0, #0x0, w0
     c6c:	e0 80 18    	subbr.w   w1, #0x0, w1
     c6e:	02 00 3b    	bra       NN, 0xc74 <notspecial>
     c70:	01 f0 2c    	mov.w     #0xcf00, w1
     c72:	1a 00 37    	bra       0xca8 <return0>

00000c74 <notspecial>:
     c74:	00 04 be    	mov.d     w0, w8
     c76:	60 11 b8    	mul.uu    w2, #0x0, w2
     c78:	6b 09 20    	mov.w     #0x96, w11
     c7a:	09 82 cf    	ff1l      w9, w4
     c7c:	02 00 39    	bra       NC, 0xc82 <fixshift>
     c7e:	08 82 cf    	ff1l      w8, w4
     c80:	04 41 b0    	add.b     #0x10, w4

00000c82 <fixshift>:
     c82:	69 42 52    	sub.b     w4, #0x9, w4
     c84:	0e 00 32    	bra       Z, 0xca2 <round>
     c86:	08 00 3b    	bra       NN, 0xc98 <shiftleft>

00000c88 <shiftright>:
     c88:	82 81 71    	ior.w     w3, w2, w3
     c8a:	61 01 64    	and.w     w8, #0x1, w2
     c8c:	89 04 d1    	lsr.w     w9, w9
     c8e:	08 84 d3    	rrc.w     w8, w8
     c90:	8b 05 e8    	inc.w     w11, w11
     c92:	04 42 e8    	inc.b     w4, w4
     c94:	f9 ff 3a    	bra       NZ, 0xc88 <shiftright>
     c96:	05 00 37    	bra       0xca2 <round>

00000c98 <shiftleft>:
     c98:	08 04 44    	add.w     w8, w8, w8
     c9a:	89 84 4c    	addc.w    w9, w9, w9
     c9c:	8b 05 e9    	dec.w     w11, w11
     c9e:	04 42 e9    	dec.b     w4, w4
     ca0:	fb ff 3a    	bra       NZ, 0xc98 <shiftleft>

00000ca2 <round>:
     ca2:	29 01 07    	rcall     0xef6 <__fpack>
     ca4:	0a f0 a7    	btsc.w    w10, #0xf
     ca6:	01 f0 a0    	bset.w    w1, #0xf

00000ca8 <return0>:
     ca8:	4f 05 be    	mov.d     [--w15], w10
     caa:	4f 04 be    	mov.d     [--w15], w8
     cac:	00 00 06    	return    

00000cae <___mulsf3>:
     cae:	88 9f be    	mov.d     w8, [w15++]
     cb0:	8a 9f be    	mov.d     w10, [w15++]
     cb2:	8c 1f 78    	mov.w     w12, [w15++]
     cb4:	46 01 07    	rcall     0xf42 <__funpack2>
     cb6:	4d 01 33    	bra       N, 0xf52 <__fPropagateNaN>
     cb8:	03 86 6c    	xor.w     w9, w3, w12
     cba:	64 50 e1    	cp.w      w10, #0x4
     cbc:	24 00 32    	bra       Z, 0xd06 <aisinfinite>
     cbe:	64 20 e1    	cp.w      w4, #0x4
     cc0:	27 00 32    	bra       Z, 0xd10 <bisinfinite>
     cc2:	61 50 e1    	cp.w      w10, #0x1
     cc4:	22 00 32    	bra       Z, 0xd0a <return8>
     cc6:	61 20 e1    	cp.w      w4, #0x1
     cc8:	21 00 32    	bra       Z, 0xd0c <return2>
     cca:	8b 85 42    	add.w     w5, w11, w11
     ccc:	eb 07 b1    	sub.w     #0x7e, w11
     cce:	01 34 b8    	mul.uu    w6, w1, w8
     cd0:	00 3a b8    	mul.uu    w7, w0, w4
     cd2:	08 04 42    	add.w     w4, w8, w8
     cd4:	89 84 4a    	addc.w    w5, w9, w9
     cd6:	01 3a b8    	mul.uu    w7, w1, w4
     cd8:	00 30 b8    	mul.uu    w6, w0, w0
     cda:	88 80 40    	add.w     w1, w8, w1
     cdc:	09 01 4a    	addc.w    w4, w9, w2
     cde:	04 00 33    	bra       N, 0xce8 <formsticky>
     ce0:	00 00 40    	add.w     w0, w0, w0
     ce2:	81 80 48    	addc.w    w1, w1, w1
     ce4:	02 01 49    	addc.w    w2, w2, w2
     ce6:	8b 05 e9    	dec.w     w11, w11

00000ce8 <formsticky>:
     ce8:	c9 09 dd    	sl.w      w1, #0x9, w3
     cea:	83 01 70    	ior.w     w0, w3, w3
     cec:	01 00 32    	bra       Z, 0xcf0 <formRandSig>
     cee:	13 00 20    	mov.w     #0x1, w3

00000cf0 <formRandSig>:
     cf0:	c8 14 de    	lsr.w     w2, #0x8, w9
     cf2:	48 14 dd    	sl.w      w2, #0x8, w8
     cf4:	47 09 de    	lsr.w     w1, #0x7, w2
     cf6:	12 00 b2    	and.w     #0x1, w2
     cf8:	c8 08 de    	lsr.w     w1, #0x8, w1
     cfa:	08 84 70    	ior.w     w1, w8, w8
     cfc:	fc 00 07    	rcall     0xef6 <__fpack>

00000cfe <return0>:
     cfe:	01 f0 a1    	bclr.w    w1, #0xf
     d00:	0c f0 a7    	btsc.w    w12, #0xf
     d02:	01 f0 a0    	bset.w    w1, #0xf
     d04:	2f 01 37    	bra       0xf64 <__fbopExit>

00000d06 <aisinfinite>:
     d06:	61 20 e1    	cp.w      w4, #0x1
     d08:	31 01 32    	bra       Z, 0xf6c <__fbopReturnNaN>

00000d0a <return8>:
     d0a:	08 01 be    	mov.d     w8, w2

00000d0c <return2>:
     d0c:	02 00 be    	mov.d     w2, w0
     d0e:	f7 ff 37    	bra       0xcfe <return0>

00000d10 <bisinfinite>:
     d10:	61 50 e1    	cp.w      w10, #0x1
     d12:	fc ff 3a    	bra       NZ, 0xd0c <return2>
     d14:	2b 01 37    	bra       0xf6c <__fbopReturnNaN>

00000d16 <___fixsfsi>:
     d16:	00 01 be    	mov.d     w0, w2
     d18:	2c 01 07    	rcall     0xf72 <__funpack>
     d1a:	04 70 a7    	btsc.w    w4, #0x7
     d1c:	03 f0 a1    	bclr.w    w3, #0xf
     d1e:	65 09 b1    	sub.w     #0x96, w5
     d20:	16 00 32    	bra       Z, 0xd4e <setsign>
     d22:	0d 00 35    	bra       LT, 0xd3e <shiftright>
     d24:	68 28 e1    	cp.w      w5, #0x8
     d26:	06 00 35    	bra       LT, 0xd34 <shiftleft>
     d28:	f0 ff 2f    	mov.w     #0xffff, w0
     d2a:	f1 ff 27    	mov.w     #0x7fff, w1
     d2c:	03 00 e0    	cp0.w     w3
     d2e:	13 00 3b    	bra       NN, 0xd56 <exit>
     d30:	01 00 28    	mov.w     #0x8000, w1
     d32:	00 00 05    	retlw.w   #0x0, w0

00000d34 <shiftleft>:
     d34:	00 00 40    	add.w     w0, w0, w0
     d36:	81 80 48    	addc.w    w1, w1, w1
     d38:	85 02 e9    	dec.w     w5, w5
     d3a:	fc ff 3a    	bra       NZ, 0xd34 <shiftleft>
     d3c:	08 00 37    	bra       0xd4e <setsign>

00000d3e <shiftright>:
     d3e:	f8 8f 42    	add.w     w5, #0x18, [w15]
     d40:	02 00 3c    	bra       GT, 0xd46 <shiftrightloop>
     d42:	80 00 eb    	clr.w     w1
     d44:	00 00 05    	retlw.w   #0x0, w0

00000d46 <shiftrightloop>:
     d46:	81 00 d1    	lsr.w     w1, w1
     d48:	00 80 d3    	rrc.w     w0, w0
     d4a:	85 02 e8    	inc.w     w5, w5
     d4c:	fc ff 3a    	bra       NZ, 0xd46 <shiftrightloop>

00000d4e <setsign>:
     d4e:	03 00 e0    	cp0.w     w3
     d50:	02 00 3b    	bra       NN, 0xd56 <exit>
     d52:	60 00 10    	subr.w    w0, #0x0, w0
     d54:	e0 80 18    	subbr.w   w1, #0x0, w1

00000d56 <exit>:
     d56:	00 00 06    	return    

00000d58 <___udivsi3>:
     d58:	60 22 b8    	mul.uu    w4, #0x0, w4
     d5a:	06 02 20    	mov.w     #0x20, w6

00000d5c <nextbit>:
     d5c:	00 00 d0    	sl.w      w0, w0
     d5e:	81 80 d2    	rlc.w     w1, w1
     d60:	04 82 d2    	rlc.w     w4, w4
     d62:	85 82 d2    	rlc.w     w5, w5
     d64:	00 00 a0    	bset.w    w0, #0x0
     d66:	02 02 52    	sub.w     w4, w2, w4
     d68:	83 82 5a    	subb.w    w5, w3, w5
     d6a:	03 00 31    	bra       C, 0xd72 <iterate>
     d6c:	02 02 42    	add.w     w4, w2, w4
     d6e:	83 82 4a    	addc.w    w5, w3, w5
     d70:	00 00 a1    	bclr.w    w0, #0x0

00000d72 <iterate>:
     d72:	06 03 e9    	dec.w     w6, w6
     d74:	f3 ff 3a    	bra       NZ, 0xd5c <nextbit>
     d76:	00 00 06    	return    

00000d78 <___divsf3>:
     d78:	88 9f be    	mov.d     w8, [w15++]
     d7a:	8a 9f be    	mov.d     w10, [w15++]
     d7c:	8c 1f 78    	mov.w     w12, [w15++]
     d7e:	e1 00 07    	rcall     0xf42 <__funpack2>
     d80:	e8 00 33    	bra       N, 0xf52 <__fPropagateNaN>
     d82:	03 86 6c    	xor.w     w9, w3, w12
     d84:	64 50 e1    	cp.w      w10, #0x4
     d86:	2e 00 32    	bra       Z, 0xde4 <aisinfinite>
     d88:	64 20 e1    	cp.w      w4, #0x4
     d8a:	33 00 32    	bra       Z, 0xdf2 <returnZero>
     d8c:	61 50 e1    	cp.w      w10, #0x1
     d8e:	2f 00 32    	bra       Z, 0xdee <aiszero>
     d90:	61 20 e1    	cp.w      w4, #0x1
     d92:	31 00 32    	bra       Z, 0xdf6 <returnInf>

00000d94 <finitenonzero>:
     d94:	85 85 55    	sub.w     w11, w5, w11
     d96:	eb 07 b0    	add.w     #0x7e, w11
     d98:	09 00 20    	mov.w     #0x0, w9
     d9a:	08 04 20    	mov.w     #0x40, w8
     d9c:	05 00 37    	bra       0xda8 <diventry>

00000d9e <divnext>:
     d9e:	08 04 44    	add.w     w8, w8, w8
     da0:	89 84 4c    	addc.w    w9, w9, w9
     da2:	0a 00 31    	bra       C, 0xdb8 <divdone>

00000da4 <divloop>:
     da4:	06 03 43    	add.w     w6, w6, w6
     da6:	87 83 4b    	addc.w    w7, w7, w7

00000da8 <diventry>:
     da8:	00 01 53    	sub.w     w6, w0, w2
     daa:	81 81 5b    	subb.w    w7, w1, w3
     dac:	f8 ff 33    	bra       N, 0xd9e <divnext>
     dae:	02 03 be    	mov.d     w2, w6
     db0:	08 00 a0    	bset.w    w8, #0x0
     db2:	08 04 44    	add.w     w8, w8, w8
     db4:	89 84 4c    	addc.w    w9, w9, w9
     db6:	f6 ff 39    	bra       NC, 0xda4 <divloop>

00000db8 <divdone>:
     db8:	c6 39 dd    	sl.w      w7, #0x6, w3
     dba:	83 01 73    	ior.w     w6, w3, w3
     dbc:	01 00 32    	bra       Z, 0xdc0 <stickyok>
     dbe:	13 00 20    	mov.w     #0x1, w3

00000dc0 <stickyok>:
     dc0:	89 04 d1    	lsr.w     w9, w9
     dc2:	08 84 d3    	rrc.w     w8, w8
     dc4:	09 98 a3    	btst.z    w9, #0x9
     dc6:	05 00 32    	bra       Z, 0xdd2 <guardused>
     dc8:	08 00 a7    	btsc.w    w8, #0x0
     dca:	03 00 a0    	bset.w    w3, #0x0
     dcc:	89 04 d1    	lsr.w     w9, w9
     dce:	08 84 d3    	rrc.w     w8, w8
     dd0:	8b 05 e8    	inc.w     w11, w11

00000dd2 <guardused>:
     dd2:	89 04 d1    	lsr.w     w9, w9
     dd4:	08 84 d3    	rrc.w     w8, w8
     dd6:	00 01 eb    	clr.w     w2
     dd8:	02 81 d2    	rlc.w     w2, w2
     dda:	8d 00 07    	rcall     0xef6 <__fpack>

00000ddc <return0>:
     ddc:	01 f0 a1    	bclr.w    w1, #0xf
     dde:	0c f0 a7    	btsc.w    w12, #0xf
     de0:	01 f0 a0    	bset.w    w1, #0xf
     de2:	c0 00 37    	bra       0xf64 <__fbopExit>

00000de4 <aisinfinite>:
     de4:	64 20 e1    	cp.w      w4, #0x4
     de6:	c2 00 32    	bra       Z, 0xf6c <__fbopReturnNaN>

00000de8 <return8>:
     de8:	08 01 be    	mov.d     w8, w2

00000dea <return2>:
     dea:	02 00 be    	mov.d     w2, w0
     dec:	f7 ff 37    	bra       0xddc <return0>

00000dee <aiszero>:
     dee:	61 20 e1    	cp.w      w4, #0x1
     df0:	bd 00 32    	bra       Z, 0xf6c <__fbopReturnNaN>

00000df2 <returnZero>:
     df2:	60 00 b8    	mul.uu    w0, #0x0, w0
     df4:	f3 ff 37    	bra       0xddc <return0>

00000df6 <returnInf>:
     df6:	00 00 20    	mov.w     #0x0, w0
     df8:	01 f8 27    	mov.w     #0x7f80, w1
     dfa:	f0 ff 37    	bra       0xddc <return0>

00000dfc <___subsf3>:
     dfc:	03 f0 a2    	btg.w     w3, #0xf

00000dfe <___addsf3>:
     dfe:	88 9f be    	mov.d     w8, [w15++]
     e00:	8a 9f be    	mov.d     w10, [w15++]
     e02:	8c 1f 78    	mov.w     w12, [w15++]
     e04:	9e 00 07    	rcall     0xf42 <__funpack2>
     e06:	a5 00 33    	bra       N, 0xf52 <__fPropagateNaN>
     e08:	64 50 e1    	cp.w      w10, #0x4
     e0a:	4f 00 32    	bra       Z, 0xeaa <aisinfinite>

00000e0c <checkspecialb>:
     e0c:	64 20 e1    	cp.w      w4, #0x4
     e0e:	52 00 32    	bra       Z, 0xeb4 <return2>
     e10:	03 82 6c    	xor.w     w9, w3, w4
     e12:	07 00 3b    	bra       NN, 0xe22 <getsign>
     e14:	09 05 d0    	sl.w      w9, w10
     e16:	03 06 d0    	sl.w      w3, w12
     e18:	82 0f 54    	sub.w     w8, w2, [w15]
     e1a:	0c 06 5d    	subb.w    w10, w12, w12
     e1c:	02 00 39    	bra       NC, 0xe22 <getsign>
     e1e:	02 00 32    	bra       Z, 0xe24 <gotsign>
     e20:	89 01 78    	mov.w     w9, w3

00000e22 <getsign>:
     e22:	03 06 78    	mov.w     w3, w12

00000e24 <gotsign>:
     e24:	85 82 55    	sub.w     w11, w5, w5
     e26:	04 00 3d    	bra       GE, 0xe30 <expcanonical>
     e28:	00 03 fd    	exch      w0, w6
     e2a:	81 03 fd    	exch      w1, w7
     e2c:	85 02 ea    	neg.w     w5, w5
     e2e:	8b 85 42    	add.w     w5, w11, w11

00000e30 <expcanonical>:
     e30:	84 0f 72    	ior.w     w4, w4, [w15]
     e32:	02 00 3b    	bra       NN, 0xe38 <nonegate>
     e34:	60 00 10    	subr.w    w0, #0x0, w0
     e36:	e0 80 18    	subbr.w   w1, #0x0, w1

00000e38 <nonegate>:
     e38:	60 11 b8    	mul.uu    w2, #0x0, w2
     e3a:	00 05 eb    	clr.w     w10
     e3c:	7a 28 e1    	cp.w      w5, #0x1a
     e3e:	0a 00 39    	bra       NC, 0xe54 <aligniter>
     e40:	06 00 78    	mov.w     w6, w0
     e42:	c7 5d dd    	sl.w      w11, #0x7, w11
     e44:	f7 07 b2    	and.w     #0x7f, w7
     e46:	87 80 75    	ior.w     w11, w7, w1
     e48:	2d 00 37    	bra       0xea4 <signoff>

00000e4a <align>:
     e4a:	82 81 71    	ior.w     w3, w2, w3
     e4c:	0a 01 78    	mov.w     w10, w2
     e4e:	61 05 60    	and.w     w0, #0x1, w10
     e50:	81 80 d1    	asr.w     w1, w1
     e52:	00 80 d3    	rrc.w     w0, w0

00000e54 <aligniter>:
     e54:	85 02 e9    	dec.w     w5, w5
     e56:	f9 ff 3b    	bra       NN, 0xe4a <align>

00000e58 <aligned>:
     e58:	06 04 40    	add.w     w0, w6, w8
     e5a:	87 84 48    	addc.w    w1, w7, w9
     e5c:	02 00 3b    	bra       NN, 0xe62 <normalizesum>
     e5e:	60 04 14    	subr.w    w8, #0x0, w8
     e60:	e0 84 1c    	subbr.w   w9, #0x0, w9

00000e62 <normalizesum>:
     e62:	09 88 a3    	btst.z    w9, #0x8
     e64:	07 00 32    	bra       Z, 0xe74 <checknormal>
     e66:	8a 81 71    	ior.w     w3, w10, w3
     e68:	82 81 71    	ior.w     w3, w2, w3
     e6a:	61 01 64    	and.w     w8, #0x1, w2
     e6c:	89 04 d1    	lsr.w     w9, w9
     e6e:	08 84 d3    	rrc.w     w8, w8
     e70:	8b 05 e8    	inc.w     w11, w11
     e72:	17 00 37    	bra       0xea2 <round>

00000e74 <checknormal>:
     e74:	09 78 a3    	btst.z    w9, #0x7
     e76:	13 00 3a    	bra       NZ, 0xe9e <discardguard>

00000e78 <underflow>:
     e78:	0b 00 e0    	cp0.w     w11
     e7a:	13 00 34    	bra       LE, 0xea2 <round>
     e7c:	8b 05 e9    	dec.w     w11, w11
     e7e:	08 04 44    	add.w     w8, w8, w8
     e80:	89 84 4c    	addc.w    w9, w9, w9
     e82:	0a 44 74    	ior.b     w8, w10, w8
     e84:	09 78 a3    	btst.z    w9, #0x7
     e86:	0d 00 3a    	bra       NZ, 0xea2 <round>

00000e88 <normalizeloop>:
     e88:	0b 00 e0    	cp0.w     w11
     e8a:	07 00 34    	bra       LE, 0xe9a <normalizeexit>
     e8c:	8b 05 e9    	dec.w     w11, w11
     e8e:	08 04 44    	add.w     w8, w8, w8
     e90:	89 84 4c    	addc.w    w9, w9, w9
     e92:	01 00 3a    	bra       NZ, 0xe96 <normalizetest>
     e94:	0b 00 20    	mov.w     #0x0, w11

00000e96 <normalizetest>:
     e96:	09 78 a3    	btst.z    w9, #0x7
     e98:	f7 ff 32    	bra       Z, 0xe88 <normalizeloop>

00000e9a <normalizeexit>:
     e9a:	00 01 eb    	clr.w     w2
     e9c:	02 00 37    	bra       0xea2 <round>

00000e9e <discardguard>:
     e9e:	82 81 71    	ior.w     w3, w2, w3
     ea0:	0a 01 78    	mov.w     w10, w2

00000ea2 <round>:
     ea2:	29 00 07    	rcall     0xef6 <__fpack>

00000ea4 <signoff>:
     ea4:	0c f0 a7    	btsc.w    w12, #0xf
     ea6:	01 f0 a0    	bset.w    w1, #0xf
     ea8:	5d 00 37    	bra       0xf64 <__fbopExit>

00000eaa <aisinfinite>:
     eaa:	64 20 e1    	cp.w      w4, #0x4
     eac:	02 00 3a    	bra       NZ, 0xeb2 <return8>
     eae:	83 8f 6c    	xor.w     w9, w3, [w15]
     eb0:	5d 00 33    	bra       N, 0xf6c <__fbopReturnNaN>

00000eb2 <return8>:
     eb2:	08 01 be    	mov.d     w8, w2

00000eb4 <return2>:
     eb4:	02 00 be    	mov.d     w2, w0
     eb6:	56 00 37    	bra       0xf64 <__fbopExit>

00000eb8 <___eqsf2>:
     eb8:	14 00 20    	mov.w     #0x1, w4
     eba:	70 00 37    	bra       0xf9c <__fcompare>

00000ebc <___gesf2>:
     ebc:	f4 ff 2f    	mov.w     #0xffff, w4
     ebe:	6e 00 37    	bra       0xf9c <__fcompare>

00000ec0 <___fixunssfsi>:
     ec0:	00 01 be    	mov.d     w0, w2
     ec2:	57 00 07    	rcall     0xf72 <__funpack>
     ec4:	04 70 a7    	btsc.w    w4, #0x7
     ec6:	03 f0 a1    	bclr.w    w3, #0xf
     ec8:	03 f8 a3    	btst.z    w3, #0xf
     eca:	13 00 3a    	bra       NZ, 0xef2 <returnzero>
     ecc:	65 09 b1    	sub.w     #0x96, w5
     ece:	10 00 32    	bra       Z, 0xef0 <exit>
     ed0:	09 00 35    	bra       LT, 0xee4 <shiftright>
     ed2:	69 28 e1    	cp.w      w5, #0x9
     ed4:	02 00 35    	bra       LT, 0xeda <shiftleft>
     ed6:	01 00 28    	mov.w     #0x8000, w1
     ed8:	00 00 05    	retlw.w   #0x0, w0

00000eda <shiftleft>:
     eda:	00 00 40    	add.w     w0, w0, w0
     edc:	81 80 48    	addc.w    w1, w1, w1
     ede:	85 02 e9    	dec.w     w5, w5
     ee0:	fc ff 3a    	bra       NZ, 0xeda <shiftleft>
     ee2:	00 00 06    	return    

00000ee4 <shiftright>:
     ee4:	f8 8f 42    	add.w     w5, #0x18, [w15]
     ee6:	05 00 35    	bra       LT, 0xef2 <returnzero>

00000ee8 <shiftrightloop>:
     ee8:	81 00 d1    	lsr.w     w1, w1
     eea:	00 80 d3    	rrc.w     w0, w0
     eec:	85 02 e8    	inc.w     w5, w5
     eee:	fc ff 3a    	bra       NZ, 0xee8 <shiftrightloop>

00000ef0 <exit>:
     ef0:	00 00 06    	return    

00000ef2 <returnzero>:
     ef2:	80 00 eb    	clr.w     w1
     ef4:	00 00 05    	retlw.w   #0x0, w0

00000ef6 <__fpack>:
     ef6:	81 00 20    	mov.w     #0x8, w1
     ef8:	61 80 55    	sub.w     w11, #0x1, w0
     efa:	0b 00 3d    	bra       GE, 0xf12 <notsubnormal>
     efc:	0b 00 20    	mov.w     #0x0, w11
     efe:	61 fe 2f    	mov.w     #0xffe6, w1
     f00:	01 00 e1    	cp.w      w0, w1
     f02:	1d 00 34    	bra       LE, 0xf3e <zerosig>

00000f04 <subnormal>:
     f04:	82 81 71    	ior.w     w3, w2, w3
     f06:	61 01 64    	and.w     w8, #0x1, w2
     f08:	89 04 d1    	lsr.w     w9, w9
     f0a:	08 84 d3    	rrc.w     w8, w8
     f0c:	00 00 e8    	inc.w     w0, w0
     f0e:	fa ff 3a    	bra       NZ, 0xf04 <subnormal>
     f10:	71 00 20    	mov.w     #0x7, w1

00000f12 <notsubnormal>:
     f12:	61 00 64    	and.w     w8, #0x1, w0
     f14:	03 00 70    	ior.w     w0, w3, w0
     f16:	02 00 60    	and.w     w0, w2, w0
     f18:	09 00 32    	bra       Z, 0xf2c <packupandgo>
     f1a:	61 04 44    	add.w     w8, #0x1, w8
     f1c:	e0 84 4c    	addc.w    w9, #0x0, w9
     f1e:	09 88 a5    	btst.z    w9, w1
     f20:	05 00 32    	bra       Z, 0xf2c <packupandgo>
     f22:	8b 05 e8    	inc.w     w11, w11
     f24:	68 08 e1    	cp.w      w1, #0x8
     f26:	02 00 3a    	bra       NZ, 0xf2c <packupandgo>
     f28:	89 04 d1    	lsr.w     w9, w9
     f2a:	08 84 d3    	rrc.w     w8, w8

00000f2c <packupandgo>:
     f2c:	f2 0f 20    	mov.w     #0xff, w2
     f2e:	02 58 e1    	cp.w      w11, w2
     f30:	05 00 3d    	bra       GE, 0xf3c <overflow>
     f32:	c7 5d dd    	sl.w      w11, #0x7, w11
     f34:	f9 07 b2    	and.w     #0x7f, w9
     f36:	89 80 75    	ior.w     w11, w9, w1
     f38:	08 00 78    	mov.w     w8, w0
     f3a:	00 00 06    	return    

00000f3c <overflow>:
     f3c:	0b f8 27    	mov.w     #0x7f80, w11

00000f3e <zerosig>:
     f3e:	8b 00 78    	mov.w     w11, w1
     f40:	00 00 05    	retlw.w   #0x0, w0

00000f42 <__funpack2>:
     f42:	00 04 be    	mov.d     w0, w8
     f44:	16 00 07    	rcall     0xf72 <__funpack>
     f46:	00 03 be    	mov.d     w0, w6
     f48:	04 05 be    	mov.d     w4, w10
     f4a:	02 00 be    	mov.d     w2, w0
     f4c:	12 00 07    	rcall     0xf72 <__funpack>
     f4e:	84 4f 75    	ior.b     w10, w4, [w15]
     f50:	00 00 06    	return    

00000f52 <__fPropagateNaN>:
     f52:	02 00 be    	mov.d     w2, w0
     f54:	64 50 e1    	cp.w      w10, #0x4
     f56:	05 00 36    	bra       LEU, 0xf62 <return0>
     f58:	64 20 e1    	cp.w      w4, #0x4
     f5a:	02 00 36    	bra       LEU, 0xf60 <return8>
     f5c:	09 68 a3    	btst.z    w9, #0x6
     f5e:	01 00 3a    	bra       NZ, 0xf62 <return0>

00000f60 <return8>:
     f60:	08 00 be    	mov.d     w8, w0

00000f62 <return0>:
     f62:	01 60 a0    	bset.w    w1, #0x6

00000f64 <__fbopExit>:
     f64:	4f 06 78    	mov.w     [--w15], w12
     f66:	4f 05 be    	mov.d     [--w15], w10
     f68:	4f 04 be    	mov.d     [--w15], w8
     f6a:	00 00 06    	return    

00000f6c <__fbopReturnNaN>:
     f6c:	f0 ff 2f    	mov.w     #0xffff, w0
     f6e:	f1 ff 27    	mov.w     #0x7fff, w1
     f70:	f9 ff 37    	bra       0xf64 <__fbopExit>

00000f72 <__funpack>:
     f72:	c7 0a de    	lsr.w     w1, #0x7, w5
     f74:	f1 07 b2    	and.w     #0x7f, w1
     f76:	f5 0f b2    	and.w     #0xff, w5
     f78:	08 00 32    	bra       Z, 0xf8a <zeroorsub>
     f7a:	e1 cf 42    	add.b     w5, #0x1, [w15]
     f7c:	02 00 32    	bra       Z, 0xf82 <nanorinf>

00000f7e <finitereturn>:
     f7e:	01 70 a0    	bset.w    w1, #0x7
     f80:	24 00 05    	retlw.w   #0x2, w4

00000f82 <nanorinf>:
     f82:	81 0f 70    	ior.w     w0, w1, [w15]
     f84:	01 00 32    	bra       Z, 0xf88 <infinite>
     f86:	04 08 05    	retlw.w   #0x80, w4

00000f88 <infinite>:
     f88:	44 00 05    	retlw.w   #0x4, w4

00000f8a <zeroorsub>:
     f8a:	81 0f 70    	ior.w     w0, w1, [w15]
     f8c:	02 00 3a    	bra       NZ, 0xf92 <subnormal>
     f8e:	14 00 05    	retlw.w   #0x1, w4

00000f90 <normalize>:
     f90:	85 02 e9    	dec.w     w5, w5

00000f92 <subnormal>:
     f92:	00 00 40    	add.w     w0, w0, w0
     f94:	81 c0 48    	addc.b    w1, w1, w1
     f96:	fc ff 3b    	bra       NN, 0xf90 <normalize>
     f98:	01 70 a0    	bset.w    w1, #0x7
     f9a:	24 00 05    	retlw.w   #0x2, w4

00000f9c <__fcompare>:
     f9c:	88 9f be    	mov.d     w8, [w15++]
     f9e:	8a 9f be    	mov.d     w10, [w15++]
     fa0:	84 1f 78    	mov.w     w4, [w15++]
     fa2:	cf ff 07    	rcall     0xf42 <__funpack2>
     fa4:	4f 00 78    	mov.w     [--w15], w0
     fa6:	11 00 33    	bra       N, 0xfca <exit>
     fa8:	f0 ff 2f    	mov.w     #0xffff, w0
     faa:	83 8f 6c    	xor.w     w9, w3, [w15]
     fac:	06 00 3b    	bra       NN, 0xfba <comparemag>
     fae:	04 05 65    	and.w     w10, w4, w10
     fb0:	0a 00 a7    	btsc.w    w10, #0x0
     fb2:	08 00 37    	bra       0xfc4 <returnEqual>
     fb4:	09 f0 a6    	btss.w    w9, #0xf
     fb6:	10 00 20    	mov.w     #0x1, w0
     fb8:	08 00 37    	bra       0xfca <exit>

00000fba <comparemag>:
     fba:	82 0f 54    	sub.w     w8, w2, [w15]
     fbc:	83 8f 5c    	subb.w    w9, w3, [w15]
     fbe:	03 00 39    	bra       NC, 0xfc6 <adjust>
     fc0:	10 00 20    	mov.w     #0x1, w0
     fc2:	01 00 3e    	bra       GTU, 0xfc6 <adjust>

00000fc4 <returnEqual>:
     fc4:	00 00 20    	mov.w     #0x0, w0

00000fc6 <adjust>:
     fc6:	09 f0 a7    	btsc.w    w9, #0xf
     fc8:	00 00 ea    	neg.w     w0, w0

00000fca <exit>:
     fca:	4f 05 be    	mov.d     [--w15], w10
     fcc:	4f 04 be    	mov.d     [--w15], w8
     fce:	00 00 e0    	cp0.w     w0
     fd0:	00 00 06    	return    

00000fd2 <___umodsi3>:
     fd2:	c2 fe 07    	rcall     0xd58 <___udivsi3>
     fd4:	04 00 be    	mov.d     w4, w0
     fd6:	00 00 06    	return    

00000fd8 <___PplusBdi>:
     fd8:	88 1f 78    	mov.w     w8, [w15++]
     fda:	00 04 78    	mov.w     w0, w8
     fdc:	50 01 be    	mov.d     [++w0], w2
     fde:	40 00 be    	mov.d     [--w0], w0
     fe0:	04 00 40    	add.w     w0, w4, w0
     fe2:	85 80 48    	addc.w    w1, w5, w1
     fe4:	06 01 49    	addc.w    w2, w6, w2
     fe6:	87 81 49    	addc.w    w3, w7, w3
     fe8:	00 9c be    	mov.d     w0, [w8++]
     fea:	02 94 be    	mov.d     w2, [w8--]
     fec:	04 00 e1    	cp.w      w0, w4
     fee:	05 88 e1    	cpb.w     w1, w5
     ff0:	06 90 e1    	cpb.w     w2, w6
     ff2:	07 98 e1    	cpb.w     w3, w7
     ff4:	02 00 31    	bra       C, 0xffa <.L4>
     ff6:	68 00 44    	add.w     w8, #0x8, w0
     ff8:	10 08 e8    	inc.w     [w0], [w0]

00000ffa <.L4>:
     ffa:	4f 04 78    	mov.w     [--w15], w8
     ffc:	00 00 06    	return    

00000ffe <___udivmoddi3>:
     ffe:	f4 87 47    	add.w     w15, #0x14, w15
    1000:	88 9f be    	mov.d     w8, [w15++]
    1002:	8a 9f be    	mov.d     w10, [w15++]
    1004:	8c 9f be    	mov.d     w12, [w15++]
    1006:	8e 1f 78    	mov.w     w14, [w15++]
    1008:	02 05 be    	mov.d     w2, w10
    100a:	00 04 be    	mov.d     w0, w8
    100c:	d4 b7 9f    	mov.w     w4, [w15-22]
    100e:	e5 b7 9f    	mov.w     w5, [w15-20]
    1010:	f6 b7 9f    	mov.w     w6, [w15-18]
    1012:	87 bf 9f    	mov.w     w7, [w15-16]
    1014:	00 00 eb    	clr.w     w0
    1016:	c0 b7 9f    	mov.w     w0, [w15-24]
    1018:	b0 b7 9f    	mov.w     w0, [w15-26]
    101a:	a0 b7 9f    	mov.w     w0, [w15-28]
    101c:	90 b7 9f    	mov.w     w0, [w15-30]
    101e:	80 b7 9f    	mov.w     w0, [w15-32]
    1020:	0d 04 20    	mov.w     #0x40, w13

00001022 <.L6>:
    1022:	bf b0 97    	mov.w     [w15-26], w1
    1024:	4f b0 97    	mov.w     [w15-24], w0
    1026:	00 01 40    	add.w     w0, w0, w2
    1028:	00 00 e0    	cp0.w     w0
    102a:	0f 00 3d    	bra       GE, 0x104a <.L7>
    102c:	4f 08 de    	lsr.w     w1, #0xf, w0
    102e:	00 00 71    	ior.w     w2, w0, w0
    1030:	c0 b7 9f    	mov.w     w0, [w15-24]
    1032:	9e 00 07    	rcall     0x1170 <.LPA5>
    1034:	01 00 3d    	bra       GE, 0x1038 <.L10>
    1036:	12 00 20    	mov.w     #0x1, w2

00001038 <.L10>:
    1038:	a1 00 07    	rcall     0x117c <.LPA2>
    103a:	01 00 3d    	bra       GE, 0x103e <.L11>
    103c:	12 00 20    	mov.w     #0x1, w2

0000103e <.L11>:
    103e:	a6 00 07    	rcall     0x118c <.LPA0>
    1040:	b1 00 07    	rcall     0x11a4 <.LPA6>
    1042:	b6 00 07    	rcall     0x11b0 <.LPA7>
    1044:	0f 00 40    	add.w     w0, w15, w0
    1046:	c8 ff 07    	rcall     0xfd8 <___PplusBdi>
    1048:	22 00 37    	bra       0x108e <.L14>

0000104a <.L7>:
    104a:	4f 08 de    	lsr.w     w1, #0xf, w0
    104c:	00 06 71    	ior.w     w2, w0, w12
    104e:	cc b7 9f    	mov.w     w12, [w15-24]
    1050:	8f 00 07    	rcall     0x1170 <.LPA5>
    1052:	01 00 3d    	bra       GE, 0x1056 <.L16>
    1054:	12 00 20    	mov.w     #0x1, w2

00001056 <.L16>:
    1056:	92 00 07    	rcall     0x117c <.LPA2>
    1058:	01 00 3d    	bra       GE, 0x105c <.L17>
    105a:	12 00 20    	mov.w     #0x1, w2

0000105c <.L17>:
    105c:	97 00 07    	rcall     0x118c <.LPA0>
    105e:	a2 00 07    	rcall     0x11a4 <.LPA6>
    1060:	0f b2 97    	mov.w     [w15-32], w4
    1062:	9f b2 97    	mov.w     [w15-30], w5
    1064:	2f b3 97    	mov.w     [w15-28], w6
    1066:	bf b3 97    	mov.w     [w15-26], w7
    1068:	a9 00 07    	rcall     0x11bc <.LPA9>
    106a:	00 00 52    	sub.w     w4, w0, w0
    106c:	81 80 5a    	subb.w    w5, w1, w1
    106e:	02 01 5b    	subb.w    w6, w2, w2
    1070:	83 81 5b    	subb.w    w7, w3, w3
    1072:	80 b7 9f    	mov.w     w0, [w15-32]
    1074:	91 b7 9f    	mov.w     w1, [w15-30]
    1076:	a2 b7 9f    	mov.w     w2, [w15-28]
    1078:	b3 b7 9f    	mov.w     w3, [w15-26]
    107a:	00 07 eb    	clr.w     w14
    107c:	9f 00 07    	rcall     0x11bc <.LPA9>
    107e:	00 20 e1    	cp.w      w4, w0
    1080:	01 a8 e1    	cpb.w     w5, w1
    1082:	02 b0 e1    	cpb.w     w6, w2
    1084:	03 b8 e1    	cpb.w     w7, w3
    1086:	01 00 31    	bra       C, 0x108a <.L20>
    1088:	1e 00 20    	mov.w     #0x1, w14

0000108a <.L20>:
    108a:	0e 00 56    	sub.w     w12, w14, w0
    108c:	c0 b7 9f    	mov.w     w0, [w15-24]

0000108e <.L14>:
    108e:	4f b2 97    	mov.w     [w15-24], w4
    1090:	04 00 e0    	cp0.w     w4
    1092:	07 00 35    	bra       LT, 0x10a2 <.L21>
    1094:	10 00 20    	mov.w     #0x1, w0
    1096:	01 00 20    	mov.w     #0x0, w1
    1098:	60 11 b8    	mul.uu    w2, #0x0, w2
    109a:	08 04 70    	ior.w     w0, w8, w8
    109c:	89 84 70    	ior.w     w1, w9, w9
    109e:	0a 05 71    	ior.w     w2, w10, w10
    10a0:	8b 85 71    	ior.w     w3, w11, w11

000010a2 <.L21>:
    10a2:	8d 06 e9    	dec.w     w13, w13
    10a4:	be ff 3a    	bra       NZ, 0x1022 <.L6>
    10a6:	04 00 e0    	cp0.w     w4
    10a8:	03 00 3d    	bra       GE, 0x10b0 <.L24>
    10aa:	82 00 07    	rcall     0x11b0 <.LPA7>
    10ac:	0f 00 40    	add.w     w0, w15, w0
    10ae:	94 ff 07    	rcall     0xfd8 <___PplusBdi>

000010b0 <.L24>:
    10b0:	4f a8 97    	mov.w     [w15-40], w0
    10b2:	00 00 e0    	cp0.w     w0
    10b4:	04 00 3a    	bra       NZ, 0x10be <.L26>
    10b6:	0f b4 97    	mov.w     [w15-32], w8
    10b8:	9f b4 97    	mov.w     [w15-30], w9
    10ba:	2f b5 97    	mov.w     [w15-28], w10
    10bc:	bf b5 97    	mov.w     [w15-26], w11

000010be <.L26>:
    10be:	94 00 07    	rcall     0x11e8 <.LPA11>
    10c0:	4f 07 78    	mov.w     [--w15], w14
    10c2:	4f 06 be    	mov.d     [--w15], w12
    10c4:	4f 05 be    	mov.d     [--w15], w10
    10c6:	4f 04 be    	mov.d     [--w15], w8
    10c8:	4f 01 b1    	sub.w     #0x14, w15
    10ca:	00 00 06    	return    

000010cc <___udivdi3>:
    10cc:	88 1f 78    	mov.w     w8, [w15++]
    10ce:	18 00 20    	mov.w     #0x1, w8
    10d0:	88 1f 78    	mov.w     w8, [w15++]
    10d2:	95 ff 07    	rcall     0xffe <___udivmoddi3>
    10d4:	8f 87 e9    	dec2.w    w15, w15
    10d6:	4f 04 78    	mov.w     [--w15], w8
    10d8:	00 00 06    	return    

000010da <___umoddi3>:
    10da:	80 1f eb    	clr.w     [w15++]
    10dc:	90 ff 07    	rcall     0xffe <___udivmoddi3>
    10de:	8f 87 e9    	dec2.w    w15, w15
    10e0:	00 00 06    	return    

000010e2 <___divdi3>:
    10e2:	88 9f be    	mov.d     w8, [w15++]
    10e4:	8a 9f be    	mov.d     w10, [w15++]
    10e6:	8c 1f 78    	mov.w     w12, [w15++]
    10e8:	6e 00 07    	rcall     0x11c6 <.LPA3>
    10ea:	07 00 3d    	bra       GE, 0x10fa <.L36>
    10ec:	73 00 07    	rcall     0x11d4 <.LPA1>
    10ee:	e0 0f 5b    	subb.w    w6, #0x0, [w15]
    10f0:	e0 8f 5b    	subb.w    w7, #0x0, [w15]
    10f2:	07 00 3d    	bra       GE, 0x1102 <.L40>
    10f4:	32 00 07    	rcall     0x115a <.LPA10>
    10f6:	00 06 eb    	clr.w     w12
    10f8:	04 00 37    	bra       0x1102 <.L40>

000010fa <.L36>:
    10fa:	34 00 07    	rcall     0x1164 <.LPA8>
    10fc:	02 00 3d    	bra       GE, 0x1102 <.L40>
    10fe:	2a 00 07    	rcall     0x1154 <.LPA4>
    1100:	1c 00 20    	mov.w     #0x1, w12

00001102 <.L40>:
    1102:	72 00 07    	rcall     0x11e8 <.LPA11>
    1104:	e3 ff 07    	rcall     0x10cc <___udivdi3>
    1106:	02 03 be    	mov.d     w2, w6
    1108:	00 02 be    	mov.d     w0, w4
    110a:	0c 00 e0    	cp0.w     w12
    110c:	01 00 32    	bra       Z, 0x1110 <.L43>
    110e:	22 00 07    	rcall     0x1154 <.LPA4>

00001110 <.L43>:
    1110:	04 00 be    	mov.d     w4, w0
    1112:	06 01 be    	mov.d     w6, w2
    1114:	4f 06 78    	mov.w     [--w15], w12
    1116:	4f 05 be    	mov.d     [--w15], w10
    1118:	4f 04 be    	mov.d     [--w15], w8
    111a:	00 00 06    	return    

0000111c <___moddi3>:
    111c:	88 9f be    	mov.d     w8, [w15++]
    111e:	8a 9f be    	mov.d     w10, [w15++]
    1120:	8c 1f 78    	mov.w     w12, [w15++]
    1122:	51 00 07    	rcall     0x11c6 <.LPA3>
    1124:	05 00 3d    	bra       GE, 0x1130 <.L47>
    1126:	56 00 07    	rcall     0x11d4 <.LPA1>
    1128:	e0 0f 5b    	subb.w    w6, #0x0, [w15]
    112a:	e0 8f 5b    	subb.w    w7, #0x0, [w15]
    112c:	06 00 3d    	bra       GE, 0x113a <.L51>
    112e:	04 00 37    	bra       0x1138 <.L57>

00001130 <.L47>:
    1130:	19 00 07    	rcall     0x1164 <.LPA8>
    1132:	03 00 3d    	bra       GE, 0x113a <.L51>
    1134:	60 00 b8    	mul.uu    w0, #0x0, w0
    1136:	60 11 b8    	mul.uu    w2, #0x0, w2

00001138 <.L57>:
    1138:	10 00 07    	rcall     0x115a <.LPA10>

0000113a <.L51>:
    113a:	56 00 07    	rcall     0x11e8 <.LPA11>
    113c:	ce ff 07    	rcall     0x10da <___umoddi3>
    113e:	02 03 be    	mov.d     w2, w6
    1140:	00 02 be    	mov.d     w0, w4
    1142:	0c 00 e0    	cp0.w     w12
    1144:	01 00 32    	bra       Z, 0x1148 <.L54>
    1146:	06 00 07    	rcall     0x1154 <.LPA4>

00001148 <.L54>:
    1148:	04 00 be    	mov.d     w4, w0
    114a:	06 01 be    	mov.d     w6, w2
    114c:	4f 06 78    	mov.w     [--w15], w12
    114e:	4f 05 be    	mov.d     [--w15], w10
    1150:	4f 04 be    	mov.d     [--w15], w8
    1152:	00 00 06    	return    

00001154 <.LPA4>:
    1154:	60 00 b8    	mul.uu    w0, #0x0, w0
    1156:	60 11 b8    	mul.uu    w2, #0x0, w2
    1158:	00 00 37    	bra       0x115a <.LPA10>

0000115a <.LPA10>:
    115a:	04 02 50    	sub.w     w0, w4, w4
    115c:	85 82 58    	subb.w    w1, w5, w5
    115e:	06 03 59    	subb.w    w2, w6, w6
    1160:	87 83 59    	subb.w    w3, w7, w7
    1162:	00 00 06    	return    

00001164 <.LPA8>:
    1164:	00 06 eb    	clr.w     w12
    1166:	e0 0f 52    	sub.w     w4, #0x0, [w15]
    1168:	e0 8f 5a    	subb.w    w5, #0x0, [w15]
    116a:	e0 0f 5b    	subb.w    w6, #0x0, [w15]
    116c:	e0 8f 5b    	subb.w    w7, #0x0, [w15]
    116e:	00 00 06    	return    

00001170 <.LPA5>:
    1170:	01 80 40    	add.w     w1, w1, w0
    1172:	90 b7 9f    	mov.w     w0, [w15-30]
    1174:	00 01 eb    	clr.w     w2
    1176:	8f b0 97    	mov.w     [w15-32], w1
    1178:	01 00 e0    	cp0.w     w1
    117a:	00 00 06    	return    

0000117c <.LPA2>:
    117c:	02 00 70    	ior.w     w0, w2, w0
    117e:	90 b7 9f    	mov.w     w0, [w15-30]
    1180:	01 80 40    	add.w     w1, w1, w0
    1182:	80 b7 9f    	mov.w     w0, [w15-32]
    1184:	00 01 eb    	clr.w     w2
    1186:	ff a8 97    	mov.w     [w15-34], w1
    1188:	01 00 e0    	cp0.w     w1
    118a:	00 00 06    	return    

0000118c <.LPA0>:
    118c:	02 00 70    	ior.w     w0, w2, w0
    118e:	80 b7 9f    	mov.w     w0, [w15-32]
    1190:	01 80 40    	add.w     w1, w1, w0
    1192:	6f aa 97    	mov.w     [w15-36], w4
    1194:	cf 20 de    	lsr.w     w4, #0xf, w1
    1196:	01 00 70    	ior.w     w0, w1, w0
    1198:	f0 af 9f    	mov.w     w0, [w15-34]
    119a:	04 02 42    	add.w     w4, w4, w4
    119c:	25 00 07    	rcall     0x11e8 <.LPA11>
    119e:	4f 18 de    	lsr.w     w3, #0xf, w0
    11a0:	00 02 72    	ior.w     w4, w0, w4
    11a2:	00 00 06    	return    

000011a4 <.LPA6>:
    11a4:	e4 af 9f    	mov.w     w4, [w15-36]
    11a6:	08 04 44    	add.w     w8, w8, w8
    11a8:	89 84 4c    	addc.w    w9, w9, w9
    11aa:	0a 05 4d    	addc.w    w10, w10, w10
    11ac:	8b 85 4d    	addc.w    w11, w11, w11
    11ae:	00 00 06    	return    

000011b0 <.LPA7>:
    11b0:	3f b2 97    	mov.w     [w15-26], w4
    11b2:	cf b2 97    	mov.w     [w15-24], w5
    11b4:	5f b3 97    	mov.w     [w15-22], w6
    11b6:	ef b3 97    	mov.w     [w15-20], w7
    11b8:	00 fe 2f    	mov.w     #0xffe0, w0
    11ba:	00 00 06    	return    

000011bc <.LPA9>:
    11bc:	3f b0 97    	mov.w     [w15-26], w0
    11be:	cf b0 97    	mov.w     [w15-24], w1
    11c0:	5f b1 97    	mov.w     [w15-22], w2
    11c2:	ef b1 97    	mov.w     [w15-20], w3
    11c4:	00 00 06    	return    

000011c6 <.LPA3>:
    11c6:	02 05 be    	mov.d     w2, w10
    11c8:	00 04 be    	mov.d     w0, w8
    11ca:	e0 0f 50    	sub.w     w0, #0x0, [w15]
    11cc:	e0 8f 58    	subb.w    w1, #0x0, [w15]
    11ce:	e0 0f 59    	subb.w    w2, #0x0, [w15]
    11d0:	e0 8f 59    	subb.w    w3, #0x0, [w15]
    11d2:	00 00 06    	return    

000011d4 <.LPA1>:
    11d4:	60 00 b8    	mul.uu    w0, #0x0, w0
    11d6:	60 11 b8    	mul.uu    w2, #0x0, w2
    11d8:	08 04 50    	sub.w     w0, w8, w8
    11da:	89 84 58    	subb.w    w1, w9, w9
    11dc:	0a 05 59    	subb.w    w2, w10, w10
    11de:	8b 85 59    	subb.w    w3, w11, w11
    11e0:	1c 00 20    	mov.w     #0x1, w12
    11e2:	e0 0f 52    	sub.w     w4, #0x0, [w15]
    11e4:	e0 8f 5a    	subb.w    w5, #0x0, [w15]
    11e6:	00 00 06    	return    

000011e8 <.LPA11>:
    11e8:	08 00 be    	mov.d     w8, w0
    11ea:	0a 01 be    	mov.d     w10, w2
    11ec:	00 00 06    	return    

000011ee <___muldi3>:
    11ee:	88 9f be    	mov.d     w8, [w15++]
    11f0:	8a 9f be    	mov.d     w10, [w15++]
    11f2:	8c 1f 78    	mov.w     w12, [w15++]
    11f4:	02 05 be    	mov.d     w2, w10
    11f6:	00 04 be    	mov.d     w0, w8
    11f8:	00 06 eb    	clr.w     w12
    11fa:	e0 0f 50    	sub.w     w0, #0x0, [w15]
    11fc:	e0 8f 58    	subb.w    w1, #0x0, [w15]
    11fe:	e0 0f 59    	subb.w    w2, #0x0, [w15]
    1200:	e0 8f 59    	subb.w    w3, #0x0, [w15]
    1202:	07 00 3d    	bra       GE, 0x1212 <.L4>
    1204:	60 00 b8    	mul.uu    w0, #0x0, w0
    1206:	60 11 b8    	mul.uu    w2, #0x0, w2
    1208:	08 04 50    	sub.w     w0, w8, w8
    120a:	89 84 58    	subb.w    w1, w9, w9
    120c:	0a 05 59    	subb.w    w2, w10, w10
    120e:	8b 85 59    	subb.w    w3, w11, w11
    1210:	1c 00 20    	mov.w     #0x1, w12

00001212 <.L4>:
    1212:	e0 0f 52    	sub.w     w4, #0x0, [w15]
    1214:	e0 8f 5a    	subb.w    w5, #0x0, [w15]
    1216:	e0 0f 5b    	subb.w    w6, #0x0, [w15]
    1218:	e0 8f 5b    	subb.w    w7, #0x0, [w15]
    121a:	02 00 3d    	bra       GE, 0x1220 <.L5>
    121c:	0f 00 07    	rcall     0x123c <.LPA0>
    121e:	0c 00 a2    	btg.w     w12, #0x0

00001220 <.L5>:
    1220:	08 00 be    	mov.d     w8, w0
    1222:	0a 01 be    	mov.d     w10, w2
    1224:	12 00 07    	rcall     0x124a <___umuldi3>
    1226:	02 03 be    	mov.d     w2, w6
    1228:	00 02 be    	mov.d     w0, w4
    122a:	0c 00 e0    	cp0.w     w12
    122c:	01 00 32    	bra       Z, 0x1230 <.L7>
    122e:	06 00 07    	rcall     0x123c <.LPA0>

00001230 <.L7>:
    1230:	04 00 be    	mov.d     w4, w0
    1232:	06 01 be    	mov.d     w6, w2
    1234:	4f 06 78    	mov.w     [--w15], w12
    1236:	4f 05 be    	mov.d     [--w15], w10
    1238:	4f 04 be    	mov.d     [--w15], w8
    123a:	00 00 06    	return    

0000123c <.LPA0>:
    123c:	60 00 b8    	mul.uu    w0, #0x0, w0
    123e:	60 11 b8    	mul.uu    w2, #0x0, w2
    1240:	04 02 50    	sub.w     w0, w4, w4
    1242:	85 82 58    	subb.w    w1, w5, w5
    1244:	06 03 59    	subb.w    w2, w6, w6
    1246:	87 83 59    	subb.w    w3, w7, w7
    1248:	00 00 06    	return    

0000124a <___umuldi3>:
    124a:	88 9f be    	mov.d     w8, [w15++]
    124c:	8a 9f be    	mov.d     w10, [w15++]
    124e:	8c 9f be    	mov.d     w12, [w15++]
    1250:	04 04 b8    	mul.uu    w0, w4, w8
    1252:	05 06 b8    	mul.uu    w0, w5, w12
    1254:	89 04 46    	add.w     w12, w9, w9
    1256:	60 85 4e    	addc.w    w13, #0x0, w10
    1258:	06 06 b8    	mul.uu    w0, w6, w12
    125a:	0a 05 46    	add.w     w12, w10, w10
    125c:	e0 85 4e    	addc.w    w13, #0x0, w11
    125e:	07 06 b8    	mul.uu    w0, w7, w12
    1260:	8b 05 46    	add.w     w12, w11, w11
    1262:	04 0e b8    	mul.uu    w1, w4, w12
    1264:	89 04 46    	add.w     w12, w9, w9
    1266:	0a 85 4e    	addc.w    w13, w10, w10
    1268:	e0 85 4d    	addc.w    w11, #0x0, w11
    126a:	05 0e b8    	mul.uu    w1, w5, w12
    126c:	0a 05 46    	add.w     w12, w10, w10
    126e:	8b 85 4e    	addc.w    w13, w11, w11
    1270:	06 0e b8    	mul.uu    w1, w6, w12
    1272:	8b 05 46    	add.w     w12, w11, w11
    1274:	04 16 b8    	mul.uu    w2, w4, w12
    1276:	0a 05 46    	add.w     w12, w10, w10
    1278:	8b 85 4e    	addc.w    w13, w11, w11
    127a:	05 16 b8    	mul.uu    w2, w5, w12
    127c:	8b 05 46    	add.w     w12, w11, w11
    127e:	04 1e b8    	mul.uu    w3, w4, w12
    1280:	8b 05 46    	add.w     w12, w11, w11
    1282:	08 00 be    	mov.d     w8, w0
    1284:	0a 01 be    	mov.d     w10, w2
    1286:	4f 06 be    	mov.d     [--w15], w12
    1288:	4f 05 be    	mov.d     [--w15], w10
    128a:	4f 04 be    	mov.d     [--w15], w8
    128c:	00 00 06    	return    

0000128e <_VectorDotProduct>:
    128e:	44 00 f8    	push      0x44
    1290:	04 0f 20    	mov.w     #0xf0, w4
    1292:	24 02 88    	mov.w     w4, 0x44
    1294:	00 00 e9    	dec.w     w0, w0
    1296:	12 01 c3    	clr       A
    1298:	00 80 08    	do        w0, 0x12a0 <_endDot>
    129a:	02 00 00 
    129c:	31 02 78    	mov.w     [w1++], w4
    129e:	b2 02 78    	mov.w     [w2++], w5

000012a0 <_endDot>:
    12a0:	12 01 c0    	mac       w4 * w5, A
    12a2:	00 00 cd    	sac.r     A, #0x0, w0
    12a4:	44 00 f9    	pop       0x44
    12a6:	00 00 06    	return    

000012a8 <_VectorAdd>:
    12a8:	44 00 f8    	push      0x44
    12aa:	04 0f 20    	mov.w     #0xf0, w4
    12ac:	24 02 88    	mov.w     w4, 0x44
    12ae:	01 02 78    	mov.w     w1, w4
    12b0:	00 00 e9    	dec.w     w0, w0
    12b2:	00 80 08    	do        w0, 0x12be <_endAdd>
    12b4:	04 00 00 
    12b6:	b2 02 78    	mov.w     [w2++], w5
    12b8:	05 00 ca    	lac       w5, #0x0, A
    12ba:	b3 02 78    	mov.w     [w3++], w5
    12bc:	05 00 c9    	add       w5, #0x0, A

000012be <_endAdd>:
    12be:	31 00 cc    	sac       A, #0x0, [w1++]
    12c0:	04 00 78    	mov.w     w4, w0
    12c2:	44 00 f9    	pop       0x44
    12c4:	00 00 06    	return    

000012c6 <_VectorScale>:
    12c6:	44 00 f8    	push      0x44
    12c8:	04 0f 20    	mov.w     #0xf0, w4
    12ca:	24 02 88    	mov.w     w4, 0x44
    12cc:	81 1f 78    	mov.w     w1, [w15++]
    12ce:	00 00 e9    	dec.w     w0, w0
    12d0:	03 02 78    	mov.w     w3, w4
    12d2:	00 80 08    	do        w0, 0x12da <_endScl>
    12d4:	02 00 00 
    12d6:	b2 02 78    	mov.w     [w2++], w5
    12d8:	13 01 c0    	mpy       w4 * w5, A

000012da <_endScl>:
    12da:	31 00 cd    	sac.r     A, #0x0, [w1++]
    12dc:	4f 00 78    	mov.w     [--w15], w0
    12de:	44 00 f9    	pop       0x44
    12e0:	00 00 06    	return    

000012e2 <_MatrixMultiply>:
    12e2:	88 9f be    	mov.d     w8, [w15++]
    12e4:	8a 9f be    	mov.d     w10, [w15++]
    12e6:	8c 9f be    	mov.d     w12, [w15++]
    12e8:	44 00 f8    	push      0x44
    12ea:	0d 0f 20    	mov.w     #0xf0, w13
    12ec:	2d 02 88    	mov.w     w13, 0x44
    12ee:	83 06 78    	mov.w     w3, w13
    12f0:	01 06 e9    	dec.w     w1, w12
    12f2:	82 05 e9    	dec.w     w2, w11
    12f4:	81 80 40    	add.w     w1, w1, w1
    12f6:	02 01 41    	add.w     w2, w2, w2

000012f8 <_doRows1>:
    12f8:	00 00 e9    	dec.w     w0, w0
    12fa:	10 00 35    	bra       LT, 0x131c <_doneRows1>
    12fc:	05 05 78    	mov.w     w5, w10
    12fe:	0b 80 08    	do        w11, 0x1316 <_endCols2>
    1300:	0a 00 00 
    1302:	04 04 78    	mov.w     w4, w8
    1304:	8a 04 78    	mov.w     w10, w9
    1306:	12 01 c3    	clr       A
    1308:	0c 80 08    	do        w12, 0x1312 <_endCols1Rows2>
    130a:	03 00 00 
    130c:	38 03 78    	mov.w     [w8++], w6
    130e:	99 03 78    	mov.w     [w9], w7
    1310:	12 01 c6    	mac       w6 * w7, A

00001312 <_endCols1Rows2>:
    1312:	82 84 44    	add.w     w9, w2, w9
    1314:	33 00 cd    	sac.r     A, #0x0, [w3++]

00001316 <_endCols2>:
    1316:	0a 85 e8    	inc2.w    w10, w10
    1318:	01 02 42    	add.w     w4, w1, w4
    131a:	ee ff 37    	bra       0x12f8 <_doRows1>

0000131c <_doneRows1>:
    131c:	0d 00 78    	mov.w     w13, w0
    131e:	44 00 f9    	pop       0x44
    1320:	4f 06 be    	mov.d     [--w15], w12
    1322:	4f 05 be    	mov.d     [--w15], w10
    1324:	4f 04 be    	mov.d     [--w15], w8
    1326:	00 00 06    	return    

00001328 <_MatrixAdd>:
    1328:	01 00 b8    	mul.uu    w0, w1, w0
    132a:	00 00 e9    	dec.w     w0, w0
    132c:	44 00 f8    	push      0x44
    132e:	01 0f 20    	mov.w     #0xf0, w1
    1330:	21 02 88    	mov.w     w1, 0x44
    1332:	82 00 78    	mov.w     w2, w1
    1334:	00 80 08    	do        w0, 0x1340 <_endAdd>
    1336:	04 00 00 
    1338:	b3 02 78    	mov.w     [w3++], w5
    133a:	05 00 ca    	lac       w5, #0x0, A
    133c:	b4 02 78    	mov.w     [w4++], w5
    133e:	05 00 c9    	add       w5, #0x0, A

00001340 <_endAdd>:
    1340:	32 00 cc    	sac       A, #0x0, [w2++]
    1342:	01 00 78    	mov.w     w1, w0
    1344:	44 00 f9    	pop       0x44
    1346:	00 00 06    	return    

00001348 <_VectorPower>:
    1348:	44 00 f8    	push      0x44
    134a:	02 0f 20    	mov.w     #0xf0, w2
    134c:	22 02 88    	mov.w     w2, 0x44
    134e:	00 00 e9    	dec.w     w0, w0
    1350:	12 01 c3    	clr       A
    1352:	00 80 08    	do        w0, 0x1358 <_endPow>
    1354:	01 00 00 
    1356:	31 02 78    	mov.w     [w1++], w4

00001358 <_endPow>:
    1358:	10 01 f0    	mac       w4 * w4, A
    135a:	00 00 cd    	sac.r     A, #0x0, w0
    135c:	44 00 f9    	pop       0x44
    135e:	00 00 06    	return    

00001360 <_VectorSubtract>:
    1360:	44 00 f8    	push      0x44
    1362:	04 0f 20    	mov.w     #0xf0, w4
    1364:	24 02 88    	mov.w     w4, 0x44
    1366:	01 02 78    	mov.w     w1, w4
    1368:	00 00 e9    	dec.w     w0, w0
    136a:	00 80 08    	do        w0, 0x1378 <_endSub>
    136c:	05 00 00 
    136e:	b2 02 78    	mov.w     [w2++], w5
    1370:	05 00 ca    	lac       w5, #0x0, A
    1372:	b3 02 78    	mov.w     [w3++], w5
    1374:	05 80 ca    	lac       w5, #0x0, B
    1376:	00 30 cb    	sub       A

00001378 <_endSub>:
    1378:	31 00 cc    	sac       A, #0x0, [w1++]
    137a:	04 00 78    	mov.w     w4, w0
    137c:	44 00 f9    	pop       0x44
    137e:	00 00 06    	return    

00001380 <_VectorCopy>:
    1380:	81 01 78    	mov.w     w1, w3
    1382:	00 00 e9    	dec.w     w0, w0
    1384:	00 80 09    	repeat    w0
    1386:	b2 18 78    	mov.w     [w2++], [w1++]
    1388:	03 00 78    	mov.w     w3, w0
    138a:	00 00 06    	return    
Disassembly of section __FBS:

00f80000 <__FBS.sec>:
  f80000:	ff ff 00    	nop       
Disassembly of section __FSS:

00f80002 <__FSS.sec>:
  f80002:	ff ff 00    	nop       
Disassembly of section __FGS:

00f80004 <__FGS.sec>:
  f80004:	ff ff 00    	nop       
Disassembly of section __FOSCSEL:

00f80006 <__FOSCSEL.sec>:
  f80006:	78 ff 00    	nop       
Disassembly of section __FOSC:

00f80008 <__FOSC.sec>:
  f80008:	7c ff 00    	nop       
Disassembly of section __FWDT:

00f8000a <__FWDT.sec>:
  f8000a:	7f ff 00    	nop       
Disassembly of section __FPOR:

00f8000c <__FPOR.sec>:
  f8000c:	fd ff 00    	nop       
Disassembly of section __FICD:

00f8000e <__FICD.sec>:
  f8000e:	de ff 00    	nop       
Disassembly of section __FUID0:

00f80010 <__FUID0.sec>:
  f80010:	ff ff 00    	nop       
Disassembly of section __FUID1:

00f80012 <__FUID1.sec>:
  f80012:	ff ff 00    	nop       
Disassembly of section __FUID2:

00f80014 <__FUID2.sec>:
  f80014:	ff ff 00    	nop       
Disassembly of section __FUID3:

00f80016 <__FUID3.sec>:
  f80016:	ff ff 00    	nop       
Disassembly of section .ivt:

00000004 <.ivt>:
   4:	b2 af 00    	nop       
   6:	ae af 00    	nop       
   8:	aa af 00    	nop       
   a:	a6 af 00    	nop       
   c:	a2 af 00    	nop       
   e:	b2 af 00    	nop       
  10:	b2 af 00    	nop       
  12:	b2 af 00    	nop       
  14:	b2 af 00    	nop       
  16:	cc 63 00    	nop       
  18:	26 4c 00    	nop       
  1a:	d4 a5 00    	nop       
  1c:	c0 83 00    	nop       
  1e:	00 64 00    	nop       
  20:	54 4c 00    	nop       
  22:	ba 63 00    	nop       
  24:	b8 49 00    	nop       
  26:	b2 af 00    	nop       
  28:	b2 af 00    	nop       
  2a:	ce 8a 00    	nop       
  2c:	ee 8b 00    	nop       
  2e:	b2 af 00    	nop       
  30:	b2 af 00    	nop       
  32:	b2 af 00    	nop       
  34:	b2 af 00    	nop       
  36:	b2 af 00    	nop       
  38:	b2 af 00    	nop       
  3a:	b2 af 00    	nop       
  3c:	ea 53 00    	nop       
  3e:	c0 84 00    	nop       
  40:	18 65 00    	nop       
  42:	50 65 00    	nop       
  44:	b2 af 00    	nop       
  46:	82 4c 00    	nop       
  48:	b0 4c 00    	nop       
  4a:	6e a6 00    	nop       
  4c:	4e a6 00    	nop       
  4e:	e2 56 00    	nop       
  50:	b4 8c 00    	nop       
  52:	b0 8d 00    	nop       
  54:	b2 af 00    	nop       
  56:	b2 af 00    	nop       
  58:	b2 af 00    	nop       
  5a:	b2 af 00    	nop       
  5c:	b2 af 00    	nop       
  5e:	38 64 00    	nop       
  60:	70 64 00    	nop       
  62:	a8 64 00    	nop       
  64:	e0 64 00    	nop       
  66:	de 4c 00    	nop       
  68:	0c 4d 00    	nop       
  6a:	3a 4d 00    	nop       
  6c:	68 4d 00    	nop       
  6e:	b2 af 00    	nop       
  70:	b2 af 00    	nop       
  72:	b2 af 00    	nop       
  74:	b2 af 00    	nop       
  76:	b2 af 00    	nop       
  78:	22 58 00    	nop       
  7a:	b2 af 00    	nop       
  7c:	b2 af 00    	nop       
  7e:	b2 af 00    	nop       
  80:	b2 af 00    	nop       
  82:	b2 af 00    	nop       
  84:	b2 af 00    	nop       
  86:	b2 af 00    	nop       
  88:	b2 af 00    	nop       
  8a:	b2 af 00    	nop       
  8c:	b2 af 00    	nop       
  8e:	b2 af 00    	nop       
  90:	b2 af 00    	nop       
  92:	b2 af 00    	nop       
  94:	b2 af 00    	nop       
  96:	b2 af 00    	nop       
  98:	b2 af 00    	nop       
  9a:	b2 af 00    	nop       
  9c:	b2 af 00    	nop       
  9e:	b2 af 00    	nop       
  a0:	b2 af 00    	nop       
  a2:	b2 af 00    	nop       
  a4:	b2 af 00    	nop       
  a6:	b2 af 00    	nop       
  a8:	b2 af 00    	nop       
  aa:	b2 af 00    	nop       
  ac:	b2 af 00    	nop       
  ae:	b2 af 00    	nop       
  b0:	b2 af 00    	nop       
  b2:	b2 af 00    	nop       
  b4:	b2 af 00    	nop       
  b6:	b2 af 00    	nop       
  b8:	b2 af 00    	nop       
  ba:	b2 af 00    	nop       
  bc:	b2 af 00    	nop       
  be:	b2 af 00    	nop       
  c0:	b2 af 00    	nop       
  c2:	b2 af 00    	nop       
  c4:	b2 af 00    	nop       
  c6:	b2 af 00    	nop       
  c8:	b2 af 00    	nop       
  ca:	b2 af 00    	nop       
  cc:	b2 af 00    	nop       
  ce:	b2 af 00    	nop       
  d0:	b2 af 00    	nop       
  d2:	b2 af 00    	nop       
  d4:	b2 af 00    	nop       
  d6:	b2 af 00    	nop       
  d8:	b2 af 00    	nop       
  da:	b2 af 00    	nop       
  dc:	b2 af 00    	nop       
  de:	b2 af 00    	nop       
  e0:	b2 af 00    	nop       
  e2:	b2 af 00    	nop       
  e4:	b2 af 00    	nop       
  e6:	b2 af 00    	nop       
  e8:	b2 af 00    	nop       
  ea:	b2 af 00    	nop       
  ec:	b2 af 00    	nop       
  ee:	b2 af 00    	nop       
  f0:	b2 af 00    	nop       
  f2:	b2 af 00    	nop       
  f4:	b2 af 00    	nop       
  f6:	b2 af 00    	nop       
  f8:	b2 af 00    	nop       
  fa:	b2 af 00    	nop       
  fc:	b2 af 00    	nop       
  fe:	b2 af 00    	nop       
Disassembly of section .aivt:

00000104 <.aivt>:
 104:	b2 af 00    	nop       
 106:	ae af 00    	nop       
 108:	aa af 00    	nop       
 10a:	a6 af 00    	nop       
 10c:	a2 af 00    	nop       
 10e:	b2 af 00    	nop       
 110:	b2 af 00    	nop       
 112:	b2 af 00    	nop       
 114:	b2 af 00    	nop       
 116:	cc 63 00    	nop       
 118:	26 4c 00    	nop       
 11a:	d4 a5 00    	nop       
 11c:	c0 83 00    	nop       
 11e:	00 64 00    	nop       
 120:	54 4c 00    	nop       
 122:	ba 63 00    	nop       
 124:	b8 49 00    	nop       
 126:	b2 af 00    	nop       
 128:	b2 af 00    	nop       
 12a:	ce 8a 00    	nop       
 12c:	ee 8b 00    	nop       
 12e:	b2 af 00    	nop       
 130:	b2 af 00    	nop       
 132:	b2 af 00    	nop       
 134:	b2 af 00    	nop       
 136:	b2 af 00    	nop       
 138:	b2 af 00    	nop       
 13a:	b2 af 00    	nop       
 13c:	ea 53 00    	nop       
 13e:	c0 84 00    	nop       
 140:	18 65 00    	nop       
 142:	50 65 00    	nop       
 144:	b2 af 00    	nop       
 146:	82 4c 00    	nop       
 148:	b0 4c 00    	nop       
 14a:	6e a6 00    	nop       
 14c:	4e a6 00    	nop       
 14e:	e2 56 00    	nop       
 150:	b4 8c 00    	nop       
 152:	b0 8d 00    	nop       
 154:	b2 af 00    	nop       
 156:	b2 af 00    	nop       
 158:	b2 af 00    	nop       
 15a:	b2 af 00    	nop       
 15c:	b2 af 00    	nop       
 15e:	38 64 00    	nop       
 160:	70 64 00    	nop       
 162:	a8 64 00    	nop       
 164:	e0 64 00    	nop       
 166:	de 4c 00    	nop       
 168:	0c 4d 00    	nop       
 16a:	3a 4d 00    	nop       
 16c:	68 4d 00    	nop       
 16e:	b2 af 00    	nop       
 170:	b2 af 00    	nop       
 172:	b2 af 00    	nop       
 174:	b2 af 00    	nop       
 176:	b2 af 00    	nop       
 178:	22 58 00    	nop       
 17a:	b2 af 00    	nop       
 17c:	b2 af 00    	nop       
 17e:	b2 af 00    	nop       
 180:	b2 af 00    	nop       
 182:	b2 af 00    	nop       
 184:	b2 af 00    	nop       
 186:	b2 af 00    	nop       
 188:	b2 af 00    	nop       
 18a:	b2 af 00    	nop       
 18c:	b2 af 00    	nop       
 18e:	b2 af 00    	nop       
 190:	b2 af 00    	nop       
 192:	b2 af 00    	nop       
 194:	b2 af 00    	nop       
 196:	b2 af 00    	nop       
 198:	b2 af 00    	nop       
 19a:	b2 af 00    	nop       
 19c:	b2 af 00    	nop       
 19e:	b2 af 00    	nop       
 1a0:	b2 af 00    	nop       
 1a2:	b2 af 00    	nop       
 1a4:	b2 af 00    	nop       
 1a6:	b2 af 00    	nop       
 1a8:	b2 af 00    	nop       
 1aa:	b2 af 00    	nop       
 1ac:	b2 af 00    	nop       
 1ae:	b2 af 00    	nop       
 1b0:	b2 af 00    	nop       
 1b2:	b2 af 00    	nop       
 1b4:	b2 af 00    	nop       
 1b6:	b2 af 00    	nop       
 1b8:	b2 af 00    	nop       
 1ba:	b2 af 00    	nop       
 1bc:	b2 af 00    	nop       
 1be:	b2 af 00    	nop       
 1c0:	b2 af 00    	nop       
 1c2:	b2 af 00    	nop       
 1c4:	b2 af 00    	nop       
 1c6:	b2 af 00    	nop       
 1c8:	b2 af 00    	nop       
 1ca:	b2 af 00    	nop       
 1cc:	b2 af 00    	nop       
 1ce:	b2 af 00    	nop       
 1d0:	b2 af 00    	nop       
 1d2:	b2 af 00    	nop       
 1d4:	b2 af 00    	nop       
 1d6:	b2 af 00    	nop       
 1d8:	b2 af 00    	nop       
 1da:	b2 af 00    	nop       
 1dc:	b2 af 00    	nop       
 1de:	b2 af 00    	nop       
 1e0:	b2 af 00    	nop       
 1e2:	b2 af 00    	nop       
 1e4:	b2 af 00    	nop       
 1e6:	b2 af 00    	nop       
 1e8:	b2 af 00    	nop       
 1ea:	b2 af 00    	nop       
 1ec:	b2 af 00    	nop       
 1ee:	b2 af 00    	nop       
 1f0:	b2 af 00    	nop       
 1f2:	b2 af 00    	nop       
 1f4:	b2 af 00    	nop       
 1f6:	b2 af 00    	nop       
 1f8:	b2 af 00    	nop       
 1fa:	b2 af 00    	nop       
 1fc:	b2 af 00    	nop       
 1fe:	b2 af 00    	nop       
Disassembly of section .dinit:

00001a12 <.dinit>:
    1a12:	c6 16 00    	nop       
    1a14:	08 00 00    	nop       
    1a16:	02 00 00    	nop       
	...
    1a1e:	3e 1b 00    	nop       
    1a20:	02 00 00    	nop       
    1a22:	00 00 00    	nop       
    1a24:	ce 16 00    	nop       
    1a26:	06 00 00    	nop       
    1a28:	02 00 00    	nop       
	...
    1a2e:	32 1b 00    	nop       
    1a30:	04 00 00    	nop       
    1a32:	00 00 00    	nop       
    1a34:	d4 16 00    	nop       
    1a36:	10 00 00    	nop       
    1a38:	02 00 00    	nop       
	...
    1a3e:	14 00 00    	nop       
	...
    1a46:	58 08 00    	nop       
    1a48:	04 00 00    	nop       
    1a4a:	02 00 00    	nop       
    1a4c:	66 06 00    	nop       
    1a4e:	04 00 00    	nop       
    1a50:	8c 0a 00    	nop       
    1a52:	1a 00 00    	nop       
    1a54:	02 00 00    	nop       
	...
    1a68:	5c 08 00    	nop       
    1a6a:	0c 00 00    	nop       
    1a6c:	02 00 00    	nop       
    1a6e:	99 09 cc    	sac       A, #0x3, [w9]
    1a70:	13 cc 0c    	bra       OA, 0xffffb298
    1a72:	33 4f 00    	nop       
    1a74:	20 66 06    	.pword 0x066620
    1a76:	26 1b 00    	nop       
    1a78:	06 00 00    	nop       
    1a7a:	00 00 00    	nop       
    1a7c:	68 08 00    	nop       
    1a7e:	0a 00 00    	nop       
    1a80:	02 00 00    	nop       
    1a82:	5c 3f 00    	nop       
    1a84:	10 99 27    	mov.w     #0x7991, w0
    1a86:	d7 0f d7    	rrnc.w    0xfd7, WREG
    1a88:	0f 00 00    	nop       
    1a8a:	72 08 00    	nop       
    1a8c:	00 02 00    	nop       
    1a8e:	02 00 00    	nop       
    1a90:	83 10 cc    	sac       A, #0x1, w3
    1a92:	7f 00 00    	nop       
	...
    1aa0:	4c 1d ac    	btsts.b   0x1d4c, #0x0
    1aa2:	0d 88 13    	subr.w    w7, w13, [w0]
    1aa4:	10 27 93    	mov.w     [w0+834], w14
    1aa6:	04 cc 7f    	mov.b     w4, [w8]
	...
    1ab2:	00 1e 00    	nop       
    1ab4:	99 19 4c    	addc.w    w8, [w9], [w3++]
    1ab6:	1d ac 0d    	bra       OB, 0xffff72f2
    1ab8:	a0 0f f8    	push      0xfa0
    1aba:	2a a3 08    	.pword 0x08a32a
    1abc:	cc 7f 00    	nop       
	...
    1aca:	00 4c 1d    	subbr.b   w10, w0, [w8]
    1acc:	ac 0d a0    	.pword 0xa00dac
    1ace:	0f f8 2a    	mov.w     #0xaf80, w15
    1ad0:	b3 0c cc    	sac       A, #0x9, [w3++]
    1ad2:	7f 00 00    	nop       
	...
    1ae0:	4c 1d ac    	btsts.b   0x1d4c, #0x0
    1ae2:	0d a0 0f    	bra       SB, 0xffff5afe
    1ae4:	f8 2a d5    	lsr.w     0xaf8
    1ae6:	00 ff 7f    	.pword 0x7fff00
	...
    1af4:	00 00 4c    	addc.w    w8, w0, w0
    1af6:	1d ac 0d    	bra       OB, 0xffff7332
    1af8:	a0 0f f8    	push      0xfa0
    1afa:	2a 93 04    	goto      0x7fcc932a <__FUID3.sec+0x7ed49314>
    1afc:	cc 7f 00 
	...
    1b06:	00 99 19    	subbr.w   w3, w0, [w2++]
    1b08:	1d 00 99    	mov.w     w13, [w0+258]
    1b0a:	19 4c 1d    	subbr.b   w10, [w9], [w8]
    1b0c:	54 f2 a0    	.pword 0xa0f254
    1b0e:	0f f8 2a    	mov.w     #0xaf80, w15
    1b10:	e1 14 c0    	mac       w4 * w5, A, [w8]+=6, w5, [w11], w5, [w13]+=2
    1b12:	7f 00 00    	nop       
	...
    1b20:	4c 1d ac    	btsts.b   0x1d4c, #0x0
    1b22:	0d a0 0f    	bra       SB, 0xffff5b3e
    1b24:	f8 2a f1    	mac       w5 * w5, A, [w9]+=6, w6, [w11]-=4, w6
    1b26:	18 c0 7f    	mov.b     [w8], w0
	...
    1b34:	00 00 4c    	addc.w    w8, w0, w0
    1b36:	1d ac 0d    	bra       OB, 0xffff7372
    1b38:	a0 0f f8    	push      0xfa0
    1b3a:	2a 00 00    	nop       
	...
    1be6:	e4 16 00    	nop       
    1be8:	04 00 00    	nop       
    1bea:	02 00 00    	nop       
    1bec:	00 00 68    	xor.w     w0, w0, w0
    1bee:	88 00 00    	nop       
    1bf0:	0e 1b 00    	nop       
    1bf2:	0c 00 00    	nop       
    1bf4:	00 00 00    	nop       
    1bf6:	72 0a 00    	nop       
    1bf8:	08 00 00    	nop       
    1bfa:	02 00 00    	nop       
    1bfc:	ff 7f 00    	nop       
    1bfe:	04 cc 0c    	bra       OA, 0xffffb408
    1c00:	33 4f 00    	nop       
    1c02:	e8 16 00    	nop       
    1c04:	02 00 00    	nop       
    1c06:	02 00 00    	nop       
    1c08:	00 00 00    	nop       
    1c0a:	a6 0a 00    	nop       
    1c0c:	04 00 00    	nop       
    1c0e:	02 00 00    	nop       
	...
    1c14:	40 1b 00    	nop       
    1c16:	02 00 00    	nop       
    1c18:	00 00 00    	nop       
    1c1a:	ea 16 00    	nop       
    1c1c:	02 00 00    	nop       
    1c1e:	02 00 00    	nop       
    1c20:	00 00 00    	nop       
    1c22:	1a 1b 00    	nop       
    1c24:	0c 00 00    	nop       
    1c26:	00 00 00    	nop       
    1c28:	aa 0a 00    	nop       
    1c2a:	14 00 00    	nop       
    1c2c:	02 00 00    	nop       
	...
    1c3c:	be 0a 00    	nop       
    1c3e:	10 00 00    	nop       
    1c40:	02 00 00    	nop       
    1c42:	00 00 00    	nop       
    1c44:	40 00 00    	nop       
	...
    1c4e:	ce 0a 00    	nop       
    1c50:	50 00 00    	nop       
    1c52:	02 00 00    	nop       
	...
    1c8a:	ec 16 00    	nop       
    1c8c:	06 00 00    	nop       
    1c8e:	02 00 00    	nop       
    1c90:	dc 9f 18    	subbr.w   w1, [++w12], [w15++]
    1c92:	00 00 00    	nop       
    1c94:	4e 1a 00    	nop       
    1c96:	38 00 00    	nop       
    1c98:	00 00 00    	nop       
    1c9a:	f2 16 00    	nop       
    1c9c:	02 00 00    	nop       
    1c9e:	02 00 00    	nop       
    1ca0:	85 2f 00    	nop       
    1ca2:	1e 0b 00    	nop       
    1ca4:	a4 00 00    	nop       
    1ca6:	02 00 00    	nop       
    1ca8:	00 40 00    	nop       
	...
    1cae:	40 00 00    	nop       
    1cb0:	00 00 00    	nop       
    1cb2:	00 00 40    	add.w     w0, w0, w0
    1cb4:	00 40 00    	nop       
	...
    1cba:	40 00 00    	nop       
    1cbc:	00 00 00    	nop       
    1cbe:	00 00 40    	add.w     w0, w0, w0
	...
    1cea:	00 48 08    	.pword 0x084800
    1cec:	00 00 00    	nop       
    1cee:	20 00 00    	nop       
    1cf0:	00 00 00    	nop       
    1cf2:	20 00 00    	nop       
	...
    1d16:	7a 0a 00    	nop       
    1d18:	02 00 00    	nop       
    1d1a:	02 00 00    	nop       
    1d1c:	0d 00 00    	nop       
    1d1e:	be 1a 00    	nop       
    1d20:	2e 00 00    	nop       
    1d22:	00 00 00    	nop       
    1d24:	c2 0b 00    	nop       
    1d26:	04 00 00    	nop       
    1d28:	02 00 00    	nop       
	...
    1d2e:	f4 16 00    	nop       
    1d30:	02 00 00    	nop       
    1d32:	02 00 00    	nop       
    1d34:	00 00 00    	nop       
    1d36:	c6 0b 00    	nop       
    1d38:	62 00 00    	nop       
    1d3a:	02 00 00    	nop       
    1d3c:	00 00 6a    	xor.w     w4, w0, w0
    1d3e:	99 01 00    	nop       
	...
    1d7e:	f6 16 00    	nop       
    1d80:	02 00 00    	nop       
    1d82:	02 00 00    	nop       
    1d84:	28 00 00    	nop       
    1d86:	28 0c 00    	nop       
    1d88:	3c 00 00    	nop       
    1d8a:	02 00 00    	nop       
	...
    1db4:	f8 16 00    	nop       
    1db6:	12 00 00    	nop       
    1db8:	02 00 00    	nop       
	...
    1dc4:	00 01 00    	nop       
    1dc6:	64 0c 00    	nop       
    1dc8:	2a 00 00    	nop       
    1dca:	02 00 00    	nop       
	...
    1dd8:	00 40 00    	nop       
    1dda:	40 00 40    	add.w     w0, [--w0], w0
	...
    1de8:	0a 17 00    	nop       
    1dea:	16 00 00    	nop       
    1dec:	02 00 00    	nop       
	...
    1df2:	01 00 ff    	nopr      
    1df4:	ff 01 00    	nop       
	...
    1dfe:	fe 1a 00    	nop       
    1e00:	10 00 00    	nop       
    1e02:	00 00 00    	nop       
    1e04:	8e 0c 00    	nop       
    1e06:	04 01 00    	nop       
    1e08:	02 00 00    	nop       
	...
    1eb8:	20 17 00    	nop       
    1eba:	02 00 00    	nop       
    1ebc:	02 00 00    	nop       
    1ebe:	00 00 00    	nop       
    1ec0:	9e 0e 00    	nop       
    1ec2:	00 06 00    	nop       
    1ec4:	02 00 00    	nop       
    1ec6:	00 00 c0    	mac       w4 * w5, A, [w8], w4, [w10], w4, w13
	...
    1ee6:	00 00 c0    	mac       w4 * w5, A, [w8], w4, [w10], w4, w13
    1ee8:	01 c0 86    	mov.w     0xd800, w1
    1eea:	08 00 00    	nop       
	...
    1f06:	00 00 c0    	mac       w4 * w5, A, [w8], w4, [w10], w4, w13
    1f08:	00 c0 96    	mov.b     [w0-192], w0
    1f0a:	09 00 00    	nop       
	...
    1f26:	00 00 c0    	mac       w4 * w5, A, [w8], w4, [w10], w4, w13
    1f28:	00 c0 a6    	btss.w    w0, #0xc
    1f2a:	0a 00 00    	nop       
	...
    1f46:	00 00 c0    	mac       w4 * w5, A, [w8], w4, [w10], w4, w13
    1f48:	00 c0 b6    	xor.b     0x0, WREG
    1f4a:	0b 00 00    	nop       
	...
    1f66:	00 00 c0    	mac       w4 * w5, A, [w8], w4, [w10], w4, w13
    1f68:	00 c0 c6    	msc       w6 * w7, B, [w8], w4, [w10], w4, w13
    1f6a:	0c 00 00    	nop       
	...
    1f86:	00 00 c0    	mac       w4 * w5, A, [w8], w4, [w10], w4, w13
    1f88:	00 c0 d6    	rlc.b     0x0, WREG
    1f8a:	0d 00 00    	nop       
	...
    1fa6:	00 00 c0    	mac       w4 * w5, A, [w8], w4, [w10], w4, w13
    1fa8:	00 c0 e6    	cpslt.w   w8, w0
    1faa:	0e 00 00    	nop       
	...
    1fc6:	00 00 c0    	mac       w4 * w5, A, [w8], w4, [w10], w4, w13
    1fc8:	00 00 f7    	.pword 0xf70000
    1fca:	4f 00 00    	nop       
	...
    1fe8:	00 60 06    	.pword 0x066000
    1fea:	01 01 00    	nop       
	...
    2008:	00 60 16    	subr.b    w12, w0, [--w0]
    200a:	02 01 00    	nop       
	...
    2028:	00 60 26    	mov.w     #0x6600, w0
    202a:	03 01 00    	nop       
	...
    2048:	00 60 36    	bra       LEU, 0xe04a
    204a:	04 01 00    	nop       
	...
    2068:	00 60 46    	add.b     w12, w0, [--w0]
    206a:	05 01 00    	nop       
	...
    2088:	00 60 56    	sub.b     w12, w0, [--w0]
    208a:	06 01 00    	nop       
	...
    20a8:	00 60 66    	and.b     w12, w0, [--w0]
    20aa:	07 01 00    	nop       
	...
    20c8:	00 a0 76    	ior.w     w13, w0, [--w0]
    20ca:	48 01 00    	nop       
	...
    20e6:	00 00 c0    	mac       w4 * w5, A, [w8], w4, [w10], w4, w13
    20e8:	00 30 45    	.pword 0x453000
    20ea:	18 00 00    	nop       
	...
    2106:	00 00 c0    	mac       w4 * w5, A, [w8], w4, [w10], w4, w13
    2108:	00 30 35    	bra       LT, 0x810a
    210a:	19 00 00    	nop       
	...
    2126:	00 00 c0    	mac       w4 * w5, A, [w8], w4, [w10], w4, w13
    2128:	00 30 25    	mov.w     #0x5300, w0
    212a:	1a 00 00    	nop       
	...
    2146:	00 00 c0    	mac       w4 * w5, A, [w8], w4, [w10], w4, w13
    2148:	00 30 15    	.pword 0x153000
    214a:	1b 00 00    	nop       
	...
    2166:	00 00 c0    	mac       w4 * w5, A, [w8], w4, [w10], w4, w13
    2168:	00 30 54    	.pword 0x543000
    216a:	1c 00 00    	nop       
	...
    2186:	00 00 c0    	mac       w4 * w5, A, [w8], w4, [w10], w4, w13
    2188:	00 30 fc    	disi      #0x3000
    218a:	1d 00 00    	nop       
	...
    21a6:	00 00 c0    	mac       w4 * w5, A, [w8], w4, [w10], w4, w13
    21a8:	00 30 e0    	.pword 0xe03000
    21aa:	1e 00 00    	nop       
	...
    21c6:	00 00 c0    	mac       w4 * w5, A, [w8], w4, [w10], w4, w13
    21c8:	00 30 f0    	mac       w4 * w4, A, [w8], w7, [w10], w4
    21ca:	1f 00 00    	nop       
	...
    21e6:	00 00 c0    	mac       w4 * w5, A, [w8], w4, [w10], w4, w13
    21e8:	00 10 62    	and.w     w4, w0, [w0--]
    21ea:	20 00 00    	nop       
	...
    2206:	00 00 c0    	mac       w4 * w5, A, [w8], w4, [w10], w4, w13
    2208:	00 10 72    	ior.w     w4, w0, [w0--]
    220a:	21 00 00    	nop       
	...
    2226:	00 00 c0    	mac       w4 * w5, A, [w8], w4, [w10], w4, w13
    2228:	00 10 02    	call      0x221000 <ACC_S+0x216038>
    222a:	22 00 00 
	...
    2246:	00 00 c0    	mac       w4 * w5, A, [w8], w4, [w10], w4, w13
    2248:	00 10 12    	subr.w    w4, w0, [w0--]
    224a:	23 00 00    	nop       
	...
    2266:	00 00 c0    	mac       w4 * w5, A, [w8], w4, [w10], w4, w13
    2268:	00 10 32    	bra       Z, 0x426a
    226a:	24 00 00    	nop       
	...
    2286:	00 00 c0    	mac       w4 * w5, A, [w8], w4, [w10], w4, w13
    2288:	00 10 42    	add.w     w4, w0, [w0--]
    228a:	25 00 00    	nop       
	...
    22c6:	44 1b 00    	nop       
    22c8:	02 00 00    	nop       
    22ca:	00 00 00    	nop       
    22cc:	00 1c 00    	nop       
    22ce:	00 04 00    	nop       
    22d0:	02 00 00    	nop       
	...
    257e:	22 17 00    	nop       
    2580:	04 00 00    	nop       
    2582:	02 00 00    	nop       
	...
    2588:	3a 1b 00    	nop       
    258a:	04 00 00    	nop       
    258c:	00 00 00    	nop       
    258e:	92 0d 00    	nop       
    2590:	82 00 00    	nop       
    2592:	02 00 00    	nop       
	...
    25ec:	26 17 00    	nop       
    25ee:	04 00 00    	nop       
    25f0:	02 00 00    	nop       
	...
    25f6:	ec 1a 00    	nop       
    25f8:	12 00 00    	nop       
    25fa:	00 00 00    	nop       
    25fc:	66 17 00    	nop       
    25fe:	2a 00 00    	nop       
    2600:	02 00 00    	nop       
    2602:	20 00 00    	nop       
    2604:	af 3f af    	btsc.b    0x1faf, #0x1
    2606:	01 00 00    	nop       
    2608:	76 3f 76    	.pword 0x763f76
    260a:	00 76 20    	mov.w     #0x760, w0
    260c:	00 00 af    	btsc.b    0x0, #0x0
    260e:	3f af 01    	.pword 0x01af3f
    2610:	00 40 76    	ior.b     w12, w0, w0
    2612:	7f 76 40    	.pword 0x40767f
    2614:	76 20 00    	nop       
    2616:	00 af 3f    	bra       0xffff8418
    2618:	af 01 00    	nop       
    261a:	80 76 bf    	.pword 0xbf7680
    261c:	76 80 76    	ior.w     w13, #0x16, w0
    261e:	00 76 00    	nop       
    2620:	c0 00 00    	nop       
    2622:	02 00 00    	nop       
	...
    26a4:	9e 14 00    	nop       
    26a6:	0a 00 00    	nop       
    26a8:	02 00 00    	nop       
	...
    26b2:	8a 0a 00    	nop       
    26b4:	02 00 00    	nop       
    26b6:	02 00 00    	nop       
    26b8:	00 00 00    	nop       
    26ba:	50 08 00    	nop       
    26bc:	08 00 00    	nop       
    26be:	02 00 00    	nop       
    26c0:	01 00 50    	sub.w     w0, w1, w0
    26c2:	08 8a 0a    	.pword 0x0a8a08
    26c4:	00 00 00    	nop       
    26c6:	2a 17 00    	nop       
    26c8:	02 00 00    	nop       
    26ca:	02 00 00    	nop       
    26cc:	00 00 00    	nop       
    26ce:	a8 14 00    	nop       
    26d0:	1e 02 00    	nop       
    26d2:	02 00 00    	nop       
	...
    27a8:	00 00 e6    	cpsgt.w   w0, w0
    27aa:	15 a8 14    	subr.w    w9, [w5], [++w0]
	...
    27bc:	00 00 04    	goto      0xa8160000 <__FUID3.sec+0xa71dffea>
    27be:	16 a8 14 
	...
    27d0:	00 00 22    	mov.w     #0x2000, w0
    27d2:	16 a8 14    	subr.w    w9, [w6], [++w0]
	...
    27e4:	00 00 40    	add.w     w0, w0, w0
    27e6:	16 a8 14    	subr.w    w9, [w6], [++w0]
	...
    27f8:	00 00 5e    	subb.w    w12, w0, w0
    27fa:	16 a8 14    	subr.w    w9, [w6], [++w0]
	...
    280c:	00 00 7c    	mov.w     w0, w0
    280e:	16 a8 14    	subr.w    w9, [w6], [++w0]
	...
    2820:	00 00 9a    	mov.w     w0, [w0+512]
    2822:	16 a8 14    	subr.w    w9, [w6], [++w0]
	...
    2834:	00 00 b8    	mul.uu    w0, w0, w0
    2836:	16 a8 14    	subr.w    w9, [w6], [++w0]
	...
    283e:	2c 17 00    	nop       
    2840:	18 00 00    	nop       
    2842:	02 00 00    	nop       
    2844:	56 5e 56    	sub.b     w12, [++w6], [w12++]
    2846:	5e 56 5e    	subb.b    w12, [++w14], [w12--]
    2848:	56 5e 56    	sub.b     w12, [++w6], [w12++]
    284a:	5e 56 5e    	subb.b    w12, [++w14], [w12--]
    284c:	56 5e 56    	sub.b     w12, [++w6], [w12++]
    284e:	5e 00 00    	nop       
	...
    2854:	2c 1b 00    	nop       
    2856:	06 00 00    	nop       
    2858:	00 00 00    	nop       
    285a:	14 0e 00    	nop       
    285c:	8a 00 00    	nop       
    285e:	02 00 00    	nop       
	...
    28bc:	44 17 00    	nop       
    28be:	04 00 00    	nop       
    28c0:	02 00 00    	nop       
    28c2:	01 00 00    	nop       
    28c4:	00 00 00    	nop       
    28c6:	00 20 00    	nop       
    28c8:	00 07 00    	nop       
    28ca:	02 00 00    	nop       
	...
    2d78:	86 1a 00    	nop       
    2d7a:	38 00 00    	nop       
    2d7c:	00 00 00    	nop       
    2d7e:	00 78 00    	nop       
    2d80:	40 01 00    	nop       
    2d82:	00 00 00    	nop       
    2d84:	00 7a 00    	nop       
    2d86:	40 01 00    	nop       
    2d88:	00 00 00    	nop       
    2d8a:	80 7b 00    	nop       
    2d8c:	0c 00 00    	nop       
    2d8e:	00 00 00    	nop       
    2d90:	80 79 00    	nop       
    2d92:	0c 00 00    	nop       
    2d94:	00 00 00    	nop       
    2d96:	90 17 00    	nop       
    2d98:	2a 00 00    	nop       
    2d9a:	02 00 00    	nop       
    2d9c:	20 00 40    	add.w     w0, [w0--], w0
    2d9e:	af 7f af    	btsc.b    0x1faf, #0x3
    2da0:	01 00 00    	nop       
    2da2:	77 3f 77    	.pword 0x773f77
    2da4:	00 77 20    	mov.w     #0x770, w0
    2da6:	00 40 af    	btsc.b    0x0, #0x2
    2da8:	7f af 01    	.pword 0x01af7f
    2daa:	00 40 77    	ior.b     w14, w0, w0
    2dac:	7f 77 40    	.pword 0x40777f
    2dae:	77 20 00    	nop       
    2db0:	40 af 7f    	mov.w     [--w0], [++w14]
    2db2:	af 01 00    	nop       
    2db4:	80 77 bf    	.pword 0xbf7780
    2db6:	77 80 77    	ior.w     w15, #0x17, w0
    2db8:	00 77 00    	nop       
    2dba:	c0 00 00    	nop       
    2dbc:	02 00 00    	nop       
	...
    2e3e:	7c 0a 00    	nop       
    2e40:	0e 00 00    	nop       
    2e42:	02 00 00    	nop       
    2e44:	01 c8 00    	nop       
    2e46:	00 00 01    	call      w0
    2e48:	01 01 08    	do        #0x101, 0x2e5c
    2e4a:	08 00 00 
    2e4c:	00 00 00    	nop       
    2e4e:	48 17 00    	nop       
    2e50:	1e 00 00    	nop       
    2e52:	02 00 00    	nop       
	...
    2e68:	00 27 00    	nop       
    2e6a:	00 02 00    	nop       
    2e6c:	02 00 00    	nop       
	...
    2fc4:	36 19 00    	nop       
    2fc6:	18 01 00    	nop       
    2fc8:	00 00 00    	nop       
    2fca:	ee 17 00    	nop       
    2fcc:	48 01 00    	nop       
    2fce:	00 00 00    	nop       
    2fd0:	ba 17 00    	nop       
    2fd2:	12 00 00    	nop       
    2fd4:	02 00 00    	nop       
    2fd6:	01 00 02    	call      0x4000001 <__FUID3.sec+0x307ffeb>
    2fd8:	00 04 00 
    2fda:	08 00 10    	subr.w    w0, w8, w0
    2fdc:	00 00 00    	nop       
    2fde:	20 2b 2d    	mov.w     #0xd2b2, w0
    2fe0:	23 30 00    	nop       
    2fe2:	c0 76 00    	nop       
    2fe4:	08 00 00    	nop       
    2fe6:	02 00 00    	nop       
    2fe8:	68 6a 6c    	xor.b     w8, #0x8, [++w4]
    2fea:	74 7a 4c    	.pword 0x4c7a74
    2fec:	00 00 00    	nop       
    2fee:	cc 17 00    	nop       
    2ff0:	22 00 00    	nop       
    2ff2:	02 00 00    	nop       
    2ff4:	30 31 32    	bra       Z, 0x9256
    2ff6:	33 34 35    	bra       LT, 0x985e
    2ff8:	36 37 38    	bra       NOV, 0x9e66
    2ffa:	39 61 62    	and.b     w4, [w9++], [--w2]
    2ffc:	63 64 65    	and.b     w10, #0x3, [--w8]
    2ffe:	66 00 30    	bra       OV, 0x30cc
    3000:	31 32 33    	bra       N, 0x9464
    3002:	34 35 36    	bra       LEU, 0x9a6c
    3004:	37 38 39    	bra       NC, 0xa074 <.L38>
    3006:	41 42 43    	add.b     w6, [--w1], w4
    3008:	44 45 46    	add.b     w12, [--w4], w10
	...
Disassembly of section .text:

0000300e <_mavlink_send_uart>:
    300e:	04 00 fa    	lnk       #0x4
    3010:	00 0f 78    	mov.w     w0, [w14]
    3012:	11 07 98    	mov.w     w1, [w14+2]
    3014:	9e 00 90    	mov.w     [w14+2], w1
    3016:	50 c5 b3    	mov.b     #0x55, w0
    3018:	80 48 78    	mov.b     w0, [w1]
    301a:	1e 00 90    	mov.w     [w14+2], w0
    301c:	61 00 20    	mov.w     #0x6, w1
    301e:	67 2e 07    	rcall     0x8cee <_udb_serial_send_packet>
    3020:	1e 00 90    	mov.w     [w14+2], w0
    3022:	10 40 90    	mov.b     [w0+1], w0
    3024:	80 80 fb    	ze        w0, w1
    3026:	1e 00 90    	mov.w     [w14+2], w0
    3028:	68 00 40    	add.w     w0, #0x8, w0
    302a:	61 2e 07    	rcall     0x8cee <_udb_serial_send_packet>
    302c:	1e 00 90    	mov.w     [w14+2], w0
    302e:	60 40 90    	mov.b     [w0+6], w0
    3030:	b6 2e 07    	rcall     0x8d9e <_udb_serial_send_char>
    3032:	1e 00 90    	mov.w     [w14+2], w0
    3034:	70 40 90    	mov.b     [w0+7], w0
    3036:	b3 2e 07    	rcall     0x8d9e <_udb_serial_send_char>
    3038:	00 80 fa    	ulnk      
    303a:	00 00 06    	return    

0000303c <_init_serial>:
    303c:	00 00 fa    	lnk       #0x0
    303e:	00 20 2c    	mov.w     #0xc200, w0
    3040:	11 00 20    	mov.w     #0x1, w1
    3042:	26 2e 07    	rcall     0x8c90 <_udb_serial_set_rate>
    3044:	00 80 fa    	ulnk      
    3046:	00 00 06    	return    

00003048 <_udb_serial_callback_received_char>:
    3048:	02 00 fa    	lnk       #0x2
    304a:	00 4f 78    	mov.b     w0, [w14]
    304c:	9e 40 78    	mov.b     [w14], w1
    304e:	e3 a3 21    	mov.w     #0x1a3e, w3
    3050:	62 93 21    	mov.w     #0x1936, w2
    3052:	00 40 eb    	clr.b     w0
    3054:	c6 27 07    	rcall     0x7fe2 <_mavlink_parse_char>
    3056:	00 04 e0    	cp0.b     w0
    3058:	02 00 32    	bra       Z, 0x305e <.L8>
    305a:	60 93 21    	mov.w     #0x1936, w0
    305c:	22 02 07    	rcall     0x34a2 <_handleMessage>

0000305e <.L8>:
    305e:	00 80 fa    	ulnk      
    3060:	00 00 06    	return    

00003062 <_mavlink_param>:
    3062:	18 00 fa    	lnk       #0x18
    3064:	88 1f 78    	mov.w     w8, [w15++]
    3066:	60 47 98    	mov.b     w0, [w14+6]
    3068:	71 47 98    	mov.b     w1, [w14+7]
    306a:	42 07 98    	mov.w     w2, [w14+8]
    306c:	53 07 98    	mov.w     w3, [w14+10]
    306e:	6e 40 90    	mov.b     [w14+6], w0
    3070:	80 80 fb    	ze        w0, w1
    3072:	a0 af 84    	mov.w     0x95f4, w0
    3074:	80 8f 50    	sub.w     w1, w0, [w15]
    3076:	a1 01 3d    	bra       GE, 0x33ba <.L47>
    3078:	7e 40 90    	mov.b     [w14+7], w0
    307a:	00 04 e0    	cp0.b     w0
    307c:	dd 00 3a    	bra       NZ, 0x3238 <.L12>
    307e:	6e 40 90    	mov.b     [w14+6], w0
    3080:	00 80 fb    	ze        w0, w0
    3082:	7c 00 b9    	mul.su    w0, #0x1c, w0
    3084:	fa 00 40    	add.w     w0, #0x1a, w1
    3086:	c0 38 29    	mov.w     #0x938c, w0
    3088:	00 80 40    	add.w     w1, w0, w0
    308a:	10 40 78    	mov.b     [w0], w0
    308c:	00 80 fb    	ze        w0, w0
    308e:	70 07 98    	mov.w     w0, [w14+14]
    3090:	7e 00 90    	mov.w     [w14+14], w0
    3092:	e3 0f 50    	sub.w     w0, #0x3, [w15]
    3094:	47 00 32    	bra       Z, 0x3124 <.L18>
    3096:	fe 00 90    	mov.w     [w14+14], w1
    3098:	e3 8f 50    	sub.w     w1, #0x3, [w15]
    309a:	0a 00 3c    	bra       GT, 0x30b0 <.L23>
    309c:	7e 01 90    	mov.w     [w14+14], w2
    309e:	e1 0f 51    	sub.w     w2, #0x1, [w15]
    30a0:	1f 00 32    	bra       Z, 0x30e0 <.L16>
    30a2:	fe 01 90    	mov.w     [w14+14], w3
    30a4:	e1 8f 51    	sub.w     w3, #0x1, [w15]
    30a6:	2d 00 3c    	bra       GT, 0x3102 <.L17>
    30a8:	7e 00 90    	mov.w     [w14+14], w0
    30aa:	00 00 e0    	cp0.w     w0
    30ac:	0e 00 32    	bra       Z, 0x30ca <.L15>
    30ae:	b0 00 37    	bra       0x3210 <.L14>

000030b0 <.L23>:
    30b0:	fe 00 90    	mov.w     [w14+14], w1
    30b2:	e5 8f 50    	sub.w     w1, #0x5, [w15]
    30b4:	5e 00 32    	bra       Z, 0x3172 <.L20>
    30b6:	7e 01 90    	mov.w     [w14+14], w2
    30b8:	e5 0f 51    	sub.w     w2, #0x5, [w15]
    30ba:	41 00 35    	bra       LT, 0x313e <.L19>
    30bc:	fe 01 90    	mov.w     [w14+14], w3
    30be:	e6 8f 51    	sub.w     w3, #0x6, [w15]
    30c0:	66 00 32    	bra       Z, 0x318e <.L21>
    30c2:	7e 00 90    	mov.w     [w14+14], w0
    30c4:	e7 0f 50    	sub.w     w0, #0x7, [w15]
    30c6:	7e 00 32    	bra       Z, 0x31c4 <.L22>
    30c8:	a3 00 37    	bra       0x3210 <.L14>

000030ca <.L15>:
    30ca:	6e 40 90    	mov.b     [w14+6], w0
    30cc:	00 80 fb    	ze        w0, w0
    30ce:	7c 00 b9    	mul.su    w0, #0x1c, w0
    30d0:	f8 00 40    	add.w     w0, #0x18, w1
    30d2:	c0 38 29    	mov.w     #0x938c, w0
    30d4:	00 80 40    	add.w     w1, w0, w0
    30d6:	10 00 78    	mov.w     [w0], w0
    30d8:	10 01 be    	mov.d     [w0], w2
    30da:	12 07 98    	mov.w     w2, [w14+2]
    30dc:	23 07 98    	mov.w     w3, [w14+4]
    30de:	9b 00 37    	bra       0x3216 <.L24>

000030e0 <.L16>:
    30e0:	6e 40 90    	mov.b     [w14+6], w0
    30e2:	00 80 fb    	ze        w0, w0
    30e4:	7c 00 b9    	mul.su    w0, #0x1c, w0
    30e6:	f8 00 40    	add.w     w0, #0x18, w1
    30e8:	c0 38 29    	mov.w     #0x938c, w0
    30ea:	00 80 40    	add.w     w1, w0, w0
    30ec:	10 00 78    	mov.w     [w0], w0
    30ee:	10 0f 78    	mov.w     [w0], [w14]
    30f0:	1e 00 78    	mov.w     [w14], w0
    30f2:	cf 80 de    	asr.w     w0, #0xf, w1
    30f4:	b1 ed 07    	rcall     0xc58 <___floatsisf>
    30f6:	02 00 20    	mov.w     #0x0, w2
    30f8:	03 68 24    	mov.w     #0x4680, w3
    30fa:	3e ee 07    	rcall     0xd78 <___divsf3>
    30fc:	10 07 98    	mov.w     w0, [w14+2]
    30fe:	21 07 98    	mov.w     w1, [w14+4]
    3100:	8a 00 37    	bra       0x3216 <.L24>

00003102 <.L17>:
    3102:	6e 40 90    	mov.b     [w14+6], w0
    3104:	00 80 fb    	ze        w0, w0
    3106:	7c 00 b9    	mul.su    w0, #0x1c, w0
    3108:	f8 00 40    	add.w     w0, #0x18, w1
    310a:	c0 38 29    	mov.w     #0x938c, w0
    310c:	00 80 40    	add.w     w1, w0, w0
    310e:	10 00 78    	mov.w     [w0], w0
    3110:	10 0f 78    	mov.w     [w0], [w14]
    3112:	1e 00 78    	mov.w     [w14], w0
    3114:	cf 80 de    	asr.w     w0, #0xf, w1
    3116:	a0 ed 07    	rcall     0xc58 <___floatsisf>
    3118:	02 e0 2f    	mov.w     #0xfe00, w2
    311a:	f3 6f 24    	mov.w     #0x46ff, w3
    311c:	2d ee 07    	rcall     0xd78 <___divsf3>
    311e:	10 07 98    	mov.w     w0, [w14+2]
    3120:	21 07 98    	mov.w     w1, [w14+4]
    3122:	79 00 37    	bra       0x3216 <.L24>

00003124 <.L18>:
    3124:	6e 40 90    	mov.b     [w14+6], w0
    3126:	00 80 fb    	ze        w0, w0
    3128:	7c 00 b9    	mul.su    w0, #0x1c, w0
    312a:	f8 00 40    	add.w     w0, #0x18, w1
    312c:	c0 38 29    	mov.w     #0x938c, w0
    312e:	00 80 40    	add.w     w1, w0, w0
    3130:	10 00 78    	mov.w     [w0], w0
    3132:	10 00 78    	mov.w     [w0], w0
    3134:	cf 80 de    	asr.w     w0, #0xf, w1
    3136:	90 ed 07    	rcall     0xc58 <___floatsisf>
    3138:	10 07 98    	mov.w     w0, [w14+2]
    313a:	21 07 98    	mov.w     w1, [w14+4]
    313c:	6c 00 37    	bra       0x3216 <.L24>

0000313e <.L19>:
    313e:	6e 40 90    	mov.b     [w14+6], w0
    3140:	00 80 fb    	ze        w0, w0
    3142:	7c 00 b9    	mul.su    w0, #0x1c, w0
    3144:	f8 00 40    	add.w     w0, #0x18, w1
    3146:	c0 38 29    	mov.w     #0x938c, w0
    3148:	00 80 40    	add.w     w1, w0, w0
    314a:	10 00 78    	mov.w     [w0], w0
    314c:	10 04 78    	mov.w     [w0], w8
    314e:	61 40 b9    	mul.su    w8, #0x1, w0
    3150:	83 ed 07    	rcall     0xc58 <___floatsisf>
    3152:	00 0f 98    	mov.w     w0, [w14+16]
    3154:	11 0f 98    	mov.w     w1, [w14+18]
    3156:	08 00 e0    	cp0.w     w8
    3158:	07 00 3d    	bra       GE, 0x3168 <.L25>
    315a:	02 00 20    	mov.w     #0x0, w2
    315c:	03 78 24    	mov.w     #0x4780, w3
    315e:	0e 08 90    	mov.w     [w14+16], w0
    3160:	9e 08 90    	mov.w     [w14+18], w1
    3162:	4d ee 07    	rcall     0xdfe <___addsf3>
    3164:	00 0f 98    	mov.w     w0, [w14+16]
    3166:	11 0f 98    	mov.w     w1, [w14+18]

00003168 <.L25>:
    3168:	0e 08 90    	mov.w     [w14+16], w0
    316a:	9e 08 90    	mov.w     [w14+18], w1
    316c:	10 07 98    	mov.w     w0, [w14+2]
    316e:	21 07 98    	mov.w     w1, [w14+4]
    3170:	52 00 37    	bra       0x3216 <.L24>

00003172 <.L20>:
    3172:	6e 40 90    	mov.b     [w14+6], w0
    3174:	00 80 fb    	ze        w0, w0
    3176:	7c 00 b9    	mul.su    w0, #0x1c, w0
    3178:	f8 00 40    	add.w     w0, #0x18, w1
    317a:	c0 38 29    	mov.w     #0x938c, w0
    317c:	00 80 40    	add.w     w1, w0, w0
    317e:	10 00 78    	mov.w     [w0], w0
    3180:	10 40 78    	mov.b     [w0], w0
    3182:	00 00 fb    	se        w0, w0
    3184:	cf 80 de    	asr.w     w0, #0xf, w1
    3186:	68 ed 07    	rcall     0xc58 <___floatsisf>
    3188:	10 07 98    	mov.w     w0, [w14+2]
    318a:	21 07 98    	mov.w     w1, [w14+4]
    318c:	44 00 37    	bra       0x3216 <.L24>

0000318e <.L21>:
    318e:	6e 40 90    	mov.b     [w14+6], w0
    3190:	00 80 fb    	ze        w0, w0
    3192:	7c 00 b9    	mul.su    w0, #0x1c, w0
    3194:	f8 00 40    	add.w     w0, #0x18, w1
    3196:	c0 38 29    	mov.w     #0x938c, w0
    3198:	00 80 40    	add.w     w1, w0, w0
    319a:	10 00 78    	mov.w     [w0], w0
    319c:	10 44 78    	mov.b     [w0], w8
    319e:	08 00 fb    	se        w8, w0
    31a0:	cf 80 de    	asr.w     w0, #0xf, w1
    31a2:	5a ed 07    	rcall     0xc58 <___floatsisf>
    31a4:	20 0f 98    	mov.w     w0, [w14+20]
    31a6:	31 0f 98    	mov.w     w1, [w14+22]
    31a8:	08 04 e0    	cp0.b     w8
    31aa:	07 00 3d    	bra       GE, 0x31ba <.L26>
    31ac:	02 00 20    	mov.w     #0x0, w2
    31ae:	03 38 24    	mov.w     #0x4380, w3
    31b0:	2e 08 90    	mov.w     [w14+20], w0
    31b2:	be 08 90    	mov.w     [w14+22], w1
    31b4:	24 ee 07    	rcall     0xdfe <___addsf3>
    31b6:	20 0f 98    	mov.w     w0, [w14+20]
    31b8:	31 0f 98    	mov.w     w1, [w14+22]

000031ba <.L26>:
    31ba:	2e 09 90    	mov.w     [w14+20], w2
    31bc:	be 09 90    	mov.w     [w14+22], w3
    31be:	12 07 98    	mov.w     w2, [w14+2]
    31c0:	23 07 98    	mov.w     w3, [w14+4]
    31c2:	29 00 37    	bra       0x3216 <.L24>

000031c4 <.L22>:
    31c4:	6e 40 90    	mov.b     [w14+6], w0
    31c6:	00 80 fb    	ze        w0, w0
    31c8:	7c 00 b9    	mul.su    w0, #0x1c, w0
    31ca:	f8 00 40    	add.w     w0, #0x18, w1
    31cc:	c0 38 29    	mov.w     #0x938c, w0
    31ce:	00 80 40    	add.w     w1, w0, w0
    31d0:	10 00 78    	mov.w     [w0], w0
    31d2:	10 40 78    	mov.b     [w0], w0
    31d4:	00 00 fb    	se        w0, w0
    31d6:	cf 80 de    	asr.w     w0, #0xf, w1
    31d8:	3f ed 07    	rcall     0xc58 <___floatsisf>
    31da:	10 07 98    	mov.w     w0, [w14+2]
    31dc:	21 07 98    	mov.w     w1, [w14+4]
    31de:	1e 00 90    	mov.w     [w14+2], w0
    31e0:	ae 00 90    	mov.w     [w14+4], w1
    31e2:	02 00 20    	mov.w     #0x0, w2
    31e4:	43 33 24    	mov.w     #0x4334, w3
    31e6:	63 ed 07    	rcall     0xcae <___mulsf3>
    31e8:	02 00 20    	mov.w     #0x0, w2
    31ea:	03 30 24    	mov.w     #0x4300, w3
    31ec:	c5 ed 07    	rcall     0xd78 <___divsf3>
    31ee:	10 07 98    	mov.w     w0, [w14+2]
    31f0:	21 07 98    	mov.w     w1, [w14+4]
    31f2:	60 11 b8    	mul.uu    w2, #0x0, w2
    31f4:	1e 00 90    	mov.w     [w14+2], w0
    31f6:	ae 00 90    	mov.w     [w14+4], w1
    31f8:	5f ee 07    	rcall     0xeb8 <___eqsf2>
    31fa:	00 00 e0    	cp0.w     w0
    31fc:	01 00 35    	bra       LT, 0x3200 <.L29>
    31fe:	0b 00 37    	bra       0x3216 <.L24>

00003200 <.L29>:
    3200:	02 00 20    	mov.w     #0x0, w2
    3202:	43 33 24    	mov.w     #0x4334, w3
    3204:	1e 00 90    	mov.w     [w14+2], w0
    3206:	ae 00 90    	mov.w     [w14+4], w1
    3208:	fa ed 07    	rcall     0xdfe <___addsf3>
    320a:	10 07 98    	mov.w     w0, [w14+2]
    320c:	21 07 98    	mov.w     w1, [w14+4]
    320e:	03 00 37    	bra       0x3216 <.L24>

00003210 <.L14>:
    3210:	60 00 b8    	mul.uu    w0, #0x0, w0
    3212:	10 07 98    	mov.w     w0, [w14+2]
    3214:	21 07 98    	mov.w     w1, [w14+4]

00003216 <.L24>:
    3216:	6e 40 90    	mov.b     [w14+6], w0
    3218:	00 81 fb    	ze        w0, w2
    321a:	a0 af 84    	mov.w     0x95f4, w0
    321c:	80 01 78    	mov.w     w0, w3
    321e:	6e 40 90    	mov.b     [w14+6], w0
    3220:	00 80 fb    	ze        w0, w0
    3222:	7c 00 b9    	mul.su    w0, #0x1c, w0
    3224:	80 00 78    	mov.w     w0, w1
    3226:	c0 38 29    	mov.w     #0x938c, w0
    3228:	80 80 40    	add.w     w1, w0, w1
    322a:	82 02 78    	mov.w     w2, w5
    322c:	03 02 78    	mov.w     w3, w4
    322e:	1e 01 90    	mov.w     [w14+2], w2
    3230:	ae 01 90    	mov.w     [w14+4], w3
    3232:	00 00 eb    	clr.w     w0
    3234:	c5 00 07    	rcall     0x33c0 <_mavlink_msg_param_value_send>
    3236:	c1 00 37    	bra       0x33ba <.L47>

00003238 <.L12>:
    3238:	6e 40 90    	mov.b     [w14+6], w0
    323a:	00 80 fb    	ze        w0, w0
    323c:	7c 00 b9    	mul.su    w0, #0x1c, w0
    323e:	f4 00 40    	add.w     w0, #0x14, w1
    3240:	c0 38 29    	mov.w     #0x938c, w0
    3242:	00 80 40    	add.w     w1, w0, w0
    3244:	10 00 be    	mov.d     [w0], w0
    3246:	4e 01 90    	mov.w     [w14+8], w2
    3248:	de 01 90    	mov.w     [w14+10], w3
    324a:	36 ee 07    	rcall     0xeb8 <___eqsf2>
    324c:	00 00 e0    	cp0.w     w0
    324e:	b5 00 35    	bra       LT, 0x33ba <.L47>
    3250:	6e 40 90    	mov.b     [w14+6], w0
    3252:	00 80 fb    	ze        w0, w0
    3254:	7c 00 b9    	mul.su    w0, #0x1c, w0
    3256:	f0 00 40    	add.w     w0, #0x10, w1
    3258:	c0 38 29    	mov.w     #0x938c, w0
    325a:	00 80 40    	add.w     w1, w0, w0
    325c:	10 00 be    	mov.d     [w0], w0
    325e:	4e 01 90    	mov.w     [w14+8], w2
    3260:	de 01 90    	mov.w     [w14+10], w3
    3262:	2c ee 07    	rcall     0xebc <___gesf2>
    3264:	00 00 e0    	cp0.w     w0
    3266:	a9 00 3c    	bra       GT, 0x33ba <.L47>
    3268:	6e 40 90    	mov.b     [w14+6], w0
    326a:	00 80 fb    	ze        w0, w0
    326c:	7c 00 b9    	mul.su    w0, #0x1c, w0
    326e:	fa 00 40    	add.w     w0, #0x1a, w1
    3270:	c0 38 29    	mov.w     #0x938c, w0
    3272:	00 80 40    	add.w     w1, w0, w0
    3274:	10 40 78    	mov.b     [w0], w0
    3276:	00 80 fb    	ze        w0, w0
    3278:	60 07 98    	mov.w     w0, [w14+12]
    327a:	ee 01 90    	mov.w     [w14+12], w3
    327c:	e3 8f 51    	sub.w     w3, #0x3, [w15]
    327e:	45 00 32    	bra       Z, 0x330a <.L38>
    3280:	6e 00 90    	mov.w     [w14+12], w0
    3282:	e3 0f 50    	sub.w     w0, #0x3, [w15]
    3284:	0a 00 3c    	bra       GT, 0x329a <.L43>
    3286:	ee 00 90    	mov.w     [w14+12], w1
    3288:	e1 8f 50    	sub.w     w1, #0x1, [w15]
    328a:	1f 00 32    	bra       Z, 0x32ca <.L36>
    328c:	6e 01 90    	mov.w     [w14+12], w2
    328e:	e1 0f 51    	sub.w     w2, #0x1, [w15]
    3290:	2c 00 3c    	bra       GT, 0x32ea <.L37>
    3292:	ee 01 90    	mov.w     [w14+12], w3
    3294:	03 00 e0    	cp0.w     w3
    3296:	0e 00 32    	bra       Z, 0x32b4 <.L35>
    3298:	8d 00 37    	bra       0x33b4 <.L34>

0000329a <.L43>:
    329a:	6e 00 90    	mov.w     [w14+12], w0
    329c:	e5 0f 50    	sub.w     w0, #0x5, [w15]
    329e:	4d 00 32    	bra       Z, 0x333a <.L40>
    32a0:	ee 00 90    	mov.w     [w14+12], w1
    32a2:	e5 8f 50    	sub.w     w1, #0x5, [w15]
    32a4:	3e 00 35    	bra       LT, 0x3322 <.L39>
    32a6:	6e 01 90    	mov.w     [w14+12], w2
    32a8:	e6 0f 51    	sub.w     w2, #0x6, [w15]
    32aa:	53 00 32    	bra       Z, 0x3352 <.L41>
    32ac:	ee 01 90    	mov.w     [w14+12], w3
    32ae:	e7 8f 51    	sub.w     w3, #0x7, [w15]
    32b0:	5c 00 32    	bra       Z, 0x336a <.L42>
    32b2:	80 00 37    	bra       0x33b4 <.L34>

000032b4 <.L35>:
    32b4:	6e 40 90    	mov.b     [w14+6], w0
    32b6:	00 80 fb    	ze        w0, w0
    32b8:	7c 00 b9    	mul.su    w0, #0x1c, w0
    32ba:	f8 00 40    	add.w     w0, #0x18, w1
    32bc:	c0 38 29    	mov.w     #0x938c, w0
    32be:	00 80 40    	add.w     w1, w0, w0
    32c0:	10 00 78    	mov.w     [w0], w0
    32c2:	4e 01 90    	mov.w     [w14+8], w2
    32c4:	de 01 90    	mov.w     [w14+10], w3
    32c6:	02 88 be    	mov.d     w2, [w0]
    32c8:	78 00 37    	bra       0x33ba <.L47>

000032ca <.L36>:
    32ca:	02 00 20    	mov.w     #0x0, w2
    32cc:	03 68 24    	mov.w     #0x4680, w3
    32ce:	4e 00 90    	mov.w     [w14+8], w0
    32d0:	de 00 90    	mov.w     [w14+10], w1
    32d2:	ed ec 07    	rcall     0xcae <___mulsf3>
    32d4:	20 ed 07    	rcall     0xd16 <___fixsfsi>
    32d6:	00 0f 78    	mov.w     w0, [w14]
    32d8:	6e 40 90    	mov.b     [w14+6], w0
    32da:	00 80 fb    	ze        w0, w0
    32dc:	7c 00 b9    	mul.su    w0, #0x1c, w0
    32de:	f8 00 40    	add.w     w0, #0x18, w1
    32e0:	c0 38 29    	mov.w     #0x938c, w0
    32e2:	00 80 40    	add.w     w1, w0, w0
    32e4:	10 00 78    	mov.w     [w0], w0
    32e6:	1e 08 78    	mov.w     [w14], [w0]
    32e8:	68 00 37    	bra       0x33ba <.L47>

000032ea <.L37>:
    32ea:	02 e0 2f    	mov.w     #0xfe00, w2
    32ec:	f3 6f 24    	mov.w     #0x46ff, w3
    32ee:	4e 00 90    	mov.w     [w14+8], w0
    32f0:	de 00 90    	mov.w     [w14+10], w1
    32f2:	dd ec 07    	rcall     0xcae <___mulsf3>
    32f4:	10 ed 07    	rcall     0xd16 <___fixsfsi>
    32f6:	00 0f 78    	mov.w     w0, [w14]
    32f8:	6e 40 90    	mov.b     [w14+6], w0
    32fa:	00 80 fb    	ze        w0, w0
    32fc:	7c 00 b9    	mul.su    w0, #0x1c, w0
    32fe:	f8 00 40    	add.w     w0, #0x18, w1
    3300:	c0 38 29    	mov.w     #0x938c, w0
    3302:	00 80 40    	add.w     w1, w0, w0
    3304:	10 00 78    	mov.w     [w0], w0
    3306:	1e 08 78    	mov.w     [w14], [w0]
    3308:	58 00 37    	bra       0x33ba <.L47>

0000330a <.L38>:
    330a:	6e 40 90    	mov.b     [w14+6], w0
    330c:	00 80 fb    	ze        w0, w0
    330e:	7c 00 b9    	mul.su    w0, #0x1c, w0
    3310:	f8 00 40    	add.w     w0, #0x18, w1
    3312:	c0 38 29    	mov.w     #0x938c, w0
    3314:	00 80 40    	add.w     w1, w0, w0
    3316:	10 04 78    	mov.w     [w0], w8
    3318:	4e 00 90    	mov.w     [w14+8], w0
    331a:	de 00 90    	mov.w     [w14+10], w1
    331c:	fc ec 07    	rcall     0xd16 <___fixsfsi>
    331e:	00 0c 78    	mov.w     w0, [w8]
    3320:	4c 00 37    	bra       0x33ba <.L47>

00003322 <.L39>:
    3322:	6e 40 90    	mov.b     [w14+6], w0
    3324:	00 80 fb    	ze        w0, w0
    3326:	7c 00 b9    	mul.su    w0, #0x1c, w0
    3328:	f8 00 40    	add.w     w0, #0x18, w1
    332a:	c0 38 29    	mov.w     #0x938c, w0
    332c:	00 80 40    	add.w     w1, w0, w0
    332e:	10 04 78    	mov.w     [w0], w8
    3330:	4e 00 90    	mov.w     [w14+8], w0
    3332:	de 00 90    	mov.w     [w14+10], w1
    3334:	c5 ed 07    	rcall     0xec0 <___fixunssfsi>
    3336:	00 0c 78    	mov.w     w0, [w8]
    3338:	40 00 37    	bra       0x33ba <.L47>

0000333a <.L40>:
    333a:	6e 40 90    	mov.b     [w14+6], w0
    333c:	00 80 fb    	ze        w0, w0
    333e:	7c 00 b9    	mul.su    w0, #0x1c, w0
    3340:	f8 00 40    	add.w     w0, #0x18, w1
    3342:	c0 38 29    	mov.w     #0x938c, w0
    3344:	00 80 40    	add.w     w1, w0, w0
    3346:	10 04 78    	mov.w     [w0], w8
    3348:	4e 00 90    	mov.w     [w14+8], w0
    334a:	de 00 90    	mov.w     [w14+10], w1
    334c:	e4 ec 07    	rcall     0xd16 <___fixsfsi>
    334e:	00 4c 78    	mov.b     w0, [w8]
    3350:	34 00 37    	bra       0x33ba <.L47>

00003352 <.L41>:
    3352:	6e 40 90    	mov.b     [w14+6], w0
    3354:	00 80 fb    	ze        w0, w0
    3356:	7c 00 b9    	mul.su    w0, #0x1c, w0
    3358:	f8 00 40    	add.w     w0, #0x18, w1
    335a:	c0 38 29    	mov.w     #0x938c, w0
    335c:	00 80 40    	add.w     w1, w0, w0
    335e:	10 04 78    	mov.w     [w0], w8
    3360:	4e 00 90    	mov.w     [w14+8], w0
    3362:	de 00 90    	mov.w     [w14+10], w1
    3364:	ad ed 07    	rcall     0xec0 <___fixunssfsi>
    3366:	00 4c 78    	mov.b     w0, [w8]
    3368:	28 00 37    	bra       0x33ba <.L47>

0000336a <.L42>:
    336a:	02 00 20    	mov.w     #0x0, w2
    336c:	43 33 24    	mov.w     #0x4334, w3
    336e:	4e 00 90    	mov.w     [w14+8], w0
    3370:	de 00 90    	mov.w     [w14+10], w1
    3372:	a4 ed 07    	rcall     0xebc <___gesf2>
    3374:	00 00 e0    	cp0.w     w0
    3376:	01 00 3c    	bra       GT, 0x337a <.L46>
    3378:	07 00 37    	bra       0x3388 <.L44>

0000337a <.L46>:
    337a:	4e 00 90    	mov.w     [w14+8], w0
    337c:	de 00 90    	mov.w     [w14+10], w1
    337e:	02 00 20    	mov.w     #0x0, w2
    3380:	43 3b 24    	mov.w     #0x43b4, w3
    3382:	3c ed 07    	rcall     0xdfc <___subsf3>
    3384:	40 07 98    	mov.w     w0, [w14+8]
    3386:	51 07 98    	mov.w     w1, [w14+10]

00003388 <.L44>:
    3388:	4e 00 90    	mov.w     [w14+8], w0
    338a:	de 00 90    	mov.w     [w14+10], w1
    338c:	02 00 20    	mov.w     #0x0, w2
    338e:	03 30 24    	mov.w     #0x4300, w3
    3390:	8e ec 07    	rcall     0xcae <___mulsf3>
    3392:	02 00 20    	mov.w     #0x0, w2
    3394:	43 33 24    	mov.w     #0x4334, w3
    3396:	f0 ec 07    	rcall     0xd78 <___divsf3>
    3398:	40 07 98    	mov.w     w0, [w14+8]
    339a:	51 07 98    	mov.w     w1, [w14+10]
    339c:	6e 40 90    	mov.b     [w14+6], w0
    339e:	00 80 fb    	ze        w0, w0
    33a0:	7c 00 b9    	mul.su    w0, #0x1c, w0
    33a2:	f8 00 40    	add.w     w0, #0x18, w1
    33a4:	c0 38 29    	mov.w     #0x938c, w0
    33a6:	00 80 40    	add.w     w1, w0, w0
    33a8:	10 04 78    	mov.w     [w0], w8
    33aa:	4e 00 90    	mov.w     [w14+8], w0
    33ac:	de 00 90    	mov.w     [w14+10], w1
    33ae:	b3 ec 07    	rcall     0xd16 <___fixsfsi>
    33b0:	00 4c 78    	mov.b     w0, [w8]
    33b2:	03 00 37    	bra       0x33ba <.L47>

000033b4 <.L34>:
    33b4:	60 00 b8    	mul.uu    w0, #0x0, w0
    33b6:	10 07 98    	mov.w     w0, [w14+2]
    33b8:	21 07 98    	mov.w     w1, [w14+4]

000033ba <.L47>:
    33ba:	4f 04 78    	mov.w     [--w15], w8
    33bc:	00 80 fa    	ulnk      
    33be:	00 00 06    	return    

000033c0 <_mavlink_msg_param_value_send>:
    33c0:	18 01 fa    	lnk       #0x118
    33c2:	88 1f 78    	mov.w     w8, [w15++]
    33c4:	60 07 99    	mov.w     w0, [w14+268]
    33c6:	71 07 99    	mov.w     w1, [w14+270]
    33c8:	02 0f 99    	mov.w     w2, [w14+272]
    33ca:	13 0f 99    	mov.w     w3, [w14+274]
    33cc:	24 0f 99    	mov.w     w4, [w14+276]
    33ce:	35 0f 99    	mov.w     w5, [w14+278]
    33d0:	64 00 47    	add.w     w14, #0x4, w0
    33d2:	68 0f 40    	add.w     w0, #0x8, [w14]
    33d4:	e4 00 47    	add.w     w14, #0x4, w1
    33d6:	60 c1 b3    	mov.b     #0x16, w0
    33d8:	d0 40 98    	mov.b     w0, [w1+5]
    33da:	e4 00 47    	add.w     w14, #0x4, w1
    33dc:	80 c1 b3    	mov.b     #0x18, w0
    33de:	90 40 98    	mov.b     w0, [w1+1]
    33e0:	9e 00 78    	mov.w     [w14], w1
    33e2:	7e 00 91    	mov.w     [w14+270], w0
    33e4:	0f 00 09    	repeat    #0xf
    33e6:	b0 58 78    	mov.b     [w0++], [w1++]
    33e8:	01 01 b1    	sub.w     #0x10, w1
    33ea:	00 01 b1    	sub.w     #0x10, w0
    33ec:	1e 00 78    	mov.w     [w14], w0
    33ee:	0e 09 91    	mov.w     [w14+272], w2
    33f0:	9e 09 91    	mov.w     [w14+274], w3
    33f2:	02 08 98    	mov.w     w2, [w0+16]
    33f4:	13 08 98    	mov.w     w3, [w0+18]
    33f6:	1e 00 78    	mov.w     [w14], w0
    33f8:	ae 09 91    	mov.w     [w14+276], w3
    33fa:	23 08 98    	mov.w     w3, [w0+20]
    33fc:	1e 00 78    	mov.w     [w14], w0
    33fe:	be 08 91    	mov.w     [w14+278], w1
    3400:	31 08 98    	mov.w     w1, [w0+22]
    3402:	c1 a7 20    	mov.w     #0xa7c, w1
    3404:	91 40 78    	mov.b     [w1], w1
    3406:	64 00 47    	add.w     w14, #0x4, w0
    3408:	31 40 98    	mov.b     w1, [w0+3]
    340a:	d1 a7 20    	mov.w     #0xa7d, w1
    340c:	91 40 78    	mov.b     [w1], w1
    340e:	64 00 47    	add.w     w14, #0x4, w0
    3410:	41 40 98    	mov.b     w1, [w0+4]
    3412:	6e 00 91    	mov.w     [w14+268], w0
    3414:	2e 25 07    	rcall     0x7e72 <_mavlink_get_channel_status>
    3416:	a0 48 90    	mov.b     [w0+10], w1
    3418:	64 00 47    	add.w     w14, #0x4, w0
    341a:	21 40 98    	mov.b     w1, [w0+2]
    341c:	6e 00 91    	mov.w     [w14+268], w0
    341e:	29 25 07    	rcall     0x7e72 <_mavlink_get_channel_status>
    3420:	00 04 78    	mov.w     w0, w8
    3422:	6e 00 91    	mov.w     [w14+268], w0
    3424:	26 25 07    	rcall     0x7e72 <_mavlink_get_channel_status>
    3426:	20 48 90    	mov.b     [w0+10], w0
    3428:	00 40 e8    	inc.b     w0, w0
    342a:	20 4c 98    	mov.b     w0, [w8+10]
    342c:	64 00 47    	add.w     w14, #0x4, w0
    342e:	10 40 90    	mov.b     [w0+1], w0
    3430:	00 80 fb    	ze        w0, w0
    3432:	e5 00 40    	add.w     w0, #0x5, w1
    3434:	64 00 47    	add.w     w14, #0x4, w0
    3436:	c6 24 07    	rcall     0x7dc4 <_crc_calculate_msg>
    3438:	10 07 98    	mov.w     w0, [w14+2]
    343a:	1e 00 90    	mov.w     [w14+2], w0
    343c:	80 40 78    	mov.b     w0, w1
    343e:	64 00 47    	add.w     w14, #0x4, w0
    3440:	61 40 98    	mov.b     w1, [w0+6]
    3442:	1e 00 90    	mov.w     [w14+2], w0
    3444:	48 00 de    	lsr.w     w0, #0x8, w0
    3446:	80 40 78    	mov.b     w0, w1
    3448:	64 00 47    	add.w     w14, #0x4, w0
    344a:	71 40 98    	mov.b     w1, [w0+7]
    344c:	e4 00 47    	add.w     w14, #0x4, w1
    344e:	6e 00 91    	mov.w     [w14+268], w0
    3450:	de fd 07    	rcall     0x300e <_mavlink_send_uart>
    3452:	4f 04 78    	mov.w     [--w15], w8
    3454:	00 80 fa    	ulnk      
    3456:	00 00 06    	return    

00003458 <_mavlink_check_target>:
    3458:	04 00 fa    	lnk       #0x4
    345a:	00 4f 78    	mov.b     w0, [w14]
    345c:	11 47 98    	mov.b     w1, [w14+1]
    345e:	7c ca bf    	mov.b     0xa7c, WREG
    3460:	9e 4f 50    	sub.b     w0, [w14], [w15]
    3462:	03 00 3a    	bra       NZ, 0x346a <.L51>
    3464:	10 00 20    	mov.w     #0x1, w0
    3466:	10 07 98    	mov.w     w0, [w14+2]
    3468:	19 00 37    	bra       0x349c <.L53>

0000346a <.L51>:
    346a:	60 5f 29    	mov.w     #0x95f6, w0
    346c:	6c 2c 07    	rcall     0x8d46 <_udb_serial_send_string>
    346e:	1e 80 fb    	ze        [w14], w0
    3470:	44 00 de    	lsr.w     w0, #0x4, w0
    3472:	00 43 b0    	add.b     #0x30, w0
    3474:	94 2c 07    	rcall     0x8d9e <_udb_serial_send_char>
    3476:	1e 40 78    	mov.b     [w14], w0
    3478:	6f 40 60    	and.b     w0, #0xf, w0
    347a:	00 43 b0    	add.b     #0x30, w0
    347c:	90 2c 07    	rcall     0x8d9e <_udb_serial_send_char>
    347e:	50 61 29    	mov.w     #0x9615, w0
    3480:	62 2c 07    	rcall     0x8d46 <_udb_serial_send_string>
    3482:	1e 40 90    	mov.b     [w14+1], w0
    3484:	00 80 fb    	ze        w0, w0
    3486:	44 00 de    	lsr.w     w0, #0x4, w0
    3488:	00 43 b0    	add.b     #0x30, w0
    348a:	89 2c 07    	rcall     0x8d9e <_udb_serial_send_char>
    348c:	1e 40 90    	mov.b     [w14+1], w0
    348e:	6f 40 60    	and.b     w0, #0xf, w0
    3490:	00 43 b0    	add.b     #0x30, w0
    3492:	85 2c 07    	rcall     0x8d9e <_udb_serial_send_char>
    3494:	90 61 29    	mov.w     #0x9619, w0
    3496:	57 2c 07    	rcall     0x8d46 <_udb_serial_send_string>
    3498:	00 00 eb    	clr.w     w0
    349a:	10 07 98    	mov.w     w0, [w14+2]

0000349c <.L53>:
    349c:	1e 00 90    	mov.w     [w14+2], w0
    349e:	00 80 fa    	ulnk      
    34a0:	00 00 06    	return    

000034a2 <_handleMessage>:
    34a2:	34 00 fa    	lnk       #0x34
    34a4:	40 17 98    	mov.w     w0, [w14+40]
    34a6:	4e 10 90    	mov.w     [w14+40], w0
    34a8:	50 40 90    	mov.b     [w0+5], w0
    34aa:	00 80 fb    	ze        w0, w0
    34ac:	61 01 b9    	mul.su    w0, #0x1, w2
    34ae:	62 17 98    	mov.w     w2, [w14+44]
    34b0:	73 17 98    	mov.w     w3, [w14+46]
    34b2:	20 04 20    	mov.w     #0x42, w0
    34b4:	01 00 20    	mov.w     #0x0, w1
    34b6:	6e 11 90    	mov.w     [w14+44], w2
    34b8:	fe 11 90    	mov.w     [w14+46], w3
    34ba:	80 0f 51    	sub.w     w2, w0, [w15]
    34bc:	81 8f 59    	subb.w    w3, w1, [w15]
    34be:	6b 01 3e    	bra       GTU, 0x3796 <.L126>
    34c0:	6e 10 90    	mov.w     [w14+44], w0
    34c2:	fe 10 90    	mov.w     [w14+46], w1
    34c4:	00 60 01    	bra       w0
    34c6:	42 00 37    	bra       0x354c <.L57>
    34c8:	66 01 37    	bra       0x3796 <.L126>
    34ca:	65 01 37    	bra       0x3796 <.L126>
    34cc:	64 01 37    	bra       0x3796 <.L126>
    34ce:	63 01 37    	bra       0x3796 <.L126>
    34d0:	62 01 37    	bra       0x3796 <.L126>
    34d2:	61 01 37    	bra       0x3796 <.L126>
    34d4:	60 01 37    	bra       0x3796 <.L126>
    34d6:	5f 01 37    	bra       0x3796 <.L126>
    34d8:	5e 01 37    	bra       0x3796 <.L126>
    34da:	a7 00 37    	bra       0x362a <.L58>
    34dc:	5c 01 37    	bra       0x3796 <.L126>
    34de:	5b 01 37    	bra       0x3796 <.L126>
    34e0:	5a 01 37    	bra       0x3796 <.L126>
    34e2:	59 01 37    	bra       0x3796 <.L126>
    34e4:	58 01 37    	bra       0x3796 <.L126>
    34e6:	57 01 37    	bra       0x3796 <.L126>
    34e8:	56 01 37    	bra       0x3796 <.L126>
    34ea:	55 01 37    	bra       0x3796 <.L126>
    34ec:	54 01 37    	bra       0x3796 <.L126>
    34ee:	53 01 37    	bra       0x3796 <.L126>
    34f0:	0d 01 37    	bra       0x370c <.L59>
    34f2:	51 01 37    	bra       0x3796 <.L126>
    34f4:	17 01 37    	bra       0x3724 <.L60>
    34f6:	4f 01 37    	bra       0x3796 <.L126>
    34f8:	4e 01 37    	bra       0x3796 <.L126>
    34fa:	4d 01 37    	bra       0x3796 <.L126>
    34fc:	4c 01 37    	bra       0x3796 <.L126>
    34fe:	4b 01 37    	bra       0x3796 <.L126>
    3500:	4a 01 37    	bra       0x3796 <.L126>
    3502:	49 01 37    	bra       0x3796 <.L126>
    3504:	48 01 37    	bra       0x3796 <.L126>
    3506:	47 01 37    	bra       0x3796 <.L126>
    3508:	46 01 37    	bra       0x3796 <.L126>
    350a:	45 01 37    	bra       0x3796 <.L126>
    350c:	44 01 37    	bra       0x3796 <.L126>
    350e:	43 01 37    	bra       0x3796 <.L126>
    3510:	42 01 37    	bra       0x3796 <.L126>
    3512:	41 01 37    	bra       0x3796 <.L126>
    3514:	40 01 37    	bra       0x3796 <.L126>
    3516:	3f 01 37    	bra       0x3796 <.L126>
    3518:	3e 01 37    	bra       0x3796 <.L126>
    351a:	3d 01 37    	bra       0x3796 <.L126>
    351c:	3c 01 37    	bra       0x3796 <.L126>
    351e:	3b 01 37    	bra       0x3796 <.L126>
    3520:	3a 01 37    	bra       0x3796 <.L126>
    3522:	39 01 37    	bra       0x3796 <.L126>
    3524:	f0 00 37    	bra       0x3706 <.L67>
    3526:	37 01 37    	bra       0x3796 <.L126>
    3528:	36 01 37    	bra       0x3796 <.L126>
    352a:	35 01 37    	bra       0x3796 <.L126>
    352c:	34 01 37    	bra       0x3796 <.L126>
    352e:	33 01 37    	bra       0x3796 <.L126>
    3530:	32 01 37    	bra       0x3796 <.L126>
    3532:	31 01 37    	bra       0x3796 <.L126>
    3534:	30 01 37    	bra       0x3796 <.L126>
    3536:	2f 01 37    	bra       0x3796 <.L126>
    3538:	2e 01 37    	bra       0x3796 <.L126>
    353a:	2d 01 37    	bra       0x3796 <.L126>
    353c:	2c 01 37    	bra       0x3796 <.L126>
    353e:	2b 01 37    	bra       0x3796 <.L126>
    3540:	2a 01 37    	bra       0x3796 <.L126>
    3542:	29 01 37    	bra       0x3796 <.L126>
    3544:	28 01 37    	bra       0x3796 <.L126>
    3546:	27 01 37    	bra       0x3796 <.L126>
    3548:	26 01 37    	bra       0x3796 <.L126>
    354a:	01 00 37    	bra       0x354e <.L68>

0000354c <.L57>:
    354c:	00 00 00    	nop       

0000354e <.L68>:
    354e:	e6 00 47    	add.w     w14, #0x6, w1
    3550:	4e 10 90    	mov.w     [w14+40], w0
    3552:	4b 01 07    	rcall     0x37ea <_mavlink_msg_request_data_stream_decode>
    3554:	66 00 47    	add.w     w14, #0x6, w0
    3556:	90 40 90    	mov.b     [w0+1], w1
    3558:	66 00 47    	add.w     w14, #0x6, w0
    355a:	10 40 78    	mov.b     [w0], w0
    355c:	7d ff 07    	rcall     0x3458 <_mavlink_check_target>
    355e:	00 04 e0    	cp0.b     w0
    3560:	1a 01 32    	bra       Z, 0x3796 <.L126>
    3562:	00 00 eb    	clr.w     w0
    3564:	20 07 98    	mov.w     w0, [w14+4]
    3566:	66 00 47    	add.w     w14, #0x6, w0
    3568:	50 40 90    	mov.b     [w0+5], w0
    356a:	00 04 e0    	cp0.b     w0
    356c:	03 00 3a    	bra       NZ, 0x3574 <.L71>
    356e:	00 00 eb    	clr.w     w0
    3570:	20 07 98    	mov.w     w0, [w14+4]
    3572:	07 00 37    	bra       0x3582 <.L73>

00003574 <.L71>:
    3574:	66 00 47    	add.w     w14, #0x6, w0
    3576:	50 40 90    	mov.b     [w0+5], w0
    3578:	e1 4f 50    	sub.b     w0, #0x1, [w15]
    357a:	0d 01 3a    	bra       NZ, 0x3796 <.L126>
    357c:	66 00 47    	add.w     w14, #0x6, w0
    357e:	10 00 90    	mov.w     [w0+2], w0
    3580:	20 07 98    	mov.w     w0, [w14+4]

00003582 <.L73>:
    3582:	66 00 47    	add.w     w14, #0x6, w0
    3584:	40 40 90    	mov.b     [w0+4], w0
    3586:	00 80 fb    	ze        w0, w0
    3588:	50 17 98    	mov.w     w0, [w14+42]
    358a:	de 10 90    	mov.w     [w14+42], w1
    358c:	e4 8f 50    	sub.w     w1, #0x4, [w15]
    358e:	3f 00 32    	bra       Z, 0x360e <.L79>
    3590:	5e 11 90    	mov.w     [w14+42], w2
    3592:	e4 0f 51    	sub.w     w2, #0x4, [w15]
    3594:	11 00 3c    	bra       GT, 0x35b8 <.L84>
    3596:	de 11 90    	mov.w     [w14+42], w3
    3598:	e1 8f 51    	sub.w     w3, #0x1, [w15]
    359a:	30 00 32    	bra       Z, 0x35fc <.L76>
    359c:	5e 10 90    	mov.w     [w14+42], w0
    359e:	e1 0f 50    	sub.w     w0, #0x1, [w15]
    35a0:	04 00 3c    	bra       GT, 0x35aa <.L85>
    35a2:	de 10 90    	mov.w     [w14+42], w1
    35a4:	01 00 e0    	cp0.w     w1
    35a6:	19 00 32    	bra       Z, 0x35da <.L75>
    35a8:	40 00 37    	bra       0x362a <.L58>

000035aa <.L85>:
    35aa:	5e 11 90    	mov.w     [w14+42], w2
    35ac:	e2 0f 51    	sub.w     w2, #0x2, [w15]
    35ae:	29 00 32    	bra       Z, 0x3602 <.L77>
    35b0:	de 11 90    	mov.w     [w14+42], w3
    35b2:	e3 8f 51    	sub.w     w3, #0x3, [w15]
    35b4:	29 00 32    	bra       Z, 0x3608 <.L78>
    35b6:	39 00 37    	bra       0x362a <.L58>

000035b8 <.L84>:
    35b8:	5e 10 90    	mov.w     [w14+42], w0
    35ba:	ea 0f 50    	sub.w     w0, #0xa, [w15]
    35bc:	2e 00 32    	bra       Z, 0x361a <.L81>
    35be:	de 10 90    	mov.w     [w14+42], w1
    35c0:	ea 8f 50    	sub.w     w1, #0xa, [w15]
    35c2:	04 00 3c    	bra       GT, 0x35cc <.L86>
    35c4:	5e 11 90    	mov.w     [w14+42], w2
    35c6:	e6 0f 51    	sub.w     w2, #0x6, [w15]
    35c8:	25 00 32    	bra       Z, 0x3614 <.L80>
    35ca:	2f 00 37    	bra       0x362a <.L58>

000035cc <.L86>:
    35cc:	de 11 90    	mov.w     [w14+42], w3
    35ce:	eb 8f 51    	sub.w     w3, #0xb, [w15]
    35d0:	27 00 32    	bra       Z, 0x3620 <.L82>
    35d2:	5e 10 90    	mov.w     [w14+42], w0
    35d4:	ec 0f 50    	sub.w     w0, #0xc, [w15]
    35d6:	27 00 32    	bra       Z, 0x3626 <.L83>
    35d8:	28 00 37    	bra       0x362a <.L58>

000035da <.L75>:
    35da:	2e 00 90    	mov.w     [w14+4], w0
    35dc:	81 ea b7    	mov.b     WREG, 0xa81
    35de:	2e 00 90    	mov.w     [w14+4], w0
    35e0:	83 ea b7    	mov.b     WREG, 0xa83
    35e2:	2e 00 90    	mov.w     [w14+4], w0
    35e4:	82 ea b7    	mov.b     WREG, 0xa82
    35e6:	2e 00 90    	mov.w     [w14+4], w0
    35e8:	84 ea b7    	mov.b     WREG, 0xa84
    35ea:	2e 00 90    	mov.w     [w14+4], w0
    35ec:	85 ea b7    	mov.b     WREG, 0xa85
    35ee:	2e 00 90    	mov.w     [w14+4], w0
    35f0:	86 ea b7    	mov.b     WREG, 0xa86
    35f2:	2e 00 90    	mov.w     [w14+4], w0
    35f4:	87 ea b7    	mov.b     WREG, 0xa87
    35f6:	2e 00 90    	mov.w     [w14+4], w0
    35f8:	88 ea b7    	mov.b     WREG, 0xa88
    35fa:	17 00 37    	bra       0x362a <.L58>

000035fc <.L76>:
    35fc:	2e 00 90    	mov.w     [w14+4], w0
    35fe:	81 ea b7    	mov.b     WREG, 0xa81
    3600:	14 00 37    	bra       0x362a <.L58>

00003602 <.L77>:
    3602:	2e 00 90    	mov.w     [w14+4], w0
    3604:	83 ea b7    	mov.b     WREG, 0xa83
    3606:	11 00 37    	bra       0x362a <.L58>

00003608 <.L78>:
    3608:	2e 00 90    	mov.w     [w14+4], w0
    360a:	82 ea b7    	mov.b     WREG, 0xa82
    360c:	0e 00 37    	bra       0x362a <.L58>

0000360e <.L79>:
    360e:	2e 00 90    	mov.w     [w14+4], w0
    3610:	84 ea b7    	mov.b     WREG, 0xa84
    3612:	0b 00 37    	bra       0x362a <.L58>

00003614 <.L80>:
    3614:	2e 00 90    	mov.w     [w14+4], w0
    3616:	85 ea b7    	mov.b     WREG, 0xa85
    3618:	08 00 37    	bra       0x362a <.L58>

0000361a <.L81>:
    361a:	2e 00 90    	mov.w     [w14+4], w0
    361c:	86 ea b7    	mov.b     WREG, 0xa86
    361e:	05 00 37    	bra       0x362a <.L58>

00003620 <.L82>:
    3620:	2e 00 90    	mov.w     [w14+4], w0
    3622:	87 ea b7    	mov.b     WREG, 0xa87
    3624:	02 00 37    	bra       0x362a <.L58>

00003626 <.L83>:
    3626:	2e 00 90    	mov.w     [w14+4], w0
    3628:	88 ea b7    	mov.b     WREG, 0xa88

0000362a <.L58>:
    362a:	ec 00 47    	add.w     w14, #0xc, w1
    362c:	4e 10 90    	mov.w     [w14+40], w0
    362e:	cc 00 07    	rcall     0x37c8 <_mavlink_msg_action_decode>
    3630:	6c 00 47    	add.w     w14, #0xc, w0
    3632:	90 40 90    	mov.b     [w0+1], w1
    3634:	6c 00 47    	add.w     w14, #0xc, w0
    3636:	10 40 78    	mov.b     [w0], w0
    3638:	0f ff 07    	rcall     0x3458 <_mavlink_check_target>
    363a:	00 04 e0    	cp0.b     w0
    363c:	ac 00 32    	bra       Z, 0x3796 <.L126>
    363e:	6c 00 47    	add.w     w14, #0xc, w0
    3640:	20 40 90    	mov.b     [w0+2], w0
    3642:	00 80 fb    	ze        w0, w0
    3644:	61 01 b9    	mul.su    w0, #0x1, w2
    3646:	00 80 eb    	setm.w    w0
    3648:	80 80 eb    	setm.w    w1
    364a:	02 01 40    	add.w     w0, w2, w2
    364c:	83 81 48    	addc.w    w1, w3, w3
    364e:	02 1f 98    	mov.w     w2, [w14+48]
    3650:	13 1f 98    	mov.w     w3, [w14+50]
    3652:	e0 00 20    	mov.w     #0xe, w0
    3654:	01 00 20    	mov.w     #0x0, w1
    3656:	0e 19 90    	mov.w     [w14+48], w2
    3658:	9e 19 90    	mov.w     [w14+50], w3
    365a:	80 0f 51    	sub.w     w2, w0, [w15]
    365c:	81 8f 59    	subb.w    w3, w1, [w15]
    365e:	9b 00 3e    	bra       GTU, 0x3796 <.L126>
    3660:	0e 18 90    	mov.w     [w14+48], w0
    3662:	9e 18 90    	mov.w     [w14+50], w1
    3664:	00 60 01    	bra       w0
    3666:	97 00 37    	bra       0x3796 <.L126>
    3668:	96 00 37    	bra       0x3796 <.L126>
    366a:	95 00 37    	bra       0x3796 <.L126>
    366c:	94 00 37    	bra       0x3796 <.L126>
    366e:	93 00 37    	bra       0x3796 <.L126>
    3670:	92 00 37    	bra       0x3796 <.L126>
    3672:	91 00 37    	bra       0x3796 <.L126>
    3674:	90 00 37    	bra       0x3796 <.L126>
    3676:	8f 00 37    	bra       0x3796 <.L126>
    3678:	8e 00 37    	bra       0x3796 <.L126>
    367a:	8d 00 37    	bra       0x3796 <.L126>
    367c:	8c 00 37    	bra       0x3796 <.L126>
    367e:	8b 00 37    	bra       0x3796 <.L126>
    3680:	01 00 37    	bra       0x3684 <.L97>
    3682:	20 00 37    	bra       0x36c4 <.L98>

00003684 <.L97>:
    3684:	50 b9 80    	mov.w     0x172a, w0
    3686:	00 00 e0    	cp0.w     w0
    3688:	16 00 32    	bra       Z, 0x36b6 <.L100>
    368a:	00 da 80    	mov.w     0x1b40, w0
    368c:	70 00 60    	and.w     w0, #0x10, w0
    368e:	00 00 e0    	cp0.w     w0
    3690:	12 00 32    	bra       Z, 0x36b6 <.L100>
    3692:	70 d8 80    	mov.w     0x1b0e, w0
    3694:	01 80 20    	mov.w     #0x800, w1
    3696:	01 00 60    	and.w     w0, w1, w0
    3698:	00 00 e0    	cp0.w     w0
    369a:	0d 00 32    	bra       Z, 0x36b6 <.L100>
    369c:	70 d8 80    	mov.w     0x1b0e, w0
    369e:	70 00 60    	and.w     w0, #0x10, w0
    36a0:	00 00 e0    	cp0.w     w0
    36a2:	09 00 3a    	bra       NZ, 0x36b6 <.L100>
    36a4:	70 d8 80    	mov.w     0x1b0e, w0
    36a6:	01 02 20    	mov.w     #0x20, w1
    36a8:	01 00 60    	and.w     w0, w1, w0
    36aa:	00 00 e0    	cp0.w     w0
    36ac:	04 00 3a    	bra       NZ, 0x36b6 <.L100>
    36ae:	c0 61 29    	mov.w     #0x961c, w0
    36b0:	4a 2b 07    	rcall     0x8d46 <_udb_serial_send_string>
    36b2:	0e 9b a8    	bset.b    0x1b0e, #0x4
    36b4:	70 00 37    	bra       0x3796 <.L126>

000036b6 <.L100>:
    36b6:	70 d8 80    	mov.w     0x1b0e, w0
    36b8:	70 00 60    	and.w     w0, #0x10, w0
    36ba:	00 00 e0    	cp0.w     w0
    36bc:	6c 00 3a    	bra       NZ, 0x3796 <.L126>
    36be:	70 63 29    	mov.w     #0x9637, w0
    36c0:	42 2b 07    	rcall     0x8d46 <_udb_serial_send_string>
    36c2:	69 00 37    	bra       0x3796 <.L126>

000036c4 <.L98>:
    36c4:	50 b9 80    	mov.w     0x172a, w0
    36c6:	00 00 e0    	cp0.w     w0
    36c8:	16 00 32    	bra       Z, 0x36f6 <.L108>
    36ca:	00 da 80    	mov.w     0x1b40, w0
    36cc:	70 00 60    	and.w     w0, #0x10, w0
    36ce:	00 00 e0    	cp0.w     w0
    36d0:	12 00 32    	bra       Z, 0x36f6 <.L108>
    36d2:	70 d8 80    	mov.w     0x1b0e, w0
    36d4:	01 80 20    	mov.w     #0x800, w1
    36d6:	01 00 60    	and.w     w0, w1, w0
    36d8:	00 00 e0    	cp0.w     w0
    36da:	0d 00 32    	bra       Z, 0x36f6 <.L108>
    36dc:	70 d8 80    	mov.w     0x1b0e, w0
    36de:	70 00 60    	and.w     w0, #0x10, w0
    36e0:	00 00 e0    	cp0.w     w0
    36e2:	09 00 3a    	bra       NZ, 0x36f6 <.L108>
    36e4:	70 d8 80    	mov.w     0x1b0e, w0
    36e6:	01 02 20    	mov.w     #0x20, w1
    36e8:	01 00 60    	and.w     w0, w1, w0
    36ea:	00 00 e0    	cp0.w     w0
    36ec:	04 00 3a    	bra       NZ, 0x36f6 <.L108>
    36ee:	a0 65 29    	mov.w     #0x965a, w0
    36f0:	2a 2b 07    	rcall     0x8d46 <_udb_serial_send_string>
    36f2:	0e bb a8    	bset.b    0x1b0e, #0x5
    36f4:	50 00 37    	bra       0x3796 <.L126>

000036f6 <.L108>:
    36f6:	70 d8 80    	mov.w     0x1b0e, w0
    36f8:	01 02 20    	mov.w     #0x20, w1
    36fa:	01 00 60    	and.w     w0, w1, w0
    36fc:	00 00 e0    	cp0.w     w0
    36fe:	4b 00 3a    	bra       NZ, 0x3796 <.L126>
    3700:	60 67 29    	mov.w     #0x9676, w0
    3702:	21 2b 07    	rcall     0x8d46 <_udb_serial_send_string>
    3704:	48 00 37    	bra       0x3796 <.L126>

00003706 <.L67>:
    3706:	a0 69 29    	mov.w     #0x969a, w0
    3708:	1e 2b 07    	rcall     0x8d46 <_udb_serial_send_string>
    370a:	45 00 37    	bra       0x3796 <.L126>

0000370c <.L59>:
    370c:	ef 00 47    	add.w     w14, #0xf, w1
    370e:	4e 10 90    	mov.w     [w14+40], w0
    3710:	50 00 07    	rcall     0x37b2 <_mavlink_msg_param_request_list_decode>
    3712:	6f 00 47    	add.w     w14, #0xf, w0
    3714:	90 40 90    	mov.b     [w0+1], w1
    3716:	6f 00 47    	add.w     w14, #0xf, w0
    3718:	10 40 78    	mov.b     [w0], w0
    371a:	9e fe 07    	rcall     0x3458 <_mavlink_check_target>
    371c:	e1 4f 50    	sub.b     w0, #0x1, [w15]
    371e:	3b 00 3a    	bra       NZ, 0x3796 <.L126>
    3720:	40 5b a8    	bset.b    0x1b40, #0x2
    3722:	39 00 37    	bra       0x3796 <.L126>

00003724 <.L60>:
    3724:	f2 00 47    	add.w     w14, #0x12, w1
    3726:	4e 10 90    	mov.w     [w14+40], w0
    3728:	38 00 07    	rcall     0x379a <_mavlink_msg_param_set_decode>
    372a:	72 00 47    	add.w     w14, #0x12, w0
    372c:	90 40 90    	mov.b     [w0+1], w1
    372e:	72 00 47    	add.w     w14, #0x12, w0
    3730:	10 40 78    	mov.b     [w0], w0
    3732:	92 fe 07    	rcall     0x3458 <_mavlink_check_target>
    3734:	00 04 e0    	cp0.b     w0
    3736:	03 00 3a    	bra       NZ, 0x373e <.L117>
    3738:	90 6a 29    	mov.w     #0x96a9, w0
    373a:	05 2b 07    	rcall     0x8d46 <_udb_serial_send_string>
    373c:	2c 00 37    	bra       0x3796 <.L126>

0000373e <.L117>:
    373e:	72 00 47    	add.w     w14, #0x12, w0
    3740:	00 80 e8    	inc2.w    w0, w0
    3742:	10 07 98    	mov.w     w0, [w14+2]
    3744:	00 00 eb    	clr.w     w0
    3746:	00 0f 78    	mov.w     w0, [w14]
    3748:	00 00 eb    	clr.w     w0
    374a:	00 0f 78    	mov.w     w0, [w14]
    374c:	21 00 37    	bra       0x3790 <.L119>

0000374e <.L120>:
    374e:	1e 00 78    	mov.w     [w14], w0
    3750:	7c 00 b9    	mul.su    w0, #0x1c, w0
    3752:	80 00 78    	mov.w     w0, w1
    3754:	c0 38 29    	mov.w     #0x938c, w0
    3756:	00 80 40    	add.w     w1, w0, w0
    3758:	80 00 78    	mov.w     w0, w1
    375a:	f2 00 20    	mov.w     #0xf, w2
    375c:	1e 00 90    	mov.w     [w14+2], w0
    375e:	e0 e5 07    	rcall     0x320 <_strncmp>
    3760:	00 00 e0    	cp0.w     w0
    3762:	15 00 3a    	bra       NZ, 0x378e <.L121>
    3764:	72 00 47    	add.w     w14, #0x12, w0
    3766:	10 09 90    	mov.w     [w0+18], w2
    3768:	a0 09 90    	mov.w     [w0+20], w3
    376a:	1e 00 78    	mov.w     [w14], w0
    376c:	11 c0 b3    	mov.b     #0x1, w1
    376e:	79 fc 07    	rcall     0x3062 <_mavlink_param>
    3770:	00 da 80    	mov.w     0x1b40, w0
    3772:	62 00 60    	and.w     w0, #0x2, w0
    3774:	00 00 e0    	cp0.w     w0
    3776:	03 00 3a    	bra       NZ, 0x377e <.L123>
    3778:	1e 00 78    	mov.w     [w14], w0
    377a:	65 f7 b7    	mov.b     WREG, 0x1765
    377c:	40 3b a8    	bset.b    0x1b40, #0x1

0000377e <.L123>:
    377e:	02 01 20    	mov.w     #0x10, w2
    3780:	81 6d 29    	mov.w     #0x96d8, w1
    3782:	1e 00 90    	mov.w     [w14+2], w0
    3784:	cd e5 07    	rcall     0x320 <_strncmp>
    3786:	00 00 e0    	cp0.w     w0
    3788:	02 00 32    	bra       Z, 0x378e <.L121>
    378a:	4d 1a 07    	rcall     0x6c26 <_dcm_init_rmat>
    378c:	c2 4b a8    	bset.b    0xbc2, #0x2

0000378e <.L121>:
    378e:	1e 0f e8    	inc.w     [w14], [w14]

00003790 <.L119>:
    3790:	a0 af 84    	mov.w     0x95f4, w0
    3792:	9e 0f 10    	subr.w    w0, [w14], [w15]
    3794:	dc ff 35    	bra       LT, 0x374e <.L120>

00003796 <.L126>:
    3796:	00 80 fa    	ulnk      
    3798:	00 00 06    	return    

0000379a <_mavlink_msg_param_set_decode>:
    379a:	04 00 fa    	lnk       #0x4
    379c:	00 0f 78    	mov.w     w0, [w14]
    379e:	11 07 98    	mov.w     w1, [w14+2]
    37a0:	1e 00 78    	mov.w     [w14], w0
    37a2:	e8 00 40    	add.w     w0, #0x8, w1
    37a4:	1e 00 90    	mov.w     [w14+2], w0
    37a6:	15 00 09    	repeat    #0x15
    37a8:	31 58 78    	mov.b     [w1++], [w0++]
    37aa:	60 01 b1    	sub.w     #0x16, w0
    37ac:	61 01 b1    	sub.w     #0x16, w1
    37ae:	00 80 fa    	ulnk      
    37b0:	00 00 06    	return    

000037b2 <_mavlink_msg_param_request_list_decode>:
    37b2:	04 00 fa    	lnk       #0x4
    37b4:	00 0f 78    	mov.w     w0, [w14]
    37b6:	11 07 98    	mov.w     w1, [w14+2]
    37b8:	1e 00 78    	mov.w     [w14], w0
    37ba:	e8 00 40    	add.w     w0, #0x8, w1
    37bc:	1e 00 90    	mov.w     [w14+2], w0
    37be:	11 48 78    	mov.b     [w1], [w0]
    37c0:	11 41 90    	mov.b     [w1+1], w2
    37c2:	12 40 98    	mov.b     w2, [w0+1]
    37c4:	00 80 fa    	ulnk      
    37c6:	00 00 06    	return    

000037c8 <_mavlink_msg_action_decode>:
    37c8:	04 00 fa    	lnk       #0x4
    37ca:	00 0f 78    	mov.w     w0, [w14]
    37cc:	11 07 98    	mov.w     w1, [w14+2]
    37ce:	9e 00 78    	mov.w     [w14], w1
    37d0:	68 80 40    	add.w     w1, #0x8, w0
    37d2:	1e 01 90    	mov.w     [w14+2], w2
    37d4:	80 00 78    	mov.w     w0, w1
    37d6:	02 00 78    	mov.w     w2, w0
    37d8:	11 48 78    	mov.b     [w1], [w0]
    37da:	00 00 e8    	inc.w     w0, w0
    37dc:	81 00 e8    	inc.w     w1, w1
    37de:	11 48 78    	mov.b     [w1], [w0]
    37e0:	00 00 e8    	inc.w     w0, w0
    37e2:	81 00 e8    	inc.w     w1, w1
    37e4:	11 48 78    	mov.b     [w1], [w0]
    37e6:	00 80 fa    	ulnk      
    37e8:	00 00 06    	return    

000037ea <_mavlink_msg_request_data_stream_decode>:
    37ea:	04 00 fa    	lnk       #0x4
    37ec:	00 0f 78    	mov.w     w0, [w14]
    37ee:	11 07 98    	mov.w     w1, [w14+2]
    37f0:	1e 00 78    	mov.w     [w14], w0
    37f2:	e8 00 40    	add.w     w0, #0x8, w1
    37f4:	1e 00 90    	mov.w     [w14+2], w0
    37f6:	05 00 09    	repeat    #0x5
    37f8:	31 58 78    	mov.b     [w1++], [w0++]
    37fa:	60 00 b1    	sub.w     #0x6, w0
    37fc:	61 00 b1    	sub.w     #0x6, w1
    37fe:	00 80 fa    	ulnk      
    3800:	00 00 06    	return    

00003802 <_is_this_the_moment_to_send>:
    3802:	04 00 fa    	lnk       #0x4
    3804:	00 4f 78    	mov.b     w0, [w14]
    3806:	11 47 98    	mov.b     w1, [w14+1]
    3808:	9e 80 fb    	ze        [w14], w1
    380a:	1e 40 90    	mov.b     [w14+1], w0
    380c:	00 81 fb    	ze        w0, w2
    380e:	11 00 09    	repeat    #0x11
    3810:	82 80 d8    	div.uw    w1, w2
    3812:	80 00 fd    	exch      w0, w1
    3814:	00 04 e0    	cp0.b     w0
    3816:	03 00 3a    	bra       NZ, 0x381e <.L136>
    3818:	10 00 20    	mov.w     #0x1, w0
    381a:	10 07 98    	mov.w     w0, [w14+2]
    381c:	02 00 37    	bra       0x3822 <.L138>

0000381e <.L136>:
    381e:	00 00 eb    	clr.w     w0
    3820:	10 07 98    	mov.w     w0, [w14+2]

00003822 <.L138>:
    3822:	1e 00 90    	mov.w     [w14+2], w0
    3824:	00 80 fa    	ulnk      
    3826:	00 00 06    	return    

00003828 <_mavlink_frequency_send>:
    3828:	06 00 fa    	lnk       #0x6
    382a:	20 47 98    	mov.b     w0, [w14+2]
    382c:	31 47 98    	mov.b     w1, [w14+3]
    382e:	2e 40 90    	mov.b     [w14+2], w0
    3830:	00 04 e0    	cp0.b     w0
    3832:	03 00 3a    	bra       NZ, 0x383a <.L141>
    3834:	00 00 eb    	clr.w     w0
    3836:	20 07 98    	mov.w     w0, [w14+4]
    3838:	43 00 37    	bra       0x38c0 <.L143>

0000383a <.L141>:
    383a:	2e 40 90    	mov.b     [w14+2], w0
    383c:	00 04 e0    	cp0.b     w0
    383e:	0e 00 32    	bra       Z, 0x385c <.L144>
    3840:	2e 40 90    	mov.b     [w14+2], w0
    3842:	e7 4f 50    	sub.b     w0, #0x7, [w15]
    3844:	0b 00 3e    	bra       GTU, 0x385c <.L144>
    3846:	2e 40 90    	mov.b     [w14+2], w0
    3848:	80 80 fb    	ze        w0, w1
    384a:	30 6e 29    	mov.w     #0x96e3, w0
    384c:	00 80 40    	add.w     w1, w0, w0
    384e:	10 4f 78    	mov.b     [w0], [w14]
    3850:	9e 40 78    	mov.b     [w14], w1
    3852:	3e 40 90    	mov.b     [w14+3], w0
    3854:	d6 ff 07    	rcall     0x3802 <_is_this_the_moment_to_send>
    3856:	00 00 fb    	se        w0, w0
    3858:	20 07 98    	mov.w     w0, [w14+4]
    385a:	32 00 37    	bra       0x38c0 <.L143>

0000385c <.L144>:
    385c:	2e 40 90    	mov.b     [w14+2], w0
    385e:	e7 4f 50    	sub.b     w0, #0x7, [w15]
    3860:	0b 00 36    	bra       LEU, 0x3878 <.L147>
    3862:	2e 40 90    	mov.b     [w14+2], w0
    3864:	ed 4f 50    	sub.b     w0, #0xd, [w15]
    3866:	08 00 3e    	bra       GTU, 0x3878 <.L147>
    3868:	40 c0 b3    	mov.b     #0x4, w0
    386a:	00 4f 78    	mov.b     w0, [w14]
    386c:	9e 40 78    	mov.b     [w14], w1
    386e:	3e 40 90    	mov.b     [w14+3], w0
    3870:	c8 ff 07    	rcall     0x3802 <_is_this_the_moment_to_send>
    3872:	00 00 fb    	se        w0, w0
    3874:	20 07 98    	mov.w     w0, [w14+4]
    3876:	24 00 37    	bra       0x38c0 <.L143>

00003878 <.L147>:
    3878:	2e 40 90    	mov.b     [w14+2], w0
    387a:	ed 4f 50    	sub.b     w0, #0xd, [w15]
    387c:	0b 00 36    	bra       LEU, 0x3894 <.L150>
    387e:	2e 40 90    	mov.b     [w14+2], w0
    3880:	f0 4f 50    	sub.b     w0, #0x10, [w15]
    3882:	08 00 3e    	bra       GTU, 0x3894 <.L150>
    3884:	30 c0 b3    	mov.b     #0x3, w0
    3886:	00 4f 78    	mov.b     w0, [w14]
    3888:	9e 40 78    	mov.b     [w14], w1
    388a:	3e 40 90    	mov.b     [w14+3], w0
    388c:	ba ff 07    	rcall     0x3802 <_is_this_the_moment_to_send>
    388e:	00 00 fb    	se        w0, w0
    3890:	20 07 98    	mov.w     w0, [w14+4]
    3892:	16 00 37    	bra       0x38c0 <.L143>

00003894 <.L150>:
    3894:	2e 40 90    	mov.b     [w14+2], w0
    3896:	f0 4f 50    	sub.b     w0, #0x10, [w15]
    3898:	0b 00 36    	bra       LEU, 0x38b0 <.L153>
    389a:	2e 40 90    	mov.b     [w14+2], w0
    389c:	f7 4f 50    	sub.b     w0, #0x17, [w15]
    389e:	08 00 3e    	bra       GTU, 0x38b0 <.L153>
    38a0:	20 c0 b3    	mov.b     #0x2, w0
    38a2:	00 4f 78    	mov.b     w0, [w14]
    38a4:	9e 40 78    	mov.b     [w14], w1
    38a6:	3e 40 90    	mov.b     [w14+3], w0
    38a8:	ac ff 07    	rcall     0x3802 <_is_this_the_moment_to_send>
    38aa:	00 00 fb    	se        w0, w0
    38ac:	20 07 98    	mov.w     w0, [w14+4]
    38ae:	08 00 37    	bra       0x38c0 <.L143>

000038b0 <.L153>:
    38b0:	2e 40 90    	mov.b     [w14+2], w0
    38b2:	f7 4f 50    	sub.b     w0, #0x17, [w15]
    38b4:	03 00 36    	bra       LEU, 0x38bc <.L156>
    38b6:	10 00 20    	mov.w     #0x1, w0
    38b8:	20 07 98    	mov.w     w0, [w14+4]
    38ba:	02 00 37    	bra       0x38c0 <.L143>

000038bc <.L156>:
    38bc:	00 00 eb    	clr.w     w0
    38be:	20 07 98    	mov.w     w0, [w14+4]

000038c0 <.L143>:
    38c0:	2e 00 90    	mov.w     [w14+4], w0
    38c2:	00 80 fa    	ulnk      
    38c4:	00 00 06    	return    

000038c6 <_mavlink_output_40hz>:
    38c6:	38 00 fa    	lnk       #0x38
    38c8:	88 9f be    	mov.d     w8, [w15++]
    38ca:	8a 9f be    	mov.d     w10, [w15++]
    38cc:	8c 9f be    	mov.d     w12, [w15++]
    38ce:	00 40 eb    	clr.b     w0
    38d0:	40 4f 98    	mov.b     w0, [w14+12]
    38d2:	4a d7 bf    	mov.b     0x174a, WREG
    38d4:	00 40 e8    	inc.b     w0, w0
    38d6:	4a f7 b7    	mov.b     WREG, 0x174a
    38d8:	a1 74 21    	mov.w     #0x174a, w1
    38da:	91 40 78    	mov.b     [w1], w1
    38dc:	80 c2 b3    	mov.b     #0x28, w0
    38de:	80 cf 50    	sub.b     w1, w0, [w15]
    38e0:	02 00 3a    	bra       NZ, 0x38e6 <.L160>
    38e2:	00 40 eb    	clr.b     w0
    38e4:	4a f7 b7    	mov.b     WREG, 0x174a

000038e6 <.L160>:
    38e6:	c0 ae 21    	mov.w     #0x1aec, w0
    38e8:	30 02 be    	mov.d     [w0++], w4
    38ea:	20 03 be    	mov.d     [w0--], w6
    38ec:	50 08 80    	mov.w     0x10a, w0
    38ee:	82 02 20    	mov.w     #0x28, w2
    38f0:	11 00 09    	repeat    #0x11
    38f2:	02 80 d8    	div.uw    w0, w2
    38f4:	01 00 20    	mov.w     #0x0, w1
    38f6:	02 00 20    	mov.w     #0x0, w2
    38f8:	03 00 20    	mov.w     #0x0, w3
    38fa:	04 00 40    	add.w     w0, w4, w0
    38fc:	85 80 48    	addc.w    w1, w5, w1
    38fe:	06 01 49    	addc.w    w2, w6, w2
    3900:	87 81 49    	addc.w    w3, w7, w3
    3902:	c4 74 21    	mov.w     #0x174c, w4
    3904:	00 9a be    	mov.d     w0, [w4++]
    3906:	02 92 be    	mov.d     w2, [w4--]
    3908:	00 c0 eb    	setm.b    w0
    390a:	40 4f 98    	mov.b     w0, [w14+12]
    390c:	a1 74 21    	mov.w     #0x174a, w1
    390e:	91 40 78    	mov.b     [w1], w1
    3910:	4e 48 90    	mov.b     [w14+12], w0
    3912:	80 c0 40    	add.b     w1, w0, w1
    3914:	10 c0 b3    	mov.b     #0x1, w0
    3916:	88 ff 07    	rcall     0x3828 <_mavlink_frequency_send>
    3918:	00 04 e0    	cp0.b     w0
    391a:	04 00 32    	bra       Z, 0x3924 <.L162>
    391c:	32 c0 b3    	mov.b     #0x3, w2
    391e:	11 c0 b3    	mov.b     #0x1, w1
    3920:	00 00 eb    	clr.w     w0
    3922:	1a 05 07    	rcall     0x4358 <_mavlink_msg_heartbeat_send>

00003924 <.L162>:
    3924:	84 ca bf    	mov.b     0xa84, WREG
    3926:	00 04 e0    	cp0.b     w0
    3928:	7a 00 32    	bra       Z, 0x3a1e <.L164>
    392a:	84 ca bf    	mov.b     0xa84, WREG
    392c:	00 81 fb    	ze        w0, w2
    392e:	60 00 20    	mov.w     #0x6, w0
    3930:	11 00 09    	repeat    #0x11
    3932:	02 00 d8    	div.sw    w0, w2
    3934:	40 4f 98    	mov.b     w0, [w14+12]
    3936:	a1 74 21    	mov.w     #0x174a, w1
    3938:	91 40 78    	mov.b     [w1], w1
    393a:	4e 48 90    	mov.b     [w14+12], w0
    393c:	80 c0 40    	add.b     w1, w0, w1
    393e:	84 ca bf    	mov.b     0xa84, WREG
    3940:	73 ff 07    	rcall     0x3828 <_mavlink_frequency_send>
    3942:	00 04 e0    	cp0.b     w0
    3944:	6c 00 32    	bra       Z, 0x3a1e <.L164>
    3946:	60 00 b8    	mul.uu    w0, #0x0, w0
    3948:	00 8f be    	mov.d     w0, [w14]
    394a:	d0 61 80    	mov.w     0xc3a, w0
    394c:	61 04 b9    	mul.su    w0, #0x1, w8
    394e:	c0 57 80    	mov.w     0xaf8, w0
    3950:	d1 57 80    	mov.w     0xafa, w1
    3952:	a2 05 20    	mov.w     #0x5a, w2
    3954:	03 00 20    	mov.w     #0x0, w3
    3956:	71 e9 07    	rcall     0xc3a <___divsi3>
    3958:	08 00 40    	add.w     w0, w8, w0
    395a:	89 80 48    	addc.w    w1, w9, w1
    395c:	70 07 98    	mov.w     w0, [w14+14]
    395e:	01 0f 98    	mov.w     w1, [w14+16]
    3960:	fe 00 90    	mov.w     [w14+14], w1
    3962:	a0 05 20    	mov.w     #0x5a, w0
    3964:	00 09 b8    	mul.uu    w1, w0, w2
    3966:	7e 00 90    	mov.w     [w14+14], w0
    3968:	60 00 b9    	mul.su    w0, #0x0, w0
    396a:	03 02 78    	mov.w     w3, w4
    396c:	00 02 42    	add.w     w4, w0, w4
    396e:	8e 08 90    	mov.w     [w14+16], w1
    3970:	a0 05 20    	mov.w     #0x5a, w0
    3972:	00 88 b9    	mul.ss    w1, w0, w0
    3974:	00 02 42    	add.w     w4, w0, w4
    3976:	84 01 78    	mov.w     w4, w3
    3978:	02 00 be    	mov.d     w2, w0
    397a:	6e e9 07    	rcall     0xc58 <___floatsisf>
    397c:	02 68 29    	mov.w     #0x9680, w2
    397e:	83 b1 24    	mov.w     #0x4b18, w3
    3980:	fb e9 07    	rcall     0xd78 <___divsf3>
    3982:	40 07 98    	mov.w     w0, [w14+8]
    3984:	51 07 98    	mov.w     w1, [w14+10]
    3986:	e0 57 80    	mov.w     0xafc, w0
    3988:	f1 57 80    	mov.w     0xafe, w1
    398a:	66 e9 07    	rcall     0xc58 <___floatsisf>
    398c:	00 05 be    	mov.d     w0, w10
    398e:	b1 61 80    	mov.w     0xc36, w1
    3990:	a0 05 20    	mov.w     #0x5a, w0
    3992:	00 88 b9    	mul.ss    w1, w0, w0
    3994:	cf 80 de    	asr.w     w0, #0xf, w1
    3996:	60 e9 07    	rcall     0xc58 <___floatsisf>
    3998:	00 04 be    	mov.d     w0, w8
    399a:	d0 58 80    	mov.w     0xb1a, w0
    399c:	cf 80 de    	asr.w     w0, #0xf, w1
    399e:	5c e9 07    	rcall     0xc58 <___floatsisf>
    39a0:	02 00 20    	mov.w     #0x0, w2
    39a2:	03 68 24    	mov.w     #0x4680, w3
    39a4:	e9 e9 07    	rcall     0xd78 <___divsf3>
    39a6:	00 01 be    	mov.d     w0, w2
    39a8:	08 00 be    	mov.d     w8, w0
    39aa:	e6 e9 07    	rcall     0xd78 <___divsf3>
    39ac:	00 01 be    	mov.d     w0, w2
    39ae:	0a 00 be    	mov.d     w10, w0
    39b0:	26 ea 07    	rcall     0xdfe <___addsf3>
    39b2:	02 68 29    	mov.w     #0x9680, w2
    39b4:	83 b1 24    	mov.w     #0x4b18, w3
    39b6:	e0 e9 07    	rcall     0xd78 <___divsf3>
    39b8:	20 07 98    	mov.w     w0, [w14+4]
    39ba:	31 07 98    	mov.w     w1, [w14+6]
    39bc:	f0 61 80    	mov.w     0xc3e, w0
    39be:	61 02 b9    	mul.su    w0, #0x1, w4
    39c0:	84 00 78    	mov.w     w4, w1
    39c2:	40 06 20    	mov.w     #0x64, w0
    39c4:	00 0b b8    	mul.uu    w1, w0, w6
    39c6:	60 20 b9    	mul.su    w4, #0x0, w0
    39c8:	07 01 78    	mov.w     w7, w2
    39ca:	00 01 41    	add.w     w2, w0, w2
    39cc:	40 06 20    	mov.w     #0x64, w0
    39ce:	00 a8 b9    	mul.ss    w5, w0, w0
    39d0:	00 01 41    	add.w     w2, w0, w2
    39d2:	82 03 78    	mov.w     w2, w7
    39d4:	00 58 80    	mov.w     0xb00, w0
    39d6:	cf 80 de    	asr.w     w0, #0xf, w1
    39d8:	06 00 40    	add.w     w0, w6, w0
    39da:	87 80 48    	addc.w    w1, w7, w1
    39dc:	3d e9 07    	rcall     0xc58 <___floatsisf>
    39de:	02 00 20    	mov.w     #0x0, w2
    39e0:	83 2c 24    	mov.w     #0x42c8, w3
    39e2:	ca e9 07    	rcall     0xd78 <___divsf3>
    39e4:	00 8f be    	mov.d     w0, [w14]
    39e6:	90 61 80    	mov.w     0xc32, w0
    39e8:	cf 80 de    	asr.w     w0, #0xf, w1
    39ea:	36 e9 07    	rcall     0xc58 <___floatsisf>
    39ec:	00 05 be    	mov.d     w0, w10
    39ee:	70 61 80    	mov.w     0xc2e, w0
    39f0:	cf 80 de    	asr.w     w0, #0xf, w1
    39f2:	32 e9 07    	rcall     0xc58 <___floatsisf>
    39f4:	00 04 be    	mov.d     w0, w8
    39f6:	50 61 80    	mov.w     0xc2a, w0
    39f8:	cf 80 de    	asr.w     w0, #0xf, w1
    39fa:	2e e9 07    	rcall     0xc58 <___floatsisf>
    39fc:	00 01 be    	mov.d     w0, w2
    39fe:	c0 74 21    	mov.w     #0x174c, w0
    3a00:	30 02 be    	mov.d     [w0++], w4
    3a02:	20 03 be    	mov.d     [w0--], w6
    3a04:	8a 9f be    	mov.d     w10, [w15++]
    3a06:	88 9f be    	mov.d     w8, [w15++]
    3a08:	82 9f be    	mov.d     w2, [w15++]
    3a0a:	1e 00 be    	mov.d     [w14], w0
    3a0c:	80 9f be    	mov.d     w0, [w15++]
    3a0e:	2e 00 90    	mov.w     [w14+4], w0
    3a10:	be 00 90    	mov.w     [w14+6], w1
    3a12:	80 9f be    	mov.d     w0, [w15++]
    3a14:	4e 01 90    	mov.w     [w14+8], w2
    3a16:	de 01 90    	mov.w     [w14+10], w3
    3a18:	00 00 eb    	clr.w     w0
    3a1a:	3d 04 07    	rcall     0x4296 <_mavlink_msg_global_position_send>
    3a1c:	f4 87 57    	sub.w     w15, #0x14, w15

00003a1e <.L164>:
    3a1e:	85 ca bf    	mov.b     0xa85, WREG
    3a20:	00 04 e0    	cp0.b     w0
    3a22:	93 00 32    	bra       Z, 0x3b4a <.L167>
    3a24:	85 ca bf    	mov.b     0xa85, WREG
    3a26:	00 81 fb    	ze        w0, w2
    3a28:	c0 00 20    	mov.w     #0xc, w0
    3a2a:	11 00 09    	repeat    #0x11
    3a2c:	02 00 d8    	div.sw    w0, w2
    3a2e:	40 4f 98    	mov.b     w0, [w14+12]
    3a30:	a1 74 21    	mov.w     #0x174a, w1
    3a32:	91 40 78    	mov.b     [w1], w1
    3a34:	4e 48 90    	mov.b     [w14+12], w0
    3a36:	80 c0 40    	add.b     w1, w0, w1
    3a38:	85 ca bf    	mov.b     0xa85, WREG
    3a3a:	f6 fe 07    	rcall     0x3828 <_mavlink_frequency_send>
    3a3c:	00 04 e0    	cp0.b     w0
    3a3e:	85 00 32    	bra       Z, 0x3b4a <.L167>
    3a40:	70 59 80    	mov.w     0xb2e, w0
    3a42:	00 1f 98    	mov.w     w0, [w14+48]
    3a44:	50 59 80    	mov.w     0xb2a, w0
    3a46:	10 1f 98    	mov.w     w0, [w14+50]
    3a48:	00 03 20    	mov.w     #0x30, w0
    3a4a:	0e 00 40    	add.w     w0, w14, w0
    3a4c:	5c 2e 07    	rcall     0x9706 <_rect_to_polar16>
    3a4e:	10 0f 98    	mov.w     w0, [w14+18]
    3a50:	1e 08 90    	mov.w     [w14+18], w0
    3a52:	00 00 ea    	neg.w     w0, w0
    3a54:	cf 80 de    	asr.w     w0, #0xf, w1
    3a56:	00 e9 07    	rcall     0xc58 <___floatsisf>
    3a58:	b2 fd 20    	mov.w     #0xfdb, w2
    3a5a:	93 8c 23    	mov.w     #0x38c9, w3
    3a5c:	28 e9 07    	rcall     0xcae <___mulsf3>
    3a5e:	40 17 98    	mov.w     w0, [w14+40]
    3a60:	51 17 98    	mov.w     w1, [w14+42]
    3a62:	60 59 80    	mov.w     0xb2c, w0
    3a64:	10 1f 98    	mov.w     w0, [w14+50]
    3a66:	00 03 20    	mov.w     #0x30, w0
    3a68:	0e 00 40    	add.w     w0, w14, w0
    3a6a:	4d 2e 07    	rcall     0x9706 <_rect_to_polar16>
    3a6c:	10 0f 98    	mov.w     w0, [w14+18]
    3a6e:	1e 08 90    	mov.w     [w14+18], w0
    3a70:	cf 80 de    	asr.w     w0, #0xf, w1
    3a72:	f2 e8 07    	rcall     0xc58 <___floatsisf>
    3a74:	b2 fd 20    	mov.w     #0xfdb, w2
    3a76:	93 8c 23    	mov.w     #0x38c9, w3
    3a78:	1a e9 07    	rcall     0xcae <___mulsf3>
    3a7a:	60 17 98    	mov.w     w0, [w14+44]
    3a7c:	71 17 98    	mov.w     w1, [w14+46]
    3a7e:	30 59 80    	mov.w     0xb26, w0
    3a80:	00 1f 98    	mov.w     w0, [w14+48]
    3a82:	00 59 80    	mov.w     0xb20, w0
    3a84:	10 1f 98    	mov.w     w0, [w14+50]
    3a86:	00 03 20    	mov.w     #0x30, w0
    3a88:	0e 00 40    	add.w     w0, w14, w0
    3a8a:	3d 2e 07    	rcall     0x9706 <_rect_to_polar16>
    3a8c:	10 0f 98    	mov.w     w0, [w14+18]
    3a8e:	1e 08 90    	mov.w     [w14+18], w0
    3a90:	00 00 ea    	neg.w     w0, w0
    3a92:	cf 80 de    	asr.w     w0, #0xf, w1
    3a94:	e1 e8 07    	rcall     0xc58 <___floatsisf>
    3a96:	b2 fd 20    	mov.w     #0xfdb, w2
    3a98:	93 8c 23    	mov.w     #0x38c9, w3
    3a9a:	09 e9 07    	rcall     0xcae <___mulsf3>
    3a9c:	20 17 98    	mov.w     w0, [w14+36]
    3a9e:	31 17 98    	mov.w     w1, [w14+38]
    3aa0:	58 a8 20    	mov.w     #0xa85, w8
    3aa2:	18 44 78    	mov.b     [w8], w8
    3aa4:	08 00 fb    	se        w8, w0
    3aa6:	cf 80 de    	asr.w     w0, #0xf, w1
    3aa8:	d7 e8 07    	rcall     0xc58 <___floatsisf>
    3aaa:	20 1f 98    	mov.w     w0, [w14+52]
    3aac:	31 1f 98    	mov.w     w1, [w14+54]
    3aae:	08 04 e0    	cp0.b     w8
    3ab0:	07 00 3d    	bra       GE, 0x3ac0 <.L170>
    3ab2:	02 00 20    	mov.w     #0x0, w2
    3ab4:	03 38 24    	mov.w     #0x4380, w3
    3ab6:	2e 18 90    	mov.w     [w14+52], w0
    3ab8:	be 18 90    	mov.w     [w14+54], w1
    3aba:	a1 e9 07    	rcall     0xdfe <___addsf3>
    3abc:	20 1f 98    	mov.w     w0, [w14+52]
    3abe:	31 1f 98    	mov.w     w1, [w14+54]

00003ac0 <.L170>:
    3ac0:	2e 18 90    	mov.w     [w14+52], w0
    3ac2:	be 18 90    	mov.w     [w14+54], w1
    3ac4:	20 0f 98    	mov.w     w0, [w14+20]
    3ac6:	31 0f 98    	mov.w     w1, [w14+22]
    3ac8:	c2 ba 80    	mov.w     0x1758, w2
    3aca:	d3 ba 80    	mov.w     0x175a, w3
    3acc:	6e 10 90    	mov.w     [w14+44], w0
    3ace:	fe 10 90    	mov.w     [w14+46], w1
    3ad0:	95 e9 07    	rcall     0xdfc <___subsf3>
    3ad2:	2e 09 90    	mov.w     [w14+20], w2
    3ad4:	be 09 90    	mov.w     [w14+22], w3
    3ad6:	eb e8 07    	rcall     0xcae <___mulsf3>
    3ad8:	00 17 98    	mov.w     w0, [w14+32]
    3ada:	11 17 98    	mov.w     w1, [w14+34]
    3adc:	e2 ba 80    	mov.w     0x175c, w2
    3ade:	f3 ba 80    	mov.w     0x175e, w3
    3ae0:	4e 10 90    	mov.w     [w14+40], w0
    3ae2:	de 10 90    	mov.w     [w14+42], w1
    3ae4:	8b e9 07    	rcall     0xdfc <___subsf3>
    3ae6:	2e 09 90    	mov.w     [w14+20], w2
    3ae8:	be 09 90    	mov.w     [w14+22], w3
    3aea:	e1 e8 07    	rcall     0xcae <___mulsf3>
    3aec:	60 0f 98    	mov.w     w0, [w14+28]
    3aee:	71 0f 98    	mov.w     w1, [w14+30]
    3af0:	02 bb 80    	mov.w     0x1760, w2
    3af2:	13 bb 80    	mov.w     0x1762, w3
    3af4:	2e 10 90    	mov.w     [w14+36], w0
    3af6:	be 10 90    	mov.w     [w14+38], w1
    3af8:	81 e9 07    	rcall     0xdfc <___subsf3>
    3afa:	2e 09 90    	mov.w     [w14+20], w2
    3afc:	be 09 90    	mov.w     [w14+22], w3
    3afe:	d7 e8 07    	rcall     0xcae <___mulsf3>
    3b00:	40 0f 98    	mov.w     w0, [w14+24]
    3b02:	51 0f 98    	mov.w     w1, [w14+26]
    3b04:	6e 10 90    	mov.w     [w14+44], w0
    3b06:	fe 10 90    	mov.w     [w14+46], w1
    3b08:	c0 ba 88    	mov.w     w0, 0x1758
    3b0a:	d1 ba 88    	mov.w     w1, 0x175a
    3b0c:	4e 10 90    	mov.w     [w14+40], w0
    3b0e:	de 10 90    	mov.w     [w14+42], w1
    3b10:	e0 ba 88    	mov.w     w0, 0x175c
    3b12:	f1 ba 88    	mov.w     w1, 0x175e
    3b14:	2e 10 90    	mov.w     [w14+36], w0
    3b16:	be 10 90    	mov.w     [w14+38], w1
    3b18:	00 bb 88    	mov.w     w0, 0x1760
    3b1a:	11 bb 88    	mov.w     w1, 0x1762
    3b1c:	c0 74 21    	mov.w     #0x174c, w0
    3b1e:	30 02 be    	mov.d     [w0++], w4
    3b20:	20 03 be    	mov.d     [w0--], w6
    3b22:	4e 08 90    	mov.w     [w14+24], w0
    3b24:	de 08 90    	mov.w     [w14+26], w1
    3b26:	80 9f be    	mov.d     w0, [w15++]
    3b28:	0e 10 90    	mov.w     [w14+32], w0
    3b2a:	9e 10 90    	mov.w     [w14+34], w1
    3b2c:	80 9f be    	mov.d     w0, [w15++]
    3b2e:	6e 08 90    	mov.w     [w14+28], w0
    3b30:	fe 08 90    	mov.w     [w14+30], w1
    3b32:	80 9f be    	mov.d     w0, [w15++]
    3b34:	2e 10 90    	mov.w     [w14+36], w0
    3b36:	be 10 90    	mov.w     [w14+38], w1
    3b38:	80 9f be    	mov.d     w0, [w15++]
    3b3a:	6e 10 90    	mov.w     [w14+44], w0
    3b3c:	fe 10 90    	mov.w     [w14+46], w1
    3b3e:	80 9f be    	mov.d     w0, [w15++]
    3b40:	4e 11 90    	mov.w     [w14+40], w2
    3b42:	de 11 90    	mov.w     [w14+42], w3
    3b44:	00 00 eb    	clr.w     w0
    3b46:	46 03 07    	rcall     0x41d4 <_mavlink_msg_attitude_send>
    3b48:	f4 87 57    	sub.w     w15, #0x14, w15

00003b4a <.L167>:
    3b4a:	83 ca bf    	mov.b     0xa83, WREG
    3b4c:	00 04 e0    	cp0.b     w0
    3b4e:	56 00 32    	bra       Z, 0x3bfc <.L171>
    3b50:	83 ca bf    	mov.b     0xa83, WREG
    3b52:	00 81 fb    	ze        w0, w2
    3b54:	20 01 20    	mov.w     #0x12, w0
    3b56:	11 00 09    	repeat    #0x11
    3b58:	02 00 d8    	div.sw    w0, w2
    3b5a:	40 4f 98    	mov.b     w0, [w14+12]
    3b5c:	a1 74 21    	mov.w     #0x174a, w1
    3b5e:	91 40 78    	mov.b     [w1], w1
    3b60:	4e 48 90    	mov.b     [w14+12], w0
    3b62:	80 c0 40    	add.b     w1, w0, w1
    3b64:	83 ca bf    	mov.b     0xa83, WREG
    3b66:	60 fe 07    	rcall     0x3828 <_mavlink_frequency_send>
    3b68:	00 04 e0    	cp0.b     w0
    3b6a:	48 00 32    	bra       Z, 0x3bfc <.L171>
    3b6c:	70 d8 80    	mov.w     0x1b0e, w0
    3b6e:	01 08 20    	mov.w     #0x80, w1
    3b70:	01 00 60    	and.w     w0, w1, w0
    3b72:	00 00 e0    	cp0.w     w0
    3b74:	08 00 3a    	bra       NZ, 0x3b86 <.L174>
    3b76:	70 d8 80    	mov.w     0x1b0e, w0
    3b78:	01 10 20    	mov.w     #0x100, w1
    3b7a:	01 00 60    	and.w     w0, w1, w0
    3b7c:	00 00 e0    	cp0.w     w0
    3b7e:	03 00 3a    	bra       NZ, 0x3b86 <.L174>
    3b80:	20 c0 b3    	mov.b     #0x2, w0
    3b82:	50 4f 98    	mov.b     w0, [w14+13]
    3b84:	31 00 37    	bra       0x3be8 <.L177>

00003b86 <.L174>:
    3b86:	70 d8 80    	mov.w     0x1b0e, w0
    3b88:	01 08 20    	mov.w     #0x80, w1
    3b8a:	01 00 60    	and.w     w0, w1, w0
    3b8c:	00 00 e0    	cp0.w     w0
    3b8e:	08 00 3a    	bra       NZ, 0x3ba0 <.L178>
    3b90:	70 d8 80    	mov.w     0x1b0e, w0
    3b92:	01 10 20    	mov.w     #0x100, w1
    3b94:	01 00 60    	and.w     w0, w1, w0
    3b96:	00 00 e0    	cp0.w     w0
    3b98:	03 00 32    	bra       Z, 0x3ba0 <.L178>
    3b9a:	30 c0 b3    	mov.b     #0x3, w0
    3b9c:	50 4f 98    	mov.b     w0, [w14+13]
    3b9e:	24 00 37    	bra       0x3be8 <.L177>

00003ba0 <.L178>:
    3ba0:	70 d8 80    	mov.w     0x1b0e, w0
    3ba2:	01 08 20    	mov.w     #0x80, w1
    3ba4:	01 00 60    	and.w     w0, w1, w0
    3ba6:	00 00 e0    	cp0.w     w0
    3ba8:	0c 00 32    	bra       Z, 0x3bc2 <.L181>
    3baa:	70 d8 80    	mov.w     0x1b0e, w0
    3bac:	01 10 20    	mov.w     #0x100, w1
    3bae:	01 00 60    	and.w     w0, w1, w0
    3bb0:	00 00 e0    	cp0.w     w0
    3bb2:	07 00 32    	bra       Z, 0x3bc2 <.L181>
    3bb4:	00 da 80    	mov.w     0x1b40, w0
    3bb6:	70 00 60    	and.w     w0, #0x10, w0
    3bb8:	00 00 e0    	cp0.w     w0
    3bba:	03 00 32    	bra       Z, 0x3bc2 <.L181>
    3bbc:	40 c0 b3    	mov.b     #0x4, w0
    3bbe:	50 4f 98    	mov.b     w0, [w14+13]
    3bc0:	13 00 37    	bra       0x3be8 <.L177>

00003bc2 <.L181>:
    3bc2:	70 d8 80    	mov.w     0x1b0e, w0
    3bc4:	01 08 20    	mov.w     #0x80, w1
    3bc6:	01 00 60    	and.w     w0, w1, w0
    3bc8:	00 00 e0    	cp0.w     w0
    3bca:	0c 00 32    	bra       Z, 0x3be4 <.L185>
    3bcc:	70 d8 80    	mov.w     0x1b0e, w0
    3bce:	01 10 20    	mov.w     #0x100, w1
    3bd0:	01 00 60    	and.w     w0, w1, w0
    3bd2:	00 00 e0    	cp0.w     w0
    3bd4:	07 00 32    	bra       Z, 0x3be4 <.L185>
    3bd6:	00 da 80    	mov.w     0x1b40, w0
    3bd8:	70 00 60    	and.w     w0, #0x10, w0
    3bda:	00 00 e0    	cp0.w     w0
    3bdc:	03 00 3a    	bra       NZ, 0x3be4 <.L185>
    3bde:	50 c0 b3    	mov.b     #0x5, w0
    3be0:	50 4f 98    	mov.b     w0, [w14+13]
    3be2:	02 00 37    	bra       0x3be8 <.L177>

00003be4 <.L185>:
    3be4:	50 c0 b3    	mov.b     #0x5, w0
    3be6:	50 4f 98    	mov.b     w0, [w14+13]

00003be8 <.L177>:
    3be8:	67 d2 80    	mov.w     0x1a4c, w7
    3bea:	d0 b7 80    	mov.w     0x16fa, w0
    3bec:	00 03 eb    	clr.w     w6
    3bee:	05 71 22    	mov.w     #0x2710, w5
    3bf0:	00 02 78    	mov.w     w0, w4
    3bf2:	43 c0 b3    	mov.b     #0x4, w3
    3bf4:	32 c0 b3    	mov.b     #0x3, w2
    3bf6:	de 48 90    	mov.b     [w14+13], w1
    3bf8:	00 00 eb    	clr.w     w0
    3bfa:	9a 02 07    	rcall     0x4130 <_mavlink_msg_sys_status_send>

00003bfc <.L171>:
    3bfc:	82 ca bf    	mov.b     0xa82, WREG
    3bfe:	00 04 e0    	cp0.b     w0
    3c00:	3e 00 32    	bra       Z, 0x3c7e <.L189>
    3c02:	82 ca bf    	mov.b     0xa82, WREG
    3c04:	00 81 fb    	ze        w0, w2
    3c06:	80 01 20    	mov.w     #0x18, w0
    3c08:	11 00 09    	repeat    #0x11
    3c0a:	02 00 d8    	div.sw    w0, w2
    3c0c:	40 4f 98    	mov.b     w0, [w14+12]
    3c0e:	a1 74 21    	mov.w     #0x174a, w1
    3c10:	91 40 78    	mov.b     [w1], w1
    3c12:	4e 48 90    	mov.b     [w14+12], w0
    3c14:	80 c0 40    	add.b     w1, w0, w1
    3c16:	82 ca bf    	mov.b     0xa82, WREG
    3c18:	07 fe 07    	rcall     0x3828 <_mavlink_frequency_send>
    3c1a:	00 04 e0    	cp0.b     w0
    3c1c:	30 00 32    	bra       Z, 0x3c7e <.L189>
    3c1e:	10 6d 80    	mov.w     0xda2, w0
    3c20:	52 00 20    	mov.w     #0x5, w2
    3c22:	11 00 09    	repeat    #0x11
    3c24:	02 80 d8    	div.uw    w0, w2
    3c26:	80 01 78    	mov.w     w0, w3
    3c28:	00 6d 80    	mov.w     0xda0, w0
    3c2a:	52 00 20    	mov.w     #0x5, w2
    3c2c:	11 00 09    	repeat    #0x11
    3c2e:	02 80 d8    	div.uw    w0, w2
    3c30:	80 03 78    	mov.w     w0, w7
    3c32:	f0 6c 80    	mov.w     0xd9e, w0
    3c34:	52 00 20    	mov.w     #0x5, w2
    3c36:	11 00 09    	repeat    #0x11
    3c38:	02 80 d8    	div.uw    w0, w2
    3c3a:	00 02 78    	mov.w     w0, w4
    3c3c:	e0 6c 80    	mov.w     0xd9c, w0
    3c3e:	52 00 20    	mov.w     #0x5, w2
    3c40:	11 00 09    	repeat    #0x11
    3c42:	02 80 d8    	div.uw    w0, w2
    3c44:	80 02 78    	mov.w     w0, w5
    3c46:	d0 6c 80    	mov.w     0xd9a, w0
    3c48:	52 00 20    	mov.w     #0x5, w2
    3c4a:	11 00 09    	repeat    #0x11
    3c4c:	02 80 d8    	div.uw    w0, w2
    3c4e:	00 04 78    	mov.w     w0, w8
    3c50:	c0 6c 80    	mov.w     0xd98, w0
    3c52:	52 00 20    	mov.w     #0x5, w2
    3c54:	11 00 09    	repeat    #0x11
    3c56:	02 80 d8    	div.uw    w0, w2
    3c58:	80 04 78    	mov.w     w0, w9
    3c5a:	b0 6c 80    	mov.w     0xd96, w0
    3c5c:	52 00 20    	mov.w     #0x5, w2
    3c5e:	11 00 09    	repeat    #0x11
    3c60:	02 80 d8    	div.uw    w0, w2
    3c62:	00 05 78    	mov.w     w0, w10
    3c64:	a0 6c 80    	mov.w     0xd94, w0
    3c66:	52 00 20    	mov.w     #0x5, w2
    3c68:	11 00 09    	repeat    #0x11
    3c6a:	02 80 d8    	div.uw    w0, w2
    3c6c:	80 00 78    	mov.w     w0, w1
    3c6e:	83 1f 78    	mov.w     w3, [w15++]
    3c70:	04 03 78    	mov.w     w4, w6
    3c72:	08 02 78    	mov.w     w8, w4
    3c74:	89 01 78    	mov.w     w9, w3
    3c76:	0a 01 78    	mov.w     w10, w2
    3c78:	00 00 eb    	clr.w     w0
    3c7a:	05 02 07    	rcall     0x4086 <_mavlink_msg_servo_output_raw_send>
    3c7c:	8f 87 e9    	dec2.w    w15, w15

00003c7e <.L189>:
    3c7e:	81 ca bf    	mov.b     0xa81, WREG
    3c80:	00 04 e0    	cp0.b     w0
    3c82:	28 00 32    	bra       Z, 0x3cd4 <.L192>
    3c84:	81 ca bf    	mov.b     0xa81, WREG
    3c86:	00 81 fb    	ze        w0, w2
    3c88:	e0 01 20    	mov.w     #0x1e, w0
    3c8a:	11 00 09    	repeat    #0x11
    3c8c:	02 00 d8    	div.sw    w0, w2
    3c8e:	40 4f 98    	mov.b     w0, [w14+12]
    3c90:	a1 74 21    	mov.w     #0x174a, w1
    3c92:	91 40 78    	mov.b     [w1], w1
    3c94:	4e 48 90    	mov.b     [w14+12], w0
    3c96:	80 c0 40    	add.b     w1, w0, w1
    3c98:	81 ca bf    	mov.b     0xa81, WREG
    3c9a:	c6 fd 07    	rcall     0x3828 <_mavlink_frequency_send>
    3c9c:	00 04 e0    	cp0.b     w0
    3c9e:	1a 00 32    	bra       Z, 0x3cd4 <.L192>
    3ca0:	31 64 80    	mov.w     0xc86, w1
    3ca2:	22 64 80    	mov.w     0xc84, w2
    3ca4:	13 64 80    	mov.w     0xc82, w3
    3ca6:	a8 71 80    	mov.w     0xe34, w8
    3ca8:	40 71 80    	mov.w     0xe28, w0
    3caa:	80 04 ea    	neg.w     w0, w9
    3cac:	7a 71 80    	mov.w     0xe2e, w10
    3cae:	1b 71 80    	mov.w     0xe22, w11
    3cb0:	b0 70 80    	mov.w     0xe16, w0
    3cb2:	00 06 ea    	neg.w     w0, w12
    3cb4:	ed 70 80    	mov.w     0xe1c, w13
    3cb6:	c0 74 21    	mov.w     #0x174c, w0
    3cb8:	30 02 be    	mov.d     [w0++], w4
    3cba:	20 03 be    	mov.d     [w0--], w6
    3cbc:	81 1f 78    	mov.w     w1, [w15++]
    3cbe:	82 1f 78    	mov.w     w2, [w15++]
    3cc0:	83 1f 78    	mov.w     w3, [w15++]
    3cc2:	88 1f 78    	mov.w     w8, [w15++]
    3cc4:	89 1f 78    	mov.w     w9, [w15++]
    3cc6:	8a 1f 78    	mov.w     w10, [w15++]
    3cc8:	8b 01 78    	mov.w     w11, w3
    3cca:	0c 01 78    	mov.w     w12, w2
    3ccc:	8d 00 78    	mov.w     w13, w1
    3cce:	00 00 eb    	clr.w     w0
    3cd0:	7b 01 07    	rcall     0x3fc8 <_mavlink_msg_raw_imu_send>
    3cd2:	ec 87 57    	sub.w     w15, #0xc, w15

00003cd4 <.L192>:
    3cd4:	86 ca bf    	mov.b     0xa86, WREG
    3cd6:	00 04 e0    	cp0.b     w0
    3cd8:	58 00 32    	bra       Z, 0x3d8a <.L195>
    3cda:	86 ca bf    	mov.b     0xa86, WREG
    3cdc:	00 81 fb    	ze        w0, w2
    3cde:	80 01 20    	mov.w     #0x18, w0
    3ce0:	11 00 09    	repeat    #0x11
    3ce2:	02 00 d8    	div.sw    w0, w2
    3ce4:	40 4f 98    	mov.b     w0, [w14+12]
    3ce6:	a1 74 21    	mov.w     #0x174a, w1
    3ce8:	91 40 78    	mov.b     [w1], w1
    3cea:	4e 48 90    	mov.b     [w14+12], w0
    3cec:	80 c0 40    	add.b     w1, w0, w1
    3cee:	86 ca bf    	mov.b     0xa86, WREG
    3cf0:	9b fd 07    	rcall     0x3828 <_mavlink_frequency_send>
    3cf2:	00 04 e0    	cp0.b     w0
    3cf4:	4a 00 32    	bra       Z, 0x3d8a <.L195>
    3cf6:	60 65 80    	mov.w     0xcac, w0
    3cf8:	22 00 20    	mov.w     #0x2, w2
    3cfa:	11 00 09    	repeat    #0x11
    3cfc:	02 00 d8    	div.sw    w0, w2
    3cfe:	80 00 78    	mov.w     w0, w1
    3d00:	50 65 80    	mov.w     0xcaa, w0
    3d02:	22 00 20    	mov.w     #0x2, w2
    3d04:	81 1f 78    	mov.w     w1, [w15++]
    3d06:	11 00 09    	repeat    #0x11
    3d08:	02 00 d8    	div.sw    w0, w2
    3d0a:	01 01 78    	mov.w     w1, w2
    3d0c:	cf 00 78    	mov.w     [--w15], w1
    3d0e:	80 03 78    	mov.w     w0, w7
    3d10:	40 65 80    	mov.w     0xca8, w0
    3d12:	22 00 20    	mov.w     #0x2, w2
    3d14:	81 1f 78    	mov.w     w1, [w15++]
    3d16:	11 00 09    	repeat    #0x11
    3d18:	02 00 d8    	div.sw    w0, w2
    3d1a:	01 01 78    	mov.w     w1, w2
    3d1c:	cf 00 78    	mov.w     [--w15], w1
    3d1e:	80 01 78    	mov.w     w0, w3
    3d20:	30 65 80    	mov.w     0xca6, w0
    3d22:	22 00 20    	mov.w     #0x2, w2
    3d24:	81 1f 78    	mov.w     w1, [w15++]
    3d26:	11 00 09    	repeat    #0x11
    3d28:	02 00 d8    	div.sw    w0, w2
    3d2a:	01 01 78    	mov.w     w1, w2
    3d2c:	cf 00 78    	mov.w     [--w15], w1
    3d2e:	00 02 78    	mov.w     w0, w4
    3d30:	20 65 80    	mov.w     0xca4, w0
    3d32:	22 00 20    	mov.w     #0x2, w2
    3d34:	81 1f 78    	mov.w     w1, [w15++]
    3d36:	11 00 09    	repeat    #0x11
    3d38:	02 00 d8    	div.sw    w0, w2
    3d3a:	01 01 78    	mov.w     w1, w2
    3d3c:	cf 00 78    	mov.w     [--w15], w1
    3d3e:	00 04 78    	mov.w     w0, w8
    3d40:	10 65 80    	mov.w     0xca2, w0
    3d42:	22 00 20    	mov.w     #0x2, w2
    3d44:	81 1f 78    	mov.w     w1, [w15++]
    3d46:	11 00 09    	repeat    #0x11
    3d48:	02 00 d8    	div.sw    w0, w2
    3d4a:	01 01 78    	mov.w     w1, w2
    3d4c:	cf 00 78    	mov.w     [--w15], w1
    3d4e:	80 04 78    	mov.w     w0, w9
    3d50:	00 65 80    	mov.w     0xca0, w0
    3d52:	22 00 20    	mov.w     #0x2, w2
    3d54:	81 1f 78    	mov.w     w1, [w15++]
    3d56:	11 00 09    	repeat    #0x11
    3d58:	02 00 d8    	div.sw    w0, w2
    3d5a:	01 01 78    	mov.w     w1, w2
    3d5c:	cf 00 78    	mov.w     [--w15], w1
    3d5e:	00 05 78    	mov.w     w0, w10
    3d60:	f0 64 80    	mov.w     0xc9e, w0
    3d62:	22 00 20    	mov.w     #0x2, w2
    3d64:	81 1f 78    	mov.w     w1, [w15++]
    3d66:	11 00 09    	repeat    #0x11
    3d68:	02 00 d8    	div.sw    w0, w2
    3d6a:	01 01 78    	mov.w     w1, w2
    3d6c:	cf 00 78    	mov.w     [--w15], w1
    3d6e:	80 05 78    	mov.w     w0, w11
    3d70:	8f 87 e8    	inc2.w    w15, w15
    3d72:	00 40 eb    	clr.b     w0
    3d74:	e0 ff 9f    	mov.b     w0, [w15-2]
    3d76:	81 1f 78    	mov.w     w1, [w15++]
    3d78:	03 03 78    	mov.w     w3, w6
    3d7a:	84 02 78    	mov.w     w4, w5
    3d7c:	08 02 78    	mov.w     w8, w4
    3d7e:	89 01 78    	mov.w     w9, w3
    3d80:	0a 01 78    	mov.w     w10, w2
    3d82:	8b 00 78    	mov.w     w11, w1
    3d84:	00 00 eb    	clr.w     w0
    3d86:	c8 00 07    	rcall     0x3f18 <_mavlink_msg_rc_channels_scaled_send>
    3d88:	e4 87 57    	sub.w     w15, #0x4, w15

00003d8a <.L195>:
    3d8a:	87 ca bf    	mov.b     0xa87, WREG
    3d8c:	00 04 e0    	cp0.b     w0
    3d8e:	43 00 32    	bra       Z, 0x3e16 <.L198>
    3d90:	87 ca bf    	mov.b     0xa87, WREG
    3d92:	00 81 fb    	ze        w0, w2
    3d94:	c0 00 20    	mov.w     #0xc, w0
    3d96:	11 00 09    	repeat    #0x11
    3d98:	02 00 d8    	div.sw    w0, w2
    3d9a:	40 4f 98    	mov.b     w0, [w14+12]
    3d9c:	a1 74 21    	mov.w     #0x174a, w1
    3d9e:	91 40 78    	mov.b     [w1], w1
    3da0:	4e 48 90    	mov.b     [w14+12], w0
    3da2:	80 c0 40    	add.b     w1, w0, w1
    3da4:	87 ca bf    	mov.b     0xa87, WREG
    3da6:	40 fd 07    	rcall     0x3828 <_mavlink_frequency_send>
    3da8:	00 04 e0    	cp0.b     w0
    3daa:	35 00 32    	bra       Z, 0x3e16 <.L198>
    3dac:	63 64 80    	mov.w     0xc8c, w3
    3dae:	58 64 80    	mov.w     0xc8a, w8
    3db0:	49 64 80    	mov.w     0xc88, w9
    3db2:	b0 71 80    	mov.w     0xe36, w0
    3db4:	80 80 d1    	asr.w     w0, w1
    3db6:	a0 71 80    	mov.w     0xe34, w0
    3db8:	00 80 d1    	asr.w     w0, w0
    3dba:	80 80 50    	sub.w     w1, w0, w1
    3dbc:	00 5e 80    	mov.w     0xbc0, w0
    3dbe:	00 85 50    	sub.w     w1, w0, w10
    3dc0:	02 5e 80    	mov.w     0xbc0, w2
    3dc2:	50 71 80    	mov.w     0xe2a, w0
    3dc4:	80 80 d1    	asr.w     w0, w1
    3dc6:	40 71 80    	mov.w     0xe28, w0
    3dc8:	00 80 d1    	asr.w     w0, w0
    3dca:	00 80 50    	sub.w     w1, w0, w0
    3dcc:	00 01 51    	sub.w     w2, w0, w2
    3dce:	70 71 80    	mov.w     0xe2e, w0
    3dd0:	80 80 d1    	asr.w     w0, w1
    3dd2:	80 71 80    	mov.w     0xe30, w0
    3dd4:	00 80 d1    	asr.w     w0, w0
    3dd6:	80 80 50    	sub.w     w1, w0, w1
    3dd8:	00 5e 80    	mov.w     0xbc0, w0
    3dda:	80 85 40    	add.w     w1, w0, w11
    3ddc:	10 71 80    	mov.w     0xe22, w0
    3dde:	80 80 d1    	asr.w     w0, w1
    3de0:	20 71 80    	mov.w     0xe24, w0
    3de2:	00 80 d1    	asr.w     w0, w0
    3de4:	00 86 50    	sub.w     w1, w0, w12
    3de6:	c0 70 80    	mov.w     0xe18, w0
    3de8:	80 80 d1    	asr.w     w0, w1
    3dea:	b0 70 80    	mov.w     0xe16, w0
    3dec:	00 80 d1    	asr.w     w0, w0
    3dee:	80 86 50    	sub.w     w1, w0, w13
    3df0:	f0 70 80    	mov.w     0xe1e, w0
    3df2:	80 80 d1    	asr.w     w0, w1
    3df4:	e0 70 80    	mov.w     0xe1c, w0
    3df6:	00 80 d1    	asr.w     w0, w0
    3df8:	80 80 50    	sub.w     w1, w0, w1
    3dfa:	c0 74 21    	mov.w     #0x174c, w0
    3dfc:	30 02 be    	mov.d     [w0++], w4
    3dfe:	20 03 be    	mov.d     [w0--], w6
    3e00:	83 1f 78    	mov.w     w3, [w15++]
    3e02:	88 1f 78    	mov.w     w8, [w15++]
    3e04:	89 1f 78    	mov.w     w9, [w15++]
    3e06:	8a 1f 78    	mov.w     w10, [w15++]
    3e08:	82 1f 78    	mov.w     w2, [w15++]
    3e0a:	8b 1f 78    	mov.w     w11, [w15++]
    3e0c:	8c 01 78    	mov.w     w12, w3
    3e0e:	0d 01 78    	mov.w     w13, w2
    3e10:	00 00 eb    	clr.w     w0
    3e12:	23 00 07    	rcall     0x3e5a <_mavlink_msg_scaled_imu_send>
    3e14:	ec 87 57    	sub.w     w15, #0xc, w15

00003e16 <.L198>:
    3e16:	00 da 80    	mov.w     0x1b40, w0
    3e18:	64 00 60    	and.w     w0, #0x4, w0
    3e1a:	00 00 e0    	cp0.w     w0
    3e1c:	10 00 32    	bra       Z, 0x3e3e <.L201>
    3e1e:	64 d7 bf    	mov.b     0x1764, WREG
    3e20:	80 80 fb    	ze        w0, w1
    3e22:	a0 af 84    	mov.w     0x95f4, w0
    3e24:	80 8f 50    	sub.w     w1, w0, [w15]
    3e26:	08 00 3d    	bra       GE, 0x3e38 <.L203>
    3e28:	64 d7 bf    	mov.b     0x1764, WREG
    3e2a:	60 11 b8    	mul.uu    w2, #0x0, w2
    3e2c:	80 40 eb    	clr.b     w1
    3e2e:	19 f9 07    	rcall     0x3062 <_mavlink_param>
    3e30:	64 d7 bf    	mov.b     0x1764, WREG
    3e32:	00 40 e8    	inc.b     w0, w0
    3e34:	64 f7 b7    	mov.b     WREG, 0x1764
    3e36:	03 00 37    	bra       0x3e3e <.L201>

00003e38 <.L203>:
    3e38:	00 40 eb    	clr.b     w0
    3e3a:	64 f7 b7    	mov.b     WREG, 0x1764
    3e3c:	40 5b a9    	bclr.b    0x1b40, #0x2

00003e3e <.L201>:
    3e3e:	00 da 80    	mov.w     0x1b40, w0
    3e40:	62 00 60    	and.w     w0, #0x2, w0
    3e42:	00 00 e0    	cp0.w     w0
    3e44:	05 00 32    	bra       Z, 0x3e50 <.L207>
    3e46:	65 d7 bf    	mov.b     0x1765, WREG
    3e48:	60 11 b8    	mul.uu    w2, #0x0, w2
    3e4a:	80 40 eb    	clr.b     w1
    3e4c:	0a f9 07    	rcall     0x3062 <_mavlink_param>
    3e4e:	40 3b a9    	bclr.b    0x1b40, #0x1

00003e50 <.L207>:
    3e50:	4f 06 be    	mov.d     [--w15], w12
    3e52:	4f 05 be    	mov.d     [--w15], w10
    3e54:	4f 04 be    	mov.d     [--w15], w8
    3e56:	00 80 fa    	ulnk      
    3e58:	00 00 06    	return    

00003e5a <_mavlink_msg_scaled_imu_send>:
    3e5a:	1c 01 fa    	lnk       #0x11c
    3e5c:	88 1f 78    	mov.w     w8, [w15++]
    3e5e:	60 07 99    	mov.w     w0, [w14+268]
    3e60:	74 07 99    	mov.w     w4, [w14+270]
    3e62:	05 0f 99    	mov.w     w5, [w14+272]
    3e64:	16 0f 99    	mov.w     w6, [w14+274]
    3e66:	27 0f 99    	mov.w     w7, [w14+276]
    3e68:	31 0f 99    	mov.w     w1, [w14+278]
    3e6a:	42 0f 99    	mov.w     w2, [w14+280]
    3e6c:	53 0f 99    	mov.w     w3, [w14+282]
    3e6e:	64 00 47    	add.w     w14, #0x4, w0
    3e70:	68 0f 40    	add.w     w0, #0x8, [w14]
    3e72:	e4 00 47    	add.w     w14, #0x4, w1
    3e74:	a0 c1 b3    	mov.b     #0x1a, w0
    3e76:	d0 40 98    	mov.b     w0, [w1+5]
    3e78:	e4 00 47    	add.w     w14, #0x4, w1
    3e7a:	a0 c1 b3    	mov.b     #0x1a, w0
    3e7c:	90 40 98    	mov.b     w0, [w1+1]
    3e7e:	1e 00 78    	mov.w     [w14], w0
    3e80:	7e 02 91    	mov.w     [w14+270], w4
    3e82:	8e 0a 91    	mov.w     [w14+272], w5
    3e84:	1e 0b 91    	mov.w     [w14+274], w6
    3e86:	ae 0b 91    	mov.w     [w14+276], w7
    3e88:	04 98 be    	mov.d     w4, [w0++]
    3e8a:	06 90 be    	mov.d     w6, [w0--]
    3e8c:	1e 00 78    	mov.w     [w14], w0
    3e8e:	be 0a 91    	mov.w     [w14+278], w5
    3e90:	45 00 98    	mov.w     w5, [w0+8]
    3e92:	1e 00 78    	mov.w     [w14], w0
    3e94:	4e 0b 91    	mov.w     [w14+280], w6
    3e96:	56 00 98    	mov.w     w6, [w0+10]
    3e98:	1e 00 78    	mov.w     [w14], w0
    3e9a:	de 0b 91    	mov.w     [w14+282], w7
    3e9c:	67 00 98    	mov.w     w7, [w0+12]
    3e9e:	1e 00 78    	mov.w     [w14], w0
    3ea0:	ce b8 97    	mov.w     [w14-8], w1
    3ea2:	71 00 98    	mov.w     w1, [w0+14]
    3ea4:	1e 00 78    	mov.w     [w14], w0
    3ea6:	3e ba 97    	mov.w     [w14-10], w4
    3ea8:	04 08 98    	mov.w     w4, [w0+16]
    3eaa:	1e 00 78    	mov.w     [w14], w0
    3eac:	ae ba 97    	mov.w     [w14-12], w5
    3eae:	15 08 98    	mov.w     w5, [w0+18]
    3eb0:	1e 00 78    	mov.w     [w14], w0
    3eb2:	1e bb 97    	mov.w     [w14-14], w6
    3eb4:	26 08 98    	mov.w     w6, [w0+20]
    3eb6:	1e 00 78    	mov.w     [w14], w0
    3eb8:	8e bb 97    	mov.w     [w14-16], w7
    3eba:	37 08 98    	mov.w     w7, [w0+22]
    3ebc:	1e 00 78    	mov.w     [w14], w0
    3ebe:	fe b0 97    	mov.w     [w14-18], w1
    3ec0:	41 08 98    	mov.w     w1, [w0+24]
    3ec2:	c1 a7 20    	mov.w     #0xa7c, w1
    3ec4:	91 40 78    	mov.b     [w1], w1
    3ec6:	64 00 47    	add.w     w14, #0x4, w0
    3ec8:	31 40 98    	mov.b     w1, [w0+3]
    3eca:	d1 a7 20    	mov.w     #0xa7d, w1
    3ecc:	91 40 78    	mov.b     [w1], w1
    3ece:	64 00 47    	add.w     w14, #0x4, w0
    3ed0:	41 40 98    	mov.b     w1, [w0+4]
    3ed2:	6e 00 91    	mov.w     [w14+268], w0
    3ed4:	ce 1f 07    	rcall     0x7e72 <_mavlink_get_channel_status>
    3ed6:	a0 48 90    	mov.b     [w0+10], w1
    3ed8:	64 00 47    	add.w     w14, #0x4, w0
    3eda:	21 40 98    	mov.b     w1, [w0+2]
    3edc:	6e 00 91    	mov.w     [w14+268], w0
    3ede:	c9 1f 07    	rcall     0x7e72 <_mavlink_get_channel_status>
    3ee0:	00 04 78    	mov.w     w0, w8
    3ee2:	6e 00 91    	mov.w     [w14+268], w0
    3ee4:	c6 1f 07    	rcall     0x7e72 <_mavlink_get_channel_status>
    3ee6:	20 48 90    	mov.b     [w0+10], w0
    3ee8:	00 40 e8    	inc.b     w0, w0
    3eea:	20 4c 98    	mov.b     w0, [w8+10]
    3eec:	64 00 47    	add.w     w14, #0x4, w0
    3eee:	10 40 90    	mov.b     [w0+1], w0
    3ef0:	00 80 fb    	ze        w0, w0
    3ef2:	e5 00 40    	add.w     w0, #0x5, w1
    3ef4:	64 00 47    	add.w     w14, #0x4, w0
    3ef6:	66 1f 07    	rcall     0x7dc4 <_crc_calculate_msg>
    3ef8:	10 07 98    	mov.w     w0, [w14+2]
    3efa:	1e 00 90    	mov.w     [w14+2], w0
    3efc:	80 40 78    	mov.b     w0, w1
    3efe:	64 00 47    	add.w     w14, #0x4, w0
    3f00:	61 40 98    	mov.b     w1, [w0+6]
    3f02:	1e 00 90    	mov.w     [w14+2], w0
    3f04:	48 00 de    	lsr.w     w0, #0x8, w0
    3f06:	80 40 78    	mov.b     w0, w1
    3f08:	64 00 47    	add.w     w14, #0x4, w0
    3f0a:	71 40 98    	mov.b     w1, [w0+7]
    3f0c:	e4 00 47    	add.w     w14, #0x4, w1
    3f0e:	6e 00 91    	mov.w     [w14+268], w0
    3f10:	7e f8 07    	rcall     0x300e <_mavlink_send_uart>
    3f12:	4f 04 78    	mov.w     [--w15], w8
    3f14:	00 80 fa    	ulnk      
    3f16:	00 00 06    	return    

00003f18 <_mavlink_msg_rc_channels_scaled_send>:
    3f18:	1c 01 fa    	lnk       #0x11c
    3f1a:	88 1f 78    	mov.w     w8, [w15++]
    3f1c:	60 07 99    	mov.w     w0, [w14+268]
    3f1e:	71 07 99    	mov.w     w1, [w14+270]
    3f20:	02 0f 99    	mov.w     w2, [w14+272]
    3f22:	13 0f 99    	mov.w     w3, [w14+274]
    3f24:	24 0f 99    	mov.w     w4, [w14+276]
    3f26:	35 0f 99    	mov.w     w5, [w14+278]
    3f28:	46 0f 99    	mov.w     w6, [w14+280]
    3f2a:	57 0f 99    	mov.w     w7, [w14+282]
    3f2c:	64 00 47    	add.w     w14, #0x4, w0
    3f2e:	68 0f 40    	add.w     w0, #0x8, [w14]
    3f30:	e4 00 47    	add.w     w14, #0x4, w1
    3f32:	40 c2 b3    	mov.b     #0x24, w0
    3f34:	d0 40 98    	mov.b     w0, [w1+5]
    3f36:	e4 00 47    	add.w     w14, #0x4, w1
    3f38:	10 c1 b3    	mov.b     #0x11, w0
    3f3a:	90 40 98    	mov.b     w0, [w1+1]
    3f3c:	1e 00 78    	mov.w     [w14], w0
    3f3e:	fe 00 91    	mov.w     [w14+270], w1
    3f40:	01 08 78    	mov.w     w1, [w0]
    3f42:	1e 00 78    	mov.w     [w14], w0
    3f44:	8e 08 91    	mov.w     [w14+272], w1
    3f46:	11 00 98    	mov.w     w1, [w0+2]
    3f48:	1e 00 78    	mov.w     [w14], w0
    3f4a:	9e 08 91    	mov.w     [w14+274], w1
    3f4c:	21 00 98    	mov.w     w1, [w0+4]
    3f4e:	1e 00 78    	mov.w     [w14], w0
    3f50:	ae 08 91    	mov.w     [w14+276], w1
    3f52:	31 00 98    	mov.w     w1, [w0+6]
    3f54:	1e 00 78    	mov.w     [w14], w0
    3f56:	be 08 91    	mov.w     [w14+278], w1
    3f58:	41 00 98    	mov.w     w1, [w0+8]
    3f5a:	1e 00 78    	mov.w     [w14], w0
    3f5c:	ce 08 91    	mov.w     [w14+280], w1
    3f5e:	51 00 98    	mov.w     w1, [w0+10]
    3f60:	1e 00 78    	mov.w     [w14], w0
    3f62:	de 08 91    	mov.w     [w14+282], w1
    3f64:	61 00 98    	mov.w     w1, [w0+12]
    3f66:	1e 00 78    	mov.w     [w14], w0
    3f68:	ce b8 97    	mov.w     [w14-8], w1
    3f6a:	71 00 98    	mov.w     w1, [w0+14]
    3f6c:	1e 00 78    	mov.w     [w14], w0
    3f6e:	ee f0 97    	mov.b     [w14-10], w1
    3f70:	01 50 98    	mov.b     w1, [w0+16]
    3f72:	c1 a7 20    	mov.w     #0xa7c, w1
    3f74:	91 40 78    	mov.b     [w1], w1
    3f76:	64 00 47    	add.w     w14, #0x4, w0
    3f78:	31 40 98    	mov.b     w1, [w0+3]
    3f7a:	d1 a7 20    	mov.w     #0xa7d, w1
    3f7c:	91 40 78    	mov.b     [w1], w1
    3f7e:	64 00 47    	add.w     w14, #0x4, w0
    3f80:	41 40 98    	mov.b     w1, [w0+4]
    3f82:	6e 00 91    	mov.w     [w14+268], w0
    3f84:	76 1f 07    	rcall     0x7e72 <_mavlink_get_channel_status>
    3f86:	a0 48 90    	mov.b     [w0+10], w1
    3f88:	64 00 47    	add.w     w14, #0x4, w0
    3f8a:	21 40 98    	mov.b     w1, [w0+2]
    3f8c:	6e 00 91    	mov.w     [w14+268], w0
    3f8e:	71 1f 07    	rcall     0x7e72 <_mavlink_get_channel_status>
    3f90:	00 04 78    	mov.w     w0, w8
    3f92:	6e 00 91    	mov.w     [w14+268], w0
    3f94:	6e 1f 07    	rcall     0x7e72 <_mavlink_get_channel_status>
    3f96:	20 48 90    	mov.b     [w0+10], w0
    3f98:	00 40 e8    	inc.b     w0, w0
    3f9a:	20 4c 98    	mov.b     w0, [w8+10]
    3f9c:	64 00 47    	add.w     w14, #0x4, w0
    3f9e:	10 40 90    	mov.b     [w0+1], w0
    3fa0:	00 80 fb    	ze        w0, w0
    3fa2:	e5 00 40    	add.w     w0, #0x5, w1
    3fa4:	64 00 47    	add.w     w14, #0x4, w0
    3fa6:	0e 1f 07    	rcall     0x7dc4 <_crc_calculate_msg>
    3fa8:	10 07 98    	mov.w     w0, [w14+2]
    3faa:	1e 00 90    	mov.w     [w14+2], w0
    3fac:	80 40 78    	mov.b     w0, w1
    3fae:	64 00 47    	add.w     w14, #0x4, w0
    3fb0:	61 40 98    	mov.b     w1, [w0+6]
    3fb2:	1e 00 90    	mov.w     [w14+2], w0
    3fb4:	48 00 de    	lsr.w     w0, #0x8, w0
    3fb6:	80 40 78    	mov.b     w0, w1
    3fb8:	64 00 47    	add.w     w14, #0x4, w0
    3fba:	71 40 98    	mov.b     w1, [w0+7]
    3fbc:	e4 00 47    	add.w     w14, #0x4, w1
    3fbe:	6e 00 91    	mov.w     [w14+268], w0
    3fc0:	26 f8 07    	rcall     0x300e <_mavlink_send_uart>
    3fc2:	4f 04 78    	mov.w     [--w15], w8
    3fc4:	00 80 fa    	ulnk      
    3fc6:	00 00 06    	return    

00003fc8 <_mavlink_msg_raw_imu_send>:
    3fc8:	1c 01 fa    	lnk       #0x11c
    3fca:	88 1f 78    	mov.w     w8, [w15++]
    3fcc:	60 07 99    	mov.w     w0, [w14+268]
    3fce:	74 07 99    	mov.w     w4, [w14+270]
    3fd0:	05 0f 99    	mov.w     w5, [w14+272]
    3fd2:	16 0f 99    	mov.w     w6, [w14+274]
    3fd4:	27 0f 99    	mov.w     w7, [w14+276]
    3fd6:	31 0f 99    	mov.w     w1, [w14+278]
    3fd8:	42 0f 99    	mov.w     w2, [w14+280]
    3fda:	53 0f 99    	mov.w     w3, [w14+282]
    3fdc:	64 00 47    	add.w     w14, #0x4, w0
    3fde:	68 0f 40    	add.w     w0, #0x8, [w14]
    3fe0:	e4 00 47    	add.w     w14, #0x4, w1
    3fe2:	c0 c1 b3    	mov.b     #0x1c, w0
    3fe4:	d0 40 98    	mov.b     w0, [w1+5]
    3fe6:	e4 00 47    	add.w     w14, #0x4, w1
    3fe8:	a0 c1 b3    	mov.b     #0x1a, w0
    3fea:	90 40 98    	mov.b     w0, [w1+1]
    3fec:	1e 00 78    	mov.w     [w14], w0
    3fee:	7e 02 91    	mov.w     [w14+270], w4
    3ff0:	8e 0a 91    	mov.w     [w14+272], w5
    3ff2:	1e 0b 91    	mov.w     [w14+274], w6
    3ff4:	ae 0b 91    	mov.w     [w14+276], w7
    3ff6:	04 98 be    	mov.d     w4, [w0++]
    3ff8:	06 90 be    	mov.d     w6, [w0--]
    3ffa:	1e 00 78    	mov.w     [w14], w0
    3ffc:	be 0a 91    	mov.w     [w14+278], w5
    3ffe:	45 00 98    	mov.w     w5, [w0+8]
    4000:	1e 00 78    	mov.w     [w14], w0
    4002:	4e 0b 91    	mov.w     [w14+280], w6
    4004:	56 00 98    	mov.w     w6, [w0+10]
    4006:	1e 00 78    	mov.w     [w14], w0
    4008:	de 0b 91    	mov.w     [w14+282], w7
    400a:	67 00 98    	mov.w     w7, [w0+12]
    400c:	1e 00 78    	mov.w     [w14], w0
    400e:	ce b8 97    	mov.w     [w14-8], w1
    4010:	71 00 98    	mov.w     w1, [w0+14]
    4012:	1e 00 78    	mov.w     [w14], w0
    4014:	3e ba 97    	mov.w     [w14-10], w4
    4016:	04 08 98    	mov.w     w4, [w0+16]
    4018:	1e 00 78    	mov.w     [w14], w0
    401a:	ae ba 97    	mov.w     [w14-12], w5
    401c:	15 08 98    	mov.w     w5, [w0+18]
    401e:	1e 00 78    	mov.w     [w14], w0
    4020:	1e bb 97    	mov.w     [w14-14], w6
    4022:	26 08 98    	mov.w     w6, [w0+20]
    4024:	1e 00 78    	mov.w     [w14], w0
    4026:	8e bb 97    	mov.w     [w14-16], w7
    4028:	37 08 98    	mov.w     w7, [w0+22]
    402a:	1e 00 78    	mov.w     [w14], w0
    402c:	fe b0 97    	mov.w     [w14-18], w1
    402e:	41 08 98    	mov.w     w1, [w0+24]
    4030:	c1 a7 20    	mov.w     #0xa7c, w1
    4032:	91 40 78    	mov.b     [w1], w1
    4034:	64 00 47    	add.w     w14, #0x4, w0
    4036:	31 40 98    	mov.b     w1, [w0+3]
    4038:	d1 a7 20    	mov.w     #0xa7d, w1
    403a:	91 40 78    	mov.b     [w1], w1
    403c:	64 00 47    	add.w     w14, #0x4, w0
    403e:	41 40 98    	mov.b     w1, [w0+4]
    4040:	6e 00 91    	mov.w     [w14+268], w0
    4042:	17 1f 07    	rcall     0x7e72 <_mavlink_get_channel_status>
    4044:	a0 48 90    	mov.b     [w0+10], w1
    4046:	64 00 47    	add.w     w14, #0x4, w0
    4048:	21 40 98    	mov.b     w1, [w0+2]
    404a:	6e 00 91    	mov.w     [w14+268], w0
    404c:	12 1f 07    	rcall     0x7e72 <_mavlink_get_channel_status>
    404e:	00 04 78    	mov.w     w0, w8
    4050:	6e 00 91    	mov.w     [w14+268], w0
    4052:	0f 1f 07    	rcall     0x7e72 <_mavlink_get_channel_status>
    4054:	20 48 90    	mov.b     [w0+10], w0
    4056:	00 40 e8    	inc.b     w0, w0
    4058:	20 4c 98    	mov.b     w0, [w8+10]
    405a:	64 00 47    	add.w     w14, #0x4, w0
    405c:	10 40 90    	mov.b     [w0+1], w0
    405e:	00 80 fb    	ze        w0, w0
    4060:	e5 00 40    	add.w     w0, #0x5, w1
    4062:	64 00 47    	add.w     w14, #0x4, w0
    4064:	af 1e 07    	rcall     0x7dc4 <_crc_calculate_msg>
    4066:	10 07 98    	mov.w     w0, [w14+2]
    4068:	1e 00 90    	mov.w     [w14+2], w0
    406a:	80 40 78    	mov.b     w0, w1
    406c:	64 00 47    	add.w     w14, #0x4, w0
    406e:	61 40 98    	mov.b     w1, [w0+6]
    4070:	1e 00 90    	mov.w     [w14+2], w0
    4072:	48 00 de    	lsr.w     w0, #0x8, w0
    4074:	80 40 78    	mov.b     w0, w1
    4076:	64 00 47    	add.w     w14, #0x4, w0
    4078:	71 40 98    	mov.b     w1, [w0+7]
    407a:	e4 00 47    	add.w     w14, #0x4, w1
    407c:	6e 00 91    	mov.w     [w14+268], w0
    407e:	c7 f7 07    	rcall     0x300e <_mavlink_send_uart>
    4080:	4f 04 78    	mov.w     [--w15], w8
    4082:	00 80 fa    	ulnk      
    4084:	00 00 06    	return    

00004086 <_mavlink_msg_servo_output_raw_send>:
    4086:	1c 01 fa    	lnk       #0x11c
    4088:	88 1f 78    	mov.w     w8, [w15++]
    408a:	60 07 99    	mov.w     w0, [w14+268]
    408c:	71 07 99    	mov.w     w1, [w14+270]
    408e:	02 0f 99    	mov.w     w2, [w14+272]
    4090:	13 0f 99    	mov.w     w3, [w14+274]
    4092:	24 0f 99    	mov.w     w4, [w14+276]
    4094:	35 0f 99    	mov.w     w5, [w14+278]
    4096:	46 0f 99    	mov.w     w6, [w14+280]
    4098:	57 0f 99    	mov.w     w7, [w14+282]
    409a:	64 00 47    	add.w     w14, #0x4, w0
    409c:	68 0f 40    	add.w     w0, #0x8, [w14]
    409e:	e4 00 47    	add.w     w14, #0x4, w1
    40a0:	50 c2 b3    	mov.b     #0x25, w0
    40a2:	d0 40 98    	mov.b     w0, [w1+5]
    40a4:	e4 00 47    	add.w     w14, #0x4, w1
    40a6:	00 c1 b3    	mov.b     #0x10, w0
    40a8:	90 40 98    	mov.b     w0, [w1+1]
    40aa:	1e 00 78    	mov.w     [w14], w0
    40ac:	fe 00 91    	mov.w     [w14+270], w1
    40ae:	01 08 78    	mov.w     w1, [w0]
    40b0:	1e 00 78    	mov.w     [w14], w0
    40b2:	8e 08 91    	mov.w     [w14+272], w1
    40b4:	11 00 98    	mov.w     w1, [w0+2]
    40b6:	1e 00 78    	mov.w     [w14], w0
    40b8:	9e 08 91    	mov.w     [w14+274], w1
    40ba:	21 00 98    	mov.w     w1, [w0+4]
    40bc:	1e 00 78    	mov.w     [w14], w0
    40be:	ae 08 91    	mov.w     [w14+276], w1
    40c0:	31 00 98    	mov.w     w1, [w0+6]
    40c2:	1e 00 78    	mov.w     [w14], w0
    40c4:	be 08 91    	mov.w     [w14+278], w1
    40c6:	41 00 98    	mov.w     w1, [w0+8]
    40c8:	1e 00 78    	mov.w     [w14], w0
    40ca:	ce 08 91    	mov.w     [w14+280], w1
    40cc:	51 00 98    	mov.w     w1, [w0+10]
    40ce:	1e 00 78    	mov.w     [w14], w0
    40d0:	de 08 91    	mov.w     [w14+282], w1
    40d2:	61 00 98    	mov.w     w1, [w0+12]
    40d4:	1e 00 78    	mov.w     [w14], w0
    40d6:	ce b8 97    	mov.w     [w14-8], w1
    40d8:	71 00 98    	mov.w     w1, [w0+14]
    40da:	c1 a7 20    	mov.w     #0xa7c, w1
    40dc:	91 40 78    	mov.b     [w1], w1
    40de:	64 00 47    	add.w     w14, #0x4, w0
    40e0:	31 40 98    	mov.b     w1, [w0+3]
    40e2:	d1 a7 20    	mov.w     #0xa7d, w1
    40e4:	91 40 78    	mov.b     [w1], w1
    40e6:	64 00 47    	add.w     w14, #0x4, w0
    40e8:	41 40 98    	mov.b     w1, [w0+4]
    40ea:	6e 00 91    	mov.w     [w14+268], w0
    40ec:	c2 1e 07    	rcall     0x7e72 <_mavlink_get_channel_status>
    40ee:	a0 48 90    	mov.b     [w0+10], w1
    40f0:	64 00 47    	add.w     w14, #0x4, w0
    40f2:	21 40 98    	mov.b     w1, [w0+2]
    40f4:	6e 00 91    	mov.w     [w14+268], w0
    40f6:	bd 1e 07    	rcall     0x7e72 <_mavlink_get_channel_status>
    40f8:	00 04 78    	mov.w     w0, w8
    40fa:	6e 00 91    	mov.w     [w14+268], w0
    40fc:	ba 1e 07    	rcall     0x7e72 <_mavlink_get_channel_status>
    40fe:	20 48 90    	mov.b     [w0+10], w0
    4100:	00 40 e8    	inc.b     w0, w0
    4102:	20 4c 98    	mov.b     w0, [w8+10]
    4104:	64 00 47    	add.w     w14, #0x4, w0
    4106:	10 40 90    	mov.b     [w0+1], w0
    4108:	00 80 fb    	ze        w0, w0
    410a:	e5 00 40    	add.w     w0, #0x5, w1
    410c:	64 00 47    	add.w     w14, #0x4, w0
    410e:	5a 1e 07    	rcall     0x7dc4 <_crc_calculate_msg>
    4110:	10 07 98    	mov.w     w0, [w14+2]
    4112:	1e 00 90    	mov.w     [w14+2], w0
    4114:	80 40 78    	mov.b     w0, w1
    4116:	64 00 47    	add.w     w14, #0x4, w0
    4118:	61 40 98    	mov.b     w1, [w0+6]
    411a:	1e 00 90    	mov.w     [w14+2], w0
    411c:	48 00 de    	lsr.w     w0, #0x8, w0
    411e:	80 40 78    	mov.b     w0, w1
    4120:	64 00 47    	add.w     w14, #0x4, w0
    4122:	71 40 98    	mov.b     w1, [w0+7]
    4124:	e4 00 47    	add.w     w14, #0x4, w1
    4126:	6e 00 91    	mov.w     [w14+268], w0
    4128:	72 f7 07    	rcall     0x300e <_mavlink_send_uart>
    412a:	4f 04 78    	mov.w     [--w15], w8
    412c:	00 80 fa    	ulnk      
    412e:	00 00 06    	return    

00004130 <_mavlink_msg_sys_status_send>:
    4130:	1a 01 fa    	lnk       #0x11a
    4132:	88 1f 78    	mov.w     w8, [w15++]
    4134:	60 07 99    	mov.w     w0, [w14+268]
    4136:	61 4f 9a    	mov.b     w1, [w14+270]
    4138:	72 4f 9a    	mov.b     w2, [w14+271]
    413a:	03 57 9a    	mov.b     w3, [w14+272]
    413c:	14 0f 99    	mov.w     w4, [w14+274]
    413e:	25 0f 99    	mov.w     w5, [w14+276]
    4140:	36 0f 99    	mov.w     w6, [w14+278]
    4142:	47 0f 99    	mov.w     w7, [w14+280]
    4144:	64 00 47    	add.w     w14, #0x4, w0
    4146:	68 0f 40    	add.w     w0, #0x8, [w14]
    4148:	e4 00 47    	add.w     w14, #0x4, w1
    414a:	20 c2 b3    	mov.b     #0x22, w0
    414c:	d0 40 98    	mov.b     w0, [w1+5]
    414e:	e4 00 47    	add.w     w14, #0x4, w1
    4150:	b0 c0 b3    	mov.b     #0xb, w0
    4152:	90 40 98    	mov.b     w0, [w1+1]
    4154:	1e 00 78    	mov.w     [w14], w0
    4156:	ee 48 92    	mov.b     [w14+270], w1
    4158:	01 48 78    	mov.b     w1, [w0]
    415a:	1e 00 78    	mov.w     [w14], w0
    415c:	fe 48 92    	mov.b     [w14+271], w1
    415e:	11 40 98    	mov.b     w1, [w0+1]
    4160:	1e 00 78    	mov.w     [w14], w0
    4162:	8e 50 92    	mov.b     [w14+272], w1
    4164:	21 48 98    	mov.b     w1, [w0+10]
    4166:	1e 00 78    	mov.w     [w14], w0
    4168:	9e 08 91    	mov.w     [w14+274], w1
    416a:	11 00 98    	mov.w     w1, [w0+2]
    416c:	1e 00 78    	mov.w     [w14], w0
    416e:	ae 08 91    	mov.w     [w14+276], w1
    4170:	21 00 98    	mov.w     w1, [w0+4]
    4172:	1e 00 78    	mov.w     [w14], w0
    4174:	be 08 91    	mov.w     [w14+278], w1
    4176:	31 00 98    	mov.w     w1, [w0+6]
    4178:	1e 00 78    	mov.w     [w14], w0
    417a:	ce 08 91    	mov.w     [w14+280], w1
    417c:	41 00 98    	mov.w     w1, [w0+8]
    417e:	c1 a7 20    	mov.w     #0xa7c, w1
    4180:	91 40 78    	mov.b     [w1], w1
    4182:	64 00 47    	add.w     w14, #0x4, w0
    4184:	31 40 98    	mov.b     w1, [w0+3]
    4186:	d1 a7 20    	mov.w     #0xa7d, w1
    4188:	91 40 78    	mov.b     [w1], w1
    418a:	64 00 47    	add.w     w14, #0x4, w0
    418c:	41 40 98    	mov.b     w1, [w0+4]
    418e:	6e 00 91    	mov.w     [w14+268], w0
    4190:	70 1e 07    	rcall     0x7e72 <_mavlink_get_channel_status>
    4192:	a0 48 90    	mov.b     [w0+10], w1
    4194:	64 00 47    	add.w     w14, #0x4, w0
    4196:	21 40 98    	mov.b     w1, [w0+2]
    4198:	6e 00 91    	mov.w     [w14+268], w0
    419a:	6b 1e 07    	rcall     0x7e72 <_mavlink_get_channel_status>
    419c:	00 04 78    	mov.w     w0, w8
    419e:	6e 00 91    	mov.w     [w14+268], w0
    41a0:	68 1e 07    	rcall     0x7e72 <_mavlink_get_channel_status>
    41a2:	20 48 90    	mov.b     [w0+10], w0
    41a4:	00 40 e8    	inc.b     w0, w0
    41a6:	20 4c 98    	mov.b     w0, [w8+10]
    41a8:	64 00 47    	add.w     w14, #0x4, w0
    41aa:	10 40 90    	mov.b     [w0+1], w0
    41ac:	00 80 fb    	ze        w0, w0
    41ae:	e5 00 40    	add.w     w0, #0x5, w1
    41b0:	64 00 47    	add.w     w14, #0x4, w0
    41b2:	08 1e 07    	rcall     0x7dc4 <_crc_calculate_msg>
    41b4:	10 07 98    	mov.w     w0, [w14+2]
    41b6:	1e 00 90    	mov.w     [w14+2], w0
    41b8:	80 40 78    	mov.b     w0, w1
    41ba:	64 00 47    	add.w     w14, #0x4, w0
    41bc:	61 40 98    	mov.b     w1, [w0+6]
    41be:	1e 00 90    	mov.w     [w14+2], w0
    41c0:	48 00 de    	lsr.w     w0, #0x8, w0
    41c2:	80 40 78    	mov.b     w0, w1
    41c4:	64 00 47    	add.w     w14, #0x4, w0
    41c6:	71 40 98    	mov.b     w1, [w0+7]
    41c8:	e4 00 47    	add.w     w14, #0x4, w1
    41ca:	6e 00 91    	mov.w     [w14+268], w0
    41cc:	20 f7 07    	rcall     0x300e <_mavlink_send_uart>
    41ce:	4f 04 78    	mov.w     [--w15], w8
    41d0:	00 80 fa    	ulnk      
    41d2:	00 00 06    	return    

000041d4 <_mavlink_msg_attitude_send>:
    41d4:	1a 01 fa    	lnk       #0x11a
    41d6:	88 1f 78    	mov.w     w8, [w15++]
    41d8:	60 07 99    	mov.w     w0, [w14+268]
    41da:	74 07 99    	mov.w     w4, [w14+270]
    41dc:	05 0f 99    	mov.w     w5, [w14+272]
    41de:	16 0f 99    	mov.w     w6, [w14+274]
    41e0:	27 0f 99    	mov.w     w7, [w14+276]
    41e2:	32 0f 99    	mov.w     w2, [w14+278]
    41e4:	43 0f 99    	mov.w     w3, [w14+280]
    41e6:	64 00 47    	add.w     w14, #0x4, w0
    41e8:	68 0f 40    	add.w     w0, #0x8, [w14]
    41ea:	e4 00 47    	add.w     w14, #0x4, w1
    41ec:	e0 c1 b3    	mov.b     #0x1e, w0
    41ee:	d0 40 98    	mov.b     w0, [w1+5]
    41f0:	e4 00 47    	add.w     w14, #0x4, w1
    41f2:	00 c2 b3    	mov.b     #0x20, w0
    41f4:	90 40 98    	mov.b     w0, [w1+1]
    41f6:	1e 00 78    	mov.w     [w14], w0
    41f8:	7e 02 91    	mov.w     [w14+270], w4
    41fa:	8e 0a 91    	mov.w     [w14+272], w5
    41fc:	1e 0b 91    	mov.w     [w14+274], w6
    41fe:	ae 0b 91    	mov.w     [w14+276], w7
    4200:	04 98 be    	mov.d     w4, [w0++]
    4202:	06 90 be    	mov.d     w6, [w0--]
    4204:	1e 00 78    	mov.w     [w14], w0
    4206:	3e 0b 91    	mov.w     [w14+278], w6
    4208:	ce 0b 91    	mov.w     [w14+280], w7
    420a:	46 00 98    	mov.w     w6, [w0+8]
    420c:	57 00 98    	mov.w     w7, [w0+10]
    420e:	1e 00 78    	mov.w     [w14], w0
    4210:	3e b9 97    	mov.w     [w14-10], w2
    4212:	ce b9 97    	mov.w     [w14-8], w3
    4214:	62 00 98    	mov.w     w2, [w0+12]
    4216:	73 00 98    	mov.w     w3, [w0+14]
    4218:	1e 00 78    	mov.w     [w14], w0
    421a:	1e ba 97    	mov.w     [w14-14], w4
    421c:	ae ba 97    	mov.w     [w14-12], w5
    421e:	04 08 98    	mov.w     w4, [w0+16]
    4220:	15 08 98    	mov.w     w5, [w0+18]
    4222:	1e 00 78    	mov.w     [w14], w0
    4224:	7e b3 97    	mov.w     [w14-18], w6
    4226:	8e bb 97    	mov.w     [w14-16], w7
    4228:	26 08 98    	mov.w     w6, [w0+20]
    422a:	37 08 98    	mov.w     w7, [w0+22]
    422c:	1e 00 78    	mov.w     [w14], w0
    422e:	5e b1 97    	mov.w     [w14-22], w2
    4230:	ee b1 97    	mov.w     [w14-20], w3
    4232:	42 08 98    	mov.w     w2, [w0+24]
    4234:	53 08 98    	mov.w     w3, [w0+26]
    4236:	1e 00 78    	mov.w     [w14], w0
    4238:	3e b2 97    	mov.w     [w14-26], w4
    423a:	ce b2 97    	mov.w     [w14-24], w5
    423c:	64 08 98    	mov.w     w4, [w0+28]
    423e:	75 08 98    	mov.w     w5, [w0+30]
    4240:	c1 a7 20    	mov.w     #0xa7c, w1
    4242:	91 40 78    	mov.b     [w1], w1
    4244:	64 00 47    	add.w     w14, #0x4, w0
    4246:	31 40 98    	mov.b     w1, [w0+3]
    4248:	d1 a7 20    	mov.w     #0xa7d, w1
    424a:	91 40 78    	mov.b     [w1], w1
    424c:	64 00 47    	add.w     w14, #0x4, w0
    424e:	41 40 98    	mov.b     w1, [w0+4]
    4250:	6e 00 91    	mov.w     [w14+268], w0
    4252:	0f 1e 07    	rcall     0x7e72 <_mavlink_get_channel_status>
    4254:	a0 48 90    	mov.b     [w0+10], w1
    4256:	64 00 47    	add.w     w14, #0x4, w0
    4258:	21 40 98    	mov.b     w1, [w0+2]
    425a:	6e 00 91    	mov.w     [w14+268], w0
    425c:	0a 1e 07    	rcall     0x7e72 <_mavlink_get_channel_status>
    425e:	00 04 78    	mov.w     w0, w8
    4260:	6e 00 91    	mov.w     [w14+268], w0
    4262:	07 1e 07    	rcall     0x7e72 <_mavlink_get_channel_status>
    4264:	20 48 90    	mov.b     [w0+10], w0
    4266:	00 40 e8    	inc.b     w0, w0
    4268:	20 4c 98    	mov.b     w0, [w8+10]
    426a:	64 00 47    	add.w     w14, #0x4, w0
    426c:	10 40 90    	mov.b     [w0+1], w0
    426e:	00 80 fb    	ze        w0, w0
    4270:	e5 00 40    	add.w     w0, #0x5, w1
    4272:	64 00 47    	add.w     w14, #0x4, w0
    4274:	a7 1d 07    	rcall     0x7dc4 <_crc_calculate_msg>
    4276:	10 07 98    	mov.w     w0, [w14+2]
    4278:	1e 00 90    	mov.w     [w14+2], w0
    427a:	80 40 78    	mov.b     w0, w1
    427c:	64 00 47    	add.w     w14, #0x4, w0
    427e:	61 40 98    	mov.b     w1, [w0+6]
    4280:	1e 00 90    	mov.w     [w14+2], w0
    4282:	48 00 de    	lsr.w     w0, #0x8, w0
    4284:	80 40 78    	mov.b     w0, w1
    4286:	64 00 47    	add.w     w14, #0x4, w0
    4288:	71 40 98    	mov.b     w1, [w0+7]
    428a:	e4 00 47    	add.w     w14, #0x4, w1
    428c:	6e 00 91    	mov.w     [w14+268], w0
    428e:	bf f6 07    	rcall     0x300e <_mavlink_send_uart>
    4290:	4f 04 78    	mov.w     [--w15], w8
    4292:	00 80 fa    	ulnk      
    4294:	00 00 06    	return    

00004296 <_mavlink_msg_global_position_send>:
    4296:	1a 01 fa    	lnk       #0x11a
    4298:	88 1f 78    	mov.w     w8, [w15++]
    429a:	60 07 99    	mov.w     w0, [w14+268]
    429c:	74 07 99    	mov.w     w4, [w14+270]
    429e:	05 0f 99    	mov.w     w5, [w14+272]
    42a0:	16 0f 99    	mov.w     w6, [w14+274]
    42a2:	27 0f 99    	mov.w     w7, [w14+276]
    42a4:	32 0f 99    	mov.w     w2, [w14+278]
    42a6:	43 0f 99    	mov.w     w3, [w14+280]
    42a8:	64 00 47    	add.w     w14, #0x4, w0
    42aa:	68 0f 40    	add.w     w0, #0x8, [w14]
    42ac:	e4 00 47    	add.w     w14, #0x4, w1
    42ae:	10 c2 b3    	mov.b     #0x21, w0
    42b0:	d0 40 98    	mov.b     w0, [w1+5]
    42b2:	e4 00 47    	add.w     w14, #0x4, w1
    42b4:	00 c2 b3    	mov.b     #0x20, w0
    42b6:	90 40 98    	mov.b     w0, [w1+1]
    42b8:	1e 00 78    	mov.w     [w14], w0
    42ba:	7e 02 91    	mov.w     [w14+270], w4
    42bc:	8e 0a 91    	mov.w     [w14+272], w5
    42be:	1e 0b 91    	mov.w     [w14+274], w6
    42c0:	ae 0b 91    	mov.w     [w14+276], w7
    42c2:	04 98 be    	mov.d     w4, [w0++]
    42c4:	06 90 be    	mov.d     w6, [w0--]
    42c6:	1e 00 78    	mov.w     [w14], w0
    42c8:	3e 0b 91    	mov.w     [w14+278], w6
    42ca:	ce 0b 91    	mov.w     [w14+280], w7
    42cc:	46 00 98    	mov.w     w6, [w0+8]
    42ce:	57 00 98    	mov.w     w7, [w0+10]
    42d0:	1e 00 78    	mov.w     [w14], w0
    42d2:	3e b9 97    	mov.w     [w14-10], w2
    42d4:	ce b9 97    	mov.w     [w14-8], w3
    42d6:	62 00 98    	mov.w     w2, [w0+12]
    42d8:	73 00 98    	mov.w     w3, [w0+14]
    42da:	1e 00 78    	mov.w     [w14], w0
    42dc:	1e ba 97    	mov.w     [w14-14], w4
    42de:	ae ba 97    	mov.w     [w14-12], w5
    42e0:	04 08 98    	mov.w     w4, [w0+16]
    42e2:	15 08 98    	mov.w     w5, [w0+18]
    42e4:	1e 00 78    	mov.w     [w14], w0
    42e6:	7e b3 97    	mov.w     [w14-18], w6
    42e8:	8e bb 97    	mov.w     [w14-16], w7
    42ea:	26 08 98    	mov.w     w6, [w0+20]
    42ec:	37 08 98    	mov.w     w7, [w0+22]
    42ee:	1e 00 78    	mov.w     [w14], w0
    42f0:	5e b1 97    	mov.w     [w14-22], w2
    42f2:	ee b1 97    	mov.w     [w14-20], w3
    42f4:	42 08 98    	mov.w     w2, [w0+24]
    42f6:	53 08 98    	mov.w     w3, [w0+26]
    42f8:	1e 00 78    	mov.w     [w14], w0
    42fa:	3e b2 97    	mov.w     [w14-26], w4
    42fc:	ce b2 97    	mov.w     [w14-24], w5
    42fe:	64 08 98    	mov.w     w4, [w0+28]
    4300:	75 08 98    	mov.w     w5, [w0+30]
    4302:	c1 a7 20    	mov.w     #0xa7c, w1
    4304:	91 40 78    	mov.b     [w1], w1
    4306:	64 00 47    	add.w     w14, #0x4, w0
    4308:	31 40 98    	mov.b     w1, [w0+3]
    430a:	d1 a7 20    	mov.w     #0xa7d, w1
    430c:	91 40 78    	mov.b     [w1], w1
    430e:	64 00 47    	add.w     w14, #0x4, w0
    4310:	41 40 98    	mov.b     w1, [w0+4]
    4312:	6e 00 91    	mov.w     [w14+268], w0
    4314:	ae 1d 07    	rcall     0x7e72 <_mavlink_get_channel_status>
    4316:	a0 48 90    	mov.b     [w0+10], w1
    4318:	64 00 47    	add.w     w14, #0x4, w0
    431a:	21 40 98    	mov.b     w1, [w0+2]
    431c:	6e 00 91    	mov.w     [w14+268], w0
    431e:	a9 1d 07    	rcall     0x7e72 <_mavlink_get_channel_status>
    4320:	00 04 78    	mov.w     w0, w8
    4322:	6e 00 91    	mov.w     [w14+268], w0
    4324:	a6 1d 07    	rcall     0x7e72 <_mavlink_get_channel_status>
    4326:	20 48 90    	mov.b     [w0+10], w0
    4328:	00 40 e8    	inc.b     w0, w0
    432a:	20 4c 98    	mov.b     w0, [w8+10]
    432c:	64 00 47    	add.w     w14, #0x4, w0
    432e:	10 40 90    	mov.b     [w0+1], w0
    4330:	00 80 fb    	ze        w0, w0
    4332:	e5 00 40    	add.w     w0, #0x5, w1
    4334:	64 00 47    	add.w     w14, #0x4, w0
    4336:	46 1d 07    	rcall     0x7dc4 <_crc_calculate_msg>
    4338:	10 07 98    	mov.w     w0, [w14+2]
    433a:	1e 00 90    	mov.w     [w14+2], w0
    433c:	80 40 78    	mov.b     w0, w1
    433e:	64 00 47    	add.w     w14, #0x4, w0
    4340:	61 40 98    	mov.b     w1, [w0+6]
    4342:	1e 00 90    	mov.w     [w14+2], w0
    4344:	48 00 de    	lsr.w     w0, #0x8, w0
    4346:	80 40 78    	mov.b     w0, w1
    4348:	64 00 47    	add.w     w14, #0x4, w0
    434a:	71 40 98    	mov.b     w1, [w0+7]
    434c:	e4 00 47    	add.w     w14, #0x4, w1
    434e:	6e 00 91    	mov.w     [w14+268], w0
    4350:	5e f6 07    	rcall     0x300e <_mavlink_send_uart>
    4352:	4f 04 78    	mov.w     [--w15], w8
    4354:	00 80 fa    	ulnk      
    4356:	00 00 06    	return    

00004358 <_mavlink_msg_heartbeat_send>:
    4358:	10 01 fa    	lnk       #0x110
    435a:	88 1f 78    	mov.w     w8, [w15++]
    435c:	60 07 99    	mov.w     w0, [w14+268]
    435e:	61 4f 9a    	mov.b     w1, [w14+270]
    4360:	72 4f 9a    	mov.b     w2, [w14+271]
    4362:	64 00 47    	add.w     w14, #0x4, w0
    4364:	68 0f 40    	add.w     w0, #0x8, [w14]
    4366:	e4 00 47    	add.w     w14, #0x4, w1
    4368:	00 40 eb    	clr.b     w0
    436a:	d0 40 98    	mov.b     w0, [w1+5]
    436c:	e4 00 47    	add.w     w14, #0x4, w1
    436e:	30 c0 b3    	mov.b     #0x3, w0
    4370:	90 40 98    	mov.b     w0, [w1+1]
    4372:	1e 00 78    	mov.w     [w14], w0
    4374:	ee 48 92    	mov.b     [w14+270], w1
    4376:	01 48 78    	mov.b     w1, [w0]
    4378:	1e 00 78    	mov.w     [w14], w0
    437a:	fe 48 92    	mov.b     [w14+271], w1
    437c:	11 40 98    	mov.b     w1, [w0+1]
    437e:	9e 00 78    	mov.w     [w14], w1
    4380:	30 c0 b3    	mov.b     #0x3, w0
    4382:	a0 40 98    	mov.b     w0, [w1+2]
    4384:	c1 a7 20    	mov.w     #0xa7c, w1
    4386:	91 40 78    	mov.b     [w1], w1
    4388:	64 00 47    	add.w     w14, #0x4, w0
    438a:	31 40 98    	mov.b     w1, [w0+3]
    438c:	d1 a7 20    	mov.w     #0xa7d, w1
    438e:	91 40 78    	mov.b     [w1], w1
    4390:	64 00 47    	add.w     w14, #0x4, w0
    4392:	41 40 98    	mov.b     w1, [w0+4]
    4394:	6e 00 91    	mov.w     [w14+268], w0
    4396:	6d 1d 07    	rcall     0x7e72 <_mavlink_get_channel_status>
    4398:	a0 48 90    	mov.b     [w0+10], w1
    439a:	64 00 47    	add.w     w14, #0x4, w0
    439c:	21 40 98    	mov.b     w1, [w0+2]
    439e:	6e 00 91    	mov.w     [w14+268], w0
    43a0:	68 1d 07    	rcall     0x7e72 <_mavlink_get_channel_status>
    43a2:	00 04 78    	mov.w     w0, w8
    43a4:	6e 00 91    	mov.w     [w14+268], w0
    43a6:	65 1d 07    	rcall     0x7e72 <_mavlink_get_channel_status>
    43a8:	20 48 90    	mov.b     [w0+10], w0
    43aa:	00 40 e8    	inc.b     w0, w0
    43ac:	20 4c 98    	mov.b     w0, [w8+10]
    43ae:	64 00 47    	add.w     w14, #0x4, w0
    43b0:	10 40 90    	mov.b     [w0+1], w0
    43b2:	00 80 fb    	ze        w0, w0
    43b4:	e5 00 40    	add.w     w0, #0x5, w1
    43b6:	64 00 47    	add.w     w14, #0x4, w0
    43b8:	05 1d 07    	rcall     0x7dc4 <_crc_calculate_msg>
    43ba:	10 07 98    	mov.w     w0, [w14+2]
    43bc:	1e 00 90    	mov.w     [w14+2], w0
    43be:	80 40 78    	mov.b     w0, w1
    43c0:	64 00 47    	add.w     w14, #0x4, w0
    43c2:	61 40 98    	mov.b     w1, [w0+6]
    43c4:	1e 00 90    	mov.w     [w14+2], w0
    43c6:	48 00 de    	lsr.w     w0, #0x8, w0
    43c8:	80 40 78    	mov.b     w0, w1
    43ca:	64 00 47    	add.w     w14, #0x4, w0
    43cc:	71 40 98    	mov.b     w1, [w0+7]
    43ce:	e4 00 47    	add.w     w14, #0x4, w1
    43d0:	6e 00 91    	mov.w     [w14+268], w0
    43d2:	1d f6 07    	rcall     0x300e <_mavlink_send_uart>
    43d4:	4f 04 78    	mov.w     [--w15], w8
    43d6:	00 80 fa    	ulnk      
    43d8:	00 00 06    	return    

000043da <_udb_init_pwm>:
    43da:	02 00 fa    	lnk       #0x2
    43dc:	10 00 20    	mov.w     #0x1, w0
    43de:	00 0f 78    	mov.w     w0, [w14]
    43e0:	07 00 37    	bra       0x43f0 <.L2>

000043e2 <.L3>:
    43e2:	1e 00 78    	mov.w     [w14], w0
    43e4:	80 00 40    	add.w     w0, w0, w1
    43e6:	20 d9 20    	mov.w     #0xd92, w0
    43e8:	80 80 40    	add.w     w1, w0, w1
    43ea:	00 00 eb    	clr.w     w0
    43ec:	80 08 78    	mov.w     w0, [w1]
    43ee:	1e 0f e8    	inc.w     [w14], [w14]

000043f0 <.L2>:
    43f0:	00 04 20    	mov.w     #0x40, w0
    43f2:	9e 0f 10    	subr.w    w0, [w14], [w15]
    43f4:	f6 ff 34    	bra       LE, 0x43e2 <.L3>
    43f6:	90 00 20    	mov.w     #0x9, w0
    43f8:	00 0f 78    	mov.w     w0, [w14]
    43fa:	08 00 37    	bra       0x440c <.L5>

000043fc <.L6>:
    43fc:	9e 00 78    	mov.w     [w14], w1
    43fe:	40 e1 21    	mov.w     #0x1e14, w0
    4400:	1e 01 40    	add.w     w0, [w14], w2
    4402:	81 80 40    	add.w     w1, w1, w1
    4404:	20 d9 20    	mov.w     #0xd92, w0
    4406:	00 80 40    	add.w     w1, w0, w0
    4408:	02 08 78    	mov.w     w2, [w0]
    440a:	1e 0f e8    	inc.w     [w14], [w14]

0000440c <.L5>:
    440c:	00 01 20    	mov.w     #0x10, w0
    440e:	9e 0f 10    	subr.w    w0, [w14], [w15]
    4410:	f5 ff 34    	bra       LE, 0x43fc <.L6>
    4412:	00 00 eb    	clr.w     w0
    4414:	20 0c 88    	mov.w     w0, 0x184
    4416:	00 00 eb    	clr.w     w0
    4418:	50 0c 88    	mov.w     w0, 0x18a
    441a:	00 00 eb    	clr.w     w0
    441c:	80 0c 88    	mov.w     w0, 0x190
    441e:	00 00 eb    	clr.w     w0
    4420:	b0 0c 88    	mov.w     w0, 0x196
    4422:	00 00 eb    	clr.w     w0
    4424:	e0 0c 88    	mov.w     w0, 0x19c
    4426:	00 00 eb    	clr.w     w0
    4428:	10 0d 88    	mov.w     w0, 0x1a2
    442a:	00 00 eb    	clr.w     w0
    442c:	40 0d 88    	mov.w     w0, 0x1a8
    442e:	00 00 eb    	clr.w     w0
    4430:	70 0d 88    	mov.w     w0, 0x1ae
    4432:	00 00 eb    	clr.w     w0
    4434:	60 0d 88    	mov.w     w0, 0x1ac
    4436:	60 0d 80    	mov.w     0x1ac, w0
    4438:	30 0d 88    	mov.w     w0, 0x1a6
    443a:	30 0d 80    	mov.w     0x1a6, w0
    443c:	00 0d 88    	mov.w     w0, 0x1a0
    443e:	00 0d 80    	mov.w     0x1a0, w0
    4440:	d0 0c 88    	mov.w     w0, 0x19a
    4442:	d0 0c 80    	mov.w     0x19a, w0
    4444:	a0 0c 88    	mov.w     w0, 0x194
    4446:	a0 0c 80    	mov.w     0x194, w0
    4448:	70 0c 88    	mov.w     w0, 0x18e
    444a:	70 0c 80    	mov.w     0x18e, w0
    444c:	40 0c 88    	mov.w     w0, 0x188
    444e:	40 0c 80    	mov.w     0x188, w0
    4450:	10 0c 88    	mov.w     w0, 0x182
    4452:	00 00 eb    	clr.w     w0
    4454:	50 0d 88    	mov.w     w0, 0x1aa
    4456:	50 0d 80    	mov.w     0x1aa, w0
    4458:	20 0d 88    	mov.w     w0, 0x1a4
    445a:	20 0d 80    	mov.w     0x1a4, w0
    445c:	f0 0c 88    	mov.w     w0, 0x19e
    445e:	f0 0c 80    	mov.w     0x19e, w0
    4460:	c0 0c 88    	mov.w     w0, 0x198
    4462:	c0 0c 80    	mov.w     0x198, w0
    4464:	90 0c 88    	mov.w     w0, 0x192
    4466:	90 0c 80    	mov.w     0x192, w0
    4468:	60 0c 88    	mov.w     w0, 0x18c
    446a:	60 0c 80    	mov.w     0x18c, w0
    446c:	30 0c 88    	mov.w     w0, 0x186
    446e:	30 0c 80    	mov.w     0x186, w0
    4470:	00 0c 88    	mov.w     w0, 0x180
    4472:	51 0a 20    	mov.w     #0xa5, w1
    4474:	91 40 78    	mov.b     [w1], w1
    4476:	80 cf b3    	mov.b     #0xf8, w0
    4478:	00 c0 60    	and.b     w1, w0, w0
    447a:	50 40 b3    	ior.b     #0x5, w0
    447c:	a5 e0 b7    	mov.b     WREG, 0xa5
    447e:	84 40 a9    	bclr.b    0x84, #0x2
    4480:	94 40 a8    	bset.b    0x94, #0x2
    4482:	71 0a 20    	mov.w     #0xa7, w1
    4484:	91 40 78    	mov.b     [w1], w1
    4486:	80 cf b3    	mov.b     #0xf8, w0
    4488:	00 c0 60    	and.b     w1, w0, w0
    448a:	50 40 b3    	ior.b     #0x5, w0
    448c:	a7 e0 b7    	mov.b     WREG, 0xa7
    448e:	84 c0 a9    	bclr.b    0x84, #0x6
    4490:	94 c0 a8    	bset.b    0x94, #0x6
    4492:	01 0b 20    	mov.w     #0xb0, w1
    4494:	91 40 78    	mov.b     [w1], w1
    4496:	f0 c8 b3    	mov.b     #0x8f, w0
    4498:	00 c0 60    	and.b     w1, w0, w0
    449a:	01 c5 b3    	mov.b     #0x50, w1
    449c:	01 40 70    	ior.b     w0, w1, w0
    449e:	b0 e0 b7    	mov.b     WREG, 0xb0
    44a0:	87 20 a9    	bclr.b    0x87, #0x1
    44a2:	97 20 a8    	bset.b    0x97, #0x1
    44a4:	11 0b 20    	mov.w     #0xb1, w1
    44a6:	91 40 78    	mov.b     [w1], w1
    44a8:	80 cf b3    	mov.b     #0xf8, w0
    44aa:	00 c0 60    	and.b     w1, w0, w0
    44ac:	50 40 b3    	ior.b     #0x5, w0
    44ae:	b1 e0 b7    	mov.b     WREG, 0xb1
    44b0:	87 40 a9    	bclr.b    0x87, #0x2
    44b2:	97 40 a8    	bset.b    0x97, #0x2
    44b4:	81 0b 20    	mov.w     #0xb8, w1
    44b6:	91 40 78    	mov.b     [w1], w1
    44b8:	f0 c8 b3    	mov.b     #0x8f, w0
    44ba:	00 c0 60    	and.b     w1, w0, w0
    44bc:	01 c5 b3    	mov.b     #0x50, w1
    44be:	01 40 70    	ior.b     w0, w1, w0
    44c0:	b8 e0 b7    	mov.b     WREG, 0xb8
    44c2:	89 20 a9    	bclr.b    0x89, #0x1
    44c4:	99 20 a8    	bset.b    0x99, #0x1
    44c6:	91 0b 20    	mov.w     #0xb9, w1
    44c8:	91 40 78    	mov.b     [w1], w1
    44ca:	80 cf b3    	mov.b     #0xf8, w0
    44cc:	00 c0 60    	and.b     w1, w0, w0
    44ce:	50 40 b3    	ior.b     #0x5, w0
    44d0:	b9 e0 b7    	mov.b     WREG, 0xb9
    44d2:	89 40 a9    	bclr.b    0x89, #0x2
    44d4:	99 40 a8    	bset.b    0x99, #0x2
    44d6:	91 0b 20    	mov.w     #0xb9, w1
    44d8:	91 40 78    	mov.b     [w1], w1
    44da:	f0 c8 b3    	mov.b     #0x8f, w0
    44dc:	00 c0 60    	and.b     w1, w0, w0
    44de:	01 c5 b3    	mov.b     #0x50, w1
    44e0:	01 40 70    	ior.b     w0, w1, w0
    44e2:	b9 e0 b7    	mov.b     WREG, 0xb9
    44e4:	89 60 a9    	bclr.b    0x89, #0x3
    44e6:	99 60 a8    	bset.b    0x99, #0x3
    44e8:	a1 0b 20    	mov.w     #0xba, w1
    44ea:	91 40 78    	mov.b     [w1], w1
    44ec:	80 cf b3    	mov.b     #0xf8, w0
    44ee:	00 c0 60    	and.b     w1, w0, w0
    44f0:	50 40 b3    	ior.b     #0x5, w0
    44f2:	ba e0 b7    	mov.b     WREG, 0xba
    44f4:	89 80 a9    	bclr.b    0x89, #0x4
    44f6:	99 80 a8    	bset.b    0x99, #0x4
    44f8:	00 00 eb    	clr.w     w0
    44fa:	50 08 88    	mov.w     w0, 0x10a
    44fc:	00 c4 29    	mov.w     #0x9c40, w0
    44fe:	70 08 88    	mov.w     w0, 0x10e
    4500:	21 11 20    	mov.w     #0x112, w1
    4502:	91 40 78    	mov.b     [w1], w1
    4504:	f0 cc b3    	mov.b     #0xcf, w0
    4506:	00 c0 60    	and.b     w1, w0, w0
    4508:	12 e1 b7    	mov.b     WREG, 0x112
    450a:	12 21 a9    	bclr.b    0x112, #0x1
    450c:	81 0a 20    	mov.w     #0xa8, w1
    450e:	91 40 78    	mov.b     [w1], w1
    4510:	80 cf b3    	mov.b     #0xf8, w0
    4512:	00 c0 60    	and.b     w1, w0, w0
    4514:	50 40 b3    	ior.b     #0x5, w0
    4516:	a8 e0 b7    	mov.b     WREG, 0xa8
    4518:	85 00 a9    	bclr.b    0x85, #0x0
    451a:	95 00 a8    	bset.b    0x95, #0x0
    451c:	13 e1 a8    	bset.b    0x113, #0x7
    451e:	00 80 fa    	ulnk      
    4520:	00 00 06    	return    

00004522 <_udb_set_action_state>:
    4522:	02 00 fa    	lnk       #0x2
    4524:	00 4f 78    	mov.b     w0, [w14]
    4526:	1e 40 78    	mov.b     [w14], w0
    4528:	61 40 60    	and.b     w0, #0x1, w0
    452a:	61 40 60    	and.b     w0, #0x1, w0
    452c:	44 01 dd    	sl.w      w0, #0x4, w2
    452e:	c1 2d 20    	mov.w     #0x2dc, w1
    4530:	91 40 78    	mov.b     [w1], w1
    4532:	f0 ce b3    	mov.b     #0xef, w0
    4534:	00 c0 60    	and.b     w1, w0, w0
    4536:	02 40 70    	ior.b     w0, w2, w0
    4538:	dc e2 b7    	mov.b     WREG, 0x2dc
    453a:	00 80 fa    	ulnk      
    453c:	00 00 06    	return    

0000453e <_do_pin>:
    453e:	16 00 fa    	lnk       #0x16
    4540:	40 07 98    	mov.w     w0, [w14+8]
    4542:	51 07 98    	mov.w     w1, [w14+10]
    4544:	62 07 98    	mov.w     w2, [w14+12]
    4546:	21 e1 a8    	bset.b    0x121, #0x7
    4548:	5e 00 90    	mov.w     [w14+10], w0
    454a:	30 00 90    	mov.w     [w0+6], w0
    454c:	f0 43 b2    	and.b     #0x3f, w0
    454e:	00 80 fb    	ze        w0, w0
    4550:	80 00 40    	add.w     w0, w0, w1
    4552:	20 d9 20    	mov.w     #0xd92, w0
    4554:	00 80 40    	add.w     w1, w0, w0
    4556:	10 00 78    	mov.w     [w0], w0
    4558:	00 0f 78    	mov.w     w0, [w14]
    455a:	1e 00 e0    	cp0.w     [w14]
    455c:	1b 02 32    	bra       Z, 0x4994 <.L58>
    455e:	5e 00 90    	mov.w     [w14+10], w0
    4560:	20 00 90    	mov.w     [w0+4], w0
    4562:	44 00 de    	lsr.w     w0, #0x4, w0
    4564:	7f 40 60    	and.b     w0, #0x1f, w0
    4566:	00 80 fb    	ze        w0, w0
    4568:	70 07 98    	mov.w     w0, [w14+14]
    456a:	7e 00 90    	mov.w     [w14+14], w0
    456c:	eb 0f 50    	sub.w     w0, #0xb, [w15]
    456e:	12 02 3e    	bra       GTU, 0x4994 <.L58>
    4570:	10 00 20    	mov.w     #0x1, w0
    4572:	fe 00 90    	mov.w     [w14+14], w1
    4574:	01 00 dd    	sl.w      w0, w1, w0
    4576:	00 0f 98    	mov.w     w0, [w14+16]
    4578:	00 30 20    	mov.w     #0x300, w0
    457a:	0e 09 90    	mov.w     [w14+16], w2
    457c:	00 00 61    	and.w     w2, w0, w0
    457e:	00 00 e0    	cp0.w     w0
    4580:	23 00 3a    	bra       NZ, 0x45c8 <.L15>
    4582:	00 c0 20    	mov.w     #0xc00, w0
    4584:	8e 09 90    	mov.w     [w14+16], w3
    4586:	00 80 61    	and.w     w3, w0, w0
    4588:	00 00 e0    	cp0.w     w0
    458a:	43 00 3a    	bra       NZ, 0x4612 <.L16>
    458c:	00 0c 20    	mov.w     #0xc0, w0
    458e:	8e 08 90    	mov.w     [w14+16], w1
    4590:	00 80 60    	and.w     w1, w0, w0
    4592:	00 00 e0    	cp0.w     w0
    4594:	01 00 3a    	bra       NZ, 0x4598 <.L14>
    4596:	fe 01 37    	bra       0x4994 <.L58>

00004598 <.L14>:
    4598:	6e 00 90    	mov.w     [w14+12], w0
    459a:	80 00 eb    	clr.w     w1
    459c:	21 00 98    	mov.w     w1, [w0+4]
    459e:	4e 00 90    	mov.w     [w14+8], w0
    45a0:	00 00 e0    	cp0.w     w0
    45a2:	f8 01 34    	bra       LE, 0x4994 <.L58>
    45a4:	ff 0f fc    	disi      #0xfff
    45a6:	30 08 80    	mov.w     0x106, w0
    45a8:	65 00 40    	add.w     w0, #0x5, w0
    45aa:	10 07 98    	mov.w     w0, [w14+2]
    45ac:	6e 00 90    	mov.w     [w14+12], w0
    45ae:	1e 01 90    	mov.w     [w14+2], w2
    45b0:	12 00 98    	mov.w     w2, [w0+2]
    45b2:	1e 00 90    	mov.w     [w14+2], w0
    45b4:	1e 00 40    	add.w     w0, [w14], w0
    45b6:	10 07 98    	mov.w     w0, [w14+2]
    45b8:	6e 00 90    	mov.w     [w14+12], w0
    45ba:	9e 01 90    	mov.w     [w14+2], w3
    45bc:	03 08 78    	mov.w     w3, [w0]
    45be:	ee 00 90    	mov.w     [w14+12], w1
    45c0:	40 00 20    	mov.w     #0x4, w0
    45c2:	a0 00 98    	mov.w     w0, [w1+4]
    45c4:	00 00 fc    	disi      #0x0
    45c6:	e6 01 37    	bra       0x4994 <.L58>

000045c8 <.L15>:
    45c8:	6e 00 90    	mov.w     [w14+12], w0
    45ca:	20 00 90    	mov.w     [w0+4], w0
    45cc:	00 00 e0    	cp0.w     w0
    45ce:	03 00 32    	bra       Z, 0x45d6 <.L19>
    45d0:	4e 00 90    	mov.w     [w14+8], w0
    45d2:	00 00 e0    	cp0.w     w0
    45d4:	df 01 3d    	bra       GE, 0x4994 <.L58>

000045d6 <.L19>:
    45d6:	ee 00 90    	mov.w     [w14+12], w1
    45d8:	00 00 eb    	clr.w     w0
    45da:	a0 00 98    	mov.w     w0, [w1+4]
    45dc:	70 b6 22    	mov.w     #0x2b67, w0
    45de:	1e 00 50    	sub.w     w0, [w14], w0
    45e0:	10 07 98    	mov.w     w0, [w14+2]
    45e2:	1e 00 90    	mov.w     [w14+2], w0
    45e4:	e4 0f 50    	sub.w     w0, #0x4, [w15]
    45e6:	02 00 3e    	bra       GTU, 0x45ec <.L22>
    45e8:	50 00 20    	mov.w     #0x5, w0
    45ea:	10 07 98    	mov.w     w0, [w14+2]

000045ec <.L22>:
    45ec:	ff 0f fc    	disi      #0xfff
    45ee:	31 08 80    	mov.w     0x106, w1
    45f0:	1e 00 90    	mov.w     [w14+2], w0
    45f2:	01 00 40    	add.w     w0, w1, w0
    45f4:	10 07 98    	mov.w     w0, [w14+2]
    45f6:	6e 00 90    	mov.w     [w14+12], w0
    45f8:	9e 00 90    	mov.w     [w14+2], w1
    45fa:	11 00 98    	mov.w     w1, [w0+2]
    45fc:	1e 00 90    	mov.w     [w14+2], w0
    45fe:	1e 00 40    	add.w     w0, [w14], w0
    4600:	10 07 98    	mov.w     w0, [w14+2]
    4602:	6e 00 90    	mov.w     [w14+12], w0
    4604:	1e 01 90    	mov.w     [w14+2], w2
    4606:	02 08 78    	mov.w     w2, [w0]
    4608:	ee 00 90    	mov.w     [w14+12], w1
    460a:	40 00 20    	mov.w     #0x4, w0
    460c:	a0 00 98    	mov.w     w0, [w1+4]
    460e:	00 00 fc    	disi      #0x0
    4610:	c1 01 37    	bra       0x4994 <.L58>

00004612 <.L16>:
    4612:	4e 00 90    	mov.w     [w14+8], w0
    4614:	61 01 b9    	mul.su    w0, #0x1, w2
    4616:	90 00 20    	mov.w     #0x9, w0
    4618:	01 00 20    	mov.w     #0x0, w1
    461a:	02 01 40    	add.w     w0, w2, w2
    461c:	83 81 48    	addc.w    w1, w3, w3
    461e:	12 0f 98    	mov.w     w2, [w14+18]
    4620:	23 0f 98    	mov.w     w3, [w14+20]
    4622:	20 01 20    	mov.w     #0x12, w0
    4624:	01 00 20    	mov.w     #0x0, w1
    4626:	1e 09 90    	mov.w     [w14+18], w2
    4628:	ae 09 90    	mov.w     [w14+20], w3
    462a:	80 0f 51    	sub.w     w2, w0, [w15]
    462c:	81 8f 59    	subb.w    w3, w1, [w15]
    462e:	b2 01 3e    	bra       GTU, 0x4994 <.L58>
    4630:	1e 08 90    	mov.w     [w14+18], w0
    4632:	ae 08 90    	mov.w     [w14+20], w1
    4634:	00 60 01    	bra       w0
    4636:	48 01 37    	bra       0x48c8 <_PPM_WITH_RESET>
    4638:	47 01 37    	bra       0x48c8 <_PPM_WITH_RESET>
    463a:	46 01 37    	bra       0x48c8 <_PPM_WITH_RESET>
    463c:	45 01 37    	bra       0x48c8 <_PPM_WITH_RESET>
    463e:	44 01 37    	bra       0x48c8 <_PPM_WITH_RESET>
    4640:	43 01 37    	bra       0x48c8 <_PPM_WITH_RESET>
    4642:	42 01 37    	bra       0x48c8 <_PPM_WITH_RESET>
    4644:	41 01 37    	bra       0x48c8 <_PPM_WITH_RESET>
    4646:	0e 00 37    	bra       0x4664 <.L32>
    4648:	09 00 37    	bra       0x465c <.L33>
    464a:	08 00 37    	bra       0x465c <.L33>
    464c:	f6 00 37    	bra       0x483a <.L34>
    464e:	fe 00 37    	bra       0x484c <.L35>
    4650:	06 01 37    	bra       0x485e <.L36>
    4652:	0e 01 37    	bra       0x4870 <.L37>
    4654:	16 01 37    	bra       0x4882 <.L38>
    4656:	1e 01 37    	bra       0x4894 <.L39>
    4658:	26 01 37    	bra       0x48a6 <.L40>
    465a:	2e 01 37    	bra       0x48b8 <.L41>

0000465c <.L33>:
    465c:	6e 00 90    	mov.w     [w14+12], w0
    465e:	20 00 90    	mov.w     [w0+4], w0
    4660:	00 00 e0    	cp0.w     w0
    4662:	98 01 3a    	bra       NZ, 0x4994 <.L58>

00004664 <.L32>:
    4664:	ee 00 90    	mov.w     [w14+12], w1
    4666:	00 00 eb    	clr.w     w0
    4668:	a0 00 98    	mov.w     w0, [w1+4]
    466a:	5e 00 90    	mov.w     [w14+10], w0
    466c:	20 00 90    	mov.w     [w0+4], w0
    466e:	6f 00 60    	and.w     w0, #0xf, w0
    4670:	00 00 e0    	cp0.w     w0
    4672:	23 00 3a    	bra       NZ, 0x46ba <.L43>
    4674:	00 65 24    	mov.w     #0x4650, w0
    4676:	00 0f 78    	mov.w     w0, [w14]
    4678:	30 08 80    	mov.w     0x106, w0
    467a:	74 00 40    	add.w     w0, #0x14, w0
    467c:	10 07 98    	mov.w     w0, [w14+2]
    467e:	5e 00 90    	mov.w     [w14+10], w0
    4680:	9e 00 90    	mov.w     [w14+2], w1
    4682:	41 00 98    	mov.w     w1, [w0+8]
    4684:	21 da 80    	mov.w     0x1b44, w1
    4686:	5e 00 90    	mov.w     [w14+10], w0
    4688:	51 00 98    	mov.w     w1, [w0+10]
    468a:	5e 00 90    	mov.w     [w14+10], w0
    468c:	40 01 90    	mov.w     [w0+8], w2
    468e:	d0 01 90    	mov.w     [w0+10], w3
    4690:	1e 00 78    	mov.w     [w14], w0
    4692:	01 00 20    	mov.w     #0x0, w1
    4694:	02 00 40    	add.w     w0, w2, w0
    4696:	83 80 48    	addc.w    w1, w3, w1
    4698:	5e 01 90    	mov.w     [w14+10], w2
    469a:	60 01 98    	mov.w     w0, [w2+12]
    469c:	71 01 98    	mov.w     w1, [w2+14]
    469e:	5e 00 90    	mov.w     [w14+10], w0
    46a0:	60 01 90    	mov.w     [w0+12], w2
    46a2:	f0 01 90    	mov.w     [w0+14], w3
    46a4:	00 96 27    	mov.w     #0x7960, w0
    46a6:	e1 ff 2f    	mov.w     #0xfffe, w1
    46a8:	02 00 40    	add.w     w0, w2, w0
    46aa:	83 80 48    	addc.w    w1, w3, w1
    46ac:	5e 01 90    	mov.w     [w14+10], w2
    46ae:	60 01 98    	mov.w     w0, [w2+12]
    46b0:	71 01 98    	mov.w     w1, [w2+14]
    46b2:	5e 00 90    	mov.w     [w14+10], w0
    46b4:	1e 01 90    	mov.w     [w14+2], w2
    46b6:	02 08 98    	mov.w     w2, [w0+16]
    46b8:	48 00 37    	bra       0x474a <_PPM_NO_RESET>

000046ba <.L43>:
    46ba:	5e 00 90    	mov.w     [w14+10], w0
    46bc:	20 00 90    	mov.w     [w0+4], w0
    46be:	6f 00 60    	and.w     w0, #0xf, w0
    46c0:	e9 0f 50    	sub.w     w0, #0x9, [w15]
    46c2:	3e 00 3a    	bra       NZ, 0x4740 <.L46>
    46c4:	5e 01 90    	mov.w     [w14+10], w2
    46c6:	a2 00 90    	mov.w     [w2+4], w1
    46c8:	00 ff 2f    	mov.w     #0xfff0, w0
    46ca:	00 80 60    	and.w     w1, w0, w0
    46cc:	a0 00 b3    	ior.w     #0xa, w0
    46ce:	20 01 98    	mov.w     w0, [w2+4]
    46d0:	5e 00 90    	mov.w     [w14+10], w0
    46d2:	40 01 90    	mov.w     [w0+8], w2
    46d4:	d0 01 90    	mov.w     [w0+10], w3
    46d6:	5e 00 90    	mov.w     [w14+10], w0
    46d8:	f0 00 90    	mov.w     [w0+14], w1
    46da:	60 00 90    	mov.w     [w0+12], w0
    46dc:	00 01 51    	sub.w     w2, w0, w2
    46de:	81 81 59    	subb.w    w3, w1, w3
    46e0:	00 6a 28    	mov.w     #0x86a0, w0
    46e2:	11 00 20    	mov.w     #0x1, w1
    46e4:	02 00 50    	sub.w     w0, w2, w0
    46e6:	83 80 58    	subb.w    w1, w3, w1
    46e8:	20 07 98    	mov.w     w0, [w14+4]
    46ea:	31 07 98    	mov.w     w1, [w14+6]
    46ec:	2e 01 90    	mov.w     [w14+4], w2
    46ee:	be 01 90    	mov.w     [w14+6], w3
    46f0:	70 71 24    	mov.w     #0x4717, w0
    46f2:	01 00 20    	mov.w     #0x0, w1
    46f4:	80 0f 51    	sub.w     w2, w0, [w15]
    46f6:	81 8f 59    	subb.w    w3, w1, [w15]
    46f8:	05 00 3e    	bra       GTU, 0x4704 <.L48>
    46fa:	90 0c 20    	mov.w     #0xc9, w0
    46fc:	01 00 20    	mov.w     #0x0, w1
    46fe:	20 07 98    	mov.w     w0, [w14+4]
    4700:	31 07 98    	mov.w     w1, [w14+6]
    4702:	08 00 37    	bra       0x4714 <.L50>

00004704 <.L48>:
    4704:	2e 00 90    	mov.w     [w14+4], w0
    4706:	be 00 90    	mov.w     [w14+6], w1
    4708:	02 9b 2b    	mov.w     #0xb9b0, w2
    470a:	f3 ff 2f    	mov.w     #0xffff, w3
    470c:	00 00 41    	add.w     w2, w0, w0
    470e:	81 80 49    	addc.w    w3, w1, w1
    4710:	20 07 98    	mov.w     w0, [w14+4]
    4712:	31 07 98    	mov.w     w1, [w14+6]

00004714 <.L50>:
    4714:	5e 00 90    	mov.w     [w14+10], w0
    4716:	40 01 90    	mov.w     [w0+8], w2
    4718:	d0 01 90    	mov.w     [w0+10], w3
    471a:	2e 00 90    	mov.w     [w14+4], w0
    471c:	be 00 90    	mov.w     [w14+6], w1
    471e:	02 00 40    	add.w     w0, w2, w0
    4720:	83 80 48    	addc.w    w1, w3, w1
    4722:	5e 01 90    	mov.w     [w14+10], w2
    4724:	40 01 98    	mov.w     w0, [w2+8]
    4726:	51 01 98    	mov.w     w1, [w2+10]
    4728:	5e 00 90    	mov.w     [w14+10], w0
    472a:	80 09 90    	mov.w     [w0+16], w3
    472c:	13 07 98    	mov.w     w3, [w14+2]
    472e:	ae 00 90    	mov.w     [w14+4], w1
    4730:	1e 00 90    	mov.w     [w14+2], w0
    4732:	00 8f 40    	add.w     w1, w0, [w14]
    4734:	5e 00 90    	mov.w     [w14+10], w0
    4736:	9e 00 78    	mov.w     [w14], w1
    4738:	01 08 98    	mov.w     w1, [w0+16]
    473a:	80 f3 2f    	mov.w     #0xff38, w0
    473c:	1e 0f 40    	add.w     w0, [w14], [w14]
    473e:	72 00 37    	bra       0x4824 <.L51>

00004740 <.L46>:
    4740:	5e 00 90    	mov.w     [w14+10], w0
    4742:	20 00 90    	mov.w     [w0+4], w0
    4744:	6f 00 60    	and.w     w0, #0xf, w0
    4746:	ea 0f 50    	sub.w     w0, #0xa, [w15]
    4748:	3b 00 3a    	bra       NZ, 0x47c0 <.L52>

0000474a <_PPM_NO_RESET>:
    474a:	5e 01 90    	mov.w     [w14+10], w2
    474c:	a2 00 90    	mov.w     [w2+4], w1
    474e:	00 ff 2f    	mov.w     #0xfff0, w0
    4750:	00 80 60    	and.w     w1, w0, w0
    4752:	00 00 a0    	bset.w    w0, #0x0
    4754:	20 01 98    	mov.w     w0, [w2+4]
    4756:	5e 00 90    	mov.w     [w14+10], w0
    4758:	40 01 90    	mov.w     [w0+8], w2
    475a:	d0 01 90    	mov.w     [w0+10], w3
    475c:	5e 00 90    	mov.w     [w14+10], w0
    475e:	f0 00 90    	mov.w     [w0+14], w1
    4760:	60 00 90    	mov.w     [w0+12], w0
    4762:	00 01 51    	sub.w     w2, w0, w2
    4764:	81 81 59    	subb.w    w3, w1, w3
    4766:	00 6a 28    	mov.w     #0x86a0, w0
    4768:	11 00 20    	mov.w     #0x1, w1
    476a:	02 00 50    	sub.w     w0, w2, w0
    476c:	83 80 58    	subb.w    w1, w3, w1
    476e:	20 07 98    	mov.w     w0, [w14+4]
    4770:	31 07 98    	mov.w     w1, [w14+6]
    4772:	2e 01 90    	mov.w     [w14+4], w2
    4774:	be 01 90    	mov.w     [w14+6], w3
    4776:	f0 64 24    	mov.w     #0x464f, w0
    4778:	01 00 20    	mov.w     #0x0, w1
    477a:	80 0f 51    	sub.w     w2, w0, [w15]
    477c:	81 8f 59    	subb.w    w3, w1, [w15]
    477e:	04 00 3e    	bra       GTU, 0x4788 <.L53>
    4780:	00 65 24    	mov.w     #0x4650, w0
    4782:	01 00 20    	mov.w     #0x0, w1
    4784:	20 07 98    	mov.w     w0, [w14+4]
    4786:	31 07 98    	mov.w     w1, [w14+6]

00004788 <.L53>:
    4788:	5e 00 90    	mov.w     [w14+10], w0
    478a:	40 01 90    	mov.w     [w0+8], w2
    478c:	d0 01 90    	mov.w     [w0+10], w3
    478e:	2e 00 90    	mov.w     [w14+4], w0
    4790:	be 00 90    	mov.w     [w14+6], w1
    4792:	02 00 40    	add.w     w0, w2, w0
    4794:	83 80 48    	addc.w    w1, w3, w1
    4796:	5e 01 90    	mov.w     [w14+10], w2
    4798:	40 01 98    	mov.w     w0, [w2+8]
    479a:	51 01 98    	mov.w     w1, [w2+10]
    479c:	5e 00 90    	mov.w     [w14+10], w0
    479e:	00 09 90    	mov.w     [w0+16], w2
    47a0:	12 07 98    	mov.w     w2, [w14+2]
    47a2:	ae 00 90    	mov.w     [w14+4], w1
    47a4:	1e 00 90    	mov.w     [w14+2], w0
    47a6:	00 8f 40    	add.w     w1, w0, [w14]
    47a8:	5e 00 90    	mov.w     [w14+10], w0
    47aa:	9e 01 78    	mov.w     [w14], w3
    47ac:	03 08 98    	mov.w     w3, [w0+16]
    47ae:	80 f3 2f    	mov.w     #0xff38, w0
    47b0:	1e 0f 40    	add.w     w0, [w14], [w14]
    47b2:	5e 00 90    	mov.w     [w14+10], w0
    47b4:	d0 00 90    	mov.w     [w0+10], w1
    47b6:	40 00 90    	mov.w     [w0+8], w0
    47b8:	5e 01 90    	mov.w     [w14+10], w2
    47ba:	60 01 98    	mov.w     w0, [w2+12]
    47bc:	71 01 98    	mov.w     w1, [w2+14]
    47be:	32 00 37    	bra       0x4824 <.L51>

000047c0 <.L52>:
    47c0:	5e 00 90    	mov.w     [w14+10], w0
    47c2:	30 00 90    	mov.w     [w0+6], w0
    47c4:	f0 43 b2    	and.b     #0x3f, w0
    47c6:	80 80 fb    	ze        w0, w1
    47c8:	5e 00 90    	mov.w     [w14+10], w0
    47ca:	20 00 90    	mov.w     [w0+4], w0
    47cc:	6f 40 60    	and.b     w0, #0xf, w0
    47ce:	00 80 fb    	ze        w0, w0
    47d0:	00 80 40    	add.w     w1, w0, w0
    47d2:	00 00 e9    	dec.w     w0, w0
    47d4:	10 07 98    	mov.w     w0, [w14+2]
    47d6:	1e 00 90    	mov.w     [w14+2], w0
    47d8:	80 00 40    	add.w     w0, w0, w1
    47da:	20 d9 20    	mov.w     #0xd92, w0
    47dc:	00 80 40    	add.w     w1, w0, w0
    47de:	10 00 78    	mov.w     [w0], w0
    47e0:	00 0f 78    	mov.w     w0, [w14]
    47e2:	5e 00 90    	mov.w     [w14+10], w0
    47e4:	40 01 90    	mov.w     [w0+8], w2
    47e6:	d0 01 90    	mov.w     [w0+10], w3
    47e8:	1e 00 78    	mov.w     [w14], w0
    47ea:	01 00 20    	mov.w     #0x0, w1
    47ec:	02 00 40    	add.w     w0, w2, w0
    47ee:	83 80 48    	addc.w    w1, w3, w1
    47f0:	5e 01 90    	mov.w     [w14+10], w2
    47f2:	40 01 98    	mov.w     w0, [w2+8]
    47f4:	51 01 98    	mov.w     w1, [w2+10]
    47f6:	5e 00 90    	mov.w     [w14+10], w0
    47f8:	80 08 90    	mov.w     [w0+16], w1
    47fa:	11 07 98    	mov.w     w1, [w14+2]
    47fc:	1e 00 90    	mov.w     [w14+2], w0
    47fe:	1e 0f 40    	add.w     w0, [w14], [w14]
    4800:	5e 00 90    	mov.w     [w14+10], w0
    4802:	1e 01 78    	mov.w     [w14], w2
    4804:	02 08 98    	mov.w     w2, [w0+16]
    4806:	80 f3 2f    	mov.w     #0xff38, w0
    4808:	1e 0f 40    	add.w     w0, [w14], [w14]
    480a:	5e 00 90    	mov.w     [w14+10], w0
    480c:	20 00 90    	mov.w     [w0+4], w0
    480e:	6f 40 60    	and.b     w0, #0xf, w0
    4810:	00 40 e8    	inc.b     w0, w0
    4812:	6f 40 60    	and.b     w0, #0xf, w0
    4814:	5e 01 90    	mov.w     [w14+10], w2
    4816:	00 80 fb    	ze        w0, w0
    4818:	ef 01 60    	and.w     w0, #0xf, w3
    481a:	a2 00 90    	mov.w     [w2+4], w1
    481c:	00 ff 2f    	mov.w     #0xfff0, w0
    481e:	00 80 60    	and.w     w1, w0, w0
    4820:	03 00 70    	ior.w     w0, w3, w0
    4822:	20 01 98    	mov.w     w0, [w2+4]

00004824 <.L51>:
    4824:	ff 0f fc    	disi      #0xfff
    4826:	6e 00 90    	mov.w     [w14+12], w0
    4828:	9e 01 90    	mov.w     [w14+2], w3
    482a:	13 00 98    	mov.w     w3, [w0+2]
    482c:	6e 00 90    	mov.w     [w14+12], w0
    482e:	1e 08 78    	mov.w     [w14], [w0]
    4830:	ee 00 90    	mov.w     [w14+12], w1
    4832:	40 00 20    	mov.w     #0x4, w0
    4834:	a0 00 98    	mov.w     w0, [w1+4]
    4836:	00 00 fc    	disi      #0x0
    4838:	ad 00 37    	bra       0x4994 <.L58>

0000483a <.L34>:
    483a:	d0 82 a8    	bset.b    0x2d0, #0x4
    483c:	5e 01 90    	mov.w     [w14+10], w2
    483e:	a2 00 90    	mov.w     [w2+4], w1
    4840:	00 ff 2f    	mov.w     #0xfff0, w0
    4842:	00 80 60    	and.w     w1, w0, w0
    4844:	00 00 a0    	bset.w    w0, #0x0
    4846:	20 01 98    	mov.w     w0, [w2+4]
    4848:	d0 82 a9    	bclr.b    0x2d0, #0x4
    484a:	3e 00 37    	bra       0x48c8 <_PPM_WITH_RESET>

0000484c <.L35>:
    484c:	d0 62 a8    	bset.b    0x2d0, #0x3
    484e:	5e 01 90    	mov.w     [w14+10], w2
    4850:	a2 00 90    	mov.w     [w2+4], w1
    4852:	00 ff 2f    	mov.w     #0xfff0, w0
    4854:	00 80 60    	and.w     w1, w0, w0
    4856:	00 00 a0    	bset.w    w0, #0x0
    4858:	20 01 98    	mov.w     w0, [w2+4]
    485a:	d0 62 a9    	bclr.b    0x2d0, #0x3
    485c:	35 00 37    	bra       0x48c8 <_PPM_WITH_RESET>

0000485e <.L36>:
    485e:	d0 42 a8    	bset.b    0x2d0, #0x2
    4860:	5e 01 90    	mov.w     [w14+10], w2
    4862:	a2 00 90    	mov.w     [w2+4], w1
    4864:	00 ff 2f    	mov.w     #0xfff0, w0
    4866:	00 80 60    	and.w     w1, w0, w0
    4868:	00 00 a0    	bset.w    w0, #0x0
    486a:	20 01 98    	mov.w     w0, [w2+4]
    486c:	d0 42 a9    	bclr.b    0x2d0, #0x2
    486e:	2c 00 37    	bra       0x48c8 <_PPM_WITH_RESET>

00004870 <.L37>:
    4870:	d0 22 a8    	bset.b    0x2d0, #0x1
    4872:	5e 01 90    	mov.w     [w14+10], w2
    4874:	a2 00 90    	mov.w     [w2+4], w1
    4876:	00 ff 2f    	mov.w     #0xfff0, w0
    4878:	00 80 60    	and.w     w1, w0, w0
    487a:	00 00 a0    	bset.w    w0, #0x0
    487c:	20 01 98    	mov.w     w0, [w2+4]
    487e:	d0 22 a9    	bclr.b    0x2d0, #0x1
    4880:	23 00 37    	bra       0x48c8 <_PPM_WITH_RESET>

00004882 <.L38>:
    4882:	c5 c2 a8    	bset.b    0x2c5, #0x6
    4884:	5e 01 90    	mov.w     [w14+10], w2
    4886:	a2 00 90    	mov.w     [w2+4], w1
    4888:	00 ff 2f    	mov.w     #0xfff0, w0
    488a:	00 80 60    	and.w     w1, w0, w0
    488c:	00 00 a0    	bset.w    w0, #0x0
    488e:	20 01 98    	mov.w     w0, [w2+4]
    4890:	c5 c2 a9    	bclr.b    0x2c5, #0x6
    4892:	1a 00 37    	bra       0x48c8 <_PPM_WITH_RESET>

00004894 <.L39>:
    4894:	c5 e2 a8    	bset.b    0x2c5, #0x7
    4896:	5e 01 90    	mov.w     [w14+10], w2
    4898:	a2 00 90    	mov.w     [w2+4], w1
    489a:	00 ff 2f    	mov.w     #0xfff0, w0
    489c:	00 80 60    	and.w     w1, w0, w0
    489e:	00 00 a0    	bset.w    w0, #0x0
    48a0:	20 01 98    	mov.w     w0, [w2+4]
    48a2:	c5 e2 a9    	bclr.b    0x2c5, #0x7
    48a4:	11 00 37    	bra       0x48c8 <_PPM_WITH_RESET>

000048a6 <.L40>:
    48a6:	e9 e2 a8    	bset.b    0x2e9, #0x7
    48a8:	5e 01 90    	mov.w     [w14+10], w2
    48aa:	a2 00 90    	mov.w     [w2+4], w1
    48ac:	00 ff 2f    	mov.w     #0xfff0, w0
    48ae:	00 80 60    	and.w     w1, w0, w0
    48b0:	00 00 a0    	bset.w    w0, #0x0
    48b2:	20 01 98    	mov.w     w0, [w2+4]
    48b4:	e9 e2 a9    	bclr.b    0x2e9, #0x7
    48b6:	08 00 37    	bra       0x48c8 <_PPM_WITH_RESET>

000048b8 <.L41>:
    48b8:	ca a2 a8    	bset.b    0x2ca, #0x5
    48ba:	5e 01 90    	mov.w     [w14+10], w2
    48bc:	a2 00 90    	mov.w     [w2+4], w1
    48be:	00 ff 2f    	mov.w     #0xfff0, w0
    48c0:	00 80 60    	and.w     w1, w0, w0
    48c2:	00 00 a0    	bset.w    w0, #0x0
    48c4:	20 01 98    	mov.w     w0, [w2+4]
    48c6:	ca a2 a9    	bclr.b    0x2ca, #0x5

000048c8 <_PPM_WITH_RESET>:
    48c8:	ee 00 90    	mov.w     [w14+12], w1
    48ca:	00 00 eb    	clr.w     w0
    48cc:	a0 00 98    	mov.w     w0, [w1+4]
    48ce:	5e 00 90    	mov.w     [w14+10], w0
    48d0:	20 00 90    	mov.w     [w0+4], w0
    48d2:	6f 00 60    	and.w     w0, #0xf, w0
    48d4:	e1 0f 50    	sub.w     w0, #0x1, [w15]
    48d6:	28 00 3a    	bra       NZ, 0x4928 <.L55>
    48d8:	30 08 80    	mov.w     0x106, w0
    48da:	6a 00 40    	add.w     w0, #0xa, w0
    48dc:	10 07 98    	mov.w     w0, [w14+2]
    48de:	5e 00 90    	mov.w     [w14+10], w0
    48e0:	9e 00 90    	mov.w     [w14+2], w1
    48e2:	61 00 98    	mov.w     w1, [w0+12]
    48e4:	21 da 80    	mov.w     0x1b44, w1
    48e6:	5e 00 90    	mov.w     [w14+10], w0
    48e8:	71 00 98    	mov.w     w1, [w0+14]
    48ea:	1e 00 90    	mov.w     [w14+2], w0
    48ec:	1e 0f 40    	add.w     w0, [w14], [w14]
    48ee:	5e 00 90    	mov.w     [w14+10], w0
    48f0:	1e 01 78    	mov.w     [w14], w2
    48f2:	02 08 98    	mov.w     w2, [w0+16]
    48f4:	80 f3 2f    	mov.w     #0xff38, w0
    48f6:	1e 0f 40    	add.w     w0, [w14], [w14]
    48f8:	5e 00 90    	mov.w     [w14+10], w0
    48fa:	20 00 90    	mov.w     [w0+4], w0
    48fc:	6f 40 60    	and.b     w0, #0xf, w0
    48fe:	00 40 e8    	inc.b     w0, w0
    4900:	6f 40 60    	and.b     w0, #0xf, w0
    4902:	5e 01 90    	mov.w     [w14+10], w2
    4904:	00 80 fb    	ze        w0, w0
    4906:	ef 01 60    	and.w     w0, #0xf, w3
    4908:	a2 00 90    	mov.w     [w2+4], w1
    490a:	00 ff 2f    	mov.w     #0xfff0, w0
    490c:	00 80 60    	and.w     w1, w0, w0
    490e:	03 00 70    	ior.w     w0, w3, w0
    4910:	20 01 98    	mov.w     w0, [w2+4]
    4912:	ff 0f fc    	disi      #0xfff
    4914:	6e 00 90    	mov.w     [w14+12], w0
    4916:	9e 01 90    	mov.w     [w14+2], w3
    4918:	13 00 98    	mov.w     w3, [w0+2]
    491a:	6e 00 90    	mov.w     [w14+12], w0
    491c:	1e 08 78    	mov.w     [w14], [w0]
    491e:	ee 00 90    	mov.w     [w14+12], w1
    4920:	40 00 20    	mov.w     #0x4, w0
    4922:	a0 00 98    	mov.w     w0, [w1+4]
    4924:	00 00 fc    	disi      #0x0
    4926:	36 00 37    	bra       0x4994 <.L58>

00004928 <.L55>:
    4928:	5e 00 90    	mov.w     [w14+10], w0
    492a:	20 00 90    	mov.w     [w0+4], w0
    492c:	6f 40 60    	and.b     w0, #0xf, w0
    492e:	00 80 fb    	ze        w0, w0
    4930:	e8 0f 50    	sub.w     w0, #0x8, [w15]
    4932:	30 00 3c    	bra       GT, 0x4994 <.L58>
    4934:	5e 00 90    	mov.w     [w14+10], w0
    4936:	30 00 90    	mov.w     [w0+6], w0
    4938:	f0 43 b2    	and.b     #0x3f, w0
    493a:	80 80 fb    	ze        w0, w1
    493c:	5e 00 90    	mov.w     [w14+10], w0
    493e:	20 00 90    	mov.w     [w0+4], w0
    4940:	6f 40 60    	and.b     w0, #0xf, w0
    4942:	00 80 fb    	ze        w0, w0
    4944:	00 80 40    	add.w     w1, w0, w0
    4946:	00 00 e9    	dec.w     w0, w0
    4948:	80 00 40    	add.w     w0, w0, w1
    494a:	20 d9 20    	mov.w     #0xd92, w0
    494c:	00 80 40    	add.w     w1, w0, w0
    494e:	10 00 78    	mov.w     [w0], w0
    4950:	00 0f 78    	mov.w     w0, [w14]
    4952:	5e 00 90    	mov.w     [w14+10], w0
    4954:	80 08 90    	mov.w     [w0+16], w1
    4956:	11 07 98    	mov.w     w1, [w14+2]
    4958:	1e 00 90    	mov.w     [w14+2], w0
    495a:	1e 0f 40    	add.w     w0, [w14], [w14]
    495c:	5e 00 90    	mov.w     [w14+10], w0
    495e:	1e 01 78    	mov.w     [w14], w2
    4960:	02 08 98    	mov.w     w2, [w0+16]
    4962:	80 f3 2f    	mov.w     #0xff38, w0
    4964:	1e 0f 40    	add.w     w0, [w14], [w14]
    4966:	5e 00 90    	mov.w     [w14+10], w0
    4968:	20 00 90    	mov.w     [w0+4], w0
    496a:	6f 40 60    	and.b     w0, #0xf, w0
    496c:	00 40 e8    	inc.b     w0, w0
    496e:	6f 40 60    	and.b     w0, #0xf, w0
    4970:	5e 01 90    	mov.w     [w14+10], w2
    4972:	00 80 fb    	ze        w0, w0
    4974:	ef 01 60    	and.w     w0, #0xf, w3
    4976:	a2 00 90    	mov.w     [w2+4], w1
    4978:	00 ff 2f    	mov.w     #0xfff0, w0
    497a:	00 80 60    	and.w     w1, w0, w0
    497c:	03 00 70    	ior.w     w0, w3, w0
    497e:	20 01 98    	mov.w     w0, [w2+4]
    4980:	ff 0f fc    	disi      #0xfff
    4982:	6e 00 90    	mov.w     [w14+12], w0
    4984:	9e 01 90    	mov.w     [w14+2], w3
    4986:	13 00 98    	mov.w     w3, [w0+2]
    4988:	6e 00 90    	mov.w     [w14+12], w0
    498a:	1e 08 78    	mov.w     [w14], [w0]
    498c:	ee 00 90    	mov.w     [w14+12], w1
    498e:	40 00 20    	mov.w     #0x4, w0
    4990:	a0 00 98    	mov.w     w0, [w1+4]
    4992:	00 00 fc    	disi      #0x0

00004994 <.L58>:
    4994:	00 80 fa    	ulnk      
    4996:	00 00 06    	return    

00004998 <_udb_gyro_autoZero>:
    4998:	00 00 fa    	lnk       #0x0
    499a:	e9 a2 a8    	bset.b    0x2e9, #0x5
    499c:	e9 c2 bf    	mov.b     0x2e9, WREG
    499e:	00 80 fb    	ze        w0, w0
    49a0:	45 00 de    	lsr.w     w0, #0x5, w0
    49a2:	61 40 60    	and.b     w0, #0x1, w0
    49a4:	61 40 60    	and.b     w0, #0x1, w0
    49a6:	44 01 dd    	sl.w      w0, #0x4, w2
    49a8:	91 2e 20    	mov.w     #0x2e9, w1
    49aa:	91 40 78    	mov.b     [w1], w1
    49ac:	f0 ce b3    	mov.b     #0xef, w0
    49ae:	00 c0 60    	and.b     w1, w0, w0
    49b0:	02 40 70    	ior.b     w0, w2, w0
    49b2:	e9 e2 b7    	mov.b     WREG, 0x2e9
    49b4:	00 80 fa    	ulnk      
    49b6:	00 00 06    	return    

000049b8 <__T3Interrupt>:
    49b8:	36 00 f8    	push      0x36
    49ba:	80 9f be    	mov.d     w0, [w15++]
    49bc:	82 9f be    	mov.d     w2, [w15++]
    49be:	84 9f be    	mov.d     w4, [w15++]
    49c0:	86 9f be    	mov.d     w6, [w15++]
    49c2:	02 00 fa    	lnk       #0x2
    49c4:	21 e1 a8    	bset.b    0x121, #0x7
    49c6:	85 00 a9    	bclr.b    0x85, #0x0
    49c8:	c0 ae 21    	mov.w     #0x1aec, w0
    49ca:	30 02 be    	mov.d     [w0++], w4
    49cc:	20 03 be    	mov.d     [w0--], w6
    49ce:	80 3e 20    	mov.w     #0x3e8, w0
    49d0:	01 00 20    	mov.w     #0x0, w1
    49d2:	60 11 b8    	mul.uu    w2, #0x0, w2
    49d4:	04 00 40    	add.w     w0, w4, w0
    49d6:	85 80 48    	addc.w    w1, w5, w1
    49d8:	06 01 49    	addc.w    w2, w6, w2
    49da:	87 81 49    	addc.w    w3, w7, w3
    49dc:	c4 ae 21    	mov.w     #0x1aec, w4
    49de:	00 9a be    	mov.d     w0, [w4++]
    49e0:	02 92 be    	mov.d     w2, [w4--]
    49e2:	a0 d7 80    	mov.w     0x1af4, w0
    49e4:	b1 d7 80    	mov.w     0x1af6, w1
    49e6:	61 00 40    	add.w     w0, #0x1, w0
    49e8:	e0 80 48    	addc.w    w1, #0x0, w1
    49ea:	a0 d7 88    	mov.w     w0, 0x1af4
    49ec:	b1 d7 88    	mov.w     w1, 0x1af6
    49ee:	40 b9 80    	mov.w     0x1728, w0
    49f0:	00 00 e8    	inc.w     w0, w0
    49f2:	40 b9 88    	mov.w     w0, 0x1728
    49f4:	e9 c2 bf    	mov.b     0x2e9, WREG
    49f6:	70 40 60    	and.b     w0, #0x10, w0
    49f8:	00 04 e0    	cp0.b     w0
    49fa:	04 00 3a    	bra       NZ, 0x4a04 <.L62>
    49fc:	e9 c2 bf    	mov.b     0x2e9, WREG
    49fe:	00 42 b2    	and.b     #0x20, w0
    4a00:	00 04 e0    	cp0.b     w0
    4a02:	0d 00 32    	bra       Z, 0x4a1e <.L64>

00004a04 <.L62>:
    4a04:	e9 a2 a9    	bclr.b    0x2e9, #0x5
    4a06:	e9 c2 bf    	mov.b     0x2e9, WREG
    4a08:	00 80 fb    	ze        w0, w0
    4a0a:	45 00 de    	lsr.w     w0, #0x5, w0
    4a0c:	61 40 60    	and.b     w0, #0x1, w0
    4a0e:	61 40 60    	and.b     w0, #0x1, w0
    4a10:	44 01 dd    	sl.w      w0, #0x4, w2
    4a12:	91 2e 20    	mov.w     #0x2e9, w1
    4a14:	91 40 78    	mov.b     [w1], w1
    4a16:	f0 ce b3    	mov.b     #0xef, w0
    4a18:	00 c0 60    	and.b     w1, w0, w0
    4a1a:	02 40 70    	ior.b     w0, w2, w0
    4a1c:	e9 e2 b7    	mov.b     WREG, 0x2e9

00004a1e <.L64>:
    4a1e:	00 a5 80    	mov.w     0x14a0, w0
    4a20:	00 00 e0    	cp0.w     w0
    4a22:	03 00 32    	bra       Z, 0x4a2a <.L65>
    4a24:	00 a5 80    	mov.w     0x14a0, w0
    4a26:	00 00 e9    	dec.w     w0, w0
    4a28:	00 a5 88    	mov.w     w0, 0x14a0

00004a2a <.L65>:
    4a2a:	00 ba 80    	mov.w     0x1740, w0
    4a2c:	00 00 e0    	cp0.w     w0
    4a2e:	08 00 34    	bra       LE, 0x4a40 <.L67>
    4a30:	00 ba 80    	mov.w     0x1740, w0
    4a32:	00 00 e9    	dec.w     w0, w0
    4a34:	00 ba 88    	mov.w     w0, 0x1740
    4a36:	00 ba 80    	mov.w     0x1740, w0
    4a38:	00 00 e0    	cp0.w     w0
    4a3a:	02 00 3a    	bra       NZ, 0x4a40 <.L67>
    4a3c:	10 00 20    	mov.w     #0x1, w0
    4a3e:	70 ae 88    	mov.w     w0, 0x15ce

00004a40 <.L67>:
    4a40:	41 b9 80    	mov.w     0x1728, w1
    4a42:	f0 18 20    	mov.w     #0x18f, w0
    4a44:	80 8f 50    	sub.w     w1, w0, [w15]
    4a46:	02 00 34    	bra       LE, 0x4a4c <.L70>
    4a48:	00 00 eb    	clr.w     w0
    4a4a:	40 b9 88    	mov.w     w0, 0x1728

00004a4c <.L70>:
    4a4c:	fb 9a a9    	bclr.b    0x1afb, #0x4
    4a4e:	fb ba a9    	bclr.b    0x1afb, #0x5
    4a50:	fb da a8    	bset.b    0x1afb, #0x6
    4a52:	fb fa a9    	bclr.b    0x1afb, #0x7
    4a54:	f0 64 80    	mov.w     0xc9e, w0
    4a56:	02 80 20    	mov.w     #0x800, w2
    4a58:	11 00 09    	repeat    #0x11
    4a5a:	02 00 d8    	div.sw    w0, w2
    4a5c:	68 40 40    	add.b     w0, #0x8, w0
    4a5e:	f0 43 b2    	and.b     #0x3f, w0
    4a60:	80 80 fb    	ze        w0, w1
    4a62:	f0 03 20    	mov.w     #0x3f, w0
    4a64:	00 81 60    	and.w     w1, w0, w2
    4a66:	d1 d7 80    	mov.w     0x1afa, w1
    4a68:	00 fc 2f    	mov.w     #0xffc0, w0
    4a6a:	00 80 60    	and.w     w1, w0, w0
    4a6c:	02 00 70    	ior.w     w0, w2, w0
    4a6e:	d0 d7 88    	mov.w     w0, 0x1afa
    4a70:	cb c2 bf    	mov.b     0x2cb, WREG
    4a72:	61 40 60    	and.b     w0, #0x1, w0
    4a74:	80 80 fb    	ze        w0, w1
    4a76:	a0 af 21    	mov.w     #0x1afa, w0
    4a78:	8e 01 07    	rcall     0x4d96 <_LED_Update>
    4a7a:	61 40 60    	and.b     w0, #0x1, w0
    4a7c:	61 41 60    	and.b     w0, #0x1, w2
    4a7e:	b1 2c 20    	mov.w     #0x2cb, w1
    4a80:	91 40 78    	mov.b     [w1], w1
    4a82:	e0 cf b3    	mov.b     #0xfe, w0
    4a84:	00 c0 60    	and.b     w1, w0, w0
    4a86:	02 40 70    	ior.b     w0, w2, w0
    4a88:	cb e2 b7    	mov.b     WREG, 0x2cb
    4a8a:	b1 d8 80    	mov.w     0x1b16, w1
    4a8c:	00 00 2f    	mov.w     #0xf000, w0
    4a8e:	80 80 60    	and.w     w1, w0, w1
    4a90:	00 00 24    	mov.w     #0x4000, w0
    4a92:	80 8f 50    	sub.w     w1, w0, [w15]
    4a94:	0e 00 3a    	bra       NZ, 0x4ab2 <.L72>
    4a96:	30 65 80    	mov.w     0xca6, w0
    4a98:	02 80 20    	mov.w     #0x800, w2
    4a9a:	11 00 09    	repeat    #0x11
    4a9c:	02 00 d8    	div.sw    w0, w2
    4a9e:	69 40 40    	add.b     w0, #0x9, w0
    4aa0:	f0 43 b2    	and.b     #0x3f, w0
    4aa2:	80 80 fb    	ze        w0, w1
    4aa4:	f0 03 20    	mov.w     #0x3f, w0
    4aa6:	00 81 60    	and.w     w1, w0, w2
    4aa8:	b1 d8 80    	mov.w     0x1b16, w1
    4aaa:	00 fc 2f    	mov.w     #0xffc0, w0
    4aac:	00 80 60    	and.w     w1, w0, w0
    4aae:	02 00 70    	ior.w     w0, w2, w0
    4ab0:	b0 d8 88    	mov.w     w0, 0x1b16

00004ab2 <.L72>:
    4ab2:	cb c2 bf    	mov.b     0x2cb, WREG
    4ab4:	00 80 fb    	ze        w0, w0
    4ab6:	42 00 de    	lsr.w     w0, #0x2, w0
    4ab8:	61 40 60    	and.b     w0, #0x1, w0
    4aba:	80 80 fb    	ze        w0, w1
    4abc:	60 b1 21    	mov.w     #0x1b16, w0
    4abe:	6b 01 07    	rcall     0x4d96 <_LED_Update>
    4ac0:	61 40 60    	and.b     w0, #0x1, w0
    4ac2:	61 40 60    	and.b     w0, #0x1, w0
    4ac4:	42 01 dd    	sl.w      w0, #0x2, w2
    4ac6:	b1 2c 20    	mov.w     #0x2cb, w1
    4ac8:	91 40 78    	mov.b     [w1], w1
    4aca:	b0 cf b3    	mov.b     #0xfb, w0
    4acc:	00 c0 60    	and.b     w1, w0, w0
    4ace:	02 40 70    	ior.b     w0, w2, w0
    4ad0:	cb e2 b7    	mov.b     WREG, 0x2cb
    4ad2:	f8 da bf    	mov.b     0x1af8, WREG
    4ad4:	00 04 e0    	cp0.b     w0
    4ad6:	08 00 3a    	bra       NZ, 0x4ae8 <.L74>
    4ad8:	a2 d7 80    	mov.w     0x1af4, w2
    4ada:	b3 d7 80    	mov.w     0x1af6, w3
    4adc:	70 3e 20    	mov.w     #0x3e7, w0
    4ade:	01 00 20    	mov.w     #0x0, w1
    4ae0:	80 0f 51    	sub.w     w2, w0, [w15]
    4ae2:	81 8f 59    	subb.w    w3, w1, [w15]
    4ae4:	01 00 3e    	bra       GTU, 0x4ae8 <.L74>
    4ae6:	98 00 37    	bra       0x4c18 <.L106>

00004ae8 <.L74>:
    4ae8:	10 c0 b3    	mov.b     #0x1, w0
    4aea:	f8 fa b7    	mov.b     WREG, 0x1af8
    4aec:	40 b9 80    	mov.w     0x1728, w0
    4aee:	61 00 60    	and.w     w0, #0x1, w0
    4af0:	00 04 e0    	cp0.b     w0
    4af2:	5b 00 32    	bra       Z, 0x4baa <.L78>
    4af4:	40 b9 80    	mov.w     0x1728, w0
    4af6:	42 01 20    	mov.w     #0x14, w2
    4af8:	11 00 09    	repeat    #0x11
    4afa:	02 00 d8    	div.sw    w0, w2
    4afc:	80 00 fd    	exch      w0, w1
    4afe:	00 80 d1    	asr.w     w0, w0
    4b00:	00 0f 78    	mov.w     w0, [w14]
    4b02:	1e 00 78    	mov.w     [w14], w0
    4b04:	e5 0f 50    	sub.w     w0, #0x5, [w15]
    4b06:	2f 00 32    	bra       Z, 0x4b66 <.L83>
    4b08:	1e 00 78    	mov.w     [w14], w0
    4b0a:	e5 0f 50    	sub.w     w0, #0x5, [w15]
    4b0c:	0a 00 3c    	bra       GT, 0x4b22 <.L88>
    4b0e:	1e 00 78    	mov.w     [w14], w0
    4b10:	e3 0f 50    	sub.w     w0, #0x3, [w15]
    4b12:	1b 00 32    	bra       Z, 0x4b4a <.L81>
    4b14:	1e 00 78    	mov.w     [w14], w0
    4b16:	e3 0f 50    	sub.w     w0, #0x3, [w15]
    4b18:	1f 00 3c    	bra       GT, 0x4b58 <.L82>
    4b1a:	1e 00 78    	mov.w     [w14], w0
    4b1c:	e2 0f 50    	sub.w     w0, #0x2, [w15]
    4b1e:	0e 00 32    	bra       Z, 0x4b3c <.L80>
    4b20:	44 00 37    	bra       0x4baa <.L78>

00004b22 <.L88>:
    4b22:	1e 00 78    	mov.w     [w14], w0
    4b24:	e7 0f 50    	sub.w     w0, #0x7, [w15]
    4b26:	2d 00 32    	bra       Z, 0x4b82 <.L85>
    4b28:	1e 00 78    	mov.w     [w14], w0
    4b2a:	e7 0f 50    	sub.w     w0, #0x7, [w15]
    4b2c:	23 00 35    	bra       LT, 0x4b74 <.L84>
    4b2e:	1e 00 78    	mov.w     [w14], w0
    4b30:	e8 0f 50    	sub.w     w0, #0x8, [w15]
    4b32:	2e 00 32    	bra       Z, 0x4b90 <.L86>
    4b34:	1e 00 78    	mov.w     [w14], w0
    4b36:	e9 0f 50    	sub.w     w0, #0x9, [w15]
    4b38:	32 00 32    	bra       Z, 0x4b9e <.L87>
    4b3a:	37 00 37    	bra       0x4baa <.L78>

00004b3c <.L80>:
    4b3c:	02 18 20    	mov.w     #0x180, w2
    4b3e:	e1 04 21    	mov.w     #0x104e, w1
    4b40:	50 05 21    	mov.w     #0x1055, w0
    4b42:	10 40 78    	mov.b     [w0], w0
    4b44:	00 80 fb    	ze        w0, w0
    4b46:	fb fc 07    	rcall     0x453e <_do_pin>
    4b48:	30 00 37    	bra       0x4baa <.L78>

00004b4a <.L81>:
    4b4a:	62 18 20    	mov.w     #0x186, w2
    4b4c:	e1 07 21    	mov.w     #0x107e, w1
    4b4e:	50 08 21    	mov.w     #0x1085, w0
    4b50:	10 40 78    	mov.b     [w0], w0
    4b52:	00 80 fb    	ze        w0, w0
    4b54:	f4 fc 07    	rcall     0x453e <_do_pin>
    4b56:	29 00 37    	bra       0x4baa <.L78>

00004b58 <.L82>:
    4b58:	c2 18 20    	mov.w     #0x18c, w2
    4b5a:	e1 0a 21    	mov.w     #0x10ae, w1
    4b5c:	50 0b 21    	mov.w     #0x10b5, w0
    4b5e:	10 40 78    	mov.b     [w0], w0
    4b60:	00 80 fb    	ze        w0, w0
    4b62:	ed fc 07    	rcall     0x453e <_do_pin>
    4b64:	22 00 37    	bra       0x4baa <.L78>

00004b66 <.L83>:
    4b66:	22 19 20    	mov.w     #0x192, w2
    4b68:	e1 0d 21    	mov.w     #0x10de, w1
    4b6a:	50 0e 21    	mov.w     #0x10e5, w0
    4b6c:	10 40 78    	mov.b     [w0], w0
    4b6e:	00 80 fb    	ze        w0, w0
    4b70:	e6 fc 07    	rcall     0x453e <_do_pin>
    4b72:	1b 00 37    	bra       0x4baa <.L78>

00004b74 <.L84>:
    4b74:	82 19 20    	mov.w     #0x198, w2
    4b76:	e1 10 21    	mov.w     #0x110e, w1
    4b78:	50 11 21    	mov.w     #0x1115, w0
    4b7a:	10 40 78    	mov.b     [w0], w0
    4b7c:	00 80 fb    	ze        w0, w0
    4b7e:	df fc 07    	rcall     0x453e <_do_pin>
    4b80:	14 00 37    	bra       0x4baa <.L78>

00004b82 <.L85>:
    4b82:	e2 19 20    	mov.w     #0x19e, w2
    4b84:	e1 13 21    	mov.w     #0x113e, w1
    4b86:	50 14 21    	mov.w     #0x1145, w0
    4b88:	10 40 78    	mov.b     [w0], w0
    4b8a:	00 80 fb    	ze        w0, w0
    4b8c:	d8 fc 07    	rcall     0x453e <_do_pin>
    4b8e:	0d 00 37    	bra       0x4baa <.L78>

00004b90 <.L86>:
    4b90:	42 1a 20    	mov.w     #0x1a4, w2
    4b92:	e1 16 21    	mov.w     #0x116e, w1
    4b94:	50 17 21    	mov.w     #0x1175, w0
    4b96:	10 40 78    	mov.b     [w0], w0
    4b98:	00 80 fb    	ze        w0, w0
    4b9a:	d1 fc 07    	rcall     0x453e <_do_pin>
    4b9c:	06 00 37    	bra       0x4baa <.L78>

00004b9e <.L87>:
    4b9e:	a2 1a 20    	mov.w     #0x1aa, w2
    4ba0:	e1 19 21    	mov.w     #0x119e, w1
    4ba2:	50 1a 21    	mov.w     #0x11a5, w0
    4ba4:	10 40 78    	mov.b     [w0], w0
    4ba6:	00 80 fb    	ze        w0, w0
    4ba8:	ca fc 07    	rcall     0x453e <_do_pin>

00004baa <.L78>:
    4baa:	40 b9 80    	mov.w     0x1728, w0
    4bac:	42 01 20    	mov.w     #0x14, w2
    4bae:	11 00 09    	repeat    #0x11
    4bb0:	02 00 d8    	div.sw    w0, w2
    4bb2:	80 00 fd    	exch      w0, w1
    4bb4:	00 00 e0    	cp0.w     w0
    4bb6:	08 00 3a    	bra       NZ, 0x4bc8 <.L89>
    4bb8:	20 b0 80    	mov.w     0x1604, w0
    4bba:	ea 0f 50    	sub.w     w0, #0xa, [w15]
    4bbc:	01 00 34    	bra       LE, 0x4bc0 <.L91>
    4bbe:	2c 5b a8    	bset.b    0x1b2c, #0x2

00004bc0 <.L91>:
    4bc0:	10 b1 80    	mov.w     0x1622, w0
    4bc2:	e8 0f 50    	sub.w     w0, #0x8, [w15]
    4bc4:	01 00 34    	bra       LE, 0x4bc8 <.L89>
    4bc6:	2c 7b a8    	bset.b    0x1b2c, #0x3

00004bc8 <.L89>:
    4bc8:	40 b9 80    	mov.w     0x1728, w0
    4bca:	92 01 20    	mov.w     #0x19, w2
    4bcc:	11 00 09    	repeat    #0x11
    4bce:	02 00 d8    	div.sw    w0, w2
    4bd0:	80 00 fd    	exch      w0, w1
    4bd2:	00 00 e0    	cp0.w     w0
    4bd4:	21 00 3a    	bra       NZ, 0x4c18 <.L106>
    4bd6:	30 b9 80    	mov.w     0x1726, w0
    4bd8:	00 00 e8    	inc.w     w0, w0
    4bda:	30 b9 88    	mov.w     w0, 0x1726
    4bdc:	30 b9 80    	mov.w     0x1726, w0
    4bde:	e1 0f 50    	sub.w     w0, #0x1, [w15]
    4be0:	1b 00 34    	bra       LE, 0x4c18 <.L106>
    4be2:	00 b9 80    	mov.w     0x1720, w0
    4be4:	00 00 e0    	cp0.w     w0
    4be6:	03 00 3a    	bra       NZ, 0x4bee <.L97>
    4be8:	40 9b a9    	bclr.b    0x1b40, #0x4
    4bea:	cb 42 a8    	bset.b    0x2cb, #0x2
    4bec:	13 00 37    	bra       0x4c14 <.L99>

00004bee <.L97>:
    4bee:	00 b9 80    	mov.w     0x1720, w0
    4bf0:	e6 0f 50    	sub.w     w0, #0x6, [w15]
    4bf2:	0a 00 34    	bra       LE, 0x4c08 <.L100>
    4bf4:	00 da 80    	mov.w     0x1b40, w0
    4bf6:	70 00 60    	and.w     w0, #0x10, w0
    4bf8:	00 00 e0    	cp0.w     w0
    4bfa:	03 00 3a    	bra       NZ, 0x4c02 <.L102>
    4bfc:	40 9b a8    	bset.b    0x1b40, #0x4
    4bfe:	cb 42 a9    	bclr.b    0x2cb, #0x2
    4c00:	09 00 37    	bra       0x4c14 <.L99>

00004c02 <.L102>:
    4c02:	80 00 20    	mov.w     #0x8, w0
    4c04:	00 b9 88    	mov.w     w0, 0x1720
    4c06:	06 00 37    	bra       0x4c14 <.L99>

00004c08 <.L100>:
    4c08:	00 b9 80    	mov.w     0x1720, w0
    4c0a:	00 00 e0    	cp0.w     w0
    4c0c:	03 00 34    	bra       LE, 0x4c14 <.L99>
    4c0e:	00 b9 80    	mov.w     0x1720, w0
    4c10:	00 00 e9    	dec.w     w0, w0
    4c12:	00 b9 88    	mov.w     w0, 0x1720

00004c14 <.L99>:
    4c14:	00 00 eb    	clr.w     w0
    4c16:	30 b9 88    	mov.w     w0, 0x1726

00004c18 <.L106>:
    4c18:	00 80 fa    	ulnk      
    4c1a:	4f 03 be    	mov.d     [--w15], w6
    4c1c:	4f 02 be    	mov.d     [--w15], w4
    4c1e:	4f 01 be    	mov.d     [--w15], w2
    4c20:	4f 00 be    	mov.d     [--w15], w0
    4c22:	36 00 f9    	pop       0x36
    4c24:	00 40 06    	retfie    

00004c26 <__OC1Interrupt>:
    4c26:	36 00 f8    	push      0x36
    4c28:	80 9f be    	mov.d     w0, [w15++]
    4c2a:	82 9f be    	mov.d     w2, [w15++]
    4c2c:	84 9f be    	mov.d     w4, [w15++]
    4c2e:	86 9f be    	mov.d     w6, [w15++]
    4c30:	00 00 fa    	lnk       #0x0
    4c32:	84 40 a9    	bclr.b    0x84, #0x2
    4c34:	02 18 20    	mov.w     #0x180, w2
    4c36:	e3 04 21    	mov.w     #0x104e, w3
    4c38:	50 05 21    	mov.w     #0x1055, w0
    4c3a:	10 40 78    	mov.b     [w0], w0
    4c3c:	80 80 fb    	ze        w0, w1
    4c3e:	00 80 eb    	setm.w    w0
    4c40:	00 88 b9    	mul.ss    w1, w0, w0
    4c42:	83 00 78    	mov.w     w3, w1
    4c44:	7c fc 07    	rcall     0x453e <_do_pin>
    4c46:	00 80 fa    	ulnk      
    4c48:	4f 03 be    	mov.d     [--w15], w6
    4c4a:	4f 02 be    	mov.d     [--w15], w4
    4c4c:	4f 01 be    	mov.d     [--w15], w2
    4c4e:	4f 00 be    	mov.d     [--w15], w0
    4c50:	36 00 f9    	pop       0x36
    4c52:	00 40 06    	retfie    

00004c54 <__OC2Interrupt>:
    4c54:	36 00 f8    	push      0x36
    4c56:	80 9f be    	mov.d     w0, [w15++]
    4c58:	82 9f be    	mov.d     w2, [w15++]
    4c5a:	84 9f be    	mov.d     w4, [w15++]
    4c5c:	86 9f be    	mov.d     w6, [w15++]
    4c5e:	00 00 fa    	lnk       #0x0
    4c60:	84 c0 a9    	bclr.b    0x84, #0x6
    4c62:	62 18 20    	mov.w     #0x186, w2
    4c64:	e3 07 21    	mov.w     #0x107e, w3
    4c66:	50 08 21    	mov.w     #0x1085, w0
    4c68:	10 40 78    	mov.b     [w0], w0
    4c6a:	80 80 fb    	ze        w0, w1
    4c6c:	00 80 eb    	setm.w    w0
    4c6e:	00 88 b9    	mul.ss    w1, w0, w0
    4c70:	83 00 78    	mov.w     w3, w1
    4c72:	65 fc 07    	rcall     0x453e <_do_pin>
    4c74:	00 80 fa    	ulnk      
    4c76:	4f 03 be    	mov.d     [--w15], w6
    4c78:	4f 02 be    	mov.d     [--w15], w4
    4c7a:	4f 01 be    	mov.d     [--w15], w2
    4c7c:	4f 00 be    	mov.d     [--w15], w0
    4c7e:	36 00 f9    	pop       0x36
    4c80:	00 40 06    	retfie    

00004c82 <__OC3Interrupt>:
    4c82:	36 00 f8    	push      0x36
    4c84:	80 9f be    	mov.d     w0, [w15++]
    4c86:	82 9f be    	mov.d     w2, [w15++]
    4c88:	84 9f be    	mov.d     w4, [w15++]
    4c8a:	86 9f be    	mov.d     w6, [w15++]
    4c8c:	00 00 fa    	lnk       #0x0
    4c8e:	87 20 a9    	bclr.b    0x87, #0x1
    4c90:	c2 18 20    	mov.w     #0x18c, w2
    4c92:	e3 0a 21    	mov.w     #0x10ae, w3
    4c94:	50 0b 21    	mov.w     #0x10b5, w0
    4c96:	10 40 78    	mov.b     [w0], w0
    4c98:	80 80 fb    	ze        w0, w1
    4c9a:	00 80 eb    	setm.w    w0
    4c9c:	00 88 b9    	mul.ss    w1, w0, w0
    4c9e:	83 00 78    	mov.w     w3, w1
    4ca0:	4e fc 07    	rcall     0x453e <_do_pin>
    4ca2:	00 80 fa    	ulnk      
    4ca4:	4f 03 be    	mov.d     [--w15], w6
    4ca6:	4f 02 be    	mov.d     [--w15], w4
    4ca8:	4f 01 be    	mov.d     [--w15], w2
    4caa:	4f 00 be    	mov.d     [--w15], w0
    4cac:	36 00 f9    	pop       0x36
    4cae:	00 40 06    	retfie    

00004cb0 <__OC4Interrupt>:
    4cb0:	36 00 f8    	push      0x36
    4cb2:	80 9f be    	mov.d     w0, [w15++]
    4cb4:	82 9f be    	mov.d     w2, [w15++]
    4cb6:	84 9f be    	mov.d     w4, [w15++]
    4cb8:	86 9f be    	mov.d     w6, [w15++]
    4cba:	00 00 fa    	lnk       #0x0
    4cbc:	87 40 a9    	bclr.b    0x87, #0x2
    4cbe:	22 19 20    	mov.w     #0x192, w2
    4cc0:	e3 0d 21    	mov.w     #0x10de, w3
    4cc2:	50 0e 21    	mov.w     #0x10e5, w0
    4cc4:	10 40 78    	mov.b     [w0], w0
    4cc6:	80 80 fb    	ze        w0, w1
    4cc8:	00 80 eb    	setm.w    w0
    4cca:	00 88 b9    	mul.ss    w1, w0, w0
    4ccc:	83 00 78    	mov.w     w3, w1
    4cce:	37 fc 07    	rcall     0x453e <_do_pin>
    4cd0:	00 80 fa    	ulnk      
    4cd2:	4f 03 be    	mov.d     [--w15], w6
    4cd4:	4f 02 be    	mov.d     [--w15], w4
    4cd6:	4f 01 be    	mov.d     [--w15], w2
    4cd8:	4f 00 be    	mov.d     [--w15], w0
    4cda:	36 00 f9    	pop       0x36
    4cdc:	00 40 06    	retfie    

00004cde <__OC5Interrupt>:
    4cde:	36 00 f8    	push      0x36
    4ce0:	80 9f be    	mov.d     w0, [w15++]
    4ce2:	82 9f be    	mov.d     w2, [w15++]
    4ce4:	84 9f be    	mov.d     w4, [w15++]
    4ce6:	86 9f be    	mov.d     w6, [w15++]
    4ce8:	00 00 fa    	lnk       #0x0
    4cea:	89 20 a9    	bclr.b    0x89, #0x1
    4cec:	82 19 20    	mov.w     #0x198, w2
    4cee:	e3 10 21    	mov.w     #0x110e, w3
    4cf0:	50 11 21    	mov.w     #0x1115, w0
    4cf2:	10 40 78    	mov.b     [w0], w0
    4cf4:	80 80 fb    	ze        w0, w1
    4cf6:	00 80 eb    	setm.w    w0
    4cf8:	00 88 b9    	mul.ss    w1, w0, w0
    4cfa:	83 00 78    	mov.w     w3, w1
    4cfc:	20 fc 07    	rcall     0x453e <_do_pin>
    4cfe:	00 80 fa    	ulnk      
    4d00:	4f 03 be    	mov.d     [--w15], w6
    4d02:	4f 02 be    	mov.d     [--w15], w4
    4d04:	4f 01 be    	mov.d     [--w15], w2
    4d06:	4f 00 be    	mov.d     [--w15], w0
    4d08:	36 00 f9    	pop       0x36
    4d0a:	00 40 06    	retfie    

00004d0c <__OC6Interrupt>:
    4d0c:	36 00 f8    	push      0x36
    4d0e:	80 9f be    	mov.d     w0, [w15++]
    4d10:	82 9f be    	mov.d     w2, [w15++]
    4d12:	84 9f be    	mov.d     w4, [w15++]
    4d14:	86 9f be    	mov.d     w6, [w15++]
    4d16:	00 00 fa    	lnk       #0x0
    4d18:	89 40 a9    	bclr.b    0x89, #0x2
    4d1a:	e2 19 20    	mov.w     #0x19e, w2
    4d1c:	e3 13 21    	mov.w     #0x113e, w3
    4d1e:	50 14 21    	mov.w     #0x1145, w0
    4d20:	10 40 78    	mov.b     [w0], w0
    4d22:	80 80 fb    	ze        w0, w1
    4d24:	00 80 eb    	setm.w    w0
    4d26:	00 88 b9    	mul.ss    w1, w0, w0
    4d28:	83 00 78    	mov.w     w3, w1
    4d2a:	09 fc 07    	rcall     0x453e <_do_pin>
    4d2c:	00 80 fa    	ulnk      
    4d2e:	4f 03 be    	mov.d     [--w15], w6
    4d30:	4f 02 be    	mov.d     [--w15], w4
    4d32:	4f 01 be    	mov.d     [--w15], w2
    4d34:	4f 00 be    	mov.d     [--w15], w0
    4d36:	36 00 f9    	pop       0x36
    4d38:	00 40 06    	retfie    

00004d3a <__OC7Interrupt>:
    4d3a:	36 00 f8    	push      0x36
    4d3c:	80 9f be    	mov.d     w0, [w15++]
    4d3e:	82 9f be    	mov.d     w2, [w15++]
    4d40:	84 9f be    	mov.d     w4, [w15++]
    4d42:	86 9f be    	mov.d     w6, [w15++]
    4d44:	00 00 fa    	lnk       #0x0
    4d46:	89 60 a9    	bclr.b    0x89, #0x3
    4d48:	42 1a 20    	mov.w     #0x1a4, w2
    4d4a:	e3 16 21    	mov.w     #0x116e, w3
    4d4c:	50 17 21    	mov.w     #0x1175, w0
    4d4e:	10 40 78    	mov.b     [w0], w0
    4d50:	80 80 fb    	ze        w0, w1
    4d52:	00 80 eb    	setm.w    w0
    4d54:	00 88 b9    	mul.ss    w1, w0, w0
    4d56:	83 00 78    	mov.w     w3, w1
    4d58:	f2 fb 07    	rcall     0x453e <_do_pin>
    4d5a:	00 80 fa    	ulnk      
    4d5c:	4f 03 be    	mov.d     [--w15], w6
    4d5e:	4f 02 be    	mov.d     [--w15], w4
    4d60:	4f 01 be    	mov.d     [--w15], w2
    4d62:	4f 00 be    	mov.d     [--w15], w0
    4d64:	36 00 f9    	pop       0x36
    4d66:	00 40 06    	retfie    

00004d68 <__OC8Interrupt>:
    4d68:	36 00 f8    	push      0x36
    4d6a:	80 9f be    	mov.d     w0, [w15++]
    4d6c:	82 9f be    	mov.d     w2, [w15++]
    4d6e:	84 9f be    	mov.d     w4, [w15++]
    4d70:	86 9f be    	mov.d     w6, [w15++]
    4d72:	00 00 fa    	lnk       #0x0
    4d74:	89 80 a9    	bclr.b    0x89, #0x4
    4d76:	a2 1a 20    	mov.w     #0x1aa, w2
    4d78:	e3 19 21    	mov.w     #0x119e, w3
    4d7a:	50 1a 21    	mov.w     #0x11a5, w0
    4d7c:	10 40 78    	mov.b     [w0], w0
    4d7e:	80 80 fb    	ze        w0, w1
    4d80:	00 80 eb    	setm.w    w0
    4d82:	00 88 b9    	mul.ss    w1, w0, w0
    4d84:	83 00 78    	mov.w     w3, w1
    4d86:	db fb 07    	rcall     0x453e <_do_pin>
    4d88:	00 80 fa    	ulnk      
    4d8a:	4f 03 be    	mov.d     [--w15], w6
    4d8c:	4f 02 be    	mov.d     [--w15], w4
    4d8e:	4f 01 be    	mov.d     [--w15], w2
    4d90:	4f 00 be    	mov.d     [--w15], w0
    4d92:	36 00 f9    	pop       0x36
    4d94:	00 40 06    	retfie    

00004d96 <_LED_Update>:
    4d96:	0c 00 fa    	lnk       #0xc
    4d98:	00 0f 78    	mov.w     w0, [w14]
    4d9a:	11 07 98    	mov.w     w1, [w14+2]
    4d9c:	1e 00 78    	mov.w     [w14], w0
    4d9e:	10 00 78    	mov.w     [w0], w0
    4da0:	4c 00 de    	lsr.w     w0, #0xc, w0
    4da2:	00 80 fb    	ze        w0, w0
    4da4:	40 07 98    	mov.w     w0, [w14+8]
    4da6:	4e 00 90    	mov.w     [w14+8], w0
    4da8:	ef 0f 50    	sub.w     w0, #0xf, [w15]
    4daa:	85 00 3e    	bra       GTU, 0x4eb6 <.L124>
    4dac:	10 00 20    	mov.w     #0x1, w0
    4dae:	ce 00 90    	mov.w     [w14+8], w1
    4db0:	01 00 dd    	sl.w      w0, w1, w0
    4db2:	50 07 98    	mov.w     w0, [w14+10]
    4db4:	b0 08 28    	mov.w     #0x808b, w0
    4db6:	5e 01 90    	mov.w     [w14+10], w2
    4db8:	00 00 61    	and.w     w2, w0, w0
    4dba:	00 00 e0    	cp0.w     w0
    4dbc:	46 00 3a    	bra       NZ, 0x4e4a <.L125>
    4dbe:	de 00 90    	mov.w     [w14+10], w1
    4dc0:	70 80 60    	and.w     w1, #0x10, w0
    4dc2:	00 00 e0    	cp0.w     w0
    4dc4:	14 00 3a    	bra       NZ, 0x4dee <.L127>
    4dc6:	5e 01 90    	mov.w     [w14+10], w2
    4dc8:	64 00 61    	and.w     w2, #0x4, w0
    4dca:	00 00 e0    	cp0.w     w0
    4dcc:	01 00 3a    	bra       NZ, 0x4dd0 <.L126>
    4dce:	73 00 37    	bra       0x4eb6 <.L124>

00004dd0 <.L126>:
    4dd0:	1e 00 78    	mov.w     [w14], w0
    4dd2:	10 00 78    	mov.w     [w0], w0
    4dd4:	f0 43 b2    	and.b     #0x3f, w0
    4dd6:	00 80 fb    	ze        w0, w0
    4dd8:	61 00 60    	and.w     w0, #0x1, w0
    4dda:	00 04 e0    	cp0.b     w0
    4ddc:	03 00 32    	bra       Z, 0x4de4 <.L128>
    4dde:	00 00 eb    	clr.w     w0
    4de0:	20 07 98    	mov.w     w0, [w14+4]
    4de2:	02 00 37    	bra       0x4de8 <.L130>

00004de4 <.L128>:
    4de4:	11 00 20    	mov.w     #0x1, w1
    4de6:	21 07 98    	mov.w     w1, [w14+4]

00004de8 <.L130>:
    4de8:	2e 01 90    	mov.w     [w14+4], w2
    4dea:	32 07 98    	mov.w     w2, [w14+6]
    4dec:	66 00 37    	bra       0x4eba <.L131>

00004dee <.L127>:
    4dee:	1e 00 78    	mov.w     [w14], w0
    4df0:	10 00 78    	mov.w     [w0], w0
    4df2:	46 00 de    	lsr.w     w0, #0x6, w0
    4df4:	f2 c3 b3    	mov.b     #0x3f, w2
    4df6:	82 40 60    	and.b     w0, w2, w1
    4df8:	1e 00 78    	mov.w     [w14], w0
    4dfa:	10 00 78    	mov.w     [w0], w0
    4dfc:	f0 43 b2    	and.b     #0x3f, w0
    4dfe:	80 cf 50    	sub.b     w1, w0, [w15]
    4e00:	16 00 32    	bra       Z, 0x4e2e <.L132>
    4e02:	1e 00 78    	mov.w     [w14], w0
    4e04:	10 00 78    	mov.w     [w0], w0
    4e06:	f0 43 b2    	and.b     #0x3f, w0
    4e08:	00 80 fb    	ze        w0, w0
    4e0a:	6f 00 60    	and.w     w0, #0xf, w0
    4e0c:	80 00 40    	add.w     w0, w0, w1
    4e0e:	20 9d 29    	mov.w     #0x99d2, w0
    4e10:	00 80 40    	add.w     w1, w0, w0
    4e12:	90 00 78    	mov.w     [w0], w1
    4e14:	1e 00 78    	mov.w     [w14], w0
    4e16:	11 00 98    	mov.w     w1, [w0+2]
    4e18:	1e 00 78    	mov.w     [w14], w0
    4e1a:	10 00 78    	mov.w     [w0], w0
    4e1c:	f0 43 b2    	and.b     #0x3f, w0
    4e1e:	9e 00 78    	mov.w     [w14], w1
    4e20:	00 81 fb    	ze        w0, w2
    4e22:	f0 03 20    	mov.w     #0x3f, w0
    4e24:	00 00 61    	and.w     w2, w0, w0
    4e26:	46 01 dd    	sl.w      w0, #0x6, w2
    4e28:	f0 03 2f    	mov.w     #0xf03f, w0
    4e2a:	91 08 60    	and.w     w0, [w1], [w1]
    4e2c:	91 08 71    	ior.w     w2, [w1], [w1]

00004e2e <.L132>:
    4e2e:	1e 00 78    	mov.w     [w14], w0
    4e30:	10 01 90    	mov.w     [w0+2], w2
    4e32:	40 b9 80    	mov.w     0x1728, w0
    4e34:	ef 00 60    	and.w     w0, #0xf, w1
    4e36:	10 00 20    	mov.w     #0x1, w0
    4e38:	01 00 dd    	sl.w      w0, w1, w0
    4e3a:	00 00 61    	and.w     w2, w0, w0
    4e3c:	80 00 eb    	clr.w     w1
    4e3e:	31 07 98    	mov.w     w1, [w14+6]
    4e40:	00 00 e0    	cp0.w     w0
    4e42:	3b 00 3a    	bra       NZ, 0x4eba <.L131>
    4e44:	12 00 20    	mov.w     #0x1, w2
    4e46:	32 07 98    	mov.w     w2, [w14+6]
    4e48:	38 00 37    	bra       0x4eba <.L131>

00004e4a <.L125>:
    4e4a:	1e 00 78    	mov.w     [w14], w0
    4e4c:	10 00 78    	mov.w     [w0], w0
    4e4e:	4c 00 de    	lsr.w     w0, #0xc, w0
    4e50:	80 80 fb    	ze        w0, w1
    4e52:	40 b9 80    	mov.w     0x1728, w0
    4e54:	00 80 60    	and.w     w1, w0, w0
    4e56:	00 00 e0    	cp0.w     w0
    4e58:	2b 00 3a    	bra       NZ, 0x4eb0 <.L135>
    4e5a:	1e 00 78    	mov.w     [w14], w0
    4e5c:	10 00 90    	mov.w     [w0+2], w0
    4e5e:	80 00 e8    	inc.w     w0, w1
    4e60:	1e 00 78    	mov.w     [w14], w0
    4e62:	11 00 98    	mov.w     w1, [w0+2]
    4e64:	1e 00 90    	mov.w     [w14+2], w0
    4e66:	00 00 e0    	cp0.w     w0
    4e68:	11 00 3a    	bra       NZ, 0x4e8c <.L137>
    4e6a:	1e 00 78    	mov.w     [w14], w0
    4e6c:	90 00 90    	mov.w     [w0+2], w1
    4e6e:	1e 00 78    	mov.w     [w14], w0
    4e70:	10 00 78    	mov.w     [w0], w0
    4e72:	f0 43 b2    	and.b     #0x3f, w0
    4e74:	00 80 fb    	ze        w0, w0
    4e76:	80 8f 50    	sub.w     w1, w0, [w15]
    4e78:	06 00 36    	bra       LEU, 0x4e86 <.L139>
    4e7a:	9e 00 78    	mov.w     [w14], w1
    4e7c:	00 00 eb    	clr.w     w0
    4e7e:	90 00 98    	mov.w     w0, [w1+2]
    4e80:	10 00 20    	mov.w     #0x1, w0
    4e82:	30 07 98    	mov.w     w0, [w14+6]
    4e84:	1a 00 37    	bra       0x4eba <.L131>

00004e86 <.L139>:
    4e86:	80 00 eb    	clr.w     w1
    4e88:	31 07 98    	mov.w     w1, [w14+6]
    4e8a:	17 00 37    	bra       0x4eba <.L131>

00004e8c <.L137>:
    4e8c:	1e 00 78    	mov.w     [w14], w0
    4e8e:	90 00 90    	mov.w     [w0+2], w1
    4e90:	1e 00 78    	mov.w     [w14], w0
    4e92:	10 00 78    	mov.w     [w0], w0
    4e94:	46 00 de    	lsr.w     w0, #0x6, w0
    4e96:	f0 43 b2    	and.b     #0x3f, w0
    4e98:	00 80 fb    	ze        w0, w0
    4e9a:	80 8f 50    	sub.w     w1, w0, [w15]
    4e9c:	06 00 36    	bra       LEU, 0x4eaa <.L141>
    4e9e:	9e 00 78    	mov.w     [w14], w1
    4ea0:	00 00 eb    	clr.w     w0
    4ea2:	90 00 98    	mov.w     w0, [w1+2]
    4ea4:	00 01 eb    	clr.w     w2
    4ea6:	32 07 98    	mov.w     w2, [w14+6]
    4ea8:	08 00 37    	bra       0x4eba <.L131>

00004eaa <.L141>:
    4eaa:	10 00 20    	mov.w     #0x1, w0
    4eac:	30 07 98    	mov.w     w0, [w14+6]
    4eae:	05 00 37    	bra       0x4eba <.L131>

00004eb0 <.L135>:
    4eb0:	9e 00 90    	mov.w     [w14+2], w1
    4eb2:	31 07 98    	mov.w     w1, [w14+6]
    4eb4:	02 00 37    	bra       0x4eba <.L131>

00004eb6 <.L124>:
    4eb6:	1e 01 90    	mov.w     [w14+2], w2
    4eb8:	32 07 98    	mov.w     w2, [w14+6]

00004eba <.L131>:
    4eba:	3e 00 90    	mov.w     [w14+6], w0
    4ebc:	00 80 fa    	ulnk      
    4ebe:	00 00 06    	return    

00004ec0 <_magSetupRead>:
    4ec0:	00 00 fa    	lnk       #0x0
    4ec2:	2c 1b a8    	bset.b    0x1b2c, #0x0
    4ec4:	2c 9b a8    	bset.b    0x1b2c, #0x4
    4ec6:	2c 5b a9    	bclr.b    0x1b2c, #0x2
    4ec8:	80 5b 21    	mov.w     #0x15b8, w0
    4eca:	41 5f 21    	mov.w     #0x15f4, w1
    4ecc:	0e 00 09    	repeat    #0xe
    4ece:	31 18 78    	mov.w     [w1++], [w0++]
    4ed0:	30 00 20    	mov.w     #0x3, w0
    4ed2:	00 ba 88    	mov.w     w0, 0x1740
    4ed4:	00 00 eb    	clr.w     w0
    4ed6:	e0 ad 88    	mov.w     w0, 0x15bc
    4ed8:	00 00 eb    	clr.w     w0
    4eda:	30 ae 88    	mov.w     w0, 0x15c6
    4edc:	00 00 eb    	clr.w     w0
    4ede:	20 ae 88    	mov.w     w0, 0x15c4
    4ee0:	00 00 eb    	clr.w     w0
    4ee2:	90 ae 88    	mov.w     w0, 0x15d2
    4ee4:	90 ae 80    	mov.w     0x15d2, w0
    4ee6:	80 ae 88    	mov.w     w0, 0x15d0
    4ee8:	80 ae 80    	mov.w     0x15d0, w0
    4eea:	70 ae 88    	mov.w     w0, 0x15ce
    4eec:	50 03 20    	mov.w     #0x35, w0
    4eee:	d0 ad 88    	mov.w     w0, 0x15ba
    4ef0:	00 80 fa    	ulnk      
    4ef2:	00 00 06    	return    

00004ef4 <_rxMagnetometer>:
    4ef4:	06 00 fa    	lnk       #0x6
    4ef6:	a0 af 80    	mov.w     0x15f4, w0
    4ef8:	e1 0f 50    	sub.w     w0, #0x1, [w15]
    4efa:	1f 00 32    	bra       Z, 0x4f3a <.L4>
    4efc:	10 00 20    	mov.w     #0x1, w0
    4efe:	a0 af 88    	mov.w     w0, 0x15f4
    4f00:	10 00 20    	mov.w     #0x1, w0
    4f02:	20 b0 88    	mov.w     w0, 0x1604
    4f04:	e0 af 21    	mov.w     #0x1afe, w0
    4f06:	40 b0 88    	mov.w     w0, 0x1608
    4f08:	60 0f 25    	mov.w     #0x50f6, w0
    4f0a:	70 b9 88    	mov.w     w0, 0x172e
    4f0c:	70 00 20    	mov.w     #0x7, w0
    4f0e:	c0 af 88    	mov.w     w0, 0x15f8
    4f10:	70 00 20    	mov.w     #0x7, w0
    4f12:	60 b8 88    	mov.w     w0, 0x170c
    4f14:	00 00 eb    	clr.w     w0
    4f16:	00 0f 78    	mov.w     w0, [w14]
    4f18:	0d 00 37    	bra       0x4f34 <.L6>

00004f1a <.L7>:
    4f1a:	1e 00 78    	mov.w     [w14], w0
    4f1c:	52 03 20    	mov.w     #0x35, w2
    4f1e:	00 01 41    	add.w     w2, w0, w2
    4f20:	1e 00 78    	mov.w     [w14], w0
    4f22:	80 00 40    	add.w     w0, w0, w1
    4f24:	40 82 29    	mov.w     #0x9824, w0
    4f26:	00 80 40    	add.w     w1, w0, w0
    4f28:	90 01 78    	mov.w     [w0], w3
    4f2a:	82 00 41    	add.w     w2, w2, w1
    4f2c:	80 53 21    	mov.w     #0x1538, w0
    4f2e:	00 80 40    	add.w     w1, w0, w0
    4f30:	03 08 78    	mov.w     w3, [w0]
    4f32:	1e 0f e8    	inc.w     [w14], [w14]

00004f34 <.L6>:
    4f34:	60 b8 80    	mov.w     0x170c, w0
    4f36:	9e 0f 10    	subr.w    w0, [w14], [w15]
    4f38:	f0 ff 34    	bra       LE, 0x4f1a <.L7>

00004f3a <.L4>:
    4f3a:	c0 af 80    	mov.w     0x15f8, w0
    4f3c:	e7 0f 50    	sub.w     w0, #0x7, [w15]
    4f3e:	0a 00 32    	bra       Z, 0x4f54 <.L8>
    4f40:	50 b0 80    	mov.w     0x160a, w0
    4f42:	00 00 e0    	cp0.w     w0
    4f44:	07 00 3a    	bra       NZ, 0x4f54 <.L8>
    4f46:	b1 af 80    	mov.w     0x15f6, w1
    4f48:	60 b8 80    	mov.w     0x170c, w0
    4f4a:	80 8f 50    	sub.w     w1, w0, [w15]
    4f4c:	03 00 32    	bra       Z, 0x4f54 <.L8>
    4f4e:	00 ba 80    	mov.w     0x1740, w0
    4f50:	00 00 e0    	cp0.w     w0
    4f52:	cf 00 3a    	bra       NZ, 0x50f2 <.L56>

00004f54 <.L8>:
    4f54:	20 b0 80    	mov.w     0x1604, w0
    4f56:	ea 0f 50    	sub.w     w0, #0xa, [w15]
    4f58:	02 00 34    	bra       LE, 0x4f5e <.L13>
    4f5a:	b0 00 20    	mov.w     #0xb, w0
    4f5c:	20 b0 88    	mov.w     w0, 0x1604

00004f5e <.L13>:
    4f5e:	20 b0 80    	mov.w     0x1604, w0
    4f60:	61 01 b9    	mul.su    w0, #0x1, w2
    4f62:	12 07 98    	mov.w     w2, [w14+2]
    4f64:	23 07 98    	mov.w     w3, [w14+4]
    4f66:	c0 00 20    	mov.w     #0xc, w0
    4f68:	01 00 20    	mov.w     #0x0, w1
    4f6a:	1e 01 90    	mov.w     [w14+2], w2
    4f6c:	ae 01 90    	mov.w     [w14+4], w3
    4f6e:	80 0f 51    	sub.w     w2, w0, [w15]
    4f70:	81 8f 59    	subb.w    w3, w1, [w15]
    4f72:	bf 00 3e    	bra       GTU, 0x50f2 <.L56>
    4f74:	1e 00 90    	mov.w     [w14+2], w0
    4f76:	ae 00 90    	mov.w     [w14+4], w1
    4f78:	00 60 01    	bra       w0
    4f7a:	bb 00 37    	bra       0x50f2 <.L56>
    4f7c:	0b 00 37    	bra       0x4f94 <.L16>
    4f7e:	13 00 37    	bra       0x4fa6 <.L17>
    4f80:	32 00 37    	bra       0x4fe6 <.L18>
    4f82:	3a 00 37    	bra       0x4ff8 <.L19>
    4f84:	3d 00 37    	bra       0x5000 <.L20>
    4f86:	38 00 37    	bra       0x4ff8 <.L19>
    4f88:	83 00 37    	bra       0x5090 <.L21>
    4f8a:	b3 00 37    	bra       0x50f2 <.L56>
    4f8c:	8a 00 37    	bra       0x50a2 <.L23>
    4f8e:	34 00 37    	bra       0x4ff8 <.L19>
    4f90:	a8 00 37    	bra       0x50e2 <.L24>
    4f92:	a7 00 37    	bra       0x50e2 <.L24>

00004f94 <.L16>:
    4f94:	0a 00 fc    	disi      #0xa
    4f96:	60 d9 80    	mov.w     0x1b2c, w0
    4f98:	61 00 60    	and.w     w0, #0x1, w0
    4f9a:	00 00 e0    	cp0.w     w0
    4f9c:	aa 00 3a    	bra       NZ, 0x50f2 <.L56>
    4f9e:	90 ff 07    	rcall     0x4ec0 <_magSetupRead>
    4fa0:	00 80 eb    	setm.w    w0
    4fa2:	25 07 07    	rcall     0x5dee <_I2C_Start>
    4fa4:	a6 00 37    	bra       0x50f2 <.L56>

00004fa6 <.L17>:
    4fa6:	0a 00 fc    	disi      #0xa
    4fa8:	60 d9 80    	mov.w     0x1b2c, w0
    4faa:	61 00 60    	and.w     w0, #0x1, w0
    4fac:	00 00 e0    	cp0.w     w0
    4fae:	a1 00 3a    	bra       NZ, 0x50f2 <.L56>
    4fb0:	2c 1b a8    	bset.b    0x1b2c, #0x0
    4fb2:	81 5b 21    	mov.w     #0x15b8, w1
    4fb4:	42 5f 21    	mov.w     #0x15f4, w2
    4fb6:	0e 00 09    	repeat    #0xe
    4fb8:	b2 18 78    	mov.w     [w2++], [w1++]
    4fba:	60 00 20    	mov.w     #0x6, w0
    4fbc:	60 b8 88    	mov.w     w0, 0x170c
    4fbe:	00 00 eb    	clr.w     w0
    4fc0:	00 0f 78    	mov.w     w0, [w14]
    4fc2:	0b 00 37    	bra       0x4fda <.L30>

00004fc4 <.L31>:
    4fc4:	1e 01 78    	mov.w     [w14], w2
    4fc6:	1e 00 78    	mov.w     [w14], w0
    4fc8:	80 00 40    	add.w     w0, w0, w1
    4fca:	00 85 29    	mov.w     #0x9850, w0
    4fcc:	00 80 40    	add.w     w1, w0, w0
    4fce:	90 01 78    	mov.w     [w0], w3
    4fd0:	82 00 41    	add.w     w2, w2, w1
    4fd2:	80 53 21    	mov.w     #0x1538, w0
    4fd4:	00 80 40    	add.w     w1, w0, w0
    4fd6:	03 08 78    	mov.w     w3, [w0]
    4fd8:	1e 0f e8    	inc.w     [w14], [w14]

00004fda <.L30>:
    4fda:	60 b8 80    	mov.w     0x170c, w0
    4fdc:	9e 0f 10    	subr.w    w0, [w14], [w15]
    4fde:	f2 ff 34    	bra       LE, 0x4fc4 <.L31>
    4fe0:	00 00 eb    	clr.w     w0
    4fe2:	05 07 07    	rcall     0x5dee <_I2C_Start>
    4fe4:	86 00 37    	bra       0x50f2 <.L56>

00004fe6 <.L18>:
    4fe6:	0a 00 fc    	disi      #0xa
    4fe8:	60 d9 80    	mov.w     0x1b2c, w0
    4fea:	61 00 60    	and.w     w0, #0x1, w0
    4fec:	00 00 e0    	cp0.w     w0
    4fee:	81 00 3a    	bra       NZ, 0x50f2 <.L56>
    4ff0:	67 ff 07    	rcall     0x4ec0 <_magSetupRead>
    4ff2:	00 80 eb    	setm.w    w0
    4ff4:	fc 06 07    	rcall     0x5dee <_I2C_Start>
    4ff6:	7d 00 37    	bra       0x50f2 <.L56>

00004ff8 <.L19>:
    4ff8:	20 b0 80    	mov.w     0x1604, w0
    4ffa:	00 00 e8    	inc.w     w0, w0
    4ffc:	20 b0 88    	mov.w     w0, 0x1604
    4ffe:	79 00 37    	bra       0x50f2 <.L56>

00005000 <.L20>:
    5000:	0a 00 fc    	disi      #0xa
    5002:	60 d9 80    	mov.w     0x1b2c, w0
    5004:	61 00 60    	and.w     w0, #0x1, w0
    5006:	00 00 e0    	cp0.w     w0
    5008:	74 00 3a    	bra       NZ, 0x50f2 <.L56>
    500a:	71 b8 80    	mov.w     0x170e, w1
    500c:	30 06 20    	mov.w     #0x63, w0
    500e:	80 8f 50    	sub.w     w1, w0, [w15]
    5010:	38 00 3c    	bra       GT, 0x5082 <.L37>
    5012:	70 b8 80    	mov.w     0x170e, w0
    5014:	61 00 60    	and.w     w0, #0x1, w0
    5016:	00 04 e0    	cp0.b     w0
    5018:	19 00 32    	bra       Z, 0x504c <.L39>
    501a:	2c 1b a8    	bset.b    0x1b2c, #0x0
    501c:	83 5b 21    	mov.w     #0x15b8, w3
    501e:	40 5f 21    	mov.w     #0x15f4, w0
    5020:	0e 00 09    	repeat    #0xe
    5022:	b0 19 78    	mov.w     [w0++], [w3++]
    5024:	60 00 20    	mov.w     #0x6, w0
    5026:	60 b8 88    	mov.w     w0, 0x170c
    5028:	00 00 eb    	clr.w     w0
    502a:	00 0f 78    	mov.w     w0, [w14]
    502c:	0b 00 37    	bra       0x5044 <.L41>

0000502e <.L42>:
    502e:	1e 01 78    	mov.w     [w14], w2
    5030:	1e 00 78    	mov.w     [w14], w0
    5032:	80 00 40    	add.w     w0, w0, w1
    5034:	20 84 29    	mov.w     #0x9842, w0
    5036:	00 80 40    	add.w     w1, w0, w0
    5038:	90 01 78    	mov.w     [w0], w3
    503a:	82 00 41    	add.w     w2, w2, w1
    503c:	80 53 21    	mov.w     #0x1538, w0
    503e:	00 80 40    	add.w     w1, w0, w0
    5040:	03 08 78    	mov.w     w3, [w0]
    5042:	1e 0f e8    	inc.w     [w14], [w14]

00005044 <.L41>:
    5044:	60 b8 80    	mov.w     0x170c, w0
    5046:	9e 0f 10    	subr.w    w0, [w14], [w15]
    5048:	f2 ff 34    	bra       LE, 0x502e <.L42>
    504a:	18 00 37    	bra       0x507c <.L44>

0000504c <.L39>:
    504c:	2c 1b a8    	bset.b    0x1b2c, #0x0
    504e:	81 5b 21    	mov.w     #0x15b8, w1
    5050:	42 5f 21    	mov.w     #0x15f4, w2
    5052:	0e 00 09    	repeat    #0xe
    5054:	b2 18 78    	mov.w     [w2++], [w1++]
    5056:	60 00 20    	mov.w     #0x6, w0
    5058:	60 b8 88    	mov.w     w0, 0x170c
    505a:	00 00 eb    	clr.w     w0
    505c:	00 0f 78    	mov.w     w0, [w14]
    505e:	0b 00 37    	bra       0x5076 <.L45>

00005060 <.L46>:
    5060:	1e 01 78    	mov.w     [w14], w2
    5062:	1e 00 78    	mov.w     [w14], w0
    5064:	80 00 40    	add.w     w0, w0, w1
    5066:	40 83 29    	mov.w     #0x9834, w0
    5068:	00 80 40    	add.w     w1, w0, w0
    506a:	90 01 78    	mov.w     [w0], w3
    506c:	82 00 41    	add.w     w2, w2, w1
    506e:	80 53 21    	mov.w     #0x1538, w0
    5070:	00 80 40    	add.w     w1, w0, w0
    5072:	03 08 78    	mov.w     w3, [w0]
    5074:	1e 0f e8    	inc.w     [w14], [w14]

00005076 <.L45>:
    5076:	60 b8 80    	mov.w     0x170c, w0
    5078:	9e 0f 10    	subr.w    w0, [w14], [w15]
    507a:	f2 ff 34    	bra       LE, 0x5060 <.L46>

0000507c <.L44>:
    507c:	00 00 eb    	clr.w     w0
    507e:	b7 06 07    	rcall     0x5dee <_I2C_Start>
    5080:	03 00 37    	bra       0x5088 <.L47>

00005082 <.L37>:
    5082:	1e ff 07    	rcall     0x4ec0 <_magSetupRead>
    5084:	00 80 eb    	setm.w    w0
    5086:	b3 06 07    	rcall     0x5dee <_I2C_Start>

00005088 <.L47>:
    5088:	70 b8 80    	mov.w     0x170e, w0
    508a:	00 00 e8    	inc.w     w0, w0
    508c:	70 b8 88    	mov.w     w0, 0x170e
    508e:	31 00 37    	bra       0x50f2 <.L56>

00005090 <.L21>:
    5090:	0a 00 fc    	disi      #0xa
    5092:	60 d9 80    	mov.w     0x1b2c, w0
    5094:	61 00 60    	and.w     w0, #0x1, w0
    5096:	00 00 e0    	cp0.w     w0
    5098:	2c 00 3a    	bra       NZ, 0x50f2 <.L56>
    509a:	12 ff 07    	rcall     0x4ec0 <_magSetupRead>
    509c:	00 80 eb    	setm.w    w0
    509e:	a7 06 07    	rcall     0x5dee <_I2C_Start>
    50a0:	28 00 37    	bra       0x50f2 <.L56>

000050a2 <.L23>:
    50a2:	0a 00 fc    	disi      #0xa
    50a4:	60 d9 80    	mov.w     0x1b2c, w0
    50a6:	61 00 60    	and.w     w0, #0x1, w0
    50a8:	00 00 e0    	cp0.w     w0
    50aa:	23 00 3a    	bra       NZ, 0x50f2 <.L56>
    50ac:	2c 1b a8    	bset.b    0x1b2c, #0x0
    50ae:	83 5b 21    	mov.w     #0x15b8, w3
    50b0:	40 5f 21    	mov.w     #0x15f4, w0
    50b2:	0e 00 09    	repeat    #0xe
    50b4:	b0 19 78    	mov.w     [w0++], [w3++]
    50b6:	60 00 20    	mov.w     #0x6, w0
    50b8:	60 b8 88    	mov.w     w0, 0x170c
    50ba:	00 00 eb    	clr.w     w0
    50bc:	00 0f 78    	mov.w     w0, [w14]
    50be:	0b 00 37    	bra       0x50d6 <.L52>

000050c0 <.L53>:
    50c0:	1e 01 78    	mov.w     [w14], w2
    50c2:	1e 00 78    	mov.w     [w14], w0
    50c4:	80 00 40    	add.w     w0, w0, w1
    50c6:	e0 85 29    	mov.w     #0x985e, w0
    50c8:	00 80 40    	add.w     w1, w0, w0
    50ca:	90 01 78    	mov.w     [w0], w3
    50cc:	82 00 41    	add.w     w2, w2, w1
    50ce:	80 53 21    	mov.w     #0x1538, w0
    50d0:	00 80 40    	add.w     w1, w0, w0
    50d2:	03 08 78    	mov.w     w3, [w0]
    50d4:	1e 0f e8    	inc.w     [w14], [w14]

000050d6 <.L52>:
    50d6:	60 b8 80    	mov.w     0x170c, w0
    50d8:	9e 0f 10    	subr.w    w0, [w14], [w15]
    50da:	f2 ff 34    	bra       LE, 0x50c0 <.L53>
    50dc:	00 00 eb    	clr.w     w0
    50de:	87 06 07    	rcall     0x5dee <_I2C_Start>
    50e0:	08 00 37    	bra       0x50f2 <.L56>

000050e2 <.L24>:
    50e2:	0a 00 fc    	disi      #0xa
    50e4:	60 d9 80    	mov.w     0x1b2c, w0
    50e6:	61 00 60    	and.w     w0, #0x1, w0
    50e8:	00 00 e0    	cp0.w     w0
    50ea:	03 00 3a    	bra       NZ, 0x50f2 <.L56>
    50ec:	e9 fe 07    	rcall     0x4ec0 <_magSetupRead>
    50ee:	00 80 eb    	setm.w    w0
    50f0:	7e 06 07    	rcall     0x5dee <_I2C_Start>

000050f2 <.L56>:
    50f2:	00 80 fa    	ulnk      
    50f4:	00 00 06    	return    

000050f6 <_doneReadMagData>:
    50f6:	0c 00 fa    	lnk       #0xc
    50f8:	88 9f be    	mov.d     w8, [w15++]
    50fa:	fe da bf    	mov.b     0x1afe, WREG
    50fc:	00 80 fb    	ze        w0, w0
    50fe:	c8 00 dd    	sl.w      w0, #0x8, w1
    5100:	ff da bf    	mov.b     0x1aff, WREG
    5102:	00 80 fb    	ze        w0, w0
    5104:	80 80 40    	add.w     w1, w0, w1
    5106:	0e 80 e8    	inc2.w    w14, w0
    5108:	01 08 78    	mov.w     w1, [w0]
    510a:	00 db bf    	mov.b     0x1b00, WREG
    510c:	00 80 fb    	ze        w0, w0
    510e:	c8 00 dd    	sl.w      w0, #0x8, w1
    5110:	01 db bf    	mov.b     0x1b01, WREG
    5112:	00 80 fb    	ze        w0, w0
    5114:	80 80 40    	add.w     w1, w0, w1
    5116:	0e 80 e8    	inc2.w    w14, w0
    5118:	11 00 98    	mov.w     w1, [w0+2]
    511a:	02 db bf    	mov.b     0x1b02, WREG
    511c:	00 80 fb    	ze        w0, w0
    511e:	c8 00 dd    	sl.w      w0, #0x8, w1
    5120:	03 db bf    	mov.b     0x1b03, WREG
    5122:	00 80 fb    	ze        w0, w0
    5124:	80 80 40    	add.w     w1, w0, w1
    5126:	0e 80 e8    	inc2.w    w14, w0
    5128:	21 00 98    	mov.w     w1, [w0+4]
    512a:	20 b0 80    	mov.w     0x1604, w0
    512c:	50 07 98    	mov.w     w0, [w14+10]
    512e:	de 00 90    	mov.w     [w14+10], w1
    5130:	e8 8f 50    	sub.w     w1, #0x8, [w15]
    5132:	1d 01 32    	bra       Z, 0x536e <.L59>
    5134:	5e 01 90    	mov.w     [w14+10], w2
    5136:	e8 0f 51    	sub.w     w2, #0x8, [w15]
    5138:	55 01 35    	bra       LT, 0x53e4 <.L87>
    513a:	de 00 90    	mov.w     [w14+10], w1
    513c:	6b 80 50    	sub.w     w1, #0xb, w0
    513e:	e2 0f 50    	sub.w     w0, #0x2, [w15]
    5140:	51 01 3e    	bra       GTU, 0x53e4 <.L87>
    5142:	b0 00 20    	mov.w     #0xb, w0
    5144:	20 b0 88    	mov.w     w0, 0x1604
    5146:	0e 80 e8    	inc2.w    w14, w0
    5148:	90 00 78    	mov.w     [w0], w1
    514a:	10 64 80    	mov.w     0xc82, w0
    514c:	80 8f 50    	sub.w     w1, w0, [w15]
    514e:	1c 00 3a    	bra       NZ, 0x5188 <.L61>
    5150:	0e 80 e8    	inc2.w    w14, w0
    5152:	90 00 90    	mov.w     [w0+2], w1
    5154:	20 64 80    	mov.w     0xc84, w0
    5156:	80 8f 50    	sub.w     w1, w0, [w15]
    5158:	17 00 3a    	bra       NZ, 0x5188 <.L61>
    515a:	0e 80 e8    	inc2.w    w14, w0
    515c:	a0 00 90    	mov.w     [w0+4], w1
    515e:	30 64 80    	mov.w     0xc86, w0
    5160:	80 8f 50    	sub.w     w1, w0, [w15]
    5162:	12 00 3a    	bra       NZ, 0x5188 <.L61>
    5164:	0a d7 bf    	mov.b     0x170a, WREG
    5166:	10 4f 98    	mov.b     w0, [w14+9]
    5168:	80 40 eb    	clr.b     w1
    516a:	01 4f 98    	mov.b     w1, [w14+8]
    516c:	1e 49 90    	mov.b     [w14+9], w2
    516e:	e4 4f 51    	sub.b     w2, #0x4, [w15]
    5170:	02 00 36    	bra       LEU, 0x5176 <.L65>
    5172:	10 c0 b3    	mov.b     #0x1, w0
    5174:	00 4f 98    	mov.b     w0, [w14+8]

00005176 <.L65>:
    5176:	9e 48 90    	mov.b     [w14+9], w1
    5178:	01 40 e8    	inc.b     w1, w0
    517a:	0a f7 b7    	mov.b     WREG, 0x170a
    517c:	0e 49 90    	mov.b     [w14+8], w2
    517e:	02 04 e0    	cp0.b     w2
    5180:	05 00 32    	bra       Z, 0x518c <.L68>
    5182:	10 00 20    	mov.w     #0x1, w0
    5184:	20 b0 88    	mov.w     w0, 0x1604
    5186:	02 00 37    	bra       0x518c <.L68>

00005188 <.L61>:
    5188:	00 40 eb    	clr.b     w0
    518a:	0a f7 b7    	mov.b     WREG, 0x170a

0000518c <.L68>:
    518c:	2c 9b a9    	bclr.b    0x1b2c, #0x4
    518e:	41 64 80    	mov.w     0xc88, w1
    5190:	40 64 80    	mov.w     0xc88, w0
    5192:	82 00 20    	mov.w     #0x8, w2
    5194:	81 1f 78    	mov.w     w1, [w15++]
    5196:	11 00 09    	repeat    #0x11
    5198:	02 00 d8    	div.sw    w0, w2
    519a:	01 01 78    	mov.w     w1, w2
    519c:	cf 00 78    	mov.w     [--w15], w1
    519e:	80 80 50    	sub.w     w1, w0, w1
    51a0:	0e 80 e8    	inc2.w    w14, w0
    51a2:	10 00 78    	mov.w     [w0], w0
    51a4:	82 00 20    	mov.w     #0x8, w2
    51a6:	81 1f 78    	mov.w     w1, [w15++]
    51a8:	11 00 09    	repeat    #0x11
    51aa:	02 00 d8    	div.sw    w0, w2
    51ac:	01 01 78    	mov.w     w1, w2
    51ae:	cf 00 78    	mov.w     [--w15], w1
    51b0:	00 80 40    	add.w     w1, w0, w0
    51b2:	40 64 88    	mov.w     w0, 0xc88
    51b4:	51 64 80    	mov.w     0xc8a, w1
    51b6:	50 64 80    	mov.w     0xc8a, w0
    51b8:	82 00 20    	mov.w     #0x8, w2
    51ba:	81 1f 78    	mov.w     w1, [w15++]
    51bc:	11 00 09    	repeat    #0x11
    51be:	02 00 d8    	div.sw    w0, w2
    51c0:	01 01 78    	mov.w     w1, w2
    51c2:	cf 00 78    	mov.w     [--w15], w1
    51c4:	80 80 50    	sub.w     w1, w0, w1
    51c6:	0e 80 e8    	inc2.w    w14, w0
    51c8:	10 00 90    	mov.w     [w0+2], w0
    51ca:	82 00 20    	mov.w     #0x8, w2
    51cc:	81 1f 78    	mov.w     w1, [w15++]
    51ce:	11 00 09    	repeat    #0x11
    51d0:	02 00 d8    	div.sw    w0, w2
    51d2:	01 01 78    	mov.w     w1, w2
    51d4:	cf 00 78    	mov.w     [--w15], w1
    51d6:	00 80 40    	add.w     w1, w0, w0
    51d8:	50 64 88    	mov.w     w0, 0xc8a
    51da:	61 64 80    	mov.w     0xc8c, w1
    51dc:	60 64 80    	mov.w     0xc8c, w0
    51de:	82 00 20    	mov.w     #0x8, w2
    51e0:	81 1f 78    	mov.w     w1, [w15++]
    51e2:	11 00 09    	repeat    #0x11
    51e4:	02 00 d8    	div.sw    w0, w2
    51e6:	01 01 78    	mov.w     w1, w2
    51e8:	cf 00 78    	mov.w     [--w15], w1
    51ea:	80 80 50    	sub.w     w1, w0, w1
    51ec:	0e 80 e8    	inc2.w    w14, w0
    51ee:	20 00 90    	mov.w     [w0+4], w0
    51f0:	82 00 20    	mov.w     #0x8, w2
    51f2:	81 1f 78    	mov.w     w1, [w15++]
    51f4:	11 00 09    	repeat    #0x11
    51f6:	02 00 d8    	div.sw    w0, w2
    51f8:	01 01 78    	mov.w     w1, w2
    51fa:	cf 00 78    	mov.w     [--w15], w1
    51fc:	00 80 40    	add.w     w1, w0, w0
    51fe:	60 64 88    	mov.w     w0, 0xc8c
    5200:	0e 80 e8    	inc2.w    w14, w0
    5202:	10 00 78    	mov.w     [w0], w0
    5204:	10 64 88    	mov.w     w0, 0xc82
    5206:	0e 80 e8    	inc2.w    w14, w0
    5208:	10 00 90    	mov.w     [w0+2], w0
    520a:	20 64 88    	mov.w     w0, 0xc84
    520c:	0e 80 e8    	inc2.w    w14, w0
    520e:	20 00 90    	mov.w     [w0+4], w0
    5210:	30 64 88    	mov.w     w0, 0xc86
    5212:	10 d7 bf    	mov.b     0x1710, WREG
    5214:	00 04 e0    	cp0.b     w0
    5216:	41 00 32    	bra       Z, 0x529a <.L69>
    5218:	90 b8 80    	mov.w     0x1712, w0
    521a:	61 04 b9    	mul.su    w0, #0x1, w8
    521c:	c0 63 80    	mov.w     0xc78, w0
    521e:	80 00 78    	mov.w     w0, w1
    5220:	0e 80 e8    	inc2.w    w14, w0
    5222:	10 00 90    	mov.w     [w0+2], w0
    5224:	01 00 b9    	mul.su    w0, w1, w0
    5226:	ce 8b de    	asr.w     w1, #0xe, w7
    5228:	42 09 dd    	sl.w      w1, #0x2, w2
    522a:	4e 03 de    	lsr.w     w0, #0xe, w6
    522c:	06 03 71    	ior.w     w2, w6, w6
    522e:	88 00 78    	mov.w     w8, w1
    5230:	06 00 78    	mov.w     w6, w0
    5232:	00 0a b8    	mul.uu    w1, w0, w4
    5234:	07 c0 b9    	mul.ss    w8, w7, w0
    5236:	05 01 78    	mov.w     w5, w2
    5238:	00 01 41    	add.w     w2, w0, w2
    523a:	09 b0 b9    	mul.ss    w6, w9, w0
    523c:	00 01 41    	add.w     w2, w0, w2
    523e:	82 02 78    	mov.w     w2, w5
    5240:	84 00 78    	mov.w     w4, w1
    5242:	80 63 80    	mov.w     0xc70, w0
    5244:	00 80 d1    	asr.w     w0, w0
    5246:	00 80 50    	sub.w     w1, w0, w0
    5248:	20 63 88    	mov.w     w0, 0xc64
    524a:	90 b8 80    	mov.w     0x1712, w0
    524c:	61 04 b9    	mul.su    w0, #0x1, w8
    524e:	b0 63 80    	mov.w     0xc76, w0
    5250:	80 00 78    	mov.w     w0, w1
    5252:	0e 80 e8    	inc2.w    w14, w0
    5254:	10 00 78    	mov.w     [w0], w0
    5256:	01 00 b9    	mul.su    w0, w1, w0
    5258:	ce 8b de    	asr.w     w1, #0xe, w7
    525a:	42 09 dd    	sl.w      w1, #0x2, w2
    525c:	4e 03 de    	lsr.w     w0, #0xe, w6
    525e:	06 03 71    	ior.w     w2, w6, w6
    5260:	88 00 78    	mov.w     w8, w1
    5262:	06 00 78    	mov.w     w6, w0
    5264:	00 0a b8    	mul.uu    w1, w0, w4
    5266:	07 c0 b9    	mul.ss    w8, w7, w0
    5268:	05 01 78    	mov.w     w5, w2
    526a:	00 01 41    	add.w     w2, w0, w2
    526c:	09 b0 b9    	mul.ss    w6, w9, w0
    526e:	00 01 41    	add.w     w2, w0, w2
    5270:	82 02 78    	mov.w     w2, w5
    5272:	84 00 78    	mov.w     w4, w1
    5274:	90 63 80    	mov.w     0xc72, w0
    5276:	00 80 d1    	asr.w     w0, w0
    5278:	00 80 50    	sub.w     w1, w0, w0
    527a:	30 63 88    	mov.w     w0, 0xc66
    527c:	d0 63 80    	mov.w     0xc7a, w0
    527e:	80 00 78    	mov.w     w0, w1
    5280:	0e 80 e8    	inc2.w    w14, w0
    5282:	20 00 90    	mov.w     [w0+4], w0
    5284:	01 00 b9    	mul.su    w0, w1, w0
    5286:	42 09 dd    	sl.w      w1, #0x2, w2
    5288:	4e 00 de    	lsr.w     w0, #0xe, w0
    528a:	00 00 71    	ior.w     w2, w0, w0
    528c:	ce 88 de    	asr.w     w1, #0xe, w1
    528e:	80 00 ea    	neg.w     w0, w1
    5290:	a0 63 80    	mov.w     0xc74, w0
    5292:	00 80 d1    	asr.w     w0, w0
    5294:	00 80 50    	sub.w     w1, w0, w0
    5296:	40 63 88    	mov.w     w0, 0xc68
    5298:	40 00 37    	bra       0x531a <.L71>

0000529a <.L69>:
    529a:	90 b8 80    	mov.w     0x1712, w0
    529c:	61 04 b9    	mul.su    w0, #0x1, w8
    529e:	b0 63 80    	mov.w     0xc76, w0
    52a0:	80 00 78    	mov.w     w0, w1
    52a2:	0e 80 e8    	inc2.w    w14, w0
    52a4:	10 00 78    	mov.w     [w0], w0
    52a6:	01 00 b9    	mul.su    w0, w1, w0
    52a8:	ce 8b de    	asr.w     w1, #0xe, w7
    52aa:	42 09 dd    	sl.w      w1, #0x2, w2
    52ac:	4e 03 de    	lsr.w     w0, #0xe, w6
    52ae:	06 03 71    	ior.w     w2, w6, w6
    52b0:	88 00 78    	mov.w     w8, w1
    52b2:	06 00 78    	mov.w     w6, w0
    52b4:	00 0a b8    	mul.uu    w1, w0, w4
    52b6:	07 c0 b9    	mul.ss    w8, w7, w0
    52b8:	05 01 78    	mov.w     w5, w2
    52ba:	00 01 41    	add.w     w2, w0, w2
    52bc:	09 b0 b9    	mul.ss    w6, w9, w0
    52be:	00 01 41    	add.w     w2, w0, w2
    52c0:	82 02 78    	mov.w     w2, w5
    52c2:	84 00 78    	mov.w     w4, w1
    52c4:	80 63 80    	mov.w     0xc70, w0
    52c6:	00 80 d1    	asr.w     w0, w0
    52c8:	00 80 50    	sub.w     w1, w0, w0
    52ca:	20 63 88    	mov.w     w0, 0xc64
    52cc:	90 b8 80    	mov.w     0x1712, w0
    52ce:	61 04 b9    	mul.su    w0, #0x1, w8
    52d0:	c0 63 80    	mov.w     0xc78, w0
    52d2:	80 00 78    	mov.w     w0, w1
    52d4:	0e 80 e8    	inc2.w    w14, w0
    52d6:	10 00 90    	mov.w     [w0+2], w0
    52d8:	01 00 b9    	mul.su    w0, w1, w0
    52da:	ce 8b de    	asr.w     w1, #0xe, w7
    52dc:	42 09 dd    	sl.w      w1, #0x2, w2
    52de:	4e 03 de    	lsr.w     w0, #0xe, w6
    52e0:	06 03 71    	ior.w     w2, w6, w6
    52e2:	88 00 78    	mov.w     w8, w1
    52e4:	06 00 78    	mov.w     w6, w0
    52e6:	00 0a b8    	mul.uu    w1, w0, w4
    52e8:	07 c0 b9    	mul.ss    w8, w7, w0
    52ea:	05 01 78    	mov.w     w5, w2
    52ec:	00 01 41    	add.w     w2, w0, w2
    52ee:	09 b0 b9    	mul.ss    w6, w9, w0
    52f0:	00 01 41    	add.w     w2, w0, w2
    52f2:	82 02 78    	mov.w     w2, w5
    52f4:	84 00 78    	mov.w     w4, w1
    52f6:	90 63 80    	mov.w     0xc72, w0
    52f8:	00 80 d1    	asr.w     w0, w0
    52fa:	00 80 50    	sub.w     w1, w0, w0
    52fc:	30 63 88    	mov.w     w0, 0xc66
    52fe:	d0 63 80    	mov.w     0xc7a, w0
    5300:	80 00 78    	mov.w     w0, w1
    5302:	0e 80 e8    	inc2.w    w14, w0
    5304:	20 00 90    	mov.w     [w0+4], w0
    5306:	01 00 b9    	mul.su    w0, w1, w0
    5308:	42 09 dd    	sl.w      w1, #0x2, w2
    530a:	4e 00 de    	lsr.w     w0, #0xe, w0
    530c:	00 00 71    	ior.w     w2, w0, w0
    530e:	ce 88 de    	asr.w     w1, #0xe, w1
    5310:	80 00 ea    	neg.w     w0, w1
    5312:	a0 63 80    	mov.w     0xc74, w0
    5314:	00 80 d1    	asr.w     w0, w0
    5316:	00 80 50    	sub.w     w1, w0, w0
    5318:	40 63 88    	mov.w     w0, 0xc68

0000531a <.L71>:
    531a:	20 63 80    	mov.w     0xc64, w0
    531c:	e0 73 88    	mov.w     w0, 0xe7c
    531e:	e0 73 80    	mov.w     0xe7c, w0
    5320:	d0 72 88    	mov.w     w0, 0xe5a
    5322:	30 63 80    	mov.w     0xc66, w0
    5324:	f0 73 88    	mov.w     w0, 0xe7e
    5326:	f0 73 80    	mov.w     0xe7e, w0
    5328:	e0 72 88    	mov.w     w0, 0xe5c
    532a:	40 63 80    	mov.w     0xc68, w0
    532c:	00 74 88    	mov.w     w0, 0xe80
    532e:	00 74 80    	mov.w     0xe80, w0
    5330:	f0 72 88    	mov.w     w0, 0xe5e
    5332:	11 64 80    	mov.w     0xc82, w1
    5334:	90 c1 2f    	mov.w     #0xfc19, w0
    5336:	80 8f 50    	sub.w     w1, w0, [w15]
    5338:	16 00 35    	bra       LT, 0x5366 <.L72>
    533a:	11 64 80    	mov.w     0xc82, w1
    533c:	70 3e 20    	mov.w     #0x3e7, w0
    533e:	80 8f 50    	sub.w     w1, w0, [w15]
    5340:	12 00 3c    	bra       GT, 0x5366 <.L72>
    5342:	21 64 80    	mov.w     0xc84, w1
    5344:	90 c1 2f    	mov.w     #0xfc19, w0
    5346:	80 8f 50    	sub.w     w1, w0, [w15]
    5348:	0e 00 35    	bra       LT, 0x5366 <.L72>
    534a:	21 64 80    	mov.w     0xc84, w1
    534c:	70 3e 20    	mov.w     #0x3e7, w0
    534e:	80 8f 50    	sub.w     w1, w0, [w15]
    5350:	0a 00 3c    	bra       GT, 0x5366 <.L72>
    5352:	31 64 80    	mov.w     0xc86, w1
    5354:	90 c1 2f    	mov.w     #0xfc19, w0
    5356:	80 8f 50    	sub.w     w1, w0, [w15]
    5358:	06 00 35    	bra       LT, 0x5366 <.L72>
    535a:	31 64 80    	mov.w     0xc86, w1
    535c:	70 3e 20    	mov.w     #0x3e7, w0
    535e:	80 8f 50    	sub.w     w1, w0, [w15]
    5360:	02 00 3c    	bra       GT, 0x5366 <.L72>
    5362:	6d 2a 07    	rcall     0xa83e <_udb_magnetometer_callback_data_available>
    5364:	3f 00 37    	bra       0x53e4 <.L87>

00005366 <.L72>:
    5366:	10 00 20    	mov.w     #0x1, w0
    5368:	20 b0 88    	mov.w     w0, 0x1604
    536a:	96 80 a9    	bclr.b    0x96, #0x4
    536c:	3b 00 37    	bra       0x53e4 <.L87>

0000536e <.L59>:
    536e:	00 00 eb    	clr.w     w0
    5370:	00 0f 78    	mov.w     w0, [w14]
    5372:	32 00 37    	bra       0x53d8 <.L80>

00005374 <.L81>:
    5374:	1e 01 78    	mov.w     [w14], w2
    5376:	1e 00 78    	mov.w     [w14], w0
    5378:	8e 80 e8    	inc2.w    w14, w1
    537a:	00 00 40    	add.w     w0, w0, w0
    537c:	e0 81 78    	mov.w     [w0+w1], w3
    537e:	82 00 41    	add.w     w2, w2, w1
    5380:	c0 c7 20    	mov.w     #0xc7c, w0
    5382:	00 80 40    	add.w     w1, w0, w0
    5384:	03 08 78    	mov.w     w3, [w0]
    5386:	1e 00 78    	mov.w     [w14], w0
    5388:	8e 80 e8    	inc2.w    w14, w1
    538a:	00 00 40    	add.w     w0, w0, w0
    538c:	e0 80 78    	mov.w     [w0+w1], w1
    538e:	40 06 20    	mov.w     #0x64, w0
    5390:	80 8f 50    	sub.w     w1, w0, [w15]
    5392:	19 00 34    	bra       LE, 0x53c6 <.L82>
    5394:	1e 00 78    	mov.w     [w14], w0
    5396:	8e 80 e8    	inc2.w    w14, w1
    5398:	00 00 40    	add.w     w0, w0, w0
    539a:	e0 80 78    	mov.w     [w0+w1], w1
    539c:	70 3e 20    	mov.w     #0x3e7, w0
    539e:	80 8f 50    	sub.w     w1, w0, [w15]
    53a0:	12 00 3c    	bra       GT, 0x53c6 <.L82>
    53a2:	9e 01 78    	mov.w     [w14], w3
    53a4:	1e 00 78    	mov.w     [w14], w0
    53a6:	8e 80 e8    	inc2.w    w14, w1
    53a8:	00 00 40    	add.w     w0, w0, w0
    53aa:	60 80 78    	mov.w     [w0+w1], w0
    53ac:	00 01 78    	mov.w     w0, w2
    53ae:	00 00 20    	mov.w     #0x0, w0
    53b0:	f1 0a 20    	mov.w     #0xaf, w1
    53b2:	81 1f 78    	mov.w     w1, [w15++]
    53b4:	11 00 09    	repeat    #0x11
    53b6:	42 88 d8    	div.ud    w0, w2
    53b8:	cf 00 78    	mov.w     [--w15], w1
    53ba:	00 01 78    	mov.w     w0, w2
    53bc:	83 80 41    	add.w     w3, w3, w1
    53be:	60 c7 20    	mov.w     #0xc76, w0
    53c0:	00 80 40    	add.w     w1, w0, w0
    53c2:	02 08 78    	mov.w     w2, [w0]
    53c4:	08 00 37    	bra       0x53d6 <.L85>

000053c6 <.L82>:
    53c6:	1e 00 78    	mov.w     [w14], w0
    53c8:	80 00 40    	add.w     w0, w0, w1
    53ca:	60 c7 20    	mov.w     #0xc76, w0
    53cc:	80 80 40    	add.w     w1, w0, w1
    53ce:	00 00 24    	mov.w     #0x4000, w0
    53d0:	80 08 78    	mov.w     w0, [w1]
    53d2:	10 00 20    	mov.w     #0x1, w0
    53d4:	20 b0 88    	mov.w     w0, 0x1604

000053d6 <.L85>:
    53d6:	1e 0f e8    	inc.w     [w14], [w14]

000053d8 <.L80>:
    53d8:	20 00 20    	mov.w     #0x2, w0
    53da:	9e 0f 10    	subr.w    w0, [w14], [w15]
    53dc:	cb ff 34    	bra       LE, 0x5374 <.L81>
    53de:	20 b0 80    	mov.w     0x1604, w0
    53e0:	00 00 e8    	inc.w     w0, w0
    53e2:	20 b0 88    	mov.w     w0, 0x1604

000053e4 <.L87>:
    53e4:	4f 04 be    	mov.d     [--w15], w8
    53e6:	00 80 fa    	ulnk      
    53e8:	00 00 06    	return    

000053ea <__INT1Interrupt>:
    53ea:	36 00 f8    	push      0x36
    53ec:	80 9f be    	mov.d     w0, [w15++]
    53ee:	82 9f be    	mov.d     w2, [w15++]
    53f0:	84 9f be    	mov.d     w4, [w15++]
    53f2:	86 9f be    	mov.d     w6, [w15++]
    53f4:	00 00 fa    	lnk       #0x0
    53f6:	21 e1 a8    	bset.b    0x121, #0x7
    53f8:	96 80 a9    	bclr.b    0x96, #0x4
    53fa:	20 b0 80    	mov.w     0x1604, w0
    53fc:	ea 0f 50    	sub.w     w0, #0xa, [w15]
    53fe:	0b 00 34    	bra       LE, 0x5416 <.L94>
    5400:	c3 c2 bf    	mov.b     0x2c3, WREG
    5402:	70 40 60    	and.b     w0, #0x10, w0
    5404:	00 04 e0    	cp0.b     w0
    5406:	07 00 32    	bra       Z, 0x5416 <.L94>
    5408:	60 d9 80    	mov.w     0x1b2c, w0
    540a:	61 00 60    	and.w     w0, #0x1, w0
    540c:	00 00 e0    	cp0.w     w0
    540e:	02 00 32    	bra       Z, 0x5414 <.L92>
    5410:	2c 5b a8    	bset.b    0x1b2c, #0x2
    5412:	01 00 37    	bra       0x5416 <.L94>

00005414 <.L92>:
    5414:	6f fd 07    	rcall     0x4ef4 <_rxMagnetometer>

00005416 <.L94>:
    5416:	00 80 fa    	ulnk      
    5418:	4f 03 be    	mov.d     [--w15], w6
    541a:	4f 02 be    	mov.d     [--w15], w4
    541c:	4f 01 be    	mov.d     [--w15], w2
    541e:	4f 00 be    	mov.d     [--w15], w0
    5420:	36 00 f9    	pop       0x36
    5422:	00 40 06    	retfie    

00005424 <_accSetupRead>:
    5424:	00 00 fa    	lnk       #0x0
    5426:	2c 1b a8    	bset.b    0x1b2c, #0x0
    5428:	2c bb a8    	bset.b    0x1b2c, #0x5
    542a:	2c 7b a9    	bclr.b    0x1b2c, #0x3
    542c:	80 5b 21    	mov.w     #0x15b8, w0
    542e:	21 61 21    	mov.w     #0x1612, w1
    5430:	0e 00 09    	repeat    #0xe
    5432:	31 18 78    	mov.w     [w1++], [w0++]
    5434:	40 00 20    	mov.w     #0x4, w0
    5436:	00 ba 88    	mov.w     w0, 0x1740
    5438:	00 00 eb    	clr.w     w0
    543a:	e0 ad 88    	mov.w     w0, 0x15bc
    543c:	00 00 eb    	clr.w     w0
    543e:	30 ae 88    	mov.w     w0, 0x15c6
    5440:	00 00 eb    	clr.w     w0
    5442:	20 ae 88    	mov.w     w0, 0x15c4
    5444:	00 00 eb    	clr.w     w0
    5446:	90 ae 88    	mov.w     w0, 0x15d2
    5448:	90 ae 80    	mov.w     0x15d2, w0
    544a:	80 ae 88    	mov.w     w0, 0x15d0
    544c:	80 ae 80    	mov.w     0x15d0, w0
    544e:	70 ae 88    	mov.w     w0, 0x15ce
    5450:	c0 02 20    	mov.w     #0x2c, w0
    5452:	d0 ad 88    	mov.w     w0, 0x15ba
    5454:	00 80 fa    	ulnk      
    5456:	00 00 06    	return    

00005458 <_rxAccel>:
    5458:	06 00 fa    	lnk       #0x6
    545a:	90 b0 80    	mov.w     0x1612, w0
    545c:	e2 0f 50    	sub.w     w0, #0x2, [w15]
    545e:	1f 00 32    	bra       Z, 0x549e <.L98>
    5460:	20 00 20    	mov.w     #0x2, w0
    5462:	90 b0 88    	mov.w     w0, 0x1612
    5464:	80 00 20    	mov.w     #0x8, w0
    5466:	10 b1 88    	mov.w     w0, 0x1622
    5468:	50 b0 21    	mov.w     #0x1b05, w0
    546a:	30 b1 88    	mov.w     w0, 0x1626
    546c:	60 60 25    	mov.w     #0x5606, w0
    546e:	80 b9 88    	mov.w     w0, 0x1730
    5470:	70 00 20    	mov.w     #0x7, w0
    5472:	b0 b0 88    	mov.w     w0, 0x1616
    5474:	70 00 20    	mov.w     #0x7, w0
    5476:	b0 b8 88    	mov.w     w0, 0x1716
    5478:	00 00 eb    	clr.w     w0
    547a:	00 0f 78    	mov.w     w0, [w14]
    547c:	0d 00 37    	bra       0x5498 <.L100>

0000547e <.L101>:
    547e:	1e 00 78    	mov.w     [w14], w0
    5480:	c2 02 20    	mov.w     #0x2c, w2
    5482:	00 01 41    	add.w     w2, w0, w2
    5484:	1e 00 78    	mov.w     [w14], w0
    5486:	80 00 40    	add.w     w0, w0, w1
    5488:	c0 86 29    	mov.w     #0x986c, w0
    548a:	00 80 40    	add.w     w1, w0, w0
    548c:	90 01 78    	mov.w     [w0], w3
    548e:	82 00 41    	add.w     w2, w2, w1
    5490:	80 53 21    	mov.w     #0x1538, w0
    5492:	00 80 40    	add.w     w1, w0, w0
    5494:	03 08 78    	mov.w     w3, [w0]
    5496:	1e 0f e8    	inc.w     [w14], [w14]

00005498 <.L100>:
    5498:	b0 b8 80    	mov.w     0x1716, w0
    549a:	9e 0f 10    	subr.w    w0, [w14], [w15]
    549c:	f0 ff 34    	bra       LE, 0x547e <.L101>

0000549e <.L98>:
    549e:	b0 b0 80    	mov.w     0x1616, w0
    54a0:	e7 0f 50    	sub.w     w0, #0x7, [w15]
    54a2:	0a 00 32    	bra       Z, 0x54b8 <.L102>
    54a4:	40 b1 80    	mov.w     0x1628, w0
    54a6:	00 00 e0    	cp0.w     w0
    54a8:	07 00 3a    	bra       NZ, 0x54b8 <.L102>
    54aa:	a1 b0 80    	mov.w     0x1614, w1
    54ac:	b0 b8 80    	mov.w     0x1716, w0
    54ae:	80 8f 50    	sub.w     w1, w0, [w15]
    54b0:	03 00 32    	bra       Z, 0x54b8 <.L102>
    54b2:	00 ba 80    	mov.w     0x1740, w0
    54b4:	00 00 e0    	cp0.w     w0
    54b6:	a5 00 3a    	bra       NZ, 0x5602 <.L142>

000054b8 <.L102>:
    54b8:	10 b1 80    	mov.w     0x1622, w0
    54ba:	e8 0f 50    	sub.w     w0, #0x8, [w15]
    54bc:	02 00 34    	bra       LE, 0x54c2 <.L107>
    54be:	90 00 20    	mov.w     #0x9, w0
    54c0:	10 b1 88    	mov.w     w0, 0x1622

000054c2 <.L107>:
    54c2:	10 b1 80    	mov.w     0x1622, w0
    54c4:	61 01 b9    	mul.su    w0, #0x1, w2
    54c6:	12 07 98    	mov.w     w2, [w14+2]
    54c8:	23 07 98    	mov.w     w3, [w14+4]
    54ca:	b0 00 20    	mov.w     #0xb, w0
    54cc:	01 00 20    	mov.w     #0x0, w1
    54ce:	1e 01 90    	mov.w     [w14+2], w2
    54d0:	ae 01 90    	mov.w     [w14+4], w3
    54d2:	80 0f 51    	sub.w     w2, w0, [w15]
    54d4:	81 8f 59    	subb.w    w3, w1, [w15]
    54d6:	95 00 3e    	bra       GTU, 0x5602 <.L142>
    54d8:	1e 00 90    	mov.w     [w14+2], w0
    54da:	ae 00 90    	mov.w     [w14+4], w1
    54dc:	00 60 01    	bra       w0
    54de:	91 00 37    	bra       0x5602 <.L142>
    54e0:	0a 00 37    	bra       0x54f6 <.L110>
    54e2:	12 00 37    	bra       0x5508 <.L111>
    54e4:	31 00 37    	bra       0x5548 <.L112>
    54e6:	8d 00 37    	bra       0x5602 <.L142>
    54e8:	38 00 37    	bra       0x555a <.L113>
    54ea:	57 00 37    	bra       0x559a <.L114>
    54ec:	8a 00 37    	bra       0x5602 <.L142>
    54ee:	5e 00 37    	bra       0x55ac <.L116>
    54f0:	7e 00 37    	bra       0x55ee <.L117>
    54f2:	7d 00 37    	bra       0x55ee <.L117>
    54f4:	7c 00 37    	bra       0x55ee <.L117>

000054f6 <.L110>:
    54f6:	0a 00 fc    	disi      #0xa
    54f8:	60 d9 80    	mov.w     0x1b2c, w0
    54fa:	61 00 60    	and.w     w0, #0x1, w0
    54fc:	00 00 e0    	cp0.w     w0
    54fe:	81 00 3a    	bra       NZ, 0x5602 <.L142>
    5500:	91 ff 07    	rcall     0x5424 <_accSetupRead>
    5502:	00 80 eb    	setm.w    w0
    5504:	74 04 07    	rcall     0x5dee <_I2C_Start>
    5506:	7d 00 37    	bra       0x5602 <.L142>

00005508 <.L111>:
    5508:	0a 00 fc    	disi      #0xa
    550a:	60 d9 80    	mov.w     0x1b2c, w0
    550c:	61 00 60    	and.w     w0, #0x1, w0
    550e:	00 00 e0    	cp0.w     w0
    5510:	78 00 3a    	bra       NZ, 0x5602 <.L142>
    5512:	2c 1b a8    	bset.b    0x1b2c, #0x0
    5514:	81 5b 21    	mov.w     #0x15b8, w1
    5516:	22 61 21    	mov.w     #0x1612, w2
    5518:	0e 00 09    	repeat    #0xe
    551a:	b2 18 78    	mov.w     [w2++], [w1++]
    551c:	70 01 20    	mov.w     #0x17, w0
    551e:	b0 b8 88    	mov.w     w0, 0x1716
    5520:	00 00 eb    	clr.w     w0
    5522:	00 0f 78    	mov.w     w0, [w14]
    5524:	0b 00 37    	bra       0x553c <.L123>

00005526 <.L124>:
    5526:	1e 01 78    	mov.w     [w14], w2
    5528:	1e 00 78    	mov.w     [w14], w0
    552a:	80 00 40    	add.w     w0, w0, w1
    552c:	80 88 29    	mov.w     #0x9888, w0
    552e:	00 80 40    	add.w     w1, w0, w0
    5530:	90 01 78    	mov.w     [w0], w3
    5532:	82 00 41    	add.w     w2, w2, w1
    5534:	80 53 21    	mov.w     #0x1538, w0
    5536:	00 80 40    	add.w     w1, w0, w0
    5538:	03 08 78    	mov.w     w3, [w0]
    553a:	1e 0f e8    	inc.w     [w14], [w14]

0000553c <.L123>:
    553c:	b0 b8 80    	mov.w     0x1716, w0
    553e:	9e 0f 10    	subr.w    w0, [w14], [w15]
    5540:	f2 ff 34    	bra       LE, 0x5526 <.L124>
    5542:	00 00 eb    	clr.w     w0
    5544:	54 04 07    	rcall     0x5dee <_I2C_Start>
    5546:	5d 00 37    	bra       0x5602 <.L142>

00005548 <.L112>:
    5548:	0a 00 fc    	disi      #0xa
    554a:	60 d9 80    	mov.w     0x1b2c, w0
    554c:	61 00 60    	and.w     w0, #0x1, w0
    554e:	00 00 e0    	cp0.w     w0
    5550:	58 00 3a    	bra       NZ, 0x5602 <.L142>
    5552:	68 ff 07    	rcall     0x5424 <_accSetupRead>
    5554:	00 80 eb    	setm.w    w0
    5556:	4b 04 07    	rcall     0x5dee <_I2C_Start>
    5558:	54 00 37    	bra       0x5602 <.L142>

0000555a <.L113>:
    555a:	0a 00 fc    	disi      #0xa
    555c:	60 d9 80    	mov.w     0x1b2c, w0
    555e:	61 00 60    	and.w     w0, #0x1, w0
    5560:	00 00 e0    	cp0.w     w0
    5562:	4f 00 3a    	bra       NZ, 0x5602 <.L142>
    5564:	2c 1b a8    	bset.b    0x1b2c, #0x0
    5566:	83 5b 21    	mov.w     #0x15b8, w3
    5568:	20 61 21    	mov.w     #0x1612, w0
    556a:	0e 00 09    	repeat    #0xe
    556c:	b0 19 78    	mov.w     [w0++], [w3++]
    556e:	50 00 20    	mov.w     #0x5, w0
    5570:	b0 b8 88    	mov.w     w0, 0x1716
    5572:	00 00 eb    	clr.w     w0
    5574:	00 0f 78    	mov.w     w0, [w14]
    5576:	0b 00 37    	bra       0x558e <.L130>

00005578 <.L131>:
    5578:	1e 01 78    	mov.w     [w14], w2
    557a:	1e 00 78    	mov.w     [w14], w0
    557c:	80 00 40    	add.w     w0, w0, w1
    557e:	c0 87 29    	mov.w     #0x987c, w0
    5580:	00 80 40    	add.w     w1, w0, w0
    5582:	90 01 78    	mov.w     [w0], w3
    5584:	82 00 41    	add.w     w2, w2, w1
    5586:	80 53 21    	mov.w     #0x1538, w0
    5588:	00 80 40    	add.w     w1, w0, w0
    558a:	03 08 78    	mov.w     w3, [w0]
    558c:	1e 0f e8    	inc.w     [w14], [w14]

0000558e <.L130>:
    558e:	b0 b8 80    	mov.w     0x1716, w0
    5590:	9e 0f 10    	subr.w    w0, [w14], [w15]
    5592:	f2 ff 34    	bra       LE, 0x5578 <.L131>
    5594:	00 00 eb    	clr.w     w0
    5596:	2b 04 07    	rcall     0x5dee <_I2C_Start>
    5598:	34 00 37    	bra       0x5602 <.L142>

0000559a <.L114>:
    559a:	0a 00 fc    	disi      #0xa
    559c:	60 d9 80    	mov.w     0x1b2c, w0
    559e:	61 00 60    	and.w     w0, #0x1, w0
    55a0:	00 00 e0    	cp0.w     w0
    55a2:	2f 00 3a    	bra       NZ, 0x5602 <.L142>
    55a4:	3f ff 07    	rcall     0x5424 <_accSetupRead>
    55a6:	00 80 eb    	setm.w    w0
    55a8:	22 04 07    	rcall     0x5dee <_I2C_Start>
    55aa:	2b 00 37    	bra       0x5602 <.L142>

000055ac <.L116>:
    55ac:	0a 00 fc    	disi      #0xa
    55ae:	60 d9 80    	mov.w     0x1b2c, w0
    55b0:	61 00 60    	and.w     w0, #0x1, w0
    55b2:	00 00 e0    	cp0.w     w0
    55b4:	26 00 3a    	bra       NZ, 0x5602 <.L142>
    55b6:	2c 1b a8    	bset.b    0x1b2c, #0x0
    55b8:	81 5b 21    	mov.w     #0x15b8, w1
    55ba:	22 61 21    	mov.w     #0x1612, w2
    55bc:	0e 00 09    	repeat    #0xe
    55be:	b2 18 78    	mov.w     [w2++], [w1++]
    55c0:	70 01 20    	mov.w     #0x17, w0
    55c2:	b0 b8 88    	mov.w     w0, 0x1716
    55c4:	00 00 eb    	clr.w     w0
    55c6:	00 0f 78    	mov.w     w0, [w14]
    55c8:	0b 00 37    	bra       0x55e0 <.L137>

000055ca <.L138>:
    55ca:	1e 01 78    	mov.w     [w14], w2
    55cc:	1e 00 78    	mov.w     [w14], w0
    55ce:	80 00 40    	add.w     w0, w0, w1
    55d0:	80 8b 29    	mov.w     #0x98b8, w0
    55d2:	00 80 40    	add.w     w1, w0, w0
    55d4:	90 01 78    	mov.w     [w0], w3
    55d6:	82 00 41    	add.w     w2, w2, w1
    55d8:	80 53 21    	mov.w     #0x1538, w0
    55da:	00 80 40    	add.w     w1, w0, w0
    55dc:	03 08 78    	mov.w     w3, [w0]
    55de:	1e 0f e8    	inc.w     [w14], [w14]

000055e0 <.L137>:
    55e0:	b0 b8 80    	mov.w     0x1716, w0
    55e2:	9e 0f 10    	subr.w    w0, [w14], [w15]
    55e4:	f2 ff 34    	bra       LE, 0x55ca <.L138>
    55e6:	00 00 eb    	clr.w     w0
    55e8:	02 04 07    	rcall     0x5dee <_I2C_Start>
    55ea:	97 a0 a8    	bset.b    0x97, #0x5
    55ec:	0a 00 37    	bra       0x5602 <.L142>

000055ee <.L117>:
    55ee:	0a 00 fc    	disi      #0xa
    55f0:	60 d9 80    	mov.w     0x1b2c, w0
    55f2:	61 00 60    	and.w     w0, #0x1, w0
    55f4:	00 00 e0    	cp0.w     w0
    55f6:	04 00 3a    	bra       NZ, 0x5600 <.L140>
    55f8:	15 ff 07    	rcall     0x5424 <_accSetupRead>
    55fa:	00 80 eb    	setm.w    w0
    55fc:	f8 03 07    	rcall     0x5dee <_I2C_Start>
    55fe:	01 00 37    	bra       0x5602 <.L142>

00005600 <.L140>:
    5600:	2c bb a8    	bset.b    0x1b2c, #0x5

00005602 <.L142>:
    5602:	00 80 fa    	ulnk      
    5604:	00 00 06    	return    

00005606 <_doneReadAccData>:
    5606:	0a 00 fa    	lnk       #0xa
    5608:	06 db bf    	mov.b     0x1b06, WREG
    560a:	00 80 fb    	ze        w0, w0
    560c:	c8 00 dd    	sl.w      w0, #0x8, w1
    560e:	05 db bf    	mov.b     0x1b05, WREG
    5610:	00 80 fb    	ze        w0, w0
    5612:	00 80 40    	add.w     w1, w0, w0
    5614:	00 0f 78    	mov.w     w0, [w14]
    5616:	08 db bf    	mov.b     0x1b08, WREG
    5618:	00 80 fb    	ze        w0, w0
    561a:	c8 00 dd    	sl.w      w0, #0x8, w1
    561c:	07 db bf    	mov.b     0x1b07, WREG
    561e:	00 80 fb    	ze        w0, w0
    5620:	00 80 40    	add.w     w1, w0, w0
    5622:	10 07 98    	mov.w     w0, [w14+2]
    5624:	0a db bf    	mov.b     0x1b0a, WREG
    5626:	00 80 fb    	ze        w0, w0
    5628:	c8 00 dd    	sl.w      w0, #0x8, w1
    562a:	09 db bf    	mov.b     0x1b09, WREG
    562c:	00 80 fb    	ze        w0, w0
    562e:	00 80 40    	add.w     w1, w0, w0
    5630:	20 07 98    	mov.w     w0, [w14+4]
    5632:	10 b1 80    	mov.w     0x1622, w0
    5634:	e6 0f 50    	sub.w     w0, #0x6, [w15]
    5636:	1e 00 34    	bra       LE, 0x5674 <.L144>
    5638:	9e 00 78    	mov.w     [w14], w1
    563a:	c0 b8 80    	mov.w     0x1718, w0
    563c:	80 8f 50    	sub.w     w1, w0, [w15]
    563e:	1a 00 3a    	bra       NZ, 0x5674 <.L144>
    5640:	9e 00 90    	mov.w     [w14+2], w1
    5642:	d0 b8 80    	mov.w     0x171a, w0
    5644:	80 8f 50    	sub.w     w1, w0, [w15]
    5646:	16 00 3a    	bra       NZ, 0x5674 <.L144>
    5648:	ae 00 90    	mov.w     [w14+4], w1
    564a:	e0 b8 80    	mov.w     0x171c, w0
    564c:	80 8f 50    	sub.w     w1, w0, [w15]
    564e:	12 00 3a    	bra       NZ, 0x5674 <.L144>
    5650:	f0 b8 80    	mov.w     0x171e, w0
    5652:	40 07 98    	mov.w     w0, [w14+8]
    5654:	80 40 eb    	clr.b     w1
    5656:	61 47 98    	mov.b     w1, [w14+6]
    5658:	4e 00 90    	mov.w     [w14+8], w0
    565a:	e5 0f 50    	sub.w     w0, #0x5, [w15]
    565c:	02 00 34    	bra       LE, 0x5662 <.L149>
    565e:	11 c0 b3    	mov.b     #0x1, w1
    5660:	61 47 98    	mov.b     w1, [w14+6]

00005662 <.L149>:
    5662:	ce 00 90    	mov.w     [w14+8], w1
    5664:	01 00 e8    	inc.w     w1, w0
    5666:	f0 b8 88    	mov.w     w0, 0x171e
    5668:	6e 40 90    	mov.b     [w14+6], w0
    566a:	00 04 e0    	cp0.b     w0
    566c:	05 00 32    	bra       Z, 0x5678 <.L152>
    566e:	80 00 20    	mov.w     #0x8, w0
    5670:	10 b1 88    	mov.w     w0, 0x1622
    5672:	02 00 37    	bra       0x5678 <.L152>

00005674 <.L144>:
    5674:	00 00 eb    	clr.w     w0
    5676:	f0 b8 88    	mov.w     w0, 0x171e

00005678 <.L152>:
    5678:	1e 00 78    	mov.w     [w14], w0
    567a:	c0 b8 88    	mov.w     w0, 0x1718
    567c:	1e 00 90    	mov.w     [w14+2], w0
    567e:	d0 b8 88    	mov.w     w0, 0x171a
    5680:	2e 00 90    	mov.w     [w14+4], w0
    5682:	e0 b8 88    	mov.w     w0, 0x171c
    5684:	10 b1 80    	mov.w     0x1622, w0
    5686:	e8 0f 50    	sub.w     w0, #0x8, [w15]
    5688:	2a 00 34    	bra       LE, 0x56de <.L158>
    568a:	90 00 20    	mov.w     #0x9, w0
    568c:	10 b1 88    	mov.w     w0, 0x1622
    568e:	1e 00 78    	mov.w     [w14], w0
    5690:	b0 72 88    	mov.w     w0, 0xe56
    5692:	1e 00 90    	mov.w     [w14+2], w0
    5694:	a0 72 88    	mov.w     w0, 0xe54
    5696:	2e 00 90    	mov.w     [w14+4], w0
    5698:	c0 72 88    	mov.w     w0, 0xe58
    569a:	50 d4 80    	mov.w     0x1a8a, w0
    569c:	a2 72 80    	mov.w     0xe54, w2
    569e:	00 00 40    	add.w     w0, w0, w0
    56a0:	01 20 20    	mov.w     #0x200, w1
    56a2:	80 80 40    	add.w     w1, w0, w1
    56a4:	00 00 22    	mov.w     #0x2000, w0
    56a6:	00 80 40    	add.w     w1, w0, w0
    56a8:	02 08 78    	mov.w     w2, [w0]
    56aa:	50 d4 80    	mov.w     0x1a8a, w0
    56ac:	b2 72 80    	mov.w     0xe56, w2
    56ae:	00 00 40    	add.w     w0, w0, w0
    56b0:	01 28 20    	mov.w     #0x280, w1
    56b2:	80 80 40    	add.w     w1, w0, w1
    56b4:	00 00 22    	mov.w     #0x2000, w0
    56b6:	00 80 40    	add.w     w1, w0, w0
    56b8:	02 08 78    	mov.w     w2, [w0]
    56ba:	50 d4 80    	mov.w     0x1a8a, w0
    56bc:	c2 72 80    	mov.w     0xe58, w2
    56be:	00 00 40    	add.w     w0, w0, w0
    56c0:	01 30 20    	mov.w     #0x300, w1
    56c2:	80 80 40    	add.w     w1, w0, w1
    56c4:	00 00 22    	mov.w     #0x2000, w0
    56c6:	00 80 40    	add.w     w1, w0, w0
    56c8:	02 08 78    	mov.w     w2, [w0]
    56ca:	50 d4 80    	mov.w     0x1a8a, w0
    56cc:	00 00 e8    	inc.w     w0, w0
    56ce:	50 d4 88    	mov.w     w0, 0x1a8a
    56d0:	51 d4 80    	mov.w     0x1a8a, w1
    56d2:	00 04 20    	mov.w     #0x40, w0
    56d4:	80 8f 50    	sub.w     w1, w0, [w15]
    56d6:	02 00 34    	bra       LE, 0x56dc <.L155>
    56d8:	00 00 eb    	clr.w     w0
    56da:	50 d4 88    	mov.w     w0, 0x1a8a

000056dc <.L155>:
    56dc:	2c bb a9    	bclr.b    0x1b2c, #0x5

000056de <.L158>:
    56de:	00 80 fa    	ulnk      
    56e0:	00 00 06    	return    

000056e2 <__INT2Interrupt>:
    56e2:	36 00 f8    	push      0x36
    56e4:	80 9f be    	mov.d     w0, [w15++]
    56e6:	82 9f be    	mov.d     w2, [w15++]
    56e8:	84 9f be    	mov.d     w4, [w15++]
    56ea:	86 9f be    	mov.d     w6, [w15++]
    56ec:	00 00 fa    	lnk       #0x0
    56ee:	21 e1 a8    	bset.b    0x121, #0x7
    56f0:	87 a0 a9    	bclr.b    0x87, #0x5
    56f2:	2c 7b a8    	bset.b    0x1b2c, #0x3
    56f4:	0a 00 fc    	disi      #0xa
    56f6:	60 d9 80    	mov.w     0x1b2c, w0
    56f8:	61 00 60    	and.w     w0, #0x1, w0
    56fa:	00 00 e0    	cp0.w     w0
    56fc:	01 00 3a    	bra       NZ, 0x5700 <.L162>
    56fe:	ac fe 07    	rcall     0x5458 <_rxAccel>

00005700 <.L162>:
    5700:	00 80 fa    	ulnk      
    5702:	4f 03 be    	mov.d     [--w15], w6
    5704:	4f 02 be    	mov.d     [--w15], w4
    5706:	4f 01 be    	mov.d     [--w15], w2
    5708:	4f 00 be    	mov.d     [--w15], w0
    570a:	36 00 f9    	pop       0x36
    570c:	00 40 06    	retfie    

0000570e <_udb_init_I2C2>:
    570e:	04 00 fa    	lnk       #0x4
    5710:	17 e2 a9    	bclr.b    0x217, #0x7
    5712:	9a 20 a9    	bclr.b    0x9a, #0x1
    5714:	9a 40 a9    	bclr.b    0x9a, #0x2
    5716:	c0 62 a9    	bclr.b    0x2c0, #0x3
    5718:	c0 66 a8    	bset.b    0x6c0, #0x3
    571a:	c0 42 a9    	bclr.b    0x2c0, #0x2
    571c:	c0 46 a8    	bset.b    0x6c0, #0x2
    571e:	00 00 eb    	clr.w     w0
    5720:	b0 10 88    	mov.w     w0, 0x216
    5722:	c4 42 a9    	bclr.b    0x2c4, #0x2
    5724:	c4 c2 bf    	mov.b     0x2c4, WREG
    5726:	00 80 fb    	ze        w0, w0
    5728:	42 00 de    	lsr.w     w0, #0x2, w0
    572a:	61 40 60    	and.b     w0, #0x1, w0
    572c:	61 40 60    	and.b     w0, #0x1, w0
    572e:	43 01 dd    	sl.w      w0, #0x3, w2
    5730:	41 2c 20    	mov.w     #0x2c4, w1
    5732:	91 40 78    	mov.b     [w1], w1
    5734:	70 cf b3    	mov.b     #0xf7, w0
    5736:	00 c0 60    	and.b     w1, w0, w0
    5738:	02 40 70    	ior.b     w0, w2, w0
    573a:	c4 e2 b7    	mov.b     WREG, 0x2c4
    573c:	f0 05 20    	mov.w     #0x5f, w0
    573e:	a0 10 88    	mov.w     w0, 0x214
    5740:	17 82 a8    	bset.b    0x217, #0x4
    5742:	17 22 a9    	bclr.b    0x217, #0x1
    5744:	c4 42 a8    	bset.b    0x2c4, #0x2
    5746:	c4 c2 bf    	mov.b     0x2c4, WREG
    5748:	00 80 fb    	ze        w0, w0
    574a:	42 00 de    	lsr.w     w0, #0x2, w0
    574c:	61 40 60    	and.b     w0, #0x1, w0
    574e:	61 40 60    	and.b     w0, #0x1, w0
    5750:	43 01 dd    	sl.w      w0, #0x3, w2
    5752:	41 2c 20    	mov.w     #0x2c4, w1
    5754:	91 40 78    	mov.b     [w1], w1
    5756:	70 cf b3    	mov.b     #0xf7, w0
    5758:	00 c0 60    	and.b     w1, w0, w0
    575a:	02 40 70    	ior.b     w0, w2, w0
    575c:	c4 e2 b7    	mov.b     WREG, 0x2c4
    575e:	c2 c2 bf    	mov.b     0x2c2, WREG
    5760:	68 40 60    	and.b     w0, #0x8, w0
    5762:	00 04 e0    	cp0.b     w0
    5764:	04 00 32    	bra       Z, 0x576e <.L2>
    5766:	c2 c2 bf    	mov.b     0x2c2, WREG
    5768:	64 40 60    	and.b     w0, #0x4, w0
    576a:	00 04 e0    	cp0.b     w0
    576c:	31 00 3a    	bra       NZ, 0x57d0 <.L4>

0000576e <.L2>:
    576e:	00 00 eb    	clr.w     w0
    5770:	00 0f 78    	mov.w     w0, [w14]

00005772 <.L5>:
    5772:	10 00 20    	mov.w     #0x1, w0
    5774:	10 07 98    	mov.w     w0, [w14+2]
    5776:	03 00 37    	bra       0x577e <.L6>

00005778 <.L7>:
    5778:	1e 00 90    	mov.w     [w14+2], w0
    577a:	00 00 e8    	inc.w     w0, w0
    577c:	10 07 98    	mov.w     w0, [w14+2]

0000577e <.L6>:
    577e:	1e 00 90    	mov.w     [w14+2], w0
    5780:	ff 0f 50    	sub.w     w0, #0x1f, [w15]
    5782:	fa ff 34    	bra       LE, 0x5778 <.L7>
    5784:	c4 42 a9    	bclr.b    0x2c4, #0x2
    5786:	10 00 20    	mov.w     #0x1, w0
    5788:	10 07 98    	mov.w     w0, [w14+2]
    578a:	03 00 37    	bra       0x5792 <.L9>

0000578c <.L10>:
    578c:	1e 00 90    	mov.w     [w14+2], w0
    578e:	00 00 e8    	inc.w     w0, w0
    5790:	10 07 98    	mov.w     w0, [w14+2]

00005792 <.L9>:
    5792:	1e 00 90    	mov.w     [w14+2], w0
    5794:	ff 0f 50    	sub.w     w0, #0x1f, [w15]
    5796:	fa ff 34    	bra       LE, 0x578c <.L10>
    5798:	c4 42 a8    	bset.b    0x2c4, #0x2
    579a:	10 00 20    	mov.w     #0x1, w0
    579c:	10 07 98    	mov.w     w0, [w14+2]
    579e:	03 00 37    	bra       0x57a6 <.L12>

000057a0 <.L13>:
    57a0:	1e 00 90    	mov.w     [w14+2], w0
    57a2:	00 00 e8    	inc.w     w0, w0
    57a4:	10 07 98    	mov.w     w0, [w14+2]

000057a6 <.L12>:
    57a6:	1e 00 90    	mov.w     [w14+2], w0
    57a8:	ff 0f 50    	sub.w     w0, #0x1f, [w15]
    57aa:	fa ff 34    	bra       LE, 0x57a0 <.L13>
    57ac:	1e 0f e8    	inc.w     [w14], [w14]
    57ae:	c2 c2 bf    	mov.b     0x2c2, WREG
    57b0:	68 40 60    	and.b     w0, #0x8, w0
    57b2:	00 04 e0    	cp0.b     w0
    57b4:	04 00 32    	bra       Z, 0x57be <.L15>
    57b6:	c2 c2 bf    	mov.b     0x2c2, WREG
    57b8:	64 40 60    	and.b     w0, #0x4, w0
    57ba:	00 04 e0    	cp0.b     w0
    57bc:	03 00 3a    	bra       NZ, 0x57c4 <.L17>

000057be <.L15>:
    57be:	40 06 20    	mov.w     #0x64, w0
    57c0:	9e 0f 10    	subr.w    w0, [w14], [w15]
    57c2:	d7 ff 34    	bra       LE, 0x5772 <.L5>

000057c4 <.L17>:
    57c4:	30 06 20    	mov.w     #0x63, w0
    57c6:	9e 0f 10    	subr.w    w0, [w14], [w15]
    57c8:	03 00 34    	bra       LE, 0x57d0 <.L4>
    57ca:	2c 1b a8    	bset.b    0x1b2c, #0x0
    57cc:	30 00 20    	mov.w     #0x3, w0
    57ce:	70 ae 88    	mov.w     w0, 0x15ce

000057d0 <.L4>:
    57d0:	d1 0b 20    	mov.w     #0xbd, w1
    57d2:	91 40 78    	mov.b     [w1], w1
    57d4:	80 cf b3    	mov.b     #0xf8, w0
    57d6:	00 c0 60    	and.b     w1, w0, w0
    57d8:	00 24 a0    	bset.b    w0, #0x2
    57da:	bd e0 b7    	mov.b     WREG, 0xbd
    57dc:	8a 40 a9    	bclr.b    0x8a, #0x2
    57de:	9a 40 a8    	bset.b    0x9a, #0x2
    57e0:	17 e2 a8    	bset.b    0x217, #0x7
    57e2:	10 ba 80    	mov.w     0x1742, w0
    57e4:	00 00 e0    	cp0.w     w0
    57e6:	1b 00 3a    	bra       NZ, 0x581e <.L21>
    57e8:	10 00 20    	mov.w     #0x1, w0
    57ea:	10 ba 88    	mov.w     w0, 0x1742
    57ec:	e1 0a 20    	mov.w     #0xae, w1
    57ee:	91 40 78    	mov.b     [w1], w1
    57f0:	80 cf b3    	mov.b     #0xf8, w0
    57f2:	00 c0 60    	and.b     w1, w0, w0
    57f4:	00 14 a0    	bset.b    w0, #0x1
    57f6:	ae e0 b7    	mov.b     WREG, 0xae
    57f8:	c1 82 a8    	bset.b    0x2c1, #0x4
    57fa:	86 80 a9    	bclr.b    0x86, #0x4
    57fc:	82 20 a9    	bclr.b    0x82, #0x1
    57fe:	96 80 a9    	bclr.b    0x96, #0x4
    5800:	21 0b 20    	mov.w     #0xb2, w1
    5802:	91 40 78    	mov.b     [w1], w1
    5804:	f0 c8 b3    	mov.b     #0x8f, w0
    5806:	00 c0 60    	and.b     w1, w0, w0
    5808:	01 c2 b3    	mov.b     #0x20, w1
    580a:	01 40 70    	ior.b     w0, w1, w0
    580c:	b2 e0 b7    	mov.b     WREG, 0xb2
    580e:	c1 a2 a8    	bset.b    0x2c1, #0x5
    5810:	87 a0 a9    	bclr.b    0x87, #0x5
    5812:	82 40 a9    	bclr.b    0x82, #0x2
    5814:	97 a0 a9    	bclr.b    0x97, #0x5
    5816:	40 d0 84    	mov.w     0x9a08, w0
    5818:	a0 ad 88    	mov.w     w0, 0x15b4
    581a:	50 d0 84    	mov.w     0x9a0a, w0
    581c:	b0 ad 88    	mov.w     w0, 0x15b6

0000581e <.L21>:
    581e:	00 80 fa    	ulnk      
    5820:	00 00 06    	return    

00005822 <__MI2C2Interrupt>:
    5822:	36 00 f8    	push      0x36
    5824:	80 9f be    	mov.d     w0, [w15++]
    5826:	82 9f be    	mov.d     w2, [w15++]
    5828:	84 9f be    	mov.d     w4, [w15++]
    582a:	86 9f be    	mov.d     w6, [w15++]
    582c:	12 00 fa    	lnk       #0x12
    582e:	21 e1 a8    	bset.b    0x121, #0x7
    5830:	30 55 80    	mov.w     0xaa6, w0
    5832:	00 00 e0    	cp0.w     w0
    5834:	1a 00 32    	bra       Z, 0x586a <.L23>

00005836 <.bb>:
    5836:	44 00 f8    	push      0x44
    5838:	42 00 f8    	push      0x42
    583a:	46 00 f8    	push      0x46
    583c:	50 00 f8    	push      0x50
    583e:	22 00 f8    	push      0x22
    5840:	24 00 f8    	push      0x24
    5842:	26 00 f8    	push      0x26
    5844:	28 00 f8    	push      0x28
    5846:	2a 00 f8    	push      0x2a
    5848:	2c 00 f8    	push      0x2c
    584a:	36 00 f8    	push      0x36
    584c:	38 00 f8    	push      0x38
    584e:	3a 00 f8    	push      0x3a
    5850:	3c 00 f8    	push      0x3c
    5852:	3e 00 f8    	push      0x3e
    5854:	40 00 f8    	push      0x40
    5856:	10 00 20    	mov.w     #0x1, w0
    5858:	20 07 98    	mov.w     w0, [w14+4]
    585a:	2e 00 90    	mov.w     [w14+4], w0
    585c:	80 1f 78    	mov.w     w0, [w15++]
    585e:	20 07 98    	mov.w     w0, [w14+4]
    5860:	40 55 80    	mov.w     0xaa8, w0
    5862:	20 02 88    	mov.w     w0, 0x44
    5864:	00 00 eb    	clr.w     w0
    5866:	30 55 88    	mov.w     w0, 0xaa6
    5868:	05 00 37    	bra       0x5874 <.L25>

0000586a <.L23>:
    586a:	00 00 eb    	clr.w     w0
    586c:	10 07 98    	mov.w     w0, [w14+2]
    586e:	1e 00 90    	mov.w     [w14+2], w0
    5870:	80 1f 78    	mov.w     w0, [w15++]
    5872:	10 07 98    	mov.w     w0, [w14+2]

00005874 <.L25>:
    5874:	8a 40 a9    	bclr.b    0x8a, #0x2
    5876:	d1 ad 80    	mov.w     0x15ba, w1
    5878:	f0 03 20    	mov.w     #0x3f, w0
    587a:	80 8f 50    	sub.w     w1, w0, [w15]
    587c:	13 00 34    	bra       LE, 0x58a4 <.L26>
    587e:	e0 03 20    	mov.w     #0x3e, w0
    5880:	d0 ad 88    	mov.w     w0, 0x15ba
    5882:	d0 ad 80    	mov.w     0x15ba, w0
    5884:	80 00 40    	add.w     w0, w0, w1
    5886:	80 53 21    	mov.w     #0x1538, w0
    5888:	80 80 40    	add.w     w1, w0, w1
    588a:	30 c0 b3    	mov.b     #0x3, w0
    588c:	80 48 78    	mov.b     w0, [w1]
    588e:	d0 ad 80    	mov.w     0x15ba, w0
    5890:	00 00 e8    	inc.w     w0, w0
    5892:	80 00 40    	add.w     w0, w0, w1
    5894:	80 53 21    	mov.w     #0x1538, w0
    5896:	80 80 40    	add.w     w1, w0, w1
    5898:	70 c0 b3    	mov.b     #0x7, w0
    589a:	80 48 78    	mov.b     w0, [w1]
    589c:	00 00 eb    	clr.w     w0
    589e:	e0 ad 88    	mov.w     w0, 0x15bc
    58a0:	50 00 20    	mov.w     #0x5, w0
    58a2:	70 ae 88    	mov.w     w0, 0x15ce

000058a4 <.L26>:
    58a4:	e0 ad 80    	mov.w     0x15bc, w0
    58a6:	61 01 b9    	mul.su    w0, #0x1, w2
    58a8:	72 07 98    	mov.w     w2, [w14+14]
    58aa:	03 0f 98    	mov.w     w3, [w14+16]
    58ac:	40 03 20    	mov.w     #0x34, w0
    58ae:	01 00 20    	mov.w     #0x0, w1
    58b0:	7e 01 90    	mov.w     [w14+14], w2
    58b2:	8e 09 90    	mov.w     [w14+16], w3
    58b4:	80 0f 51    	sub.w     w2, w0, [w15]
    58b6:	81 8f 59    	subb.w    w3, w1, [w15]
    58b8:	7c 02 3e    	bra       GTU, 0x5db2 <_I2C_DONE>
    58ba:	7e 00 90    	mov.w     [w14+14], w0
    58bc:	8e 08 90    	mov.w     [w14+16], w1
    58be:	00 60 01    	bra       w0
    58c0:	34 00 37    	bra       0x592a <.L29>
    58c2:	28 01 37    	bra       0x5b14 <.L30>
    58c4:	52 01 37    	bra       0x5b6a <.L31>
    58c6:	72 01 37    	bra       0x5bac <.L32>
    58c8:	74 02 37    	bra       0x5db2 <_I2C_DONE>
    58ca:	e6 01 37    	bra       0x5c98 <.L33>
    58cc:	25 02 37    	bra       0x5d18 <.L34>
    58ce:	71 02 37    	bra       0x5db2 <_I2C_DONE>
    58d0:	70 02 37    	bra       0x5db2 <_I2C_DONE>
    58d2:	6f 02 37    	bra       0x5db2 <_I2C_DONE>
    58d4:	6e 02 37    	bra       0x5db2 <_I2C_DONE>
    58d6:	2d 01 37    	bra       0x5b32 <.L35>
    58d8:	33 01 37    	bra       0x5b40 <.L36>
    58da:	6b 02 37    	bra       0x5db2 <_I2C_DONE>
    58dc:	6a 02 37    	bra       0x5db2 <_I2C_DONE>
    58de:	69 02 37    	bra       0x5db2 <_I2C_DONE>
    58e0:	68 02 37    	bra       0x5db2 <_I2C_DONE>
    58e2:	67 02 37    	bra       0x5db2 <_I2C_DONE>
    58e4:	66 02 37    	bra       0x5db2 <_I2C_DONE>
    58e6:	65 02 37    	bra       0x5db2 <_I2C_DONE>
    58e8:	64 02 37    	bra       0x5db2 <_I2C_DONE>
    58ea:	63 02 37    	bra       0x5db2 <_I2C_DONE>
    58ec:	62 02 37    	bra       0x5db2 <_I2C_DONE>
    58ee:	61 02 37    	bra       0x5db2 <_I2C_DONE>
    58f0:	60 02 37    	bra       0x5db2 <_I2C_DONE>
    58f2:	5f 02 37    	bra       0x5db2 <_I2C_DONE>
    58f4:	5e 02 37    	bra       0x5db2 <_I2C_DONE>
    58f6:	5d 02 37    	bra       0x5db2 <_I2C_DONE>
    58f8:	5c 02 37    	bra       0x5db2 <_I2C_DONE>
    58fa:	5b 02 37    	bra       0x5db2 <_I2C_DONE>
    58fc:	5a 02 37    	bra       0x5db2 <_I2C_DONE>
    58fe:	59 02 37    	bra       0x5db2 <_I2C_DONE>
    5900:	58 02 37    	bra       0x5db2 <_I2C_DONE>
    5902:	57 02 37    	bra       0x5db2 <_I2C_DONE>
    5904:	56 02 37    	bra       0x5db2 <_I2C_DONE>
    5906:	55 02 37    	bra       0x5db2 <_I2C_DONE>
    5908:	54 02 37    	bra       0x5db2 <_I2C_DONE>
    590a:	53 02 37    	bra       0x5db2 <_I2C_DONE>
    590c:	52 02 37    	bra       0x5db2 <_I2C_DONE>
    590e:	51 02 37    	bra       0x5db2 <_I2C_DONE>
    5910:	50 02 37    	bra       0x5db2 <_I2C_DONE>
    5912:	53 01 37    	bra       0x5bba <.L37>
    5914:	89 01 37    	bra       0x5c28 <.L38>
    5916:	4d 02 37    	bra       0x5db2 <_I2C_DONE>
    5918:	4c 02 37    	bra       0x5db2 <_I2C_DONE>
    591a:	4b 02 37    	bra       0x5db2 <_I2C_DONE>
    591c:	4a 02 37    	bra       0x5db2 <_I2C_DONE>
    591e:	49 02 37    	bra       0x5db2 <_I2C_DONE>
    5920:	48 02 37    	bra       0x5db2 <_I2C_DONE>
    5922:	47 02 37    	bra       0x5db2 <_I2C_DONE>
    5924:	46 02 37    	bra       0x5db2 <_I2C_DONE>
    5926:	e6 01 37    	bra       0x5cf4 <.L39>
    5928:	1a 02 37    	bra       0x5d5e <.L40>

0000592a <.L29>:
    592a:	d0 ad 80    	mov.w     0x15ba, w0
    592c:	80 00 40    	add.w     w0, w0, w1
    592e:	80 53 21    	mov.w     #0x1538, w0
    5930:	00 80 40    	add.w     w1, w0, w0
    5932:	10 00 78    	mov.w     [w0], w0
    5934:	a0 ae 88    	mov.w     w0, 0x15d4
    5936:	a0 ae 80    	mov.w     0x15d4, w0
    5938:	67 40 60    	and.b     w0, #0x7, w0
    593a:	00 80 fb    	ze        w0, w0
    593c:	60 07 98    	mov.w     w0, [w14+12]
    593e:	ee 00 90    	mov.w     [w14+12], w1
    5940:	e3 8f 50    	sub.w     w1, #0x3, [w15]
    5942:	27 00 32    	bra       Z, 0x5992 <.L46>
    5944:	6e 01 90    	mov.w     [w14+12], w2
    5946:	e3 0f 51    	sub.w     w2, #0x3, [w15]
    5948:	0a 00 3c    	bra       GT, 0x595e <.L51>
    594a:	ee 01 90    	mov.w     [w14+12], w3
    594c:	e1 8f 51    	sub.w     w3, #0x1, [w15]
    594e:	19 00 32    	bra       Z, 0x5982 <.L44>
    5950:	6e 00 90    	mov.w     [w14+12], w0
    5952:	e1 0f 50    	sub.w     w0, #0x1, [w15]
    5954:	1a 00 3c    	bra       GT, 0x598a <.L45>
    5956:	ee 00 90    	mov.w     [w14+12], w1
    5958:	01 00 e0    	cp0.w     w1
    595a:	0e 00 32    	bra       Z, 0x5978 <.L43>
    595c:	2a 02 37    	bra       0x5db2 <_I2C_DONE>

0000595e <.L51>:
    595e:	6e 01 90    	mov.w     [w14+12], w2
    5960:	e5 0f 51    	sub.w     w2, #0x5, [w15]
    5962:	2a 00 32    	bra       Z, 0x59b8 <.L48>
    5964:	ee 01 90    	mov.w     [w14+12], w3
    5966:	e5 8f 51    	sub.w     w3, #0x5, [w15]
    5968:	18 00 35    	bra       LT, 0x599a <.L47>
    596a:	6e 00 90    	mov.w     [w14+12], w0
    596c:	e6 0f 50    	sub.w     w0, #0x6, [w15]
    596e:	2b 00 32    	bra       Z, 0x59c6 <.L49>
    5970:	ee 00 90    	mov.w     [w14+12], w1
    5972:	e7 8f 50    	sub.w     w1, #0x7, [w15]
    5974:	2f 00 32    	bra       Z, 0x59d4 <.L50>
    5976:	1d 02 37    	bra       0x5db2 <_I2C_DONE>

00005978 <.L43>:
    5978:	d0 ad 80    	mov.w     0x15ba, w0
    597a:	00 00 e8    	inc.w     w0, w0
    597c:	d0 ad 88    	mov.w     w0, 0x15ba
    597e:	8a 40 a8    	bset.b    0x8a, #0x2
    5980:	18 02 37    	bra       0x5db2 <_I2C_DONE>

00005982 <.L44>:
    5982:	10 00 20    	mov.w     #0x1, w0
    5984:	e0 ad 88    	mov.w     w0, 0x15bc
    5986:	16 02 a8    	bset.b    0x216, #0x0
    5988:	14 02 37    	bra       0x5db2 <_I2C_DONE>

0000598a <.L45>:
    598a:	20 00 20    	mov.w     #0x2, w0
    598c:	e0 ad 88    	mov.w     w0, 0x15bc
    598e:	16 22 a8    	bset.b    0x216, #0x1
    5990:	10 02 37    	bra       0x5db2 <_I2C_DONE>

00005992 <.L46>:
    5992:	30 00 20    	mov.w     #0x3, w0
    5994:	e0 ad 88    	mov.w     w0, 0x15bc
    5996:	16 42 a8    	bset.b    0x216, #0x2
    5998:	0c 02 37    	bra       0x5db2 <_I2C_DONE>

0000599a <.L47>:
    599a:	16 a2 a9    	bclr.b    0x216, #0x5
    599c:	90 02 20    	mov.w     #0x29, w0
    599e:	e0 ad 88    	mov.w     w0, 0x15bc
    59a0:	d5 d5 bf    	mov.b     0x15d5, WREG
    59a2:	00 80 fb    	ze        w0, w0
    59a4:	f0 ad 88    	mov.w     w0, 0x15be
    59a6:	a0 ae 80    	mov.w     0x15d4, w0
    59a8:	70 00 60    	and.w     w0, #0x10, w0
    59aa:	00 00 e0    	cp0.w     w0
    59ac:	03 00 3a    	bra       NZ, 0x59b4 <.L52>
    59ae:	d0 ad 80    	mov.w     0x15ba, w0
    59b0:	00 00 e8    	inc.w     w0, w0
    59b2:	d0 ad 88    	mov.w     w0, 0x15ba

000059b4 <.L52>:
    59b4:	8a 40 a8    	bset.b    0x8a, #0x2
    59b6:	fd 01 37    	bra       0x5db2 <_I2C_DONE>

000059b8 <.L48>:
    59b8:	16 62 a8    	bset.b    0x216, #0x3
    59ba:	50 00 20    	mov.w     #0x5, w0
    59bc:	e0 ad 88    	mov.w     w0, 0x15bc
    59be:	d5 d5 bf    	mov.b     0x15d5, WREG
    59c0:	00 80 fb    	ze        w0, w0
    59c2:	f0 ad 88    	mov.w     w0, 0x15be
    59c4:	f6 01 37    	bra       0x5db2 <_I2C_DONE>

000059c6 <.L49>:
    59c6:	16 62 a8    	bset.b    0x216, #0x3
    59c8:	60 00 20    	mov.w     #0x6, w0
    59ca:	e0 ad 88    	mov.w     w0, 0x15bc
    59cc:	d5 d5 bf    	mov.b     0x15d5, WREG
    59ce:	00 80 fb    	ze        w0, w0
    59d0:	f0 ad 88    	mov.w     w0, 0x15be
    59d2:	ef 01 37    	bra       0x5db2 <_I2C_DONE>

000059d4 <.L50>:
    59d4:	70 00 20    	mov.w     #0x7, w0
    59d6:	e0 ad 88    	mov.w     w0, 0x15bc
    59d8:	00 80 eb    	setm.w    w0
    59da:	00 ba 88    	mov.w     w0, 0x1740
    59dc:	a0 ae 80    	mov.w     0x15d4, w0
    59de:	45 00 de    	lsr.w     w0, #0x5, w0
    59e0:	67 40 60    	and.b     w0, #0x7, w0
    59e2:	00 80 fb    	ze        w0, w0
    59e4:	50 07 98    	mov.w     w0, [w14+10]
    59e6:	5e 01 90    	mov.w     [w14+10], w2
    59e8:	e3 0f 51    	sub.w     w2, #0x3, [w15]
    59ea:	1b 00 32    	bra       Z, 0x5a22 <.L57>
    59ec:	de 01 90    	mov.w     [w14+10], w3
    59ee:	e3 8f 51    	sub.w     w3, #0x3, [w15]
    59f0:	07 00 3c    	bra       GT, 0x5a00 <.L60>
    59f2:	5e 00 90    	mov.w     [w14+10], w0
    59f4:	e1 0f 50    	sub.w     w0, #0x1, [w15]
    59f6:	0b 00 32    	bra       Z, 0x5a0e <.L55>
    59f8:	de 00 90    	mov.w     [w14+10], w1
    59fa:	e2 8f 50    	sub.w     w1, #0x2, [w15]
    59fc:	0c 00 32    	bra       Z, 0x5a16 <.L56>
    59fe:	47 00 37    	bra       0x5a8e <.L61>

00005a00 <.L60>:
    5a00:	5e 01 90    	mov.w     [w14+10], w2
    5a02:	e4 0f 51    	sub.w     w2, #0x4, [w15]
    5a04:	14 00 32    	bra       Z, 0x5a2e <.L58>
    5a06:	de 01 90    	mov.w     [w14+10], w3
    5a08:	e6 8f 51    	sub.w     w3, #0x6, [w15]
    5a0a:	41 00 3c    	bra       GT, 0x5a8e <.L61>
    5a0c:	17 00 37    	bra       0x5a3c <.L59>

00005a0e <.L55>:
    5a0e:	d5 d5 bf    	mov.b     0x15d5, WREG
    5a10:	00 80 fb    	ze        w0, w0
    5a12:	40 ae 88    	mov.w     w0, 0x15c8
    5a14:	3c 00 37    	bra       0x5a8e <.L61>

00005a16 <.L56>:
    5a16:	41 ae 80    	mov.w     0x15c8, w1
    5a18:	d5 d5 bf    	mov.b     0x15d5, WREG
    5a1a:	00 80 fb    	ze        w0, w0
    5a1c:	00 80 40    	add.w     w1, w0, w0
    5a1e:	40 ae 88    	mov.w     w0, 0x15c8
    5a20:	36 00 37    	bra       0x5a8e <.L61>

00005a22 <.L57>:
    5a22:	50 ae 80    	mov.w     0x15ca, w0
    5a24:	51 5d 21    	mov.w     #0x15d5, w1
    5a26:	91 40 78    	mov.b     [w1], w1
    5a28:	81 80 fb    	ze        w1, w1
    5a2a:	01 08 78    	mov.w     w1, [w0]
    5a2c:	30 00 37    	bra       0x5a8e <.L61>

00005a2e <.L58>:
    5a2e:	52 ae 80    	mov.w     0x15ca, w2
    5a30:	50 ae 80    	mov.w     0x15ca, w0
    5a32:	90 00 78    	mov.w     [w0], w1
    5a34:	d5 d5 bf    	mov.b     0x15d5, WREG
    5a36:	00 80 fb    	ze        w0, w0
    5a38:	00 80 40    	add.w     w1, w0, w0
    5a3a:	00 09 78    	mov.w     w0, [w2]

00005a3c <.L59>:
    5a3c:	a1 ae 80    	mov.w     0x15d4, w1
    5a3e:	00 0e 20    	mov.w     #0xe0, w0
    5a40:	80 80 60    	and.w     w1, w0, w1
    5a42:	00 0a 20    	mov.w     #0xa0, w0
    5a44:	80 8f 50    	sub.w     w1, w0, [w15]
    5a46:	04 00 3a    	bra       NZ, 0x5a50 <.L62>
    5a48:	d5 d5 bf    	mov.b     0x15d5, WREG
    5a4a:	00 80 fb    	ze        w0, w0
    5a4c:	f0 ad 88    	mov.w     w0, 0x15be
    5a4e:	02 00 37    	bra       0x5a54 <.L64>

00005a50 <.L62>:
    5a50:	20 ae 80    	mov.w     0x15c4, w0
    5a52:	f0 ad 88    	mov.w     w0, 0x15be

00005a54 <.L64>:
    5a54:	00 00 eb    	clr.w     w0
    5a56:	30 ae 88    	mov.w     w0, 0x15c6
    5a58:	60 ae 80    	mov.w     0x15cc, w0
    5a5a:	30 07 98    	mov.w     w0, [w14+6]
    5a5c:	f0 ad 80    	mov.w     0x15be, w0
    5a5e:	00 00 e0    	cp0.w     w0
    5a60:	16 00 34    	bra       LE, 0x5a8e <.L61>
    5a62:	f1 ad 80    	mov.w     0x15be, w1
    5a64:	00 09 20    	mov.w     #0x90, w0
    5a66:	80 8f 50    	sub.w     w1, w0, [w15]
    5a68:	12 00 3c    	bra       GT, 0x5a8e <.L61>
    5a6a:	0b 00 37    	bra       0x5a82

00005a6c <.L68>:
    5a6c:	32 ae 80    	mov.w     0x15c6, w2
    5a6e:	80 4a 21    	mov.w     #0x14a8, w0
    5a70:	00 00 41    	add.w     w2, w0, w0
    5a72:	90 40 78    	mov.b     [w0], w1
    5a74:	3e 00 90    	mov.w     [w14+6], w0
    5a76:	01 48 78    	mov.b     w1, [w0]
    5a78:	02 00 e8    	inc.w     w2, w0
    5a7a:	30 ae 88    	mov.w     w0, 0x15c6
    5a7c:	3e 00 90    	mov.w     [w14+6], w0
    5a7e:	00 00 e8    	inc.w     w0, w0
    5a80:	30 07 98    	mov.w     w0, [w14+6]

00005a82 <.L67>:
    5a82:	f0 ad 80    	mov.w     0x15be, w0
    5a84:	00 00 e9    	dec.w     w0, w0
    5a86:	f0 ad 88    	mov.w     w0, 0x15be
    5a88:	f0 ad 80    	mov.w     0x15be, w0
    5a8a:	e1 0f 40    	add.w     w0, #0x1, [w15]
    5a8c:	ef ff 3a    	bra       NZ, 0x5a6c <.L68>

00005a8e <.L61>:
    5a8e:	a0 ae 80    	mov.w     0x15d4, w0
    5a90:	68 00 60    	and.w     w0, #0x8, w0
    5a92:	00 00 e0    	cp0.w     w0
    5a94:	03 00 32    	bra       Z, 0x5a9c <.L69>
    5a96:	40 ae 80    	mov.w     0x15c8, w0
    5a98:	00 00 e8    	inc.w     w0, w0
    5a9a:	40 ae 88    	mov.w     w0, 0x15c8

00005a9c <.L69>:
    5a9c:	10 ae 80    	mov.w     0x15c2, w0
    5a9e:	00 00 e8    	inc.w     w0, w0
    5aa0:	10 ae 88    	mov.w     w0, 0x15c2
    5aa2:	c0 ad 80    	mov.w     0x15b8, w0
    5aa4:	67 00 60    	and.w     w0, #0x7, w0
    5aa6:	7e 00 b9    	mul.su    w0, #0x1e, w0
    5aa8:	80 00 78    	mov.w     w0, w1
    5aaa:	60 5d 21    	mov.w     #0x15d6, w0
    5aac:	00 80 40    	add.w     w1, w0, w0
    5aae:	81 5b 21    	mov.w     #0x15b8, w1
    5ab0:	0e 00 09    	repeat    #0xe
    5ab2:	31 18 78    	mov.w     [w1++], [w0++]
    5ab4:	e0 01 b1    	sub.w     #0x1e, w0
    5ab6:	a0 ae 80    	mov.w     0x15d4, w0
    5ab8:	70 00 60    	and.w     w0, #0x10, w0
    5aba:	00 00 e0    	cp0.w     w0
    5abc:	07 00 32    	bra       Z, 0x5acc <.L71>
    5abe:	c0 ad 80    	mov.w     0x15b8, w0
    5ac0:	67 00 60    	and.w     w0, #0x7, w0
    5ac2:	80 00 40    	add.w     w0, w0, w1
    5ac4:	c0 72 21    	mov.w     #0x172c, w0
    5ac6:	00 80 40    	add.w     w1, w0, w0
    5ac8:	10 00 78    	mov.w     [w0], w0
    5aca:	00 00 01    	call      w0

00005acc <.L71>:
    5acc:	f0 b9 80    	mov.w     0x173e, w0
    5ace:	00 00 e8    	inc.w     w0, w0
    5ad0:	f0 b9 88    	mov.w     w0, 0x173e
    5ad2:	60 d9 80    	mov.w     0x1b2c, w0
    5ad4:	64 00 60    	and.w     w0, #0x4, w0
    5ad6:	00 00 e0    	cp0.w     w0
    5ad8:	03 00 32    	bra       Z, 0x5ae0 <.L73>
    5ada:	f2 f9 07    	rcall     0x4ec0 <_magSetupRead>
    5adc:	8a 40 a8    	bset.b    0x8a, #0x2
    5ade:	69 01 37    	bra       0x5db2 <_I2C_DONE>

00005ae0 <.L73>:
    5ae0:	60 d9 80    	mov.w     0x1b2c, w0
    5ae2:	68 00 60    	and.w     w0, #0x8, w0
    5ae4:	00 00 e0    	cp0.w     w0
    5ae6:	04 00 3a    	bra       NZ, 0x5af0 <.L75>
    5ae8:	c3 c2 bf    	mov.b     0x2c3, WREG
    5aea:	00 42 b2    	and.b     #0x20, w0
    5aec:	00 04 e0    	cp0.b     w0
    5aee:	03 00 32    	bra       Z, 0x5af6 <.L77>

00005af0 <.L75>:
    5af0:	99 fc 07    	rcall     0x5424 <_accSetupRead>
    5af2:	8a 40 a8    	bset.b    0x8a, #0x2
    5af4:	5e 01 37    	bra       0x5db2 <_I2C_DONE>

00005af6 <.L77>:
    5af6:	f0 a4 80    	mov.w     0x149e, w0
    5af8:	00 00 e0    	cp0.w     w0
    5afa:	06 00 32    	bra       Z, 0x5b08 <.L78>
    5afc:	8a c0 bf    	mov.b     0x8a, WREG
    5afe:	64 40 60    	and.b     w0, #0x4, w0
    5b00:	00 04 e0    	cp0.b     w0
    5b02:	02 00 3a    	bra       NZ, 0x5b08 <.L78>
    5b04:	b4 0e 07    	rcall     0x786e <_doneEE>
    5b06:	55 01 37    	bra       0x5db2 <_I2C_DONE>

00005b08 <.L78>:
    5b08:	8a c0 bf    	mov.b     0x8a, WREG
    5b0a:	64 40 60    	and.b     w0, #0x4, w0
    5b0c:	00 04 e0    	cp0.b     w0
    5b0e:	51 01 3a    	bra       NZ, 0x5db2 <_I2C_DONE>
    5b10:	2c 1b a9    	bclr.b    0x1b2c, #0x0
    5b12:	4f 01 37    	bra       0x5db2 <_I2C_DONE>

00005b14 <.L30>:
    5b14:	a0 ae 80    	mov.w     0x15d4, w0
    5b16:	68 00 60    	and.w     w0, #0x8, w0
    5b18:	00 00 e0    	cp0.w     w0
    5b1a:	03 00 32    	bra       Z, 0x5b22 <.L82>
    5b1c:	c0 00 20    	mov.w     #0xc, w0
    5b1e:	e0 ad 88    	mov.w     w0, 0x15bc
    5b20:	02 00 37    	bra       0x5b26 <.L84>

00005b22 <.L82>:
    5b22:	b0 00 20    	mov.w     #0xb, w0
    5b24:	e0 ad 88    	mov.w     w0, 0x15bc

00005b26 <.L84>:
    5b26:	d5 d5 bf    	mov.b     0x15d5, WREG
    5b28:	00 80 fb    	ze        w0, w0
    5b2a:	00 ae 88    	mov.w     w0, 0x15c0
    5b2c:	00 ae 80    	mov.w     0x15c0, w0
    5b2e:	90 10 88    	mov.w     w0, 0x212
    5b30:	40 01 37    	bra       0x5db2 <_I2C_DONE>

00005b32 <.L35>:
    5b32:	19 c2 bf    	mov.b     0x219, WREG
    5b34:	01 c8 b3    	mov.b     #0x80, w1
    5b36:	01 40 60    	and.b     w0, w1, w0
    5b38:	00 04 e0    	cp0.b     w0
    5b3a:	02 00 32    	bra       Z, 0x5b40 <.L36>
    5b3c:	20 00 20    	mov.w     #0x2, w0
    5b3e:	70 ae 88    	mov.w     w0, 0x15ce

00005b40 <.L36>:
    5b40:	b0 10 80    	mov.w     0x216, w0
    5b42:	7f 00 60    	and.w     w0, #0x1f, w0
    5b44:	00 00 e0    	cp0.w     w0
    5b46:	05 00 3a    	bra       NZ, 0x5b52 <.L86>
    5b48:	c0 10 80    	mov.w     0x218, w0
    5b4a:	11 4c 24    	mov.w     #0x44c1, w1
    5b4c:	01 00 60    	and.w     w0, w1, w0
    5b4e:	00 00 e0    	cp0.w     w0
    5b50:	02 00 32    	bra       Z, 0x5b56 <.L88>

00005b52 <.L86>:
    5b52:	30 00 20    	mov.w     #0x3, w0
    5b54:	70 ae 88    	mov.w     w0, 0x15ce

00005b56 <.L88>:
    5b56:	00 00 eb    	clr.w     w0
    5b58:	e0 ad 88    	mov.w     w0, 0x15bc
    5b5a:	d0 ad 80    	mov.w     0x15ba, w0
    5b5c:	00 00 e8    	inc.w     w0, w0
    5b5e:	d0 ad 88    	mov.w     w0, 0x15ba
    5b60:	70 ae 80    	mov.w     0x15ce, w0
    5b62:	00 00 e0    	cp0.w     w0
    5b64:	11 01 3a    	bra       NZ, 0x5d88 <_I2C_ERROR>
    5b66:	8a 40 a8    	bset.b    0x8a, #0x2
    5b68:	24 01 37    	bra       0x5db2 <_I2C_DONE>

00005b6a <.L31>:
    5b6a:	d0 ad 80    	mov.w     0x15ba, w0
    5b6c:	80 00 40    	add.w     w0, w0, w1
    5b6e:	80 53 21    	mov.w     #0x1538, w0
    5b70:	00 80 40    	add.w     w1, w0, w0
    5b72:	10 00 78    	mov.w     [w0], w0
    5b74:	43 00 de    	lsr.w     w0, #0x3, w0
    5b76:	61 40 60    	and.b     w0, #0x1, w0
    5b78:	00 04 e0    	cp0.b     w0
    5b7a:	03 00 32    	bra       Z, 0x5b82 <.L91>
    5b7c:	c0 00 20    	mov.w     #0xc, w0
    5b7e:	e0 ad 88    	mov.w     w0, 0x15bc
    5b80:	02 00 37    	bra       0x5b86 <.L93>

00005b82 <.L91>:
    5b82:	b0 00 20    	mov.w     #0xb, w0
    5b84:	e0 ad 88    	mov.w     w0, 0x15bc

00005b86 <.L93>:
    5b86:	d0 ad 80    	mov.w     0x15ba, w0
    5b88:	80 00 40    	add.w     w0, w0, w1
    5b8a:	80 53 21    	mov.w     #0x1538, w0
    5b8c:	00 80 40    	add.w     w1, w0, w0
    5b8e:	10 00 78    	mov.w     [w0], w0
    5b90:	44 00 de    	lsr.w     w0, #0x4, w0
    5b92:	61 40 60    	and.b     w0, #0x1, w0
    5b94:	00 04 e0    	cp0.b     w0
    5b96:	04 00 32    	bra       Z, 0x5ba0 <.L94>
    5b98:	00 ae 80    	mov.w     0x15c0, w0
    5b9a:	00 00 a0    	bset.w    w0, #0x0
    5b9c:	90 10 88    	mov.w     w0, 0x212
    5b9e:	09 01 37    	bra       0x5db2 <_I2C_DONE>

00005ba0 <.L94>:
    5ba0:	d5 d5 bf    	mov.b     0x15d5, WREG
    5ba2:	00 80 fb    	ze        w0, w0
    5ba4:	00 ae 88    	mov.w     w0, 0x15c0
    5ba6:	00 ae 80    	mov.w     0x15c0, w0
    5ba8:	90 10 88    	mov.w     w0, 0x212
    5baa:	03 01 37    	bra       0x5db2 <_I2C_DONE>

00005bac <.L32>:
    5bac:	d0 ad 80    	mov.w     0x15ba, w0
    5bae:	00 00 e8    	inc.w     w0, w0
    5bb0:	d0 ad 88    	mov.w     w0, 0x15ba
    5bb2:	00 00 eb    	clr.w     w0
    5bb4:	e0 ad 88    	mov.w     w0, 0x15bc
    5bb6:	8a 40 a8    	bset.b    0x8a, #0x2
    5bb8:	fc 00 37    	bra       0x5db2 <_I2C_DONE>

00005bba <.L37>:
    5bba:	19 c2 bf    	mov.b     0x219, WREG
    5bbc:	01 c8 b3    	mov.b     #0x80, w1
    5bbe:	01 40 60    	and.b     w0, w1, w0
    5bc0:	00 04 e0    	cp0.b     w0
    5bc2:	02 00 32    	bra       Z, 0x5bc8 <.L97>
    5bc4:	20 00 20    	mov.w     #0x2, w0
    5bc6:	70 ae 88    	mov.w     w0, 0x15ce

00005bc8 <.L97>:
    5bc8:	b0 10 80    	mov.w     0x216, w0
    5bca:	7f 00 60    	and.w     w0, #0x1f, w0
    5bcc:	00 00 e0    	cp0.w     w0
    5bce:	05 00 3a    	bra       NZ, 0x5bda <.L99>
    5bd0:	c0 10 80    	mov.w     0x218, w0
    5bd2:	11 4c 24    	mov.w     #0x44c1, w1
    5bd4:	01 00 60    	and.w     w0, w1, w0
    5bd6:	00 00 e0    	cp0.w     w0
    5bd8:	02 00 32    	bra       Z, 0x5bde <.L101>

00005bda <.L99>:
    5bda:	30 00 20    	mov.w     #0x3, w0
    5bdc:	70 ae 88    	mov.w     w0, 0x15ce

00005bde <.L101>:
    5bde:	70 ae 80    	mov.w     0x15ce, w0
    5be0:	00 00 e0    	cp0.w     w0
    5be2:	d2 00 3a    	bra       NZ, 0x5d88 <_I2C_ERROR>
    5be4:	a0 ae 80    	mov.w     0x15d4, w0
    5be6:	70 00 60    	and.w     w0, #0x10, w0
    5be8:	00 00 e0    	cp0.w     w0
    5bea:	09 00 32    	bra       Z, 0x5bfe <.L103>
    5bec:	31 ae 80    	mov.w     0x15c6, w1
    5bee:	80 4a 21    	mov.w     #0x14a8, w0
    5bf0:	00 80 40    	add.w     w1, w0, w0
    5bf2:	10 40 78    	mov.b     [w0], w0
    5bf4:	00 80 fb    	ze        w0, w0
    5bf6:	90 10 88    	mov.w     w0, 0x212
    5bf8:	01 00 e8    	inc.w     w1, w0
    5bfa:	30 ae 88    	mov.w     w0, 0x15c6
    5bfc:	09 00 37    	bra       0x5c10 <.L105>

00005bfe <.L103>:
    5bfe:	d0 ad 80    	mov.w     0x15ba, w0
    5c00:	80 00 40    	add.w     w0, w0, w1
    5c02:	80 53 21    	mov.w     #0x1538, w0
    5c04:	00 80 40    	add.w     w1, w0, w0
    5c06:	10 40 78    	mov.b     [w0], w0
    5c08:	00 80 fb    	ze        w0, w0
    5c0a:	90 10 88    	mov.w     w0, 0x212
    5c0c:	a0 02 20    	mov.w     #0x2a, w0
    5c0e:	e0 ad 88    	mov.w     w0, 0x15bc

00005c10 <.L105>:
    5c10:	f0 ad 80    	mov.w     0x15be, w0
    5c12:	00 00 e9    	dec.w     w0, w0
    5c14:	f0 ad 88    	mov.w     w0, 0x15be
    5c16:	f0 ad 80    	mov.w     0x15be, w0
    5c18:	00 00 e0    	cp0.w     w0
    5c1a:	cb 00 3d    	bra       GE, 0x5db2 <_I2C_DONE>
    5c1c:	00 00 eb    	clr.w     w0
    5c1e:	e0 ad 88    	mov.w     w0, 0x15bc
    5c20:	d0 ad 80    	mov.w     0x15ba, w0
    5c22:	00 00 e8    	inc.w     w0, w0
    5c24:	d0 ad 88    	mov.w     w0, 0x15ba
    5c26:	c5 00 37    	bra       0x5db2 <_I2C_DONE>

00005c28 <.L38>:
    5c28:	19 c2 bf    	mov.b     0x219, WREG
    5c2a:	01 c8 b3    	mov.b     #0x80, w1
    5c2c:	01 40 60    	and.b     w0, w1, w0
    5c2e:	00 04 e0    	cp0.b     w0
    5c30:	02 00 32    	bra       Z, 0x5c36 <.L108>
    5c32:	20 00 20    	mov.w     #0x2, w0
    5c34:	70 ae 88    	mov.w     w0, 0x15ce

00005c36 <.L108>:
    5c36:	b0 10 80    	mov.w     0x216, w0
    5c38:	7f 00 60    	and.w     w0, #0x1f, w0
    5c3a:	00 00 e0    	cp0.w     w0
    5c3c:	05 00 3a    	bra       NZ, 0x5c48 <.L110>
    5c3e:	c0 10 80    	mov.w     0x218, w0
    5c40:	11 4c 24    	mov.w     #0x44c1, w1
    5c42:	01 00 60    	and.w     w0, w1, w0
    5c44:	00 00 e0    	cp0.w     w0
    5c46:	02 00 32    	bra       Z, 0x5c4c <.L112>

00005c48 <.L110>:
    5c48:	30 00 20    	mov.w     #0x3, w0
    5c4a:	70 ae 88    	mov.w     w0, 0x15ce

00005c4c <.L112>:
    5c4c:	70 ae 80    	mov.w     0x15ce, w0
    5c4e:	00 00 e0    	cp0.w     w0
    5c50:	9b 00 3a    	bra       NZ, 0x5d88 <_I2C_ERROR>
    5c52:	a0 ae 80    	mov.w     0x15d4, w0
    5c54:	70 00 60    	and.w     w0, #0x10, w0
    5c56:	00 00 e0    	cp0.w     w0
    5c58:	09 00 32    	bra       Z, 0x5c6c <.L114>
    5c5a:	31 ae 80    	mov.w     0x15c6, w1
    5c5c:	80 4a 21    	mov.w     #0x14a8, w0
    5c5e:	00 80 40    	add.w     w1, w0, w0
    5c60:	10 40 78    	mov.b     [w0], w0
    5c62:	00 80 fb    	ze        w0, w0
    5c64:	90 10 88    	mov.w     w0, 0x212
    5c66:	01 00 e8    	inc.w     w1, w0
    5c68:	30 ae 88    	mov.w     w0, 0x15c6
    5c6a:	0a 00 37    	bra       0x5c80 <.L116>

00005c6c <.L114>:
    5c6c:	d0 ad 80    	mov.w     0x15ba, w0
    5c6e:	00 00 40    	add.w     w0, w0, w0
    5c70:	80 00 e8    	inc.w     w0, w1
    5c72:	80 53 21    	mov.w     #0x1538, w0
    5c74:	00 80 40    	add.w     w1, w0, w0
    5c76:	10 40 78    	mov.b     [w0], w0
    5c78:	00 80 fb    	ze        w0, w0
    5c7a:	90 10 88    	mov.w     w0, 0x212
    5c7c:	90 02 20    	mov.w     #0x29, w0
    5c7e:	e0 ad 88    	mov.w     w0, 0x15bc

00005c80 <.L116>:
    5c80:	f0 ad 80    	mov.w     0x15be, w0
    5c82:	00 00 e9    	dec.w     w0, w0
    5c84:	f0 ad 88    	mov.w     w0, 0x15be
    5c86:	d0 ad 80    	mov.w     0x15ba, w0
    5c88:	00 00 e8    	inc.w     w0, w0
    5c8a:	d0 ad 88    	mov.w     w0, 0x15ba
    5c8c:	f0 ad 80    	mov.w     0x15be, w0
    5c8e:	00 00 e0    	cp0.w     w0
    5c90:	90 00 3d    	bra       GE, 0x5db2 <_I2C_DONE>
    5c92:	00 00 eb    	clr.w     w0
    5c94:	e0 ad 88    	mov.w     w0, 0x15bc
    5c96:	8d 00 37    	bra       0x5db2 <_I2C_DONE>

00005c98 <.L33>:
    5c98:	18 c2 bf    	mov.b     0x218, WREG
    5c9a:	62 40 60    	and.b     w0, #0x2, w0
    5c9c:	00 04 e0    	cp0.b     w0
    5c9e:	03 00 3a    	bra       NZ, 0x5ca6 <.L119>
    5ca0:	40 00 20    	mov.w     #0x4, w0
    5ca2:	70 ae 88    	mov.w     w0, 0x15ce
    5ca4:	02 00 37    	bra       0x5caa <.L121>

00005ca6 <.L119>:
    5ca6:	80 10 80    	mov.w     0x210, w0
    5ca8:	00 4f 98    	mov.b     w0, [w14+8]

00005caa <.L121>:
    5caa:	b0 10 80    	mov.w     0x216, w0
    5cac:	7f 00 60    	and.w     w0, #0x1f, w0
    5cae:	00 00 e0    	cp0.w     w0
    5cb0:	05 00 3a    	bra       NZ, 0x5cbc <.L122>
    5cb2:	c0 10 80    	mov.w     0x218, w0
    5cb4:	11 4c 24    	mov.w     #0x44c1, w1
    5cb6:	01 00 60    	and.w     w0, w1, w0
    5cb8:	00 00 e0    	cp0.w     w0
    5cba:	02 00 32    	bra       Z, 0x5cc0 <.L124>

00005cbc <.L122>:
    5cbc:	30 00 20    	mov.w     #0x3, w0
    5cbe:	70 ae 88    	mov.w     w0, 0x15ce

00005cc0 <.L124>:
    5cc0:	70 ae 80    	mov.w     0x15ce, w0
    5cc2:	00 00 e0    	cp0.w     w0
    5cc4:	61 00 3a    	bra       NZ, 0x5d88 <_I2C_ERROR>
    5cc6:	21 ae 80    	mov.w     0x15c4, w1
    5cc8:	80 4a 21    	mov.w     #0x14a8, w0
    5cca:	00 80 40    	add.w     w1, w0, w0
    5ccc:	0e 49 90    	mov.b     [w14+8], w2
    5cce:	02 48 78    	mov.b     w2, [w0]
    5cd0:	01 00 e8    	inc.w     w1, w0
    5cd2:	20 ae 88    	mov.w     w0, 0x15c4
    5cd4:	f0 ad 80    	mov.w     0x15be, w0
    5cd6:	00 00 e9    	dec.w     w0, w0
    5cd8:	f0 ad 88    	mov.w     w0, 0x15be
    5cda:	f0 ad 80    	mov.w     0x15be, w0
    5cdc:	00 00 e0    	cp0.w     w0
    5cde:	05 00 3d    	bra       GE, 0x5cea <.L126>
    5ce0:	40 03 20    	mov.w     #0x34, w0
    5ce2:	e0 ad 88    	mov.w     w0, 0x15bc
    5ce4:	16 a2 a8    	bset.b    0x216, #0x5
    5ce6:	16 82 a8    	bset.b    0x216, #0x4
    5ce8:	64 00 37    	bra       0x5db2 <_I2C_DONE>

00005cea <.L126>:
    5cea:	30 03 20    	mov.w     #0x33, w0
    5cec:	e0 ad 88    	mov.w     w0, 0x15bc
    5cee:	16 a2 a9    	bclr.b    0x216, #0x5
    5cf0:	16 82 a8    	bset.b    0x216, #0x4
    5cf2:	5f 00 37    	bra       0x5db2 <_I2C_DONE>

00005cf4 <.L39>:
    5cf4:	b0 10 80    	mov.w     0x216, w0
    5cf6:	7f 00 60    	and.w     w0, #0x1f, w0
    5cf8:	00 00 e0    	cp0.w     w0
    5cfa:	05 00 3a    	bra       NZ, 0x5d06 <.L129>
    5cfc:	c0 10 80    	mov.w     0x218, w0
    5cfe:	11 4c 24    	mov.w     #0x44c1, w1
    5d00:	01 00 60    	and.w     w0, w1, w0
    5d02:	00 00 e0    	cp0.w     w0
    5d04:	02 00 32    	bra       Z, 0x5d0a <.L131>

00005d06 <.L129>:
    5d06:	30 00 20    	mov.w     #0x3, w0
    5d08:	70 ae 88    	mov.w     w0, 0x15ce

00005d0a <.L131>:
    5d0a:	70 ae 80    	mov.w     0x15ce, w0
    5d0c:	00 00 e0    	cp0.w     w0
    5d0e:	3c 00 3a    	bra       NZ, 0x5d88 <_I2C_ERROR>
    5d10:	50 00 20    	mov.w     #0x5, w0
    5d12:	e0 ad 88    	mov.w     w0, 0x15bc
    5d14:	16 62 a8    	bset.b    0x216, #0x3
    5d16:	4d 00 37    	bra       0x5db2 <_I2C_DONE>

00005d18 <.L34>:
    5d18:	18 c2 bf    	mov.b     0x218, WREG
    5d1a:	62 40 60    	and.b     w0, #0x2, w0
    5d1c:	00 04 e0    	cp0.b     w0
    5d1e:	03 00 3a    	bra       NZ, 0x5d26 <.L133>
    5d20:	40 00 20    	mov.w     #0x4, w0
    5d22:	70 ae 88    	mov.w     w0, 0x15ce
    5d24:	02 00 37    	bra       0x5d2a <.L135>

00005d26 <.L133>:
    5d26:	80 10 80    	mov.w     0x210, w0
    5d28:	00 4f 98    	mov.b     w0, [w14+8]

00005d2a <.L135>:
    5d2a:	b0 10 80    	mov.w     0x216, w0
    5d2c:	7f 00 60    	and.w     w0, #0x1f, w0
    5d2e:	00 00 e0    	cp0.w     w0
    5d30:	05 00 3a    	bra       NZ, 0x5d3c <.L136>
    5d32:	c0 10 80    	mov.w     0x218, w0
    5d34:	11 4c 24    	mov.w     #0x44c1, w1
    5d36:	01 00 60    	and.w     w0, w1, w0
    5d38:	00 00 e0    	cp0.w     w0
    5d3a:	02 00 32    	bra       Z, 0x5d40 <.L138>

00005d3c <.L136>:
    5d3c:	30 00 20    	mov.w     #0x3, w0
    5d3e:	70 ae 88    	mov.w     w0, 0x15ce

00005d40 <.L138>:
    5d40:	70 ae 80    	mov.w     0x15ce, w0
    5d42:	00 00 e0    	cp0.w     w0
    5d44:	21 00 3a    	bra       NZ, 0x5d88 <_I2C_ERROR>
    5d46:	21 ae 80    	mov.w     0x15c4, w1
    5d48:	80 4a 21    	mov.w     #0x14a8, w0
    5d4a:	00 80 40    	add.w     w1, w0, w0
    5d4c:	8e 49 90    	mov.b     [w14+8], w3
    5d4e:	03 48 78    	mov.b     w3, [w0]
    5d50:	01 00 e8    	inc.w     w1, w0
    5d52:	20 ae 88    	mov.w     w0, 0x15c4
    5d54:	16 a2 a8    	bset.b    0x216, #0x5
    5d56:	16 82 a8    	bset.b    0x216, #0x4
    5d58:	40 03 20    	mov.w     #0x34, w0
    5d5a:	e0 ad 88    	mov.w     w0, 0x15bc
    5d5c:	2a 00 37    	bra       0x5db2 <_I2C_DONE>

00005d5e <.L40>:
    5d5e:	b0 10 80    	mov.w     0x216, w0
    5d60:	7f 00 60    	and.w     w0, #0x1f, w0
    5d62:	00 00 e0    	cp0.w     w0
    5d64:	05 00 3a    	bra       NZ, 0x5d70 <.L140>
    5d66:	c0 10 80    	mov.w     0x218, w0
    5d68:	11 4c 24    	mov.w     #0x44c1, w1
    5d6a:	01 00 60    	and.w     w0, w1, w0
    5d6c:	00 00 e0    	cp0.w     w0
    5d6e:	02 00 32    	bra       Z, 0x5d74 <.L142>

00005d70 <.L140>:
    5d70:	30 00 20    	mov.w     #0x3, w0
    5d72:	70 ae 88    	mov.w     w0, 0x15ce

00005d74 <.L142>:
    5d74:	70 ae 80    	mov.w     0x15ce, w0
    5d76:	00 00 e0    	cp0.w     w0
    5d78:	07 00 3a    	bra       NZ, 0x5d88 <_I2C_ERROR>
    5d7a:	00 00 eb    	clr.w     w0
    5d7c:	e0 ad 88    	mov.w     w0, 0x15bc
    5d7e:	d0 ad 80    	mov.w     0x15ba, w0
    5d80:	00 00 e8    	inc.w     w0, w0
    5d82:	d0 ad 88    	mov.w     w0, 0x15ba
    5d84:	8a 40 a8    	bset.b    0x8a, #0x2
    5d86:	15 00 37    	bra       0x5db2 <_I2C_DONE>

00005d88 <_I2C_ERROR>:
    5d88:	b0 10 80    	mov.w     0x216, w0
    5d8a:	80 ae 88    	mov.w     w0, 0x15d0
    5d8c:	c0 10 80    	mov.w     0x218, w0
    5d8e:	90 ae 88    	mov.w     w0, 0x15d2
    5d90:	60 5d 21    	mov.w     #0x15d6, w0
    5d92:	81 5b 21    	mov.w     #0x15b8, w1
    5d94:	0e 00 09    	repeat    #0xe
    5d96:	31 18 78    	mov.w     [w1++], [w0++]
    5d98:	52 57 80    	mov.w     0xaea, w2
    5d9a:	63 57 80    	mov.w     0xaec, w3
    5d9c:	72 d9 88    	mov.w     w2, 0x1b2e
    5d9e:	83 d9 88    	mov.w     w3, 0x1b30
    5da0:	e0 03 20    	mov.w     #0x3e, w0
    5da2:	d0 ad 88    	mov.w     w0, 0x15ba
    5da4:	00 00 eb    	clr.w     w0
    5da6:	e0 ad 88    	mov.w     w0, 0x15bc
    5da8:	70 ae 80    	mov.w     0x15ce, w0
    5daa:	e3 0f 50    	sub.w     w0, #0x3, [w15]
    5dac:	01 00 3a    	bra       NZ, 0x5db0 <.L145>
    5dae:	af fc 07    	rcall     0x570e <_udb_init_I2C2>

00005db0 <.L145>:
    5db0:	8a 40 a8    	bset.b    0x8a, #0x2

00005db2 <_I2C_DONE>:
    5db2:	1e 00 78    	mov.w     [w14], w0
    5db4:	4f 00 78    	mov.w     [--w15], w0
    5db6:	00 0f 78    	mov.w     w0, [w14]
    5db8:	1e 00 e0    	cp0.w     [w14]
    5dba:	12 00 32    	bra       Z, 0x5de0 <.L149>
    5dbc:	40 00 f9    	pop       0x40
    5dbe:	3e 00 f9    	pop       0x3e
    5dc0:	3c 00 f9    	pop       0x3c
    5dc2:	3a 00 f9    	pop       0x3a
    5dc4:	38 00 f9    	pop       0x38
    5dc6:	36 00 f9    	pop       0x36
    5dc8:	2c 00 f9    	pop       0x2c
    5dca:	2a 00 f9    	pop       0x2a
    5dcc:	28 00 f9    	pop       0x28
    5dce:	26 00 f9    	pop       0x26
    5dd0:	24 00 f9    	pop       0x24
    5dd2:	22 00 f9    	pop       0x22
    5dd4:	50 00 f9    	pop       0x50
    5dd6:	46 00 f9    	pop       0x46
    5dd8:	42 00 f9    	pop       0x42
    5dda:	44 00 f9    	pop       0x44
    5ddc:	10 00 20    	mov.w     #0x1, w0
    5dde:	30 55 88    	mov.w     w0, 0xaa6

00005de0 <.L149>:
    5de0:	00 80 fa    	ulnk      
    5de2:	4f 03 be    	mov.d     [--w15], w6
    5de4:	4f 02 be    	mov.d     [--w15], w4
    5de6:	4f 01 be    	mov.d     [--w15], w2
    5de8:	4f 00 be    	mov.d     [--w15], w0
    5dea:	36 00 f9    	pop       0x36
    5dec:	00 40 06    	retfie    

00005dee <_I2C_Start>:
    5dee:	04 00 fa    	lnk       #0x4
    5df0:	00 0f 78    	mov.w     w0, [w14]
    5df2:	00 80 eb    	setm.w    w0
    5df4:	9e 0f 10    	subr.w    w0, [w14], [w15]
    5df6:	06 00 35    	bra       LT, 0x5e04 <.L151>
    5df8:	10 00 20    	mov.w     #0x1, w0
    5dfa:	9e 0f 10    	subr.w    w0, [w14], [w15]
    5dfc:	03 00 3c    	bra       GT, 0x5e04 <.L151>
    5dfe:	30 00 20    	mov.w     #0x3, w0
    5e00:	00 ba 88    	mov.w     w0, 0x1740
    5e02:	0a 00 37    	bra       0x5e18 <.L154>

00005e04 <.L151>:
    5e04:	1e 00 78    	mov.w     [w14], w0
    5e06:	10 07 98    	mov.w     w0, [w14+2]
    5e08:	1e 00 90    	mov.w     [w14+2], w0
    5e0a:	00 00 e0    	cp0.w     w0
    5e0c:	03 00 3d    	bra       GE, 0x5e14 <.L155>
    5e0e:	1e 00 90    	mov.w     [w14+2], w0
    5e10:	00 00 ea    	neg.w     w0, w0
    5e12:	10 07 98    	mov.w     w0, [w14+2]

00005e14 <.L155>:
    5e14:	1e 00 90    	mov.w     [w14+2], w0
    5e16:	00 ba 88    	mov.w     w0, 0x1740

00005e18 <.L154>:
    5e18:	1e 00 e0    	cp0.w     [w14]
    5e1a:	0e 00 35    	bra       LT, 0x5e38 <.L156>
    5e1c:	00 00 eb    	clr.w     w0
    5e1e:	e0 ad 88    	mov.w     w0, 0x15bc
    5e20:	00 00 eb    	clr.w     w0
    5e22:	30 ae 88    	mov.w     w0, 0x15c6
    5e24:	00 00 eb    	clr.w     w0
    5e26:	20 ae 88    	mov.w     w0, 0x15c4
    5e28:	00 00 eb    	clr.w     w0
    5e2a:	d0 ad 88    	mov.w     w0, 0x15ba
    5e2c:	00 00 eb    	clr.w     w0
    5e2e:	70 ae 88    	mov.w     w0, 0x15ce
    5e30:	00 00 eb    	clr.w     w0
    5e32:	80 ae 88    	mov.w     w0, 0x15d0
    5e34:	00 00 eb    	clr.w     w0
    5e36:	90 ae 88    	mov.w     w0, 0x15d2

00005e38 <.L156>:
    5e38:	8a 40 a8    	bset.b    0x8a, #0x2
    5e3a:	00 80 fa    	ulnk      
    5e3c:	00 00 06    	return    

00005e3e <_I2C_Reset>:
    5e3e:	00 00 fa    	lnk       #0x0
    5e40:	66 fc 07    	rcall     0x570e <_udb_init_I2C2>
    5e42:	20 d0 84    	mov.w     0x9a04, w0
    5e44:	c0 a9 88    	mov.w     w0, 0x1538
    5e46:	30 d0 84    	mov.w     0x9a06, w0
    5e48:	d0 a9 88    	mov.w     w0, 0x153a
    5e4a:	40 d0 84    	mov.w     0x9a08, w0
    5e4c:	e0 a9 88    	mov.w     w0, 0x153c
    5e4e:	00 00 eb    	clr.w     w0
    5e50:	ce ff 07    	rcall     0x5dee <_I2C_Start>
    5e52:	00 80 fa    	ulnk      
    5e54:	00 00 06    	return    

00005e56 <_I2C_default>:
    5e56:	00 00 fa    	lnk       #0x0
    5e58:	00 80 fa    	ulnk      
    5e5a:	00 00 06    	return    

00005e5c <_udb_init_capture>:
    5e5c:	02 00 fa    	lnk       #0x2
    5e5e:	00 00 eb    	clr.w     w0
    5e60:	00 0f 78    	mov.w     w0, [w14]
    5e62:	10 00 37    	bra       0x5e84 <.L2>

00005e64 <.L3>:
    5e64:	9e 01 78    	mov.w     [w14], w3
    5e66:	9e 00 78    	mov.w     [w14], w1
    5e68:	01 81 40    	add.w     w1, w1, w2
    5e6a:	00 d1 20    	mov.w     #0xd10, w0
    5e6c:	00 01 41    	add.w     w2, w0, w2
    5e6e:	00 00 eb    	clr.w     w0
    5e70:	00 09 78    	mov.w     w0, [w2]
    5e72:	81 80 40    	add.w     w1, w1, w1
    5e74:	00 d1 20    	mov.w     #0xd10, w0
    5e76:	00 80 40    	add.w     w1, w0, w0
    5e78:	10 01 78    	mov.w     [w0], w2
    5e7a:	83 80 41    	add.w     w3, w3, w1
    5e7c:	e0 c8 20    	mov.w     #0xc8e, w0
    5e7e:	00 80 40    	add.w     w1, w0, w0
    5e80:	02 08 78    	mov.w     w2, [w0]
    5e82:	1e 0f e8    	inc.w     [w14], [w14]

00005e84 <.L2>:
    5e84:	80 00 20    	mov.w     #0x8, w0
    5e86:	9e 0f 10    	subr.w    w0, [w14], [w15]
    5e88:	ed ff 34    	bra       LE, 0x5e64 <.L3>
    5e8a:	00 00 eb    	clr.w     w0
    5e8c:	80 08 88    	mov.w     w0, 0x110
    5e8e:	00 00 eb    	clr.w     w0
    5e90:	30 08 88    	mov.w     w0, 0x106
    5e92:	00 80 eb    	setm.w    w0
    5e94:	60 08 88    	mov.w     w0, 0x10c
    5e96:	01 11 20    	mov.w     #0x110, w1
    5e98:	91 40 78    	mov.b     [w1], w1
    5e9a:	f0 cc b3    	mov.b     #0xcf, w0
    5e9c:	00 c0 60    	and.b     w1, w0, w0
    5e9e:	00 44 a0    	bset.b    w0, #0x4
    5ea0:	10 e1 b7    	mov.b     WREG, 0x110
    5ea2:	10 21 a9    	bclr.b    0x110, #0x1
    5ea4:	11 e1 a8    	bset.b    0x111, #0x7
    5ea6:	71 0a 20    	mov.w     #0xa7, w1
    5ea8:	91 40 78    	mov.b     [w1], w1
    5eaa:	f0 c8 b3    	mov.b     #0x8f, w0
    5eac:	00 c0 60    	and.b     w1, w0, w0
    5eae:	01 c6 b3    	mov.b     #0x60, w1
    5eb0:	01 40 70    	ior.b     w0, w1, w0
    5eb2:	a7 e0 b7    	mov.b     WREG, 0xa7
    5eb4:	84 e0 a9    	bclr.b    0x84, #0x7
    5eb6:	94 e0 a8    	bset.b    0x94, #0x7
    5eb8:	00 00 eb    	clr.w     w0
    5eba:	10 0a 88    	mov.w     w0, 0x142
    5ebc:	42 e1 a8    	bset.b    0x142, #0x7
    5ebe:	21 14 20    	mov.w     #0x142, w1
    5ec0:	91 40 78    	mov.b     [w1], w1
    5ec2:	80 cf b3    	mov.b     #0xf8, w0
    5ec4:	00 c0 60    	and.b     w1, w0, w0
    5ec6:	00 04 a0    	bset.b    w0, #0x0
    5ec8:	42 e1 b7    	mov.b     WREG, 0x142
    5eca:	10 0a 80    	mov.w     0x142, w0
    5ecc:	30 0a 88    	mov.w     w0, 0x146
    5ece:	30 0a 80    	mov.w     0x146, w0
    5ed0:	50 0a 88    	mov.w     w0, 0x14a
    5ed2:	50 0a 80    	mov.w     0x14a, w0
    5ed4:	70 0a 88    	mov.w     w0, 0x14e
    5ed6:	70 0a 80    	mov.w     0x14e, w0
    5ed8:	90 0a 88    	mov.w     w0, 0x152
    5eda:	90 0a 80    	mov.w     0x152, w0
    5edc:	b0 0a 88    	mov.w     w0, 0x156
    5ede:	b0 0a 80    	mov.w     0x156, w0
    5ee0:	d0 0a 88    	mov.w     w0, 0x15a
    5ee2:	d0 0a 80    	mov.w     0x15a, w0
    5ee4:	f0 0a 88    	mov.w     w0, 0x15e
    5ee6:	d3 02 a8    	bset.b    0x2d3, #0x0
    5ee8:	d3 22 a8    	bset.b    0x2d3, #0x1
    5eea:	d3 42 a8    	bset.b    0x2d3, #0x2
    5eec:	d3 62 a8    	bset.b    0x2d3, #0x3
    5eee:	d3 82 a8    	bset.b    0x2d3, #0x4
    5ef0:	d3 a2 a8    	bset.b    0x2d3, #0x5
    5ef2:	d3 c2 a8    	bset.b    0x2d3, #0x6
    5ef4:	d3 e2 a8    	bset.b    0x2d3, #0x7
    5ef6:	41 0a 20    	mov.w     #0xa4, w1
    5ef8:	91 40 78    	mov.b     [w1], w1
    5efa:	f0 c8 b3    	mov.b     #0x8f, w0
    5efc:	00 c0 60    	and.b     w1, w0, w0
    5efe:	01 c6 b3    	mov.b     #0x60, w1
    5f00:	01 40 70    	ior.b     w0, w1, w0
    5f02:	a4 e0 b7    	mov.b     WREG, 0xa4
    5f04:	61 0a 20    	mov.w     #0xa6, w1
    5f06:	91 40 78    	mov.b     [w1], w1
    5f08:	f0 c8 b3    	mov.b     #0x8f, w0
    5f0a:	00 c0 60    	and.b     w1, w0, w0
    5f0c:	01 c6 b3    	mov.b     #0x60, w1
    5f0e:	01 40 70    	ior.b     w0, w1, w0
    5f10:	a6 e0 b7    	mov.b     WREG, 0xa6
    5f12:	61 0b 20    	mov.w     #0xb6, w1
    5f14:	91 40 78    	mov.b     [w1], w1
    5f16:	f0 c8 b3    	mov.b     #0x8f, w0
    5f18:	00 c0 60    	and.b     w1, w0, w0
    5f1a:	01 c6 b3    	mov.b     #0x60, w1
    5f1c:	01 40 70    	ior.b     w0, w1, w0
    5f1e:	b6 e0 b7    	mov.b     WREG, 0xb6
    5f20:	71 0b 20    	mov.w     #0xb7, w1
    5f22:	91 40 78    	mov.b     [w1], w1
    5f24:	80 cf b3    	mov.b     #0xf8, w0
    5f26:	00 c0 60    	and.b     w1, w0, w0
    5f28:	60 40 b3    	ior.b     #0x6, w0
    5f2a:	b7 e0 b7    	mov.b     WREG, 0xb7
    5f2c:	71 0b 20    	mov.w     #0xb7, w1
    5f2e:	91 40 78    	mov.b     [w1], w1
    5f30:	f0 c8 b3    	mov.b     #0x8f, w0
    5f32:	00 c0 60    	and.b     w1, w0, w0
    5f34:	01 c6 b3    	mov.b     #0x60, w1
    5f36:	01 40 70    	ior.b     w0, w1, w0
    5f38:	b7 e0 b7    	mov.b     WREG, 0xb7
    5f3a:	81 0b 20    	mov.w     #0xb8, w1
    5f3c:	91 40 78    	mov.b     [w1], w1
    5f3e:	80 cf b3    	mov.b     #0xf8, w0
    5f40:	00 c0 60    	and.b     w1, w0, w0
    5f42:	60 40 b3    	ior.b     #0x6, w0
    5f44:	b8 e0 b7    	mov.b     WREG, 0xb8
    5f46:	f1 0a 20    	mov.w     #0xaf, w1
    5f48:	91 40 78    	mov.b     [w1], w1
    5f4a:	80 cf b3    	mov.b     #0xf8, w0
    5f4c:	00 c0 60    	and.b     w1, w0, w0
    5f4e:	60 40 b3    	ior.b     #0x6, w0
    5f50:	af e0 b7    	mov.b     WREG, 0xaf
    5f52:	f1 0a 20    	mov.w     #0xaf, w1
    5f54:	91 40 78    	mov.b     [w1], w1
    5f56:	f0 c8 b3    	mov.b     #0x8f, w0
    5f58:	00 c0 60    	and.b     w1, w0, w0
    5f5a:	01 c6 b3    	mov.b     #0x60, w1
    5f5c:	01 40 70    	ior.b     w0, w1, w0
    5f5e:	af e0 b7    	mov.b     WREG, 0xaf
    5f60:	84 20 a9    	bclr.b    0x84, #0x1
    5f62:	84 a0 a9    	bclr.b    0x84, #0x5
    5f64:	88 a0 a9    	bclr.b    0x88, #0x5
    5f66:	88 c0 a9    	bclr.b    0x88, #0x6
    5f68:	88 e0 a9    	bclr.b    0x88, #0x7
    5f6a:	89 00 a9    	bclr.b    0x89, #0x0
    5f6c:	86 c0 a9    	bclr.b    0x86, #0x6
    5f6e:	86 e0 a9    	bclr.b    0x86, #0x7
    5f70:	94 20 a8    	bset.b    0x94, #0x1
    5f72:	94 a0 a8    	bset.b    0x94, #0x5
    5f74:	98 a0 a8    	bset.b    0x98, #0x5
    5f76:	98 c0 a8    	bset.b    0x98, #0x6
    5f78:	98 e0 a8    	bset.b    0x98, #0x7
    5f7a:	99 00 a8    	bset.b    0x99, #0x0
    5f7c:	96 c0 a8    	bset.b    0x96, #0x6
    5f7e:	96 e0 a8    	bset.b    0x96, #0x7
    5f80:	00 80 fa    	ulnk      
    5f82:	00 00 06    	return    

00005f84 <_rc_pin>:
    5f84:	10 00 fa    	lnk       #0x10
    5f86:	30 07 98    	mov.w     w0, [w14+6]
    5f88:	41 07 98    	mov.w     w1, [w14+8]
    5f8a:	52 07 98    	mov.w     w2, [w14+10]
    5f8c:	5e 00 90    	mov.w     [w14+10], w0
    5f8e:	20 00 90    	mov.w     [w0+4], w0
    5f90:	44 00 de    	lsr.w     w0, #0x4, w0
    5f92:	7f 40 60    	and.b     w0, #0x1f, w0
    5f94:	00 80 fb    	ze        w0, w0
    5f96:	70 07 98    	mov.w     w0, [w14+14]
    5f98:	7e 00 90    	mov.w     [w14+14], w0
    5f9a:	ee 0f 50    	sub.w     w0, #0xe, [w15]
    5f9c:	1c 00 32    	bra       Z, 0x5fd6 <.L8>
    5f9e:	fe 00 90    	mov.w     [w14+14], w1
    5fa0:	ee 8f 50    	sub.w     w1, #0xe, [w15]
    5fa2:	07 00 3c    	bra       GT, 0x5fb2 <.L12>
    5fa4:	7e 00 90    	mov.w     [w14+14], w0
    5fa6:	ec 0f 50    	sub.w     w0, #0xc, [w15]
    5fa8:	16 00 32    	bra       Z, 0x5fd6 <.L8>
    5faa:	fe 00 90    	mov.w     [w14+14], w1
    5fac:	ed 8f 50    	sub.w     w1, #0xd, [w15]
    5fae:	0b 00 32    	bra       Z, 0x5fc6 <.L9>
    5fb0:	02 02 37    	bra       0x63b6 <.L74>

00005fb2 <.L12>:
    5fb2:	7e 00 90    	mov.w     [w14+14], w0
    5fb4:	f0 0f 50    	sub.w     w0, #0x10, [w15]
    5fb6:	23 01 32    	bra       Z, 0x61fe <.L10>
    5fb8:	fe 00 90    	mov.w     [w14+14], w1
    5fba:	f0 8f 50    	sub.w     w1, #0x10, [w15]
    5fbc:	04 00 35    	bra       LT, 0x5fc6 <.L9>
    5fbe:	7e 00 90    	mov.w     [w14+14], w0
    5fc0:	f1 0f 50    	sub.w     w0, #0x11, [w15]
    5fc2:	15 01 32    	bra       Z, 0x61ee <.L11>
    5fc4:	f8 01 37    	bra       0x63b6 <.L74>

00005fc6 <.L9>:
    5fc6:	4e 00 90    	mov.w     [w14+8], w0
    5fc8:	e1 0f 50    	sub.w     w0, #0x1, [w15]
    5fca:	03 00 3a    	bra       NZ, 0x5fd2 <.L13>
    5fcc:	00 00 eb    	clr.w     w0
    5fce:	40 07 98    	mov.w     w0, [w14+8]
    5fd0:	02 00 37    	bra       0x5fd6 <.L8>

00005fd2 <.L13>:
    5fd2:	10 00 20    	mov.w     #0x1, w0
    5fd4:	40 07 98    	mov.w     w0, [w14+8]

00005fd6 <.L8>:
    5fd6:	4e 00 90    	mov.w     [w14+8], w0
    5fd8:	e1 0f 50    	sub.w     w0, #0x1, [w15]
    5fda:	07 00 3a    	bra       NZ, 0x5fea <.L15>
    5fdc:	5e 00 90    	mov.w     [w14+10], w0
    5fde:	be 00 90    	mov.w     [w14+6], w1
    5fe0:	41 00 98    	mov.w     w1, [w0+8]
    5fe2:	21 da 80    	mov.w     0x1b44, w1
    5fe4:	5e 00 90    	mov.w     [w14+10], w0
    5fe6:	51 00 98    	mov.w     w1, [w0+10]
    5fe8:	e6 01 37    	bra       0x63b6 <.L74>

00005fea <.L15>:
    5fea:	5e 00 90    	mov.w     [w14+10], w0
    5fec:	be 00 90    	mov.w     [w14+6], w1
    5fee:	61 00 98    	mov.w     w1, [w0+12]
    5ff0:	21 da 80    	mov.w     0x1b44, w1
    5ff2:	5e 00 90    	mov.w     [w14+10], w0
    5ff4:	71 00 98    	mov.w     w1, [w0+14]
    5ff6:	5e 00 90    	mov.w     [w14+10], w0
    5ff8:	60 01 90    	mov.w     [w0+12], w2
    5ffa:	f0 01 90    	mov.w     [w0+14], w3
    5ffc:	5e 00 90    	mov.w     [w14+10], w0
    5ffe:	d0 00 90    	mov.w     [w0+10], w1
    6000:	40 00 90    	mov.w     [w0+8], w0
    6002:	00 00 51    	sub.w     w2, w0, w0
    6004:	81 80 59    	subb.w    w3, w1, w1
    6006:	10 07 98    	mov.w     w0, [w14+2]
    6008:	21 07 98    	mov.w     w1, [w14+4]
    600a:	1e 01 90    	mov.w     [w14+2], w2
    600c:	ae 01 90    	mov.w     [w14+4], w3
    600e:	00 00 20    	mov.w     #0x0, w0
    6010:	11 00 20    	mov.w     #0x1, w1
    6012:	80 0f 51    	sub.w     w2, w0, [w15]
    6014:	81 8f 59    	subb.w    w3, w1, [w15]
    6016:	08 00 36    	bra       LEU, 0x6028 <.L18>
    6018:	1e 00 90    	mov.w     [w14+2], w0
    601a:	ae 00 90    	mov.w     [w14+4], w1
    601c:	02 00 20    	mov.w     #0x0, w2
    601e:	f3 ff 2f    	mov.w     #0xffff, w3
    6020:	00 00 41    	add.w     w2, w0, w0
    6022:	81 80 49    	addc.w    w3, w1, w1
    6024:	10 07 98    	mov.w     w0, [w14+2]
    6026:	21 07 98    	mov.w     w1, [w14+4]

00006028 <.L18>:
    6028:	1e 01 90    	mov.w     [w14+2], w2
    602a:	ae 01 90    	mov.w     [w14+4], w3
    602c:	80 af 22    	mov.w     #0x2af8, w0
    602e:	01 00 20    	mov.w     #0x0, w1
    6030:	80 0f 51    	sub.w     w2, w0, [w15]
    6032:	81 8f 59    	subb.w    w3, w1, [w15]
    6034:	03 00 36    	bra       LEU, 0x603c <.L20>
    6036:	80 af 22    	mov.w     #0x2af8, w0
    6038:	00 0f 78    	mov.w     w0, [w14]
    603a:	2e 00 37    	bra       0x6098 <.L22>

0000603c <.L20>:
    603c:	1e 01 90    	mov.w     [w14+2], w2
    603e:	ae 01 90    	mov.w     [w14+4], w3
    6040:	f0 f9 20    	mov.w     #0xf9f, w0
    6042:	01 00 20    	mov.w     #0x0, w1
    6044:	80 0f 51    	sub.w     w2, w0, [w15]
    6046:	81 8f 59    	subb.w    w3, w1, [w15]
    6048:	03 00 3e    	bra       GTU, 0x6050 <.L23>
    604a:	00 fa 20    	mov.w     #0xfa0, w0
    604c:	00 0f 78    	mov.w     w0, [w14]
    604e:	24 00 37    	bra       0x6098 <.L22>

00006050 <.L23>:
    6050:	1e 00 90    	mov.w     [w14+2], w0
    6052:	00 0f 78    	mov.w     w0, [w14]
    6054:	5e 00 90    	mov.w     [w14+10], w0
    6056:	10 00 90    	mov.w     [w0+2], w0
    6058:	70 00 60    	and.w     w0, #0x10, w0
    605a:	00 00 e0    	cp0.w     w0
    605c:	1d 00 32    	bra       Z, 0x6098 <.L22>
    605e:	5e 00 90    	mov.w     [w14+10], w0
    6060:	10 00 90    	mov.w     [w0+2], w0
    6062:	6f 40 60    	and.b     w0, #0xf, w0
    6064:	00 40 e9    	dec.b     w0, w0
    6066:	6f 40 60    	and.b     w0, #0xf, w0
    6068:	5e 01 90    	mov.w     [w14+10], w2
    606a:	00 80 fb    	ze        w0, w0
    606c:	ef 01 60    	and.w     w0, #0xf, w3
    606e:	92 00 90    	mov.w     [w2+2], w1
    6070:	00 ff 2f    	mov.w     #0xfff0, w0
    6072:	00 80 60    	and.w     w1, w0, w0
    6074:	03 00 70    	ior.w     w0, w3, w0
    6076:	10 01 98    	mov.w     w0, [w2+2]
    6078:	5e 00 90    	mov.w     [w14+10], w0
    607a:	10 00 90    	mov.w     [w0+2], w0
    607c:	6f 40 60    	and.b     w0, #0xf, w0
    607e:	00 04 e0    	cp0.b     w0
    6080:	0b 00 3a    	bra       NZ, 0x6098 <.L22>
    6082:	5e 01 90    	mov.w     [w14+10], w2
    6084:	92 00 90    	mov.w     [w2+2], w1
    6086:	f0 fe 2f    	mov.w     #0xffef, w0
    6088:	00 80 60    	and.w     w1, w0, w0
    608a:	10 01 98    	mov.w     w0, [w2+2]
    608c:	5e 01 90    	mov.w     [w14+10], w2
    608e:	92 00 90    	mov.w     [w2+2], w1
    6090:	00 ff 2f    	mov.w     #0xfff0, w0
    6092:	00 80 60    	and.w     w1, w0, w0
    6094:	00 30 a0    	bset.w    w0, #0x3
    6096:	10 01 98    	mov.w     w0, [w2+2]

00006098 <.L22>:
    6098:	5e 00 90    	mov.w     [w14+10], w0
    609a:	10 00 90    	mov.w     [w0+2], w0
    609c:	70 00 60    	and.w     w0, #0x10, w0
    609e:	00 00 e0    	cp0.w     w0
    60a0:	45 00 32    	bra       Z, 0x612c <.L27>
    60a2:	5e 00 90    	mov.w     [w14+10], w0
    60a4:	10 00 90    	mov.w     [w0+2], w0
    60a6:	45 00 de    	lsr.w     w0, #0x5, w0
    60a8:	67 40 60    	and.b     w0, #0x7, w0
    60aa:	00 80 fb    	ze        w0, w0
    60ac:	60 07 98    	mov.w     w0, [w14+12]
    60ae:	ee 00 90    	mov.w     [w14+12], w1
    60b0:	e3 8f 50    	sub.w     w1, #0x3, [w15]
    60b2:	1a 00 32    	bra       Z, 0x60e8 <.L33>
    60b4:	6e 00 90    	mov.w     [w14+12], w0
    60b6:	e3 0f 50    	sub.w     w0, #0x3, [w15]
    60b8:	07 00 3c    	bra       GT, 0x60c8 <.L37>
    60ba:	ee 00 90    	mov.w     [w14+12], w1
    60bc:	e1 8f 50    	sub.w     w1, #0x1, [w15]
    60be:	0e 00 32    	bra       Z, 0x60dc <.L31>
    60c0:	6e 00 90    	mov.w     [w14+12], w0
    60c2:	e1 0f 50    	sub.w     w0, #0x1, [w15]
    60c4:	0e 00 3c    	bra       GT, 0x60e2 <.L32>
    60c6:	3f 00 37    	bra       0x6146 <.L40>

000060c8 <.L37>:
    60c8:	ee 00 90    	mov.w     [w14+12], w1
    60ca:	e5 8f 50    	sub.w     w1, #0x5, [w15]
    60cc:	13 00 32    	bra       Z, 0x60f4 <.L35>
    60ce:	6e 00 90    	mov.w     [w14+12], w0
    60d0:	e5 0f 50    	sub.w     w0, #0x5, [w15]
    60d2:	0d 00 35    	bra       LT, 0x60ee <.L34>
    60d4:	ee 00 90    	mov.w     [w14+12], w1
    60d6:	e6 8f 50    	sub.w     w1, #0x6, [w15]
    60d8:	10 00 32    	bra       Z, 0x60fa <.L36>
    60da:	35 00 37    	bra       0x6146 <.L40>

000060dc <.L31>:
    60dc:	00 fa 20    	mov.w     #0xfa0, w0
    60de:	00 0f 78    	mov.w     w0, [w14]
    60e0:	32 00 37    	bra       0x6146 <.L40>

000060e2 <.L32>:
    60e2:	80 af 22    	mov.w     #0x2af8, w0
    60e4:	00 0f 78    	mov.w     w0, [w14]
    60e6:	2f 00 37    	bra       0x6146 <.L40>

000060e8 <.L33>:
    60e8:	c0 d4 21    	mov.w     #0x1d4c, w0
    60ea:	00 0f 78    	mov.w     w0, [w14]
    60ec:	2c 00 37    	bra       0x6146 <.L40>

000060ee <.L34>:
    60ee:	a0 3b 21    	mov.w     #0x13ba, w0
    60f0:	00 0f 78    	mov.w     w0, [w14]
    60f2:	29 00 37    	bra       0x6146 <.L40>

000060f4 <.L35>:
    60f4:	e0 6d 22    	mov.w     #0x26de, w0
    60f6:	00 0f 78    	mov.w     w0, [w14]
    60f8:	26 00 37    	bra       0x6146 <.L40>

000060fa <.L36>:
    60fa:	5e 00 90    	mov.w     [w14+10], w0
    60fc:	b0 00 90    	mov.w     [w0+6], w1
    60fe:	f0 03 20    	mov.w     #0x3f, w0
    6100:	00 80 60    	and.w     w1, w0, w0
    6102:	00 00 e0    	cp0.w     w0
    6104:	10 00 32    	bra       Z, 0x6126 <.L38>
    6106:	5e 00 90    	mov.w     [w14+10], w0
    6108:	30 00 90    	mov.w     [w0+6], w0
    610a:	f0 43 b2    	and.b     #0x3f, w0
    610c:	00 80 fb    	ze        w0, w0
    610e:	80 00 40    	add.w     w0, w0, w1
    6110:	e0 c8 20    	mov.w     #0xc8e, w0
    6112:	00 80 40    	add.w     w1, w0, w0
    6114:	10 00 78    	mov.w     [w0], w0
    6116:	82 00 20    	mov.w     #0x8, w2
    6118:	11 00 09    	repeat    #0x11
    611a:	02 00 d8    	div.sw    w0, w2
    611c:	80 00 78    	mov.w     w0, w1
    611e:	c0 d4 21    	mov.w     #0x1d4c, w0
    6120:	00 80 40    	add.w     w1, w0, w0
    6122:	00 0f 78    	mov.w     w0, [w14]
    6124:	10 00 37    	bra       0x6146 <.L40>

00006126 <.L38>:
    6126:	c0 d4 21    	mov.w     #0x1d4c, w0
    6128:	00 0f 78    	mov.w     w0, [w14]
    612a:	0d 00 37    	bra       0x6146 <.L40>

0000612c <.L27>:
    612c:	5e 00 90    	mov.w     [w14+10], w0
    612e:	10 00 90    	mov.w     [w0+2], w0
    6130:	6f 40 60    	and.b     w0, #0xf, w0
    6132:	00 40 e8    	inc.b     w0, w0
    6134:	6f 40 60    	and.b     w0, #0xf, w0
    6136:	5e 01 90    	mov.w     [w14+10], w2
    6138:	00 80 fb    	ze        w0, w0
    613a:	ef 01 60    	and.w     w0, #0xf, w3
    613c:	92 00 90    	mov.w     [w2+2], w1
    613e:	00 ff 2f    	mov.w     #0xfff0, w0
    6140:	00 80 60    	and.w     w1, w0, w0
    6142:	03 00 70    	ior.w     w0, w3, w0
    6144:	10 01 98    	mov.w     w0, [w2+2]

00006146 <.L40>:
    6146:	40 2b 2e    	mov.w     #0xe2b4, w0
    6148:	1e 0f 40    	add.w     w0, [w14], [w14]
    614a:	1e 00 78    	mov.w     [w14], w0
    614c:	43 00 dd    	sl.w      w0, #0x3, w0
    614e:	00 0f 78    	mov.w     w0, [w14]
    6150:	9e 00 78    	mov.w     [w14], w1
    6152:	5e 00 90    	mov.w     [w14+10], w0
    6154:	01 08 78    	mov.w     w1, [w0]
    6156:	5e 00 90    	mov.w     [w14+10], w0
    6158:	20 00 90    	mov.w     [w0+4], w0
    615a:	6f 41 60    	and.b     w0, #0xf, w2
    615c:	02 80 fb    	ze        w2, w0
    615e:	9e 01 78    	mov.w     [w14], w3
    6160:	de 00 90    	mov.w     [w14+10], w1
    6162:	00 00 40    	add.w     w0, w0, w0
    6164:	70 00 40    	add.w     w0, #0x10, w0
    6166:	03 b0 78    	mov.w     w3, [w0+w1]
    6168:	02 40 e8    	inc.b     w2, w0
    616a:	6f 40 60    	and.b     w0, #0xf, w0
    616c:	5e 01 90    	mov.w     [w14+10], w2
    616e:	00 80 fb    	ze        w0, w0
    6170:	ef 01 60    	and.w     w0, #0xf, w3
    6172:	a2 00 90    	mov.w     [w2+4], w1
    6174:	00 ff 2f    	mov.w     #0xfff0, w0
    6176:	00 80 60    	and.w     w1, w0, w0
    6178:	03 00 70    	ior.w     w0, w3, w0
    617a:	20 01 98    	mov.w     w0, [w2+4]
    617c:	5e 00 90    	mov.w     [w14+10], w0
    617e:	10 00 90    	mov.w     [w0+2], w0
    6180:	49 00 de    	lsr.w     w0, #0x9, w0
    6182:	00 40 e8    	inc.b     w0, w0
    6184:	00 74 a1    	bclr.b    w0, #0x7
    6186:	5e 01 90    	mov.w     [w14+10], w2
    6188:	00 80 fb    	ze        w0, w0
    618a:	c9 01 dd    	sl.w      w0, #0x9, w3
    618c:	92 00 90    	mov.w     [w2+2], w1
    618e:	f0 1f 20    	mov.w     #0x1ff, w0
    6190:	00 80 60    	and.w     w1, w0, w0
    6192:	03 00 70    	ior.w     w0, w3, w0
    6194:	10 01 98    	mov.w     w0, [w2+2]
    6196:	5e 00 90    	mov.w     [w14+10], w0
    6198:	90 00 90    	mov.w     [w0+2], w1
    619a:	00 10 20    	mov.w     #0x100, w0
    619c:	00 80 60    	and.w     w1, w0, w0
    619e:	00 00 e0    	cp0.w     w0
    61a0:	16 00 32    	bra       Z, 0x61ce <.L41>
    61a2:	5e 00 90    	mov.w     [w14+10], w0
    61a4:	90 00 78    	mov.w     [w0], w1
    61a6:	a0 2a 29    	mov.w     #0x92aa, w0
    61a8:	80 8f 50    	sub.w     w1, w0, [w15]
    61aa:	09 00 34    	bra       LE, 0x61be <.L43>
    61ac:	5e 00 90    	mov.w     [w14+10], w0
    61ae:	90 00 78    	mov.w     [w0], w1
    61b0:	50 d5 26    	mov.w     #0x6d55, w0
    61b2:	80 8f 50    	sub.w     w1, w0, [w15]
    61b4:	04 00 3c    	bra       GT, 0x61be <.L43>
    61b6:	00 b9 80    	mov.w     0x1720, w0
    61b8:	00 00 e8    	inc.w     w0, w0
    61ba:	00 b9 88    	mov.w     w0, 0x1720
    61bc:	08 00 37    	bra       0x61ce <.L41>

000061be <.L43>:
    61be:	00 da 80    	mov.w     0x1b40, w0
    61c0:	70 00 60    	and.w     w0, #0x10, w0
    61c2:	00 00 e0    	cp0.w     w0
    61c4:	04 00 32    	bra       Z, 0x61ce <.L41>
    61c6:	00 00 eb    	clr.w     w0
    61c8:	00 b9 88    	mov.w     w0, 0x1720
    61ca:	40 9b a9    	bclr.b    0x1b40, #0x4
    61cc:	cb 42 a8    	bset.b    0x2cb, #0x2

000061ce <.L41>:
    61ce:	5e 00 90    	mov.w     [w14+10], w0
    61d0:	b0 00 90    	mov.w     [w0+6], w1
    61d2:	f0 03 20    	mov.w     #0x3f, w0
    61d4:	00 80 60    	and.w     w1, w0, w0
    61d6:	00 00 e0    	cp0.w     w0
    61d8:	ee 00 32    	bra       Z, 0x63b6 <.L74>
    61da:	5e 00 90    	mov.w     [w14+10], w0
    61dc:	30 00 90    	mov.w     [w0+6], w0
    61de:	f0 43 b2    	and.b     #0x3f, w0
    61e0:	00 80 fb    	ze        w0, w0
    61e2:	1e 01 78    	mov.w     [w14], w2
    61e4:	80 00 40    	add.w     w0, w0, w1
    61e6:	e0 c8 20    	mov.w     #0xc8e, w0
    61e8:	00 80 40    	add.w     w1, w0, w0
    61ea:	02 08 78    	mov.w     w2, [w0]
    61ec:	e4 00 37    	bra       0x63b6 <.L74>

000061ee <.L11>:
    61ee:	4e 00 90    	mov.w     [w14+8], w0
    61f0:	e1 0f 50    	sub.w     w0, #0x1, [w15]
    61f2:	03 00 3a    	bra       NZ, 0x61fa <.L48>
    61f4:	00 00 eb    	clr.w     w0
    61f6:	40 07 98    	mov.w     w0, [w14+8]
    61f8:	02 00 37    	bra       0x61fe <.L10>

000061fa <.L48>:
    61fa:	10 00 20    	mov.w     #0x1, w0
    61fc:	40 07 98    	mov.w     w0, [w14+8]

000061fe <.L10>:
    61fe:	4e 00 90    	mov.w     [w14+8], w0
    6200:	e1 0f 50    	sub.w     w0, #0x1, [w15]
    6202:	25 00 3a    	bra       NZ, 0x624e <.L50>
    6204:	5e 00 90    	mov.w     [w14+10], w0
    6206:	be 00 90    	mov.w     [w14+6], w1
    6208:	41 00 98    	mov.w     w1, [w0+8]
    620a:	21 da 80    	mov.w     0x1b44, w1
    620c:	5e 00 90    	mov.w     [w14+10], w0
    620e:	51 00 98    	mov.w     w1, [w0+10]
    6210:	5e 00 90    	mov.w     [w14+10], w0
    6212:	40 01 90    	mov.w     [w0+8], w2
    6214:	d0 01 90    	mov.w     [w0+10], w3
    6216:	5e 00 90    	mov.w     [w14+10], w0
    6218:	f0 00 90    	mov.w     [w0+14], w1
    621a:	60 00 90    	mov.w     [w0+12], w0
    621c:	00 00 51    	sub.w     w2, w0, w0
    621e:	81 80 59    	subb.w    w3, w1, w1
    6220:	10 07 98    	mov.w     w0, [w14+2]
    6222:	21 07 98    	mov.w     w1, [w14+4]
    6224:	1e 01 90    	mov.w     [w14+2], w2
    6226:	ae 01 90    	mov.w     [w14+4], w3
    6228:	c0 45 24    	mov.w     #0x445c, w0
    622a:	01 00 20    	mov.w     #0x0, w1
    622c:	80 0f 51    	sub.w     w2, w0, [w15]
    622e:	81 8f 59    	subb.w    w3, w1, [w15]
    6230:	c2 00 36    	bra       LEU, 0x63b6 <.L74>
    6232:	1e 01 90    	mov.w     [w14+2], w2
    6234:	ae 01 90    	mov.w     [w14+4], w3
    6236:	70 84 2e    	mov.w     #0xe847, w0
    6238:	11 00 20    	mov.w     #0x1, w1
    623a:	80 0f 51    	sub.w     w2, w0, [w15]
    623c:	81 8f 59    	subb.w    w3, w1, [w15]
    623e:	bb 00 3e    	bra       GTU, 0x63b6 <.L74>
    6240:	5e 01 90    	mov.w     [w14+10], w2
    6242:	a2 00 90    	mov.w     [w2+4], w1
    6244:	00 ff 2f    	mov.w     #0xfff0, w0
    6246:	00 80 60    	and.w     w1, w0, w0
    6248:	00 00 a0    	bset.w    w0, #0x0
    624a:	20 01 98    	mov.w     w0, [w2+4]
    624c:	b4 00 37    	bra       0x63b6 <.L74>

0000624e <.L50>:
    624e:	5e 00 90    	mov.w     [w14+10], w0
    6250:	be 00 90    	mov.w     [w14+6], w1
    6252:	61 00 98    	mov.w     w1, [w0+12]
    6254:	21 da 80    	mov.w     0x1b44, w1
    6256:	5e 00 90    	mov.w     [w14+10], w0
    6258:	71 00 98    	mov.w     w1, [w0+14]
    625a:	5e 00 90    	mov.w     [w14+10], w0
    625c:	60 01 90    	mov.w     [w0+12], w2
    625e:	f0 01 90    	mov.w     [w0+14], w3
    6260:	5e 00 90    	mov.w     [w14+10], w0
    6262:	d0 00 90    	mov.w     [w0+10], w1
    6264:	40 00 90    	mov.w     [w0+8], w0
    6266:	00 00 51    	sub.w     w2, w0, w0
    6268:	81 80 59    	subb.w    w3, w1, w1
    626a:	10 07 98    	mov.w     w0, [w14+2]
    626c:	21 07 98    	mov.w     w1, [w14+4]
    626e:	1e 01 90    	mov.w     [w14+2], w2
    6270:	ae 01 90    	mov.w     [w14+4], w3
    6272:	00 00 20    	mov.w     #0x0, w0
    6274:	11 00 20    	mov.w     #0x1, w1
    6276:	80 0f 51    	sub.w     w2, w0, [w15]
    6278:	81 8f 59    	subb.w    w3, w1, [w15]
    627a:	08 00 36    	bra       LEU, 0x628c <.L55>
    627c:	1e 00 90    	mov.w     [w14+2], w0
    627e:	ae 00 90    	mov.w     [w14+4], w1
    6280:	02 00 20    	mov.w     #0x0, w2
    6282:	f3 ff 2f    	mov.w     #0xffff, w3
    6284:	00 00 41    	add.w     w2, w0, w0
    6286:	81 80 49    	addc.w    w3, w1, w1
    6288:	10 07 98    	mov.w     w0, [w14+2]
    628a:	21 07 98    	mov.w     w1, [w14+4]

0000628c <.L55>:
    628c:	1e 01 90    	mov.w     [w14+2], w2
    628e:	ae 01 90    	mov.w     [w14+4], w3
    6290:	c0 45 24    	mov.w     #0x445c, w0
    6292:	01 00 20    	mov.w     #0x0, w1
    6294:	80 0f 51    	sub.w     w2, w0, [w15]
    6296:	81 8f 59    	subb.w    w3, w1, [w15]
    6298:	0e 00 36    	bra       LEU, 0x62b6 <.L57>
    629a:	1e 01 90    	mov.w     [w14+2], w2
    629c:	ae 01 90    	mov.w     [w14+4], w3
    629e:	70 84 2e    	mov.w     #0xe847, w0
    62a0:	11 00 20    	mov.w     #0x1, w1
    62a2:	80 0f 51    	sub.w     w2, w0, [w15]
    62a4:	81 8f 59    	subb.w    w3, w1, [w15]
    62a6:	07 00 3e    	bra       GTU, 0x62b6 <.L57>
    62a8:	5e 01 90    	mov.w     [w14+10], w2
    62aa:	a2 00 90    	mov.w     [w2+4], w1
    62ac:	00 ff 2f    	mov.w     #0xfff0, w0
    62ae:	00 80 60    	and.w     w1, w0, w0
    62b0:	00 00 a0    	bset.w    w0, #0x0
    62b2:	20 01 98    	mov.w     w0, [w2+4]
    62b4:	80 00 37    	bra       0x63b6 <.L74>

000062b6 <.L57>:
    62b6:	1e 01 90    	mov.w     [w14+2], w2
    62b8:	ae 01 90    	mov.w     [w14+4], w3
    62ba:	80 af 22    	mov.w     #0x2af8, w0
    62bc:	01 00 20    	mov.w     #0x0, w1
    62be:	80 0f 51    	sub.w     w2, w0, [w15]
    62c0:	81 8f 59    	subb.w    w3, w1, [w15]
    62c2:	03 00 36    	bra       LEU, 0x62ca <.L60>
    62c4:	80 af 22    	mov.w     #0x2af8, w0
    62c6:	00 0f 78    	mov.w     w0, [w14]
    62c8:	16 00 37    	bra       0x62f6 <.L62>

000062ca <.L60>:
    62ca:	1e 01 90    	mov.w     [w14+2], w2
    62cc:	ae 01 90    	mov.w     [w14+4], w3
    62ce:	f0 f9 20    	mov.w     #0xf9f, w0
    62d0:	01 00 20    	mov.w     #0x0, w1
    62d2:	80 0f 51    	sub.w     w2, w0, [w15]
    62d4:	81 8f 59    	subb.w    w3, w1, [w15]
    62d6:	03 00 3e    	bra       GTU, 0x62de <.L63>
    62d8:	00 fa 20    	mov.w     #0xfa0, w0
    62da:	00 0f 78    	mov.w     w0, [w14]
    62dc:	0c 00 37    	bra       0x62f6 <.L62>

000062de <.L63>:
    62de:	1e 00 90    	mov.w     [w14+2], w0
    62e0:	00 0f 78    	mov.w     w0, [w14]
    62e2:	5e 01 90    	mov.w     [w14+10], w2
    62e4:	92 00 90    	mov.w     [w2+2], w1
    62e6:	f0 fe 2f    	mov.w     #0xffef, w0
    62e8:	00 80 60    	and.w     w1, w0, w0
    62ea:	10 01 98    	mov.w     w0, [w2+2]
    62ec:	5e 01 90    	mov.w     [w14+10], w2
    62ee:	92 00 90    	mov.w     [w2+2], w1
    62f0:	00 ff 2f    	mov.w     #0xfff0, w0
    62f2:	00 80 60    	and.w     w1, w0, w0
    62f4:	10 01 98    	mov.w     w0, [w2+2]

000062f6 <.L62>:
    62f6:	40 2b 2e    	mov.w     #0xe2b4, w0
    62f8:	1e 0f 40    	add.w     w0, [w14], [w14]
    62fa:	1e 00 78    	mov.w     [w14], w0
    62fc:	43 00 dd    	sl.w      w0, #0x3, w0
    62fe:	00 0f 78    	mov.w     w0, [w14]
    6300:	9e 00 78    	mov.w     [w14], w1
    6302:	5e 00 90    	mov.w     [w14+10], w0
    6304:	01 08 78    	mov.w     w1, [w0]
    6306:	5e 00 90    	mov.w     [w14+10], w0
    6308:	20 00 90    	mov.w     [w0+4], w0
    630a:	6f 40 60    	and.b     w0, #0xf, w0
    630c:	00 80 fb    	ze        w0, w0
    630e:	00 00 e0    	cp0.w     w0
    6310:	52 00 34    	bra       LE, 0x63b6 <.L74>
    6312:	5e 00 90    	mov.w     [w14+10], w0
    6314:	20 00 90    	mov.w     [w0+4], w0
    6316:	6f 40 60    	and.b     w0, #0xf, w0
    6318:	00 80 fb    	ze        w0, w0
    631a:	e8 0f 50    	sub.w     w0, #0x8, [w15]
    631c:	4c 00 3c    	bra       GT, 0x63b6 <.L74>
    631e:	5e 00 90    	mov.w     [w14+10], w0
    6320:	20 00 90    	mov.w     [w0+4], w0
    6322:	6f 40 60    	and.b     w0, #0xf, w0
    6324:	00 80 fb    	ze        w0, w0
    6326:	1e 01 78    	mov.w     [w14], w2
    6328:	de 00 90    	mov.w     [w14+10], w1
    632a:	00 00 40    	add.w     w0, w0, w0
    632c:	70 00 40    	add.w     w0, #0x10, w0
    632e:	02 b0 78    	mov.w     w2, [w0+w1]
    6330:	5e 00 90    	mov.w     [w14+10], w0
    6332:	10 00 90    	mov.w     [w0+2], w0
    6334:	49 00 de    	lsr.w     w0, #0x9, w0
    6336:	00 40 e8    	inc.b     w0, w0
    6338:	00 74 a1    	bclr.b    w0, #0x7
    633a:	5e 01 90    	mov.w     [w14+10], w2
    633c:	00 80 fb    	ze        w0, w0
    633e:	c9 01 dd    	sl.w      w0, #0x9, w3
    6340:	92 00 90    	mov.w     [w2+2], w1
    6342:	f0 1f 20    	mov.w     #0x1ff, w0
    6344:	00 80 60    	and.w     w1, w0, w0
    6346:	03 00 70    	ior.w     w0, w3, w0
    6348:	10 01 98    	mov.w     w0, [w2+2]
    634a:	5e 00 90    	mov.w     [w14+10], w0
    634c:	90 00 90    	mov.w     [w0+2], w1
    634e:	00 10 20    	mov.w     #0x100, w0
    6350:	00 80 60    	and.w     w1, w0, w0
    6352:	00 00 e0    	cp0.w     w0
    6354:	0e 00 32    	bra       Z, 0x6372 <.L67>
    6356:	a0 2a 29    	mov.w     #0x92aa, w0
    6358:	9e 0f 10    	subr.w    w0, [w14], [w15]
    635a:	07 00 36    	bra       LEU, 0x636a <.L69>
    635c:	50 d5 26    	mov.w     #0x6d55, w0
    635e:	9e 0f 10    	subr.w    w0, [w14], [w15]
    6360:	04 00 3e    	bra       GTU, 0x636a <.L69>
    6362:	00 b9 80    	mov.w     0x1720, w0
    6364:	00 00 e8    	inc.w     w0, w0
    6366:	00 b9 88    	mov.w     w0, 0x1720
    6368:	04 00 37    	bra       0x6372 <.L67>

0000636a <.L69>:
    636a:	00 00 eb    	clr.w     w0
    636c:	00 b9 88    	mov.w     w0, 0x1720
    636e:	40 9b a9    	bclr.b    0x1b40, #0x4
    6370:	cb 42 a8    	bset.b    0x2cb, #0x2

00006372 <.L67>:
    6372:	5e 00 90    	mov.w     [w14+10], w0
    6374:	b0 00 90    	mov.w     [w0+6], w1
    6376:	f0 03 20    	mov.w     #0x3f, w0
    6378:	00 80 60    	and.w     w1, w0, w0
    637a:	00 00 e0    	cp0.w     w0
    637c:	0f 00 32    	bra       Z, 0x639c <.L72>
    637e:	5e 00 90    	mov.w     [w14+10], w0
    6380:	30 00 90    	mov.w     [w0+6], w0
    6382:	f0 43 b2    	and.b     #0x3f, w0
    6384:	80 80 fb    	ze        w0, w1
    6386:	5e 00 90    	mov.w     [w14+10], w0
    6388:	20 00 90    	mov.w     [w0+4], w0
    638a:	6f 40 60    	and.b     w0, #0xf, w0
    638c:	00 80 fb    	ze        w0, w0
    638e:	00 80 40    	add.w     w1, w0, w0
    6390:	00 00 e9    	dec.w     w0, w0
    6392:	1e 01 78    	mov.w     [w14], w2
    6394:	80 00 40    	add.w     w0, w0, w1
    6396:	e0 c8 20    	mov.w     #0xc8e, w0
    6398:	00 80 40    	add.w     w1, w0, w0
    639a:	02 08 78    	mov.w     w2, [w0]

0000639c <.L72>:
    639c:	5e 00 90    	mov.w     [w14+10], w0
    639e:	20 00 90    	mov.w     [w0+4], w0
    63a0:	6f 40 60    	and.b     w0, #0xf, w0
    63a2:	00 40 e8    	inc.b     w0, w0
    63a4:	6f 40 60    	and.b     w0, #0xf, w0
    63a6:	5e 01 90    	mov.w     [w14+10], w2
    63a8:	00 80 fb    	ze        w0, w0
    63aa:	ef 01 60    	and.w     w0, #0xf, w3
    63ac:	a2 00 90    	mov.w     [w2+4], w1
    63ae:	00 ff 2f    	mov.w     #0xfff0, w0
    63b0:	00 80 60    	and.w     w1, w0, w0
    63b2:	03 00 70    	ior.w     w0, w3, w0
    63b4:	20 01 98    	mov.w     w0, [w2+4]

000063b6 <.L74>:
    63b6:	00 80 fa    	ulnk      
    63b8:	00 00 06    	return    

000063ba <__T2Interrupt>:
    63ba:	80 1f 78    	mov.w     w0, [w15++]
    63bc:	00 00 fa    	lnk       #0x0
    63be:	84 e0 a9    	bclr.b    0x84, #0x7
    63c0:	20 da 80    	mov.w     0x1b44, w0
    63c2:	00 00 e8    	inc.w     w0, w0
    63c4:	20 da 88    	mov.w     w0, 0x1b44
    63c6:	00 80 fa    	ulnk      
    63c8:	4f 00 78    	mov.w     [--w15], w0
    63ca:	00 40 06    	retfie    

000063cc <__IC1Interrupt>:
    63cc:	36 00 f8    	push      0x36
    63ce:	80 9f be    	mov.d     w0, [w15++]
    63d0:	82 9f be    	mov.d     w2, [w15++]
    63d2:	84 9f be    	mov.d     w4, [w15++]
    63d4:	86 9f be    	mov.d     w6, [w15++]
    63d6:	00 00 fa    	lnk       #0x0
    63d8:	21 e1 a8    	bset.b    0x121, #0x7
    63da:	06 00 37    	bra       0x63e8 <.L78>

000063dc <.L79>:
    63dc:	e2 ec 20    	mov.w     #0xece, w2
    63de:	d5 c2 bf    	mov.b     0x2d5, WREG
    63e0:	61 40 60    	and.b     w0, #0x1, w0
    63e2:	80 80 fb    	ze        w0, w1
    63e4:	00 0a 80    	mov.w     0x140, w0
    63e6:	ce fd 07    	rcall     0x5f84 <_rc_pin>

000063e8 <.L78>:
    63e8:	42 c1 bf    	mov.b     0x142, WREG
    63ea:	68 40 60    	and.b     w0, #0x8, w0
    63ec:	00 04 e0    	cp0.b     w0
    63ee:	f6 ff 3a    	bra       NZ, 0x63dc <.L79>
    63f0:	84 20 a9    	bclr.b    0x84, #0x1
    63f2:	00 80 fa    	ulnk      
    63f4:	4f 03 be    	mov.d     [--w15], w6
    63f6:	4f 02 be    	mov.d     [--w15], w4
    63f8:	4f 01 be    	mov.d     [--w15], w2
    63fa:	4f 00 be    	mov.d     [--w15], w0
    63fc:	36 00 f9    	pop       0x36
    63fe:	00 40 06    	retfie    

00006400 <__IC2Interrupt>:
    6400:	36 00 f8    	push      0x36
    6402:	80 9f be    	mov.d     w0, [w15++]
    6404:	82 9f be    	mov.d     w2, [w15++]
    6406:	84 9f be    	mov.d     w4, [w15++]
    6408:	86 9f be    	mov.d     w6, [w15++]
    640a:	00 00 fa    	lnk       #0x0
    640c:	21 e1 a8    	bset.b    0x121, #0x7
    640e:	08 00 37    	bra       0x6420 <.L83>

00006410 <.L84>:
    6410:	e2 ef 20    	mov.w     #0xefe, w2
    6412:	d5 c2 bf    	mov.b     0x2d5, WREG
    6414:	00 80 fb    	ze        w0, w0
    6416:	00 00 d1    	lsr.w     w0, w0
    6418:	61 40 60    	and.b     w0, #0x1, w0
    641a:	80 80 fb    	ze        w0, w1
    641c:	20 0a 80    	mov.w     0x144, w0
    641e:	b2 fd 07    	rcall     0x5f84 <_rc_pin>

00006420 <.L83>:
    6420:	46 c1 bf    	mov.b     0x146, WREG
    6422:	68 40 60    	and.b     w0, #0x8, w0
    6424:	00 04 e0    	cp0.b     w0
    6426:	f4 ff 3a    	bra       NZ, 0x6410 <.L84>
    6428:	84 a0 a9    	bclr.b    0x84, #0x5
    642a:	00 80 fa    	ulnk      
    642c:	4f 03 be    	mov.d     [--w15], w6
    642e:	4f 02 be    	mov.d     [--w15], w4
    6430:	4f 01 be    	mov.d     [--w15], w2
    6432:	4f 00 be    	mov.d     [--w15], w0
    6434:	36 00 f9    	pop       0x36
    6436:	00 40 06    	retfie    

00006438 <__IC3Interrupt>:
    6438:	36 00 f8    	push      0x36
    643a:	80 9f be    	mov.d     w0, [w15++]
    643c:	82 9f be    	mov.d     w2, [w15++]
    643e:	84 9f be    	mov.d     w4, [w15++]
    6440:	86 9f be    	mov.d     w6, [w15++]
    6442:	00 00 fa    	lnk       #0x0
    6444:	21 e1 a8    	bset.b    0x121, #0x7
    6446:	08 00 37    	bra       0x6458 <.L88>

00006448 <.L89>:
    6448:	e2 f2 20    	mov.w     #0xf2e, w2
    644a:	d5 c2 bf    	mov.b     0x2d5, WREG
    644c:	00 80 fb    	ze        w0, w0
    644e:	42 00 de    	lsr.w     w0, #0x2, w0
    6450:	61 40 60    	and.b     w0, #0x1, w0
    6452:	80 80 fb    	ze        w0, w1
    6454:	40 0a 80    	mov.w     0x148, w0
    6456:	96 fd 07    	rcall     0x5f84 <_rc_pin>

00006458 <.L88>:
    6458:	4a c1 bf    	mov.b     0x14a, WREG
    645a:	68 40 60    	and.b     w0, #0x8, w0
    645c:	00 04 e0    	cp0.b     w0
    645e:	f4 ff 3a    	bra       NZ, 0x6448 <.L89>
    6460:	88 a0 a9    	bclr.b    0x88, #0x5
    6462:	00 80 fa    	ulnk      
    6464:	4f 03 be    	mov.d     [--w15], w6
    6466:	4f 02 be    	mov.d     [--w15], w4
    6468:	4f 01 be    	mov.d     [--w15], w2
    646a:	4f 00 be    	mov.d     [--w15], w0
    646c:	36 00 f9    	pop       0x36
    646e:	00 40 06    	retfie    

00006470 <__IC4Interrupt>:
    6470:	36 00 f8    	push      0x36
    6472:	80 9f be    	mov.d     w0, [w15++]
    6474:	82 9f be    	mov.d     w2, [w15++]
    6476:	84 9f be    	mov.d     w4, [w15++]
    6478:	86 9f be    	mov.d     w6, [w15++]
    647a:	00 00 fa    	lnk       #0x0
    647c:	21 e1 a8    	bset.b    0x121, #0x7
    647e:	08 00 37    	bra       0x6490 <.L93>

00006480 <.L94>:
    6480:	e2 f5 20    	mov.w     #0xf5e, w2
    6482:	d5 c2 bf    	mov.b     0x2d5, WREG
    6484:	00 80 fb    	ze        w0, w0
    6486:	43 00 de    	lsr.w     w0, #0x3, w0
    6488:	61 40 60    	and.b     w0, #0x1, w0
    648a:	80 80 fb    	ze        w0, w1
    648c:	60 0a 80    	mov.w     0x14c, w0
    648e:	7a fd 07    	rcall     0x5f84 <_rc_pin>

00006490 <.L93>:
    6490:	4e c1 bf    	mov.b     0x14e, WREG
    6492:	68 40 60    	and.b     w0, #0x8, w0
    6494:	00 04 e0    	cp0.b     w0
    6496:	f4 ff 3a    	bra       NZ, 0x6480 <.L94>
    6498:	88 c0 a9    	bclr.b    0x88, #0x6
    649a:	00 80 fa    	ulnk      
    649c:	4f 03 be    	mov.d     [--w15], w6
    649e:	4f 02 be    	mov.d     [--w15], w4
    64a0:	4f 01 be    	mov.d     [--w15], w2
    64a2:	4f 00 be    	mov.d     [--w15], w0
    64a4:	36 00 f9    	pop       0x36
    64a6:	00 40 06    	retfie    

000064a8 <__IC5Interrupt>:
    64a8:	36 00 f8    	push      0x36
    64aa:	80 9f be    	mov.d     w0, [w15++]
    64ac:	82 9f be    	mov.d     w2, [w15++]
    64ae:	84 9f be    	mov.d     w4, [w15++]
    64b0:	86 9f be    	mov.d     w6, [w15++]
    64b2:	00 00 fa    	lnk       #0x0
    64b4:	21 e1 a8    	bset.b    0x121, #0x7
    64b6:	08 00 37    	bra       0x64c8 <.L98>

000064b8 <.L99>:
    64b8:	e2 fe 20    	mov.w     #0xfee, w2
    64ba:	d5 c2 bf    	mov.b     0x2d5, WREG
    64bc:	00 80 fb    	ze        w0, w0
    64be:	44 00 de    	lsr.w     w0, #0x4, w0
    64c0:	61 40 60    	and.b     w0, #0x1, w0
    64c2:	80 80 fb    	ze        w0, w1
    64c4:	80 0a 80    	mov.w     0x150, w0
    64c6:	5e fd 07    	rcall     0x5f84 <_rc_pin>

000064c8 <.L98>:
    64c8:	52 c1 bf    	mov.b     0x152, WREG
    64ca:	68 40 60    	and.b     w0, #0x8, w0
    64cc:	00 04 e0    	cp0.b     w0
    64ce:	f4 ff 3a    	bra       NZ, 0x64b8 <.L99>
    64d0:	88 e0 a9    	bclr.b    0x88, #0x7
    64d2:	00 80 fa    	ulnk      
    64d4:	4f 03 be    	mov.d     [--w15], w6
    64d6:	4f 02 be    	mov.d     [--w15], w4
    64d8:	4f 01 be    	mov.d     [--w15], w2
    64da:	4f 00 be    	mov.d     [--w15], w0
    64dc:	36 00 f9    	pop       0x36
    64de:	00 40 06    	retfie    

000064e0 <__IC6Interrupt>:
    64e0:	36 00 f8    	push      0x36
    64e2:	80 9f be    	mov.d     w0, [w15++]
    64e4:	82 9f be    	mov.d     w2, [w15++]
    64e6:	84 9f be    	mov.d     w4, [w15++]
    64e8:	86 9f be    	mov.d     w6, [w15++]
    64ea:	00 00 fa    	lnk       #0x0
    64ec:	21 e1 a8    	bset.b    0x121, #0x7
    64ee:	08 00 37    	bra       0x6500 <.L103>

000064f0 <.L104>:
    64f0:	e2 01 21    	mov.w     #0x101e, w2
    64f2:	d5 c2 bf    	mov.b     0x2d5, WREG
    64f4:	00 80 fb    	ze        w0, w0
    64f6:	45 00 de    	lsr.w     w0, #0x5, w0
    64f8:	61 40 60    	and.b     w0, #0x1, w0
    64fa:	80 80 fb    	ze        w0, w1
    64fc:	a0 0a 80    	mov.w     0x154, w0
    64fe:	42 fd 07    	rcall     0x5f84 <_rc_pin>

00006500 <.L103>:
    6500:	56 c1 bf    	mov.b     0x156, WREG
    6502:	68 40 60    	and.b     w0, #0x8, w0
    6504:	00 04 e0    	cp0.b     w0
    6506:	f4 ff 3a    	bra       NZ, 0x64f0 <.L104>
    6508:	89 00 a9    	bclr.b    0x89, #0x0
    650a:	00 80 fa    	ulnk      
    650c:	4f 03 be    	mov.d     [--w15], w6
    650e:	4f 02 be    	mov.d     [--w15], w4
    6510:	4f 01 be    	mov.d     [--w15], w2
    6512:	4f 00 be    	mov.d     [--w15], w0
    6514:	36 00 f9    	pop       0x36
    6516:	00 40 06    	retfie    

00006518 <__IC7Interrupt>:
    6518:	36 00 f8    	push      0x36
    651a:	80 9f be    	mov.d     w0, [w15++]
    651c:	82 9f be    	mov.d     w2, [w15++]
    651e:	84 9f be    	mov.d     w4, [w15++]
    6520:	86 9f be    	mov.d     w6, [w15++]
    6522:	00 00 fa    	lnk       #0x0
    6524:	21 e1 a8    	bset.b    0x121, #0x7
    6526:	08 00 37    	bra       0x6538 <.L108>

00006528 <.L109>:
    6528:	e2 fb 20    	mov.w     #0xfbe, w2
    652a:	d5 c2 bf    	mov.b     0x2d5, WREG
    652c:	00 80 fb    	ze        w0, w0
    652e:	46 00 de    	lsr.w     w0, #0x6, w0
    6530:	61 40 60    	and.b     w0, #0x1, w0
    6532:	80 80 fb    	ze        w0, w1
    6534:	c0 0a 80    	mov.w     0x158, w0
    6536:	26 fd 07    	rcall     0x5f84 <_rc_pin>

00006538 <.L108>:
    6538:	5a c1 bf    	mov.b     0x15a, WREG
    653a:	68 40 60    	and.b     w0, #0x8, w0
    653c:	00 04 e0    	cp0.b     w0
    653e:	f4 ff 3a    	bra       NZ, 0x6528 <.L109>
    6540:	86 c0 a9    	bclr.b    0x86, #0x6
    6542:	00 80 fa    	ulnk      
    6544:	4f 03 be    	mov.d     [--w15], w6
    6546:	4f 02 be    	mov.d     [--w15], w4
    6548:	4f 01 be    	mov.d     [--w15], w2
    654a:	4f 00 be    	mov.d     [--w15], w0
    654c:	36 00 f9    	pop       0x36
    654e:	00 40 06    	retfie    

00006550 <__IC8Interrupt>:
    6550:	36 00 f8    	push      0x36
    6552:	80 9f be    	mov.d     w0, [w15++]
    6554:	82 9f be    	mov.d     w2, [w15++]
    6556:	84 9f be    	mov.d     w4, [w15++]
    6558:	86 9f be    	mov.d     w6, [w15++]
    655a:	00 00 fa    	lnk       #0x0
    655c:	21 e1 a8    	bset.b    0x121, #0x7
    655e:	07 00 37    	bra       0x656e <.L113>

00006560 <.L114>:
    6560:	e2 f8 20    	mov.w     #0xf8e, w2
    6562:	d5 c2 bf    	mov.b     0x2d5, WREG
    6564:	00 80 fb    	ze        w0, w0
    6566:	47 00 de    	lsr.w     w0, #0x7, w0
    6568:	80 80 fb    	ze        w0, w1
    656a:	e0 0a 80    	mov.w     0x15c, w0
    656c:	0b fd 07    	rcall     0x5f84 <_rc_pin>

0000656e <.L113>:
    656e:	5e c1 bf    	mov.b     0x15e, WREG
    6570:	68 40 60    	and.b     w0, #0x8, w0
    6572:	00 04 e0    	cp0.b     w0
    6574:	f5 ff 3a    	bra       NZ, 0x6560 <.L114>
    6576:	86 e0 a9    	bclr.b    0x86, #0x7
    6578:	00 80 fa    	ulnk      
    657a:	4f 03 be    	mov.d     [--w15], w6
    657c:	4f 02 be    	mov.d     [--w15], w4
    657e:	4f 01 be    	mov.d     [--w15], w2
    6580:	4f 00 be    	mov.d     [--w15], w0
    6582:	36 00 f9    	pop       0x36
    6584:	00 40 06    	retfie    

00006586 <_bankMix>:
    6586:	26 00 fa    	lnk       #0x26
    6588:	70 0f 98    	mov.w     w0, [w14+30]
    658a:	01 17 98    	mov.w     w1, [w14+32]
    658c:	00 00 eb    	clr.w     w0
    658e:	10 07 98    	mov.w     w0, [w14+2]
    6590:	60 00 b8    	mul.uu    w0, #0x0, w0
    6592:	20 07 98    	mov.w     w0, [w14+4]
    6594:	31 07 98    	mov.w     w1, [w14+6]
    6596:	2e 00 90    	mov.w     [w14+4], w0
    6598:	be 00 90    	mov.w     [w14+6], w1
    659a:	40 07 98    	mov.w     w0, [w14+8]
    659c:	51 07 98    	mov.w     w1, [w14+10]
    659e:	5e 02 37    	bra       0x6a5c <.L2>

000065a0 <.L3>:
    65a0:	1e 00 90    	mov.w     [w14+2], w0
    65a2:	e6 0f 50    	sub.w     w0, #0x6, [w15]
    65a4:	03 00 3a    	bra       NZ, 0x65ac <.L4>
    65a6:	00 01 20    	mov.w     #0x10, w0
    65a8:	00 0f 78    	mov.w     w0, [w14]
    65aa:	0d 00 37    	bra       0x65c6 <.L6>

000065ac <.L4>:
    65ac:	1e 00 90    	mov.w     [w14+2], w0
    65ae:	e7 0f 50    	sub.w     w0, #0x7, [w15]
    65b0:	03 00 3a    	bra       NZ, 0x65b8 <.L7>
    65b2:	10 01 20    	mov.w     #0x11, w0
    65b4:	00 0f 78    	mov.w     w0, [w14]
    65b6:	07 00 37    	bra       0x65c6 <.L6>

000065b8 <.L7>:
    65b8:	7e 08 90    	mov.w     [w14+30], w0
    65ba:	10 00 78    	mov.w     [w0], w0
    65bc:	44 00 dd    	sl.w      w0, #0x4, w0
    65be:	00 00 fb    	se        w0, w0
    65c0:	44 80 de    	asr.w     w0, #0x4, w0
    65c2:	00 00 fb    	se        w0, w0
    65c4:	00 0f 78    	mov.w     w0, [w14]

000065c6 <.L6>:
    65c6:	1e 00 e0    	cp0.w     [w14]
    65c8:	43 02 32    	bra       Z, 0x6a50 <.L9>
    65ca:	7e 08 90    	mov.w     [w14+30], w0
    65cc:	90 00 78    	mov.w     [w0], w1
    65ce:	00 3f 20    	mov.w     #0x3f0, w0
    65d0:	00 80 60    	and.w     w1, w0, w0
    65d2:	00 00 e0    	cp0.w     w0
    65d4:	0b 00 32    	bra       Z, 0x65ec <.L11>
    65d6:	7e 08 90    	mov.w     [w14+30], w0
    65d8:	10 00 78    	mov.w     [w0], w0
    65da:	46 00 dd    	sl.w      w0, #0x6, w0
    65dc:	4a 80 de    	asr.w     w0, #0xa, w0
    65de:	00 00 fb    	se        w0, w0
    65e0:	80 00 40    	add.w     w0, w0, w1
    65e2:	e0 c8 20    	mov.w     #0xc8e, w0
    65e4:	00 80 40    	add.w     w1, w0, w0
    65e6:	90 00 78    	mov.w     [w0], w1
    65e8:	71 07 98    	mov.w     w1, [w14+14]
    65ea:	02 00 37    	bra       0x65f0 <.L13>

000065ec <.L11>:
    65ec:	00 00 eb    	clr.w     w0
    65ee:	70 07 98    	mov.w     w0, [w14+14]

000065f0 <.L13>:
    65f0:	7e 08 90    	mov.w     [w14+30], w0
    65f2:	90 00 78    	mov.w     [w0], w1
    65f4:	00 c0 2f    	mov.w     #0xfc00, w0
    65f6:	00 80 60    	and.w     w1, w0, w0
    65f8:	00 00 e0    	cp0.w     w0
    65fa:	0a 00 32    	bra       Z, 0x6610 <.L14>
    65fc:	7e 08 90    	mov.w     [w14+30], w0
    65fe:	10 00 78    	mov.w     [w0], w0
    6600:	4a 80 de    	asr.w     w0, #0xa, w0
    6602:	00 00 fb    	se        w0, w0
    6604:	80 00 40    	add.w     w0, w0, w1
    6606:	e0 c8 20    	mov.w     #0xc8e, w0
    6608:	00 80 40    	add.w     w1, w0, w0
    660a:	10 01 78    	mov.w     [w0], w2
    660c:	62 07 98    	mov.w     w2, [w14+12]
    660e:	02 00 37    	bra       0x6614 <.L16>

00006610 <.L14>:
    6610:	00 00 eb    	clr.w     w0
    6612:	60 07 98    	mov.w     w0, [w14+12]

00006614 <.L16>:
    6614:	7e 08 90    	mov.w     [w14+30], w0
    6616:	90 01 90    	mov.w     [w0+2], w3
    6618:	03 0f 98    	mov.w     w3, [w14+16]
    661a:	1e 00 78    	mov.w     [w14], w0
    661c:	61 01 b8    	mul.uu    w0, #0x1, w2
    661e:	12 17 98    	mov.w     w2, [w14+34]
    6620:	23 17 98    	mov.w     w3, [w14+36]
    6622:	10 01 20    	mov.w     #0x11, w0
    6624:	01 00 20    	mov.w     #0x0, w1
    6626:	1e 11 90    	mov.w     [w14+34], w2
    6628:	ae 11 90    	mov.w     [w14+36], w3
    662a:	80 0f 51    	sub.w     w2, w0, [w15]
    662c:	81 8f 59    	subb.w    w3, w1, [w15]
    662e:	10 02 3e    	bra       GTU, 0x6a50 <.L9>
    6630:	1e 10 90    	mov.w     [w14+34], w0
    6632:	ae 10 90    	mov.w     [w14+36], w1
    6634:	00 60 01    	bra       w0
    6636:	0c 02 37    	bra       0x6a50 <.L9>
    6638:	10 00 37    	bra       0x665a <.L18>
    663a:	5f 00 37    	bra       0x66fa <.L19>
    663c:	a4 00 37    	bra       0x6786 <.L20>
    663e:	08 02 37    	bra       0x6a50 <.L9>
    6640:	eb 00 37    	bra       0x6818 <.L22>
    6642:	f8 00 37    	bra       0x6834 <.L23>
    6644:	0a 01 37    	bra       0x685a <.L24>
    6646:	1a 01 37    	bra       0x687c <.L25>
    6648:	2f 01 37    	bra       0x68a8 <.L26>
    664a:	43 01 37    	bra       0x68d2 <.L27>
    664c:	5c 01 37    	bra       0x6906 <.L28>
    664e:	6d 01 37    	bra       0x692a <.L29>
    6650:	83 01 37    	bra       0x6958 <.L30>
    6652:	9c 01 37    	bra       0x698c <.L31>
    6654:	b5 01 37    	bra       0x69c0 <.L32>
    6656:	b9 01 37    	bra       0x69ca <.L33>
    6658:	e7 01 37    	bra       0x6a28 <.L34>

0000665a <.L18>:
    665a:	7e 08 90    	mov.w     [w14+30], w0
    665c:	10 00 90    	mov.w     [w0+2], w0
    665e:	42 00 dd    	sl.w      w0, #0x2, w0
    6660:	00 00 fb    	se        w0, w0
    6662:	42 80 de    	asr.w     w0, #0x2, w0
    6664:	00 00 fb    	se        w0, w0
    6666:	80 00 40    	add.w     w0, w0, w1
    6668:	e0 c8 20    	mov.w     #0xc8e, w0
    666a:	00 80 40    	add.w     w1, w0, w0
    666c:	90 00 78    	mov.w     [w0], w1
    666e:	21 0f 98    	mov.w     w1, [w14+20]
    6670:	2e 08 90    	mov.w     [w14+20], w0
    6672:	00 00 e0    	cp0.w     w0
    6674:	0b 00 3d    	bra       GE, 0x668c <.L36>
    6676:	ae 08 90    	mov.w     [w14+20], w1
    6678:	f0 ff 27    	mov.w     #0x7fff, w0
    667a:	00 80 60    	and.w     w1, w0, w0
    667c:	20 0f 98    	mov.w     w0, [w14+20]
    667e:	2e 08 90    	mov.w     [w14+20], w0
    6680:	00 00 e0    	cp0.w     w0
    6682:	0b 00 32    	bra       Z, 0x669a <.L40>
    6684:	2e 08 90    	mov.w     [w14+20], w0
    6686:	43 80 de    	asr.w     w0, #0x3, w0
    6688:	20 0f 98    	mov.w     w0, [w14+20]
    668a:	07 00 37    	bra       0x669a <.L40>

0000668c <.L36>:
    668c:	2e 08 90    	mov.w     [w14+20], w0
    668e:	43 80 de    	asr.w     w0, #0x3, w0
    6690:	20 0f 98    	mov.w     w0, [w14+20]
    6692:	ae 08 90    	mov.w     [w14+20], w1
    6694:	00 00 21    	mov.w     #0x1000, w0
    6696:	00 80 40    	add.w     w1, w0, w0
    6698:	20 0f 98    	mov.w     w0, [w14+20]

0000669a <.L40>:
    669a:	ae 08 90    	mov.w     [w14+20], w1
    669c:	f0 ff 21    	mov.w     #0x1fff, w0
    669e:	80 8f 50    	sub.w     w1, w0, [w15]
    66a0:	02 00 34    	bra       LE, 0x66a6 <.L41>
    66a2:	f0 ff 21    	mov.w     #0x1fff, w0
    66a4:	20 0f 98    	mov.w     w0, [w14+20]

000066a6 <.L41>:
    66a6:	2e 08 90    	mov.w     [w14+20], w0
    66a8:	42 00 dd    	sl.w      w0, #0x2, w0
    66aa:	20 0f 98    	mov.w     w0, [w14+20]
    66ac:	f1 ff 27    	mov.w     #0x7fff, w1
    66ae:	2e 08 90    	mov.w     [w14+20], w0
    66b0:	00 80 50    	sub.w     w1, w0, w0
    66b2:	10 0f 98    	mov.w     w0, [w14+18]
    66b4:	8e 08 90    	mov.w     [w14+16], w1
    66b6:	00 fc 2f    	mov.w     #0xffc0, w0
    66b8:	00 80 60    	and.w     w1, w0, w0
    66ba:	00 0f 98    	mov.w     w0, [w14+16]
    66bc:	ae 08 90    	mov.w     [w14+20], w1
    66be:	0e 08 90    	mov.w     [w14+16], w0
    66c0:	00 88 b9    	mul.ss    w1, w0, w0
    66c2:	30 0f 98    	mov.w     w0, [w14+22]
    66c4:	41 0f 98    	mov.w     w1, [w14+24]
    66c6:	ce 08 90    	mov.w     [w14+24], w1
    66c8:	7e 00 90    	mov.w     [w14+14], w0
    66ca:	00 88 b9    	mul.ss    w1, w0, w0
    66cc:	30 0f 98    	mov.w     w0, [w14+22]
    66ce:	41 0f 98    	mov.w     w1, [w14+24]
    66d0:	9e 08 90    	mov.w     [w14+18], w1
    66d2:	0e 08 90    	mov.w     [w14+16], w0
    66d4:	00 88 b9    	mul.ss    w1, w0, w0
    66d6:	50 0f 98    	mov.w     w0, [w14+26]
    66d8:	61 0f 98    	mov.w     w1, [w14+28]
    66da:	ee 08 90    	mov.w     [w14+28], w1
    66dc:	6e 00 90    	mov.w     [w14+12], w0
    66de:	00 88 b9    	mul.ss    w1, w0, w0
    66e0:	50 0f 98    	mov.w     w0, [w14+26]
    66e2:	61 0f 98    	mov.w     w1, [w14+28]
    66e4:	ce 08 90    	mov.w     [w14+24], w1
    66e6:	6e 08 90    	mov.w     [w14+28], w0
    66e8:	00 80 40    	add.w     w1, w0, w0
    66ea:	61 01 b9    	mul.su    w0, #0x1, w2
    66ec:	4e 00 90    	mov.w     [w14+8], w0
    66ee:	de 00 90    	mov.w     [w14+10], w1
    66f0:	00 00 41    	add.w     w2, w0, w0
    66f2:	81 80 49    	addc.w    w3, w1, w1
    66f4:	40 07 98    	mov.w     w0, [w14+8]
    66f6:	51 07 98    	mov.w     w1, [w14+10]
    66f8:	ab 01 37    	bra       0x6a50 <.L9>

000066fa <.L19>:
    66fa:	7e 08 90    	mov.w     [w14+30], w0
    66fc:	10 00 90    	mov.w     [w0+2], w0
    66fe:	42 00 dd    	sl.w      w0, #0x2, w0
    6700:	00 00 fb    	se        w0, w0
    6702:	42 80 de    	asr.w     w0, #0x2, w0
    6704:	00 00 fb    	se        w0, w0
    6706:	80 00 40    	add.w     w0, w0, w1
    6708:	e0 c8 20    	mov.w     #0xc8e, w0
    670a:	00 80 40    	add.w     w1, w0, w0
    670c:	10 01 78    	mov.w     [w0], w2
    670e:	22 0f 98    	mov.w     w2, [w14+20]
    6710:	2e 08 90    	mov.w     [w14+20], w0
    6712:	00 00 e0    	cp0.w     w0
    6714:	0b 00 3d    	bra       GE, 0x672c <.L43>
    6716:	ae 08 90    	mov.w     [w14+20], w1
    6718:	f0 ff 27    	mov.w     #0x7fff, w0
    671a:	00 80 60    	and.w     w1, w0, w0
    671c:	20 0f 98    	mov.w     w0, [w14+20]
    671e:	2e 08 90    	mov.w     [w14+20], w0
    6720:	00 00 e0    	cp0.w     w0
    6722:	0b 00 32    	bra       Z, 0x673a <.L47>
    6724:	2e 08 90    	mov.w     [w14+20], w0
    6726:	43 80 de    	asr.w     w0, #0x3, w0
    6728:	20 0f 98    	mov.w     w0, [w14+20]
    672a:	07 00 37    	bra       0x673a <.L47>

0000672c <.L43>:
    672c:	2e 08 90    	mov.w     [w14+20], w0
    672e:	43 80 de    	asr.w     w0, #0x3, w0
    6730:	20 0f 98    	mov.w     w0, [w14+20]
    6732:	ae 08 90    	mov.w     [w14+20], w1
    6734:	00 00 21    	mov.w     #0x1000, w0
    6736:	00 80 40    	add.w     w1, w0, w0
    6738:	20 0f 98    	mov.w     w0, [w14+20]

0000673a <.L47>:
    673a:	ae 08 90    	mov.w     [w14+20], w1
    673c:	f0 ff 21    	mov.w     #0x1fff, w0
    673e:	80 8f 50    	sub.w     w1, w0, [w15]
    6740:	02 00 34    	bra       LE, 0x6746 <.L48>
    6742:	f0 ff 21    	mov.w     #0x1fff, w0
    6744:	20 0f 98    	mov.w     w0, [w14+20]

00006746 <.L48>:
    6746:	2e 08 90    	mov.w     [w14+20], w0
    6748:	42 00 dd    	sl.w      w0, #0x2, w0
    674a:	20 0f 98    	mov.w     w0, [w14+20]
    674c:	f1 ff 27    	mov.w     #0x7fff, w1
    674e:	2e 08 90    	mov.w     [w14+20], w0
    6750:	00 80 50    	sub.w     w1, w0, w0
    6752:	10 0f 98    	mov.w     w0, [w14+18]
    6754:	8e 08 90    	mov.w     [w14+16], w1
    6756:	00 fc 2f    	mov.w     #0xffc0, w0
    6758:	00 80 60    	and.w     w1, w0, w0
    675a:	00 0f 98    	mov.w     w0, [w14+16]
    675c:	9e 08 90    	mov.w     [w14+18], w1
    675e:	7e 00 90    	mov.w     [w14+14], w0
    6760:	00 88 b9    	mul.ss    w1, w0, w0
    6762:	30 0f 98    	mov.w     w0, [w14+22]
    6764:	41 0f 98    	mov.w     w1, [w14+24]
    6766:	ae 08 90    	mov.w     [w14+20], w1
    6768:	6e 00 90    	mov.w     [w14+12], w0
    676a:	00 88 b9    	mul.ss    w1, w0, w0
    676c:	50 0f 98    	mov.w     w0, [w14+26]
    676e:	61 0f 98    	mov.w     w1, [w14+28]
    6770:	ce 08 90    	mov.w     [w14+24], w1
    6772:	6e 08 90    	mov.w     [w14+28], w0
    6774:	00 80 40    	add.w     w1, w0, w0
    6776:	61 01 b9    	mul.su    w0, #0x1, w2
    6778:	4e 00 90    	mov.w     [w14+8], w0
    677a:	de 00 90    	mov.w     [w14+10], w1
    677c:	00 00 41    	add.w     w2, w0, w0
    677e:	81 80 49    	addc.w    w3, w1, w1
    6780:	40 07 98    	mov.w     w0, [w14+8]
    6782:	51 07 98    	mov.w     w1, [w14+10]
    6784:	65 01 37    	bra       0x6a50 <.L9>

00006786 <.L20>:
    6786:	7e 08 90    	mov.w     [w14+30], w0
    6788:	10 00 90    	mov.w     [w0+2], w0
    678a:	42 00 dd    	sl.w      w0, #0x2, w0
    678c:	00 00 fb    	se        w0, w0
    678e:	42 80 de    	asr.w     w0, #0x2, w0
    6790:	00 00 fb    	se        w0, w0
    6792:	80 00 40    	add.w     w0, w0, w1
    6794:	e0 c8 20    	mov.w     #0xc8e, w0
    6796:	00 80 40    	add.w     w1, w0, w0
    6798:	90 01 78    	mov.w     [w0], w3
    679a:	23 0f 98    	mov.w     w3, [w14+20]
    679c:	2e 08 90    	mov.w     [w14+20], w0
    679e:	00 00 e0    	cp0.w     w0
    67a0:	0b 00 3d    	bra       GE, 0x67b8 <.L50>
    67a2:	ae 08 90    	mov.w     [w14+20], w1
    67a4:	f0 ff 27    	mov.w     #0x7fff, w0
    67a6:	00 80 60    	and.w     w1, w0, w0
    67a8:	20 0f 98    	mov.w     w0, [w14+20]
    67aa:	2e 08 90    	mov.w     [w14+20], w0
    67ac:	00 00 e0    	cp0.w     w0
    67ae:	0b 00 32    	bra       Z, 0x67c6 <.L54>
    67b0:	2e 08 90    	mov.w     [w14+20], w0
    67b2:	43 80 de    	asr.w     w0, #0x3, w0
    67b4:	20 0f 98    	mov.w     w0, [w14+20]
    67b6:	07 00 37    	bra       0x67c6 <.L54>

000067b8 <.L50>:
    67b8:	2e 08 90    	mov.w     [w14+20], w0
    67ba:	43 80 de    	asr.w     w0, #0x3, w0
    67bc:	20 0f 98    	mov.w     w0, [w14+20]
    67be:	ae 08 90    	mov.w     [w14+20], w1
    67c0:	00 00 21    	mov.w     #0x1000, w0
    67c2:	00 80 40    	add.w     w1, w0, w0
    67c4:	20 0f 98    	mov.w     w0, [w14+20]

000067c6 <.L54>:
    67c6:	ae 08 90    	mov.w     [w14+20], w1
    67c8:	f0 ff 21    	mov.w     #0x1fff, w0
    67ca:	80 8f 50    	sub.w     w1, w0, [w15]
    67cc:	02 00 34    	bra       LE, 0x67d2 <.L55>
    67ce:	f0 ff 21    	mov.w     #0x1fff, w0
    67d0:	20 0f 98    	mov.w     w0, [w14+20]

000067d2 <.L55>:
    67d2:	2e 08 90    	mov.w     [w14+20], w0
    67d4:	42 00 dd    	sl.w      w0, #0x2, w0
    67d6:	20 0f 98    	mov.w     w0, [w14+20]
    67d8:	f0 ff 27    	mov.w     #0x7fff, w0
    67da:	10 0f 98    	mov.w     w0, [w14+18]
    67dc:	8e 08 90    	mov.w     [w14+16], w1
    67de:	00 fc 2f    	mov.w     #0xffc0, w0
    67e0:	00 80 60    	and.w     w1, w0, w0
    67e2:	00 0f 98    	mov.w     w0, [w14+16]
    67e4:	9e 08 90    	mov.w     [w14+18], w1
    67e6:	7e 00 90    	mov.w     [w14+14], w0
    67e8:	00 88 b9    	mul.ss    w1, w0, w0
    67ea:	30 0f 98    	mov.w     w0, [w14+22]
    67ec:	41 0f 98    	mov.w     w1, [w14+24]
    67ee:	ae 08 90    	mov.w     [w14+20], w1
    67f0:	0e 08 90    	mov.w     [w14+16], w0
    67f2:	00 88 b9    	mul.ss    w1, w0, w0
    67f4:	50 0f 98    	mov.w     w0, [w14+26]
    67f6:	61 0f 98    	mov.w     w1, [w14+28]
    67f8:	ee 08 90    	mov.w     [w14+28], w1
    67fa:	6e 00 90    	mov.w     [w14+12], w0
    67fc:	00 88 b9    	mul.ss    w1, w0, w0
    67fe:	50 0f 98    	mov.w     w0, [w14+26]
    6800:	61 0f 98    	mov.w     w1, [w14+28]
    6802:	ce 08 90    	mov.w     [w14+24], w1
    6804:	6e 08 90    	mov.w     [w14+28], w0
    6806:	00 80 40    	add.w     w1, w0, w0
    6808:	61 01 b9    	mul.su    w0, #0x1, w2
    680a:	4e 00 90    	mov.w     [w14+8], w0
    680c:	de 00 90    	mov.w     [w14+10], w1
    680e:	00 00 41    	add.w     w2, w0, w0
    6810:	81 80 49    	addc.w    w3, w1, w1
    6812:	40 07 98    	mov.w     w0, [w14+8]
    6814:	51 07 98    	mov.w     w1, [w14+10]
    6816:	1c 01 37    	bra       0x6a50 <.L9>

00006818 <.L22>:
    6818:	8e 08 90    	mov.w     [w14+16], w1
    681a:	7e 00 90    	mov.w     [w14+14], w0
    681c:	00 88 b9    	mul.ss    w1, w0, w0
    681e:	30 0f 98    	mov.w     w0, [w14+22]
    6820:	41 0f 98    	mov.w     w1, [w14+24]
    6822:	4e 08 90    	mov.w     [w14+24], w0
    6824:	61 01 b9    	mul.su    w0, #0x1, w2
    6826:	4e 00 90    	mov.w     [w14+8], w0
    6828:	de 00 90    	mov.w     [w14+10], w1
    682a:	00 00 41    	add.w     w2, w0, w0
    682c:	81 80 49    	addc.w    w3, w1, w1
    682e:	40 07 98    	mov.w     w0, [w14+8]
    6830:	51 07 98    	mov.w     w1, [w14+10]
    6832:	0e 01 37    	bra       0x6a50 <.L9>

00006834 <.L23>:
    6834:	8e 08 90    	mov.w     [w14+16], w1
    6836:	7e 00 90    	mov.w     [w14+14], w0
    6838:	00 88 b9    	mul.ss    w1, w0, w0
    683a:	30 0f 98    	mov.w     w0, [w14+22]
    683c:	41 0f 98    	mov.w     w1, [w14+24]
    683e:	ce 08 90    	mov.w     [w14+24], w1
    6840:	6e 00 90    	mov.w     [w14+12], w0
    6842:	00 88 b9    	mul.ss    w1, w0, w0
    6844:	30 0f 98    	mov.w     w0, [w14+22]
    6846:	41 0f 98    	mov.w     w1, [w14+24]
    6848:	4e 08 90    	mov.w     [w14+24], w0
    684a:	61 01 b9    	mul.su    w0, #0x1, w2
    684c:	4e 00 90    	mov.w     [w14+8], w0
    684e:	de 00 90    	mov.w     [w14+10], w1
    6850:	00 00 41    	add.w     w2, w0, w0
    6852:	81 80 49    	addc.w    w3, w1, w1
    6854:	40 07 98    	mov.w     w0, [w14+8]
    6856:	51 07 98    	mov.w     w1, [w14+10]
    6858:	fb 00 37    	bra       0x6a50 <.L9>

0000685a <.L24>:
    685a:	70 64 80    	mov.w     0xc8e, w0
    685c:	00 00 e0    	cp0.w     w0
    685e:	f8 00 3a    	bra       NZ, 0x6a50 <.L9>
    6860:	8e 08 90    	mov.w     [w14+16], w1
    6862:	7e 00 90    	mov.w     [w14+14], w0
    6864:	00 88 b9    	mul.ss    w1, w0, w0
    6866:	30 0f 98    	mov.w     w0, [w14+22]
    6868:	41 0f 98    	mov.w     w1, [w14+24]
    686a:	4e 08 90    	mov.w     [w14+24], w0
    686c:	61 01 b9    	mul.su    w0, #0x1, w2
    686e:	4e 00 90    	mov.w     [w14+8], w0
    6870:	de 00 90    	mov.w     [w14+10], w1
    6872:	00 00 41    	add.w     w2, w0, w0
    6874:	81 80 49    	addc.w    w3, w1, w1
    6876:	40 07 98    	mov.w     w0, [w14+8]
    6878:	51 07 98    	mov.w     w1, [w14+10]
    687a:	ea 00 37    	bra       0x6a50 <.L9>

0000687c <.L25>:
    687c:	70 64 80    	mov.w     0xc8e, w0
    687e:	00 00 e0    	cp0.w     w0
    6880:	e7 00 3a    	bra       NZ, 0x6a50 <.L9>
    6882:	8e 08 90    	mov.w     [w14+16], w1
    6884:	7e 00 90    	mov.w     [w14+14], w0
    6886:	00 88 b9    	mul.ss    w1, w0, w0
    6888:	30 0f 98    	mov.w     w0, [w14+22]
    688a:	41 0f 98    	mov.w     w1, [w14+24]
    688c:	ce 08 90    	mov.w     [w14+24], w1
    688e:	6e 00 90    	mov.w     [w14+12], w0
    6890:	00 88 b9    	mul.ss    w1, w0, w0
    6892:	30 0f 98    	mov.w     w0, [w14+22]
    6894:	41 0f 98    	mov.w     w1, [w14+24]
    6896:	4e 08 90    	mov.w     [w14+24], w0
    6898:	61 01 b9    	mul.su    w0, #0x1, w2
    689a:	4e 00 90    	mov.w     [w14+8], w0
    689c:	de 00 90    	mov.w     [w14+10], w1
    689e:	00 00 41    	add.w     w2, w0, w0
    68a0:	81 80 49    	addc.w    w3, w1, w1
    68a2:	40 07 98    	mov.w     w0, [w14+8]
    68a4:	51 07 98    	mov.w     w1, [w14+10]
    68a6:	d4 00 37    	bra       0x6a50 <.L9>

000068a8 <.L26>:
    68a8:	70 64 80    	mov.w     0xc8e, w0
    68aa:	00 00 e0    	cp0.w     w0
    68ac:	d1 00 34    	bra       LE, 0x6a50 <.L9>
    68ae:	71 64 80    	mov.w     0xc8e, w1
    68b0:	e0 0f 20    	mov.w     #0xfe, w0
    68b2:	80 8f 50    	sub.w     w1, w0, [w15]
    68b4:	cd 00 3c    	bra       GT, 0x6a50 <.L9>
    68b6:	8e 08 90    	mov.w     [w14+16], w1
    68b8:	7e 00 90    	mov.w     [w14+14], w0
    68ba:	00 88 b9    	mul.ss    w1, w0, w0
    68bc:	30 0f 98    	mov.w     w0, [w14+22]
    68be:	41 0f 98    	mov.w     w1, [w14+24]
    68c0:	4e 08 90    	mov.w     [w14+24], w0
    68c2:	61 01 b9    	mul.su    w0, #0x1, w2
    68c4:	4e 00 90    	mov.w     [w14+8], w0
    68c6:	de 00 90    	mov.w     [w14+10], w1
    68c8:	00 00 41    	add.w     w2, w0, w0
    68ca:	81 80 49    	addc.w    w3, w1, w1
    68cc:	40 07 98    	mov.w     w0, [w14+8]
    68ce:	51 07 98    	mov.w     w1, [w14+10]
    68d0:	bf 00 37    	bra       0x6a50 <.L9>

000068d2 <.L27>:
    68d2:	70 64 80    	mov.w     0xc8e, w0
    68d4:	00 00 e0    	cp0.w     w0
    68d6:	bc 00 34    	bra       LE, 0x6a50 <.L9>
    68d8:	71 64 80    	mov.w     0xc8e, w1
    68da:	e0 0f 20    	mov.w     #0xfe, w0
    68dc:	80 8f 50    	sub.w     w1, w0, [w15]
    68de:	b8 00 3c    	bra       GT, 0x6a50 <.L9>
    68e0:	8e 08 90    	mov.w     [w14+16], w1
    68e2:	7e 00 90    	mov.w     [w14+14], w0
    68e4:	00 88 b9    	mul.ss    w1, w0, w0
    68e6:	30 0f 98    	mov.w     w0, [w14+22]
    68e8:	41 0f 98    	mov.w     w1, [w14+24]
    68ea:	ce 08 90    	mov.w     [w14+24], w1
    68ec:	6e 00 90    	mov.w     [w14+12], w0
    68ee:	00 88 b9    	mul.ss    w1, w0, w0
    68f0:	30 0f 98    	mov.w     w0, [w14+22]
    68f2:	41 0f 98    	mov.w     w1, [w14+24]
    68f4:	4e 08 90    	mov.w     [w14+24], w0
    68f6:	61 01 b9    	mul.su    w0, #0x1, w2
    68f8:	4e 00 90    	mov.w     [w14+8], w0
    68fa:	de 00 90    	mov.w     [w14+10], w1
    68fc:	00 00 41    	add.w     w2, w0, w0
    68fe:	81 80 49    	addc.w    w3, w1, w1
    6900:	40 07 98    	mov.w     w0, [w14+8]
    6902:	51 07 98    	mov.w     w1, [w14+10]
    6904:	a5 00 37    	bra       0x6a50 <.L9>

00006906 <.L28>:
    6906:	71 64 80    	mov.w     0xc8e, w1
    6908:	f0 0f 20    	mov.w     #0xff, w0
    690a:	80 8f 50    	sub.w     w1, w0, [w15]
    690c:	a1 00 3a    	bra       NZ, 0x6a50 <.L9>
    690e:	8e 08 90    	mov.w     [w14+16], w1
    6910:	7e 00 90    	mov.w     [w14+14], w0
    6912:	00 88 b9    	mul.ss    w1, w0, w0
    6914:	30 0f 98    	mov.w     w0, [w14+22]
    6916:	41 0f 98    	mov.w     w1, [w14+24]
    6918:	4e 08 90    	mov.w     [w14+24], w0
    691a:	61 01 b9    	mul.su    w0, #0x1, w2
    691c:	4e 00 90    	mov.w     [w14+8], w0
    691e:	de 00 90    	mov.w     [w14+10], w1
    6920:	00 00 41    	add.w     w2, w0, w0
    6922:	81 80 49    	addc.w    w3, w1, w1
    6924:	40 07 98    	mov.w     w0, [w14+8]
    6926:	51 07 98    	mov.w     w1, [w14+10]
    6928:	93 00 37    	bra       0x6a50 <.L9>

0000692a <.L29>:
    692a:	71 64 80    	mov.w     0xc8e, w1
    692c:	f0 0f 20    	mov.w     #0xff, w0
    692e:	80 8f 50    	sub.w     w1, w0, [w15]
    6930:	8f 00 3a    	bra       NZ, 0x6a50 <.L9>
    6932:	8e 08 90    	mov.w     [w14+16], w1
    6934:	7e 00 90    	mov.w     [w14+14], w0
    6936:	00 88 b9    	mul.ss    w1, w0, w0
    6938:	30 0f 98    	mov.w     w0, [w14+22]
    693a:	41 0f 98    	mov.w     w1, [w14+24]
    693c:	ce 08 90    	mov.w     [w14+24], w1
    693e:	6e 00 90    	mov.w     [w14+12], w0
    6940:	00 88 b9    	mul.ss    w1, w0, w0
    6942:	30 0f 98    	mov.w     w0, [w14+22]
    6944:	41 0f 98    	mov.w     w1, [w14+24]
    6946:	4e 08 90    	mov.w     [w14+24], w0
    6948:	61 01 b9    	mul.su    w0, #0x1, w2
    694a:	4e 00 90    	mov.w     [w14+8], w0
    694c:	de 00 90    	mov.w     [w14+10], w1
    694e:	00 00 41    	add.w     w2, w0, w0
    6950:	81 80 49    	addc.w    w3, w1, w1
    6952:	40 07 98    	mov.w     w0, [w14+8]
    6954:	51 07 98    	mov.w     w1, [w14+10]
    6956:	7c 00 37    	bra       0x6a50 <.L9>

00006958 <.L30>:
    6958:	7e 00 90    	mov.w     [w14+14], w0
    695a:	00 00 e0    	cp0.w     w0
    695c:	03 00 3c    	bra       GT, 0x6964 <.L71>
    695e:	6e 00 90    	mov.w     [w14+12], w0
    6960:	00 00 e0    	cp0.w     w0
    6962:	76 00 34    	bra       LE, 0x6a50 <.L9>

00006964 <.L71>:
    6964:	0e 08 90    	mov.w     [w14+16], w0
    6966:	61 02 b9    	mul.su    w0, #0x1, w4
    6968:	84 00 78    	mov.w     w4, w1
    696a:	4e 00 90    	mov.w     [w14+8], w0
    696c:	00 0b b8    	mul.uu    w1, w0, w6
    696e:	5e 00 90    	mov.w     [w14+10], w0
    6970:	00 a0 b9    	mul.ss    w4, w0, w0
    6972:	07 01 78    	mov.w     w7, w2
    6974:	00 01 41    	add.w     w2, w0, w2
    6976:	4e 00 90    	mov.w     [w14+8], w0
    6978:	05 80 b9    	mul.ss    w0, w5, w0
    697a:	00 01 41    	add.w     w2, w0, w2
    697c:	82 03 78    	mov.w     w2, w7
    697e:	4e 00 90    	mov.w     [w14+8], w0
    6980:	de 00 90    	mov.w     [w14+10], w1
    6982:	06 00 50    	sub.w     w0, w6, w0
    6984:	87 80 58    	subb.w    w1, w7, w1
    6986:	40 07 98    	mov.w     w0, [w14+8]
    6988:	51 07 98    	mov.w     w1, [w14+10]
    698a:	62 00 37    	bra       0x6a50 <.L9>

0000698c <.L31>:
    698c:	7e 00 90    	mov.w     [w14+14], w0
    698e:	00 00 e0    	cp0.w     w0
    6990:	03 00 35    	bra       LT, 0x6998 <.L74>
    6992:	6e 00 90    	mov.w     [w14+12], w0
    6994:	00 00 e0    	cp0.w     w0
    6996:	5c 00 3d    	bra       GE, 0x6a50 <.L9>

00006998 <.L74>:
    6998:	0e 08 90    	mov.w     [w14+16], w0
    699a:	61 02 b9    	mul.su    w0, #0x1, w4
    699c:	84 00 78    	mov.w     w4, w1
    699e:	4e 00 90    	mov.w     [w14+8], w0
    69a0:	00 0b b8    	mul.uu    w1, w0, w6
    69a2:	5e 00 90    	mov.w     [w14+10], w0
    69a4:	00 a0 b9    	mul.ss    w4, w0, w0
    69a6:	07 01 78    	mov.w     w7, w2
    69a8:	00 01 41    	add.w     w2, w0, w2
    69aa:	4e 00 90    	mov.w     [w14+8], w0
    69ac:	05 80 b9    	mul.ss    w0, w5, w0
    69ae:	00 01 41    	add.w     w2, w0, w2
    69b0:	82 03 78    	mov.w     w2, w7
    69b2:	4e 00 90    	mov.w     [w14+8], w0
    69b4:	de 00 90    	mov.w     [w14+10], w1
    69b6:	06 00 50    	sub.w     w0, w6, w0
    69b8:	87 80 58    	subb.w    w1, w7, w1
    69ba:	40 07 98    	mov.w     w0, [w14+8]
    69bc:	51 07 98    	mov.w     w1, [w14+10]
    69be:	48 00 37    	bra       0x6a50 <.L9>

000069c0 <.L32>:
    69c0:	0e 08 90    	mov.w     [w14+16], w0
    69c2:	cf 80 de    	asr.w     w0, #0xf, w1
    69c4:	40 07 98    	mov.w     w0, [w14+8]
    69c6:	51 07 98    	mov.w     w1, [w14+10]
    69c8:	43 00 37    	bra       0x6a50 <.L9>

000069ca <.L33>:
    69ca:	4e 01 90    	mov.w     [w14+8], w2
    69cc:	de 01 90    	mov.w     [w14+10], w3
    69ce:	f0 ff 27    	mov.w     #0x7fff, w0
    69d0:	01 00 20    	mov.w     #0x0, w1
    69d2:	80 0f 51    	sub.w     w2, w0, [w15]
    69d4:	81 8f 59    	subb.w    w3, w1, [w15]
    69d6:	04 00 34    	bra       LE, 0x69e0 <.L77>
    69d8:	f0 ff 27    	mov.w     #0x7fff, w0
    69da:	01 00 20    	mov.w     #0x0, w1
    69dc:	40 07 98    	mov.w     w0, [w14+8]
    69de:	51 07 98    	mov.w     w1, [w14+10]

000069e0 <.L77>:
    69e0:	4e 01 90    	mov.w     [w14+8], w2
    69e2:	de 01 90    	mov.w     [w14+10], w3
    69e4:	10 00 28    	mov.w     #0x8001, w0
    69e6:	f1 ff 2f    	mov.w     #0xffff, w1
    69e8:	80 0f 51    	sub.w     w2, w0, [w15]
    69ea:	81 8f 59    	subb.w    w3, w1, [w15]
    69ec:	04 00 3d    	bra       GE, 0x69f6 <.L79>
    69ee:	10 00 28    	mov.w     #0x8001, w0
    69f0:	f1 ff 2f    	mov.w     #0xffff, w1
    69f2:	40 07 98    	mov.w     w0, [w14+8]
    69f4:	51 07 98    	mov.w     w1, [w14+10]

000069f6 <.L79>:
    69f6:	0e 08 90    	mov.w     [w14+16], w0
    69f8:	61 03 b9    	mul.su    w0, #0x1, w6
    69fa:	86 00 78    	mov.w     w6, w1
    69fc:	4e 00 90    	mov.w     [w14+8], w0
    69fe:	00 0a b8    	mul.uu    w1, w0, w4
    6a00:	5e 00 90    	mov.w     [w14+10], w0
    6a02:	00 b0 b9    	mul.ss    w6, w0, w0
    6a04:	05 01 78    	mov.w     w5, w2
    6a06:	00 01 41    	add.w     w2, w0, w2
    6a08:	4e 00 90    	mov.w     [w14+8], w0
    6a0a:	07 80 b9    	mul.ss    w0, w7, w0
    6a0c:	00 01 41    	add.w     w2, w0, w2
    6a0e:	82 02 78    	mov.w     w2, w5
    6a10:	43 28 dd    	sl.w      w5, #0x3, w0
    6a12:	4d 21 de    	lsr.w     w4, #0xd, w2
    6a14:	02 01 70    	ior.w     w0, w2, w2
    6a16:	cd a9 de    	asr.w     w5, #0xd, w3
    6a18:	7e 08 90    	mov.w     [w14+30], w0
    6a1a:	10 00 78    	mov.w     [w0], w0
    6a1c:	cf 80 de    	asr.w     w0, #0xf, w1
    6a1e:	02 00 40    	add.w     w0, w2, w0
    6a20:	83 80 48    	addc.w    w1, w3, w1
    6a22:	20 07 98    	mov.w     w0, [w14+4]
    6a24:	31 07 98    	mov.w     w1, [w14+6]
    6a26:	14 00 37    	bra       0x6a50 <.L9>

00006a28 <.L34>:
    6a28:	2e 00 90    	mov.w     [w14+4], w0
    6a2a:	20 0f 98    	mov.w     w0, [w14+20]
    6a2c:	ae 08 90    	mov.w     [w14+20], w1
    6a2e:	0e 08 90    	mov.w     [w14+16], w0
    6a30:	80 8f 50    	sub.w     w1, w0, [w15]
    6a32:	03 00 34    	bra       LE, 0x6a3a <.L81>
    6a34:	8e 08 90    	mov.w     [w14+16], w1
    6a36:	21 0f 98    	mov.w     w1, [w14+20]
    6a38:	08 00 37    	bra       0x6a4a <.L83>

00006a3a <.L81>:
    6a3a:	7e 08 90    	mov.w     [w14+30], w0
    6a3c:	90 00 78    	mov.w     [w0], w1
    6a3e:	2e 08 90    	mov.w     [w14+20], w0
    6a40:	80 8f 50    	sub.w     w1, w0, [w15]
    6a42:	03 00 34    	bra       LE, 0x6a4a <.L83>
    6a44:	7e 08 90    	mov.w     [w14+30], w0
    6a46:	10 01 78    	mov.w     [w0], w2
    6a48:	22 0f 98    	mov.w     w2, [w14+20]

00006a4a <.L83>:
    6a4a:	ae 08 90    	mov.w     [w14+20], w1
    6a4c:	0e 10 90    	mov.w     [w14+32], w0
    6a4e:	01 08 78    	mov.w     w1, [w0]

00006a50 <.L9>:
    6a50:	1e 00 90    	mov.w     [w14+2], w0
    6a52:	00 00 e8    	inc.w     w0, w0
    6a54:	10 07 98    	mov.w     w0, [w14+2]
    6a56:	7e 08 90    	mov.w     [w14+30], w0
    6a58:	64 00 40    	add.w     w0, #0x4, w0
    6a5a:	70 0f 98    	mov.w     w0, [w14+30]

00006a5c <.L2>:
    6a5c:	1e 00 90    	mov.w     [w14+2], w0
    6a5e:	e7 0f 50    	sub.w     w0, #0x7, [w15]
    6a60:	9f fd 36    	bra       LEU, 0x65a0 <.L3>
    6a62:	4e 00 90    	mov.w     [w14+8], w0
    6a64:	00 80 fa    	ulnk      
    6a66:	00 00 06    	return    

00006a68 <_servoMix>:
    6a68:	08 00 fa    	lnk       #0x8
    6a6a:	00 da 80    	mov.w     0x1b40, w0
    6a6c:	70 00 60    	and.w     w0, #0x10, w0
    6a6e:	00 00 e0    	cp0.w     w0
    6a70:	17 00 3a    	bra       NZ, 0x6aa0 <.L88>
    6a72:	10 00 20    	mov.w     #0x1, w0
    6a74:	20 07 98    	mov.w     w0, [w14+4]
    6a76:	10 00 37    	bra       0x6a98 <.L90>

00006a78 <.L91>:
    6a78:	2e 00 90    	mov.w     [w14+4], w0
    6a7a:	ec 0f 50    	sub.w     w0, #0xc, [w15]
    6a7c:	0a 00 32    	bra       Z, 0x6a92 <.L92>
    6a7e:	2e 01 90    	mov.w     [w14+4], w2
    6a80:	2e 00 90    	mov.w     [w14+4], w0
    6a82:	80 00 40    	add.w     w0, w0, w1
    6a84:	00 d1 20    	mov.w     #0xd10, w0
    6a86:	00 80 40    	add.w     w1, w0, w0
    6a88:	90 01 78    	mov.w     [w0], w3
    6a8a:	82 00 41    	add.w     w2, w2, w1
    6a8c:	e0 c8 20    	mov.w     #0xc8e, w0
    6a8e:	00 80 40    	add.w     w1, w0, w0
    6a90:	03 08 78    	mov.w     w3, [w0]

00006a92 <.L92>:
    6a92:	2e 00 90    	mov.w     [w14+4], w0
    6a94:	00 00 e8    	inc.w     w0, w0
    6a96:	20 07 98    	mov.w     w0, [w14+4]

00006a98 <.L90>:
    6a98:	ae 00 90    	mov.w     [w14+4], w1
    6a9a:	00 04 20    	mov.w     #0x40, w0
    6a9c:	80 8f 50    	sub.w     w1, w0, [w15]
    6a9e:	ec ff 36    	bra       LEU, 0x6a78 <.L91>

00006aa0 <.L88>:
    6aa0:	e1 d8 80    	mov.w     0x1b1c, w1
    6aa2:	20 b7 80    	mov.w     0x16e4, w0
    6aa4:	00 80 40    	add.w     w1, w0, w0
    6aa6:	80 64 88    	mov.w     w0, 0xc90
    6aa8:	d0 d8 80    	mov.w     0x1b1a, w0
    6aaa:	90 64 88    	mov.w     w0, 0xc92
    6aac:	f1 d8 80    	mov.w     0x1b1e, w1
    6aae:	20 b7 80    	mov.w     0x16e4, w0
    6ab0:	00 80 50    	sub.w     w1, w0, w0
    6ab2:	a0 64 88    	mov.w     w0, 0xc94
    6ab4:	00 d9 80    	mov.w     0x1b20, w0
    6ab6:	b0 64 88    	mov.w     w0, 0xc96
    6ab8:	00 da 80    	mov.w     0x1b40, w0
    6aba:	70 00 60    	and.w     w0, #0x10, w0
    6abc:	00 00 e0    	cp0.w     w0
    6abe:	08 00 32    	bra       Z, 0x6ad0 <.L94>
    6ac0:	70 d8 80    	mov.w     0x1b0e, w0
    6ac2:	01 10 20    	mov.w     #0x100, w1
    6ac4:	01 00 60    	and.w     w0, w1, w0
    6ac6:	00 00 e0    	cp0.w     w0
    6ac8:	03 00 32    	bra       Z, 0x6ad0 <.L94>
    6aca:	f0 07 20    	mov.w     #0x7f, w0
    6acc:	70 64 88    	mov.w     w0, 0xc8e
    6ace:	0f 00 37    	bra       0x6aee <.L97>

00006ad0 <.L94>:
    6ad0:	70 d8 80    	mov.w     0x1b0e, w0
    6ad2:	01 00 22    	mov.w     #0x2000, w1
    6ad4:	01 00 60    	and.w     w0, w1, w0
    6ad6:	00 00 e0    	cp0.w     w0
    6ad8:	05 00 3a    	bra       NZ, 0x6ae4 <.L98>
    6ada:	70 d8 80    	mov.w     0x1b0e, w0
    6adc:	01 00 21    	mov.w     #0x1000, w1
    6ade:	01 00 60    	and.w     w0, w1, w0
    6ae0:	00 00 e0    	cp0.w     w0
    6ae2:	03 00 32    	bra       Z, 0x6aea <.L100>

00006ae4 <.L98>:
    6ae4:	f0 0f 20    	mov.w     #0xff, w0
    6ae6:	70 64 88    	mov.w     w0, 0xc8e
    6ae8:	02 00 37    	bra       0x6aee <.L97>

00006aea <.L100>:
    6aea:	00 00 eb    	clr.w     w0
    6aec:	70 64 88    	mov.w     w0, 0xc8e

00006aee <.L97>:
    6aee:	10 00 20    	mov.w     #0x1, w0
    6af0:	20 07 98    	mov.w     w0, [w14+4]
    6af2:	48 00 37    	bra       0x6b84 <.L101>

00006af4 <.L102>:
    6af4:	2e 00 90    	mov.w     [w14+4], w0
    6af6:	45 00 dd    	sl.w      w0, #0x5, w0
    6af8:	00 01 78    	mov.w     w0, w2
    6afa:	21 87 20    	mov.w     #0x872, w1
    6afc:	00 fe 2f    	mov.w     #0xffe0, w0
    6afe:	00 80 40    	add.w     w1, w0, w0
    6b00:	00 00 41    	add.w     w2, w0, w0
    6b02:	e6 00 47    	add.w     w14, #0x6, w1
    6b04:	40 fd 07    	rcall     0x6586 <_bankMix>
    6b06:	10 07 98    	mov.w     w0, [w14+2]
    6b08:	ae 00 90    	mov.w     [w14+4], w1
    6b0a:	3e 00 90    	mov.w     [w14+6], w0
    6b0c:	00 01 78    	mov.w     w0, w2
    6b0e:	81 80 40    	add.w     w1, w1, w1
    6b10:	20 d9 20    	mov.w     #0xd92, w0
    6b12:	00 80 40    	add.w     w1, w0, w0
    6b14:	02 08 78    	mov.w     w2, [w0]
    6b16:	2e 00 90    	mov.w     [w14+4], w0
    6b18:	68 0f 40    	add.w     w0, #0x8, [w14]
    6b1a:	9e 00 78    	mov.w     [w14], w1
    6b1c:	1e 01 90    	mov.w     [w14+2], w2
    6b1e:	00 03 20    	mov.w     #0x30, w0
    6b20:	00 88 b9    	mul.ss    w1, w0, w0
    6b22:	80 00 78    	mov.w     w0, w1
    6b24:	e0 e9 20    	mov.w     #0xe9e, w0
    6b26:	00 80 40    	add.w     w1, w0, w0
    6b28:	02 08 78    	mov.w     w2, [w0]
    6b2a:	9e 00 78    	mov.w     [w14], w1
    6b2c:	00 03 20    	mov.w     #0x30, w0
    6b2e:	00 88 b9    	mul.ss    w1, w0, w0
    6b30:	e4 00 40    	add.w     w0, #0x4, w1
    6b32:	e0 e9 20    	mov.w     #0xe9e, w0
    6b34:	00 80 40    	add.w     w1, w0, w0
    6b36:	10 00 78    	mov.w     [w0], w0
    6b38:	44 00 de    	lsr.w     w0, #0x4, w0
    6b3a:	7f 40 60    	and.b     w0, #0x1f, w0
    6b3c:	00 80 fb    	ze        w0, w0
    6b3e:	e9 0f 50    	sub.w     w0, #0x9, [w15]
    6b40:	1e 00 3c    	bra       GT, 0x6b7e <.L103>
    6b42:	9e 02 78    	mov.w     [w14], w5
    6b44:	1e 03 78    	mov.w     [w14], w6
    6b46:	00 03 20    	mov.w     #0x30, w0
    6b48:	00 b0 b9    	mul.ss    w6, w0, w0
    6b4a:	e4 00 40    	add.w     w0, #0x4, w1
    6b4c:	e0 e9 20    	mov.w     #0xe9e, w0
    6b4e:	00 80 40    	add.w     w1, w0, w0
    6b50:	10 00 78    	mov.w     [w0], w0
    6b52:	ef 41 60    	and.b     w0, #0xf, w3
    6b54:	03 81 fb    	ze        w3, w2
    6b56:	1e 02 90    	mov.w     [w14+2], w4
    6b58:	78 28 b9    	mul.su    w5, #0x18, w0
    6b5a:	02 00 40    	add.w     w0, w2, w0
    6b5c:	00 00 40    	add.w     w0, w0, w0
    6b5e:	f0 00 40    	add.w     w0, #0x10, w1
    6b60:	e0 e9 20    	mov.w     #0xe9e, w0
    6b62:	00 80 40    	add.w     w1, w0, w0
    6b64:	04 08 78    	mov.w     w4, [w0]
    6b66:	03 41 e8    	inc.b     w3, w2
    6b68:	6f 41 61    	and.b     w2, #0xf, w2
    6b6a:	00 03 20    	mov.w     #0x30, w0
    6b6c:	00 b0 b9    	mul.ss    w6, w0, w0
    6b6e:	e4 00 40    	add.w     w0, #0x4, w1
    6b70:	e0 e9 20    	mov.w     #0xe9e, w0
    6b72:	00 80 40    	add.w     w1, w0, w0
    6b74:	82 80 fb    	ze        w2, w1
    6b76:	6f 81 60    	and.w     w1, #0xf, w2
    6b78:	01 ff 2f    	mov.w     #0xfff0, w1
    6b7a:	10 88 60    	and.w     w1, [w0], [w0]
    6b7c:	10 08 71    	ior.w     w2, [w0], [w0]

00006b7e <.L103>:
    6b7e:	2e 00 90    	mov.w     [w14+4], w0
    6b80:	00 00 e8    	inc.w     w0, w0
    6b82:	20 07 98    	mov.w     w0, [w14+4]

00006b84 <.L101>:
    6b84:	2e 00 90    	mov.w     [w14+4], w0
    6b86:	e7 0f 50    	sub.w     w0, #0x7, [w15]
    6b88:	b5 ff 36    	bra       LEU, 0x6af4 <.L102>
    6b8a:	00 80 fa    	ulnk      
    6b8c:	00 00 06    	return    

00006b8e <_cameraServoMix>:
    6b8e:	16 00 fa    	lnk       #0x16
    6b90:	60 00 b8    	mul.uu    w0, #0x0, w0
    6b92:	00 8f be    	mov.d     w0, [w14]
    6b94:	1d 00 37    	bra       0x6bd0 <.L108>

00006b96 <.L109>:
    6b96:	00 da 80    	mov.w     0x1b40, w0
    6b98:	70 00 60    	and.w     w0, #0x10, w0
    6b9a:	00 00 e0    	cp0.w     w0
    6b9c:	0b 00 32    	bra       Z, 0x6bb4 <.L110>
    6b9e:	1e 01 be    	mov.d     [w14], w2
    6ba0:	1e 00 be    	mov.d     [w14], w0
    6ba2:	80 00 40    	add.w     w0, w0, w1
    6ba4:	e0 c8 20    	mov.w     #0xc8e, w0
    6ba6:	00 80 40    	add.w     w1, w0, w0
    6ba8:	10 02 78    	mov.w     [w0], w4
    6baa:	e4 00 47    	add.w     w14, #0x4, w1
    6bac:	02 00 78    	mov.w     w2, w0
    6bae:	00 00 40    	add.w     w0, w0, w0
    6bb0:	04 b0 78    	mov.w     w4, [w0+w1]
    6bb2:	0a 00 37    	bra       0x6bc8 <.L112>

00006bb4 <.L110>:
    6bb4:	1e 01 be    	mov.d     [w14], w2
    6bb6:	1e 00 be    	mov.d     [w14], w0
    6bb8:	80 00 40    	add.w     w0, w0, w1
    6bba:	00 d1 20    	mov.w     #0xd10, w0
    6bbc:	00 80 40    	add.w     w1, w0, w0
    6bbe:	10 02 78    	mov.w     [w0], w4
    6bc0:	e4 00 47    	add.w     w14, #0x4, w1
    6bc2:	02 00 78    	mov.w     w2, w0
    6bc4:	00 00 40    	add.w     w0, w0, w0
    6bc6:	04 b0 78    	mov.w     w4, [w0+w1]

00006bc8 <.L112>:
    6bc8:	10 00 20    	mov.w     #0x1, w0
    6bca:	01 00 20    	mov.w     #0x0, w1
    6bcc:	1e 0f 40    	add.w     w0, [w14], [w14]
    6bce:	5e 97 48    	addc.w    w1, [++w14], [w14--]

00006bd0 <.L108>:
    6bd0:	80 00 20    	mov.w     #0x8, w0
    6bd2:	01 00 20    	mov.w     #0x0, w1
    6bd4:	be 0f 10    	subr.w    w0, [w14++], [w15]
    6bd6:	ae 8f 18    	subbr.w   w1, [w14--], [w15]
    6bd8:	de ff 34    	bra       LE, 0x6b96 <.L109>
    6bda:	64 00 47    	add.w     w14, #0x4, w0
    6bdc:	90 00 78    	mov.w     [w0], w1
    6bde:	a0 b6 80    	mov.w     0x16d4, w0
    6be0:	80 80 40    	add.w     w1, w0, w1
    6be2:	80 44 2f    	mov.w     #0xf448, w0
    6be4:	00 80 40    	add.w     w1, w0, w0
    6be6:	cf 80 de    	asr.w     w0, #0xf, w1
    6be8:	00 8f be    	mov.d     w0, [w14]
    6bea:	1e 00 be    	mov.d     [w14], w0
    6bec:	cf 20 07    	rcall     0xad8c <_cam_pitchServoLimit>
    6bee:	00 8f be    	mov.d     w0, [w14]
    6bf0:	80 bb 20    	mov.w     #0xbb8, w0
    6bf2:	01 00 20    	mov.w     #0x0, w1
    6bf4:	3e 01 40    	add.w     w0, [w14++], w2
    6bf6:	ae 81 48    	addc.w    w1, [w14--], w3
    6bf8:	02 00 be    	mov.d     w2, w0
    6bfa:	b2 19 07    	rcall     0x9f60 <_udb_servo_pulsesat>
    6bfc:	90 6c 88    	mov.w     w0, 0xd92
    6bfe:	64 00 47    	add.w     w14, #0x4, w0
    6c00:	90 00 78    	mov.w     [w0], w1
    6c02:	b0 b6 80    	mov.w     0x16d6, w0
    6c04:	80 80 40    	add.w     w1, w0, w1
    6c06:	80 44 2f    	mov.w     #0xf448, w0
    6c08:	00 80 40    	add.w     w1, w0, w0
    6c0a:	cf 80 de    	asr.w     w0, #0xf, w1
    6c0c:	00 8f be    	mov.d     w0, [w14]
    6c0e:	1e 00 be    	mov.d     [w14], w0
    6c10:	d2 20 07    	rcall     0xadb6 <_cam_yawServoLimit>
    6c12:	00 8f be    	mov.d     w0, [w14]
    6c14:	80 bb 20    	mov.w     #0xbb8, w0
    6c16:	01 00 20    	mov.w     #0x0, w1
    6c18:	3e 01 40    	add.w     w0, [w14++], w2
    6c1a:	ae 81 48    	addc.w    w1, [w14--], w3
    6c1c:	02 00 be    	mov.d     w2, w0
    6c1e:	a0 19 07    	rcall     0x9f60 <_udb_servo_pulsesat>
    6c20:	90 6c 88    	mov.w     w0, 0xd92
    6c22:	00 80 fa    	ulnk      
    6c24:	00 00 06    	return    

00006c26 <_dcm_init_rmat>:
    6c26:	00 00 fa    	lnk       #0x0
    6c28:	7a ca bf    	mov.b     0xa7a, WREG
    6c2a:	d3 14 07    	rcall     0x95d2 <_cosine>
    6c2c:	e0 5d 88    	mov.w     w0, 0xbbc
    6c2e:	7a ca bf    	mov.b     0xa7a, WREG
    6c30:	4c 14 07    	rcall     0x94ca <_sine>
    6c32:	f0 5d 88    	mov.w     w0, 0xbbe
    6c34:	00 80 fa    	ulnk      
    6c36:	00 00 06    	return    

00006c38 <_VectorCross>:
    6c38:	0a 00 fa    	lnk       #0xa
    6c3a:	20 07 98    	mov.w     w0, [w14+4]
    6c3c:	31 07 98    	mov.w     w1, [w14+6]
    6c3e:	42 07 98    	mov.w     w2, [w14+8]
    6c40:	4e 00 90    	mov.w     [w14+8], w0
    6c42:	64 00 40    	add.w     w0, #0x4, w0
    6c44:	90 00 78    	mov.w     [w0], w1
    6c46:	3e 00 90    	mov.w     [w14+6], w0
    6c48:	00 80 e8    	inc2.w    w0, w0
    6c4a:	10 00 78    	mov.w     [w0], w0
    6c4c:	01 80 b9    	mul.ss    w0, w1, w0
    6c4e:	00 8f be    	mov.d     w0, [w14]
    6c50:	1e 01 be    	mov.d     [w14], w2
    6c52:	4e 00 90    	mov.w     [w14+8], w0
    6c54:	00 80 e8    	inc2.w    w0, w0
    6c56:	90 00 78    	mov.w     [w0], w1
    6c58:	3e 00 90    	mov.w     [w14+6], w0
    6c5a:	64 00 40    	add.w     w0, #0x4, w0
    6c5c:	10 00 78    	mov.w     [w0], w0
    6c5e:	01 80 b9    	mul.ss    w0, w1, w0
    6c60:	00 00 51    	sub.w     w2, w0, w0
    6c62:	81 80 59    	subb.w    w3, w1, w1
    6c64:	00 8f be    	mov.d     w0, [w14]
    6c66:	1e 00 be    	mov.d     [w14], w0
    6c68:	42 09 dd    	sl.w      w1, #0x2, w2
    6c6a:	ce 00 de    	lsr.w     w0, #0xe, w1
    6c6c:	81 00 71    	ior.w     w2, w1, w1
    6c6e:	42 00 dd    	sl.w      w0, #0x2, w0
    6c70:	00 8f be    	mov.d     w0, [w14]
    6c72:	9e 00 90    	mov.w     [w14+2], w1
    6c74:	2e 00 90    	mov.w     [w14+4], w0
    6c76:	01 08 78    	mov.w     w1, [w0]
    6c78:	4e 00 90    	mov.w     [w14+8], w0
    6c7a:	90 00 78    	mov.w     [w0], w1
    6c7c:	3e 00 90    	mov.w     [w14+6], w0
    6c7e:	64 00 40    	add.w     w0, #0x4, w0
    6c80:	10 00 78    	mov.w     [w0], w0
    6c82:	01 80 b9    	mul.ss    w0, w1, w0
    6c84:	00 8f be    	mov.d     w0, [w14]
    6c86:	1e 01 be    	mov.d     [w14], w2
    6c88:	4e 00 90    	mov.w     [w14+8], w0
    6c8a:	64 00 40    	add.w     w0, #0x4, w0
    6c8c:	90 00 78    	mov.w     [w0], w1
    6c8e:	3e 00 90    	mov.w     [w14+6], w0
    6c90:	10 00 78    	mov.w     [w0], w0
    6c92:	01 80 b9    	mul.ss    w0, w1, w0
    6c94:	00 00 51    	sub.w     w2, w0, w0
    6c96:	81 80 59    	subb.w    w3, w1, w1
    6c98:	00 8f be    	mov.d     w0, [w14]
    6c9a:	1e 00 be    	mov.d     [w14], w0
    6c9c:	42 09 dd    	sl.w      w1, #0x2, w2
    6c9e:	ce 00 de    	lsr.w     w0, #0xe, w1
    6ca0:	81 00 71    	ior.w     w2, w1, w1
    6ca2:	42 00 dd    	sl.w      w0, #0x2, w0
    6ca4:	00 8f be    	mov.d     w0, [w14]
    6ca6:	2e 00 90    	mov.w     [w14+4], w0
    6ca8:	80 80 e8    	inc2.w    w0, w1
    6caa:	1e 00 90    	mov.w     [w14+2], w0
    6cac:	80 08 78    	mov.w     w0, [w1]
    6cae:	4e 00 90    	mov.w     [w14+8], w0
    6cb0:	00 80 e8    	inc2.w    w0, w0
    6cb2:	90 00 78    	mov.w     [w0], w1
    6cb4:	3e 00 90    	mov.w     [w14+6], w0
    6cb6:	10 00 78    	mov.w     [w0], w0
    6cb8:	01 80 b9    	mul.ss    w0, w1, w0
    6cba:	00 8f be    	mov.d     w0, [w14]
    6cbc:	1e 01 be    	mov.d     [w14], w2
    6cbe:	4e 00 90    	mov.w     [w14+8], w0
    6cc0:	90 00 78    	mov.w     [w0], w1
    6cc2:	3e 00 90    	mov.w     [w14+6], w0
    6cc4:	00 80 e8    	inc2.w    w0, w0
    6cc6:	10 00 78    	mov.w     [w0], w0
    6cc8:	01 80 b9    	mul.ss    w0, w1, w0
    6cca:	00 00 51    	sub.w     w2, w0, w0
    6ccc:	81 80 59    	subb.w    w3, w1, w1
    6cce:	00 8f be    	mov.d     w0, [w14]
    6cd0:	1e 00 be    	mov.d     [w14], w0
    6cd2:	42 09 dd    	sl.w      w1, #0x2, w2
    6cd4:	ce 00 de    	lsr.w     w0, #0xe, w1
    6cd6:	81 00 71    	ior.w     w2, w1, w1
    6cd8:	42 00 dd    	sl.w      w0, #0x2, w0
    6cda:	00 8f be    	mov.d     w0, [w14]
    6cdc:	2e 00 90    	mov.w     [w14+4], w0
    6cde:	e4 00 40    	add.w     w0, #0x4, w1
    6ce0:	1e 00 90    	mov.w     [w14+2], w0
    6ce2:	80 08 78    	mov.w     w0, [w1]
    6ce4:	00 80 fa    	ulnk      
    6ce6:	00 00 06    	return    

00006ce8 <_read_gyros>:
    6ce8:	06 00 fa    	lnk       #0x6
    6cea:	00 00 eb    	clr.w     w0
    6cec:	00 5e 88    	mov.w     w0, 0xbc0
    6cee:	50 71 80    	mov.w     0xe2a, w0
    6cf0:	80 80 d1    	asr.w     w0, w1
    6cf2:	40 71 80    	mov.w     0xe28, w0
    6cf4:	00 80 d1    	asr.w     w0, w0
    6cf6:	80 80 50    	sub.w     w1, w0, w1
    6cf8:	00 5e 80    	mov.w     0xbc0, w0
    6cfa:	00 80 50    	sub.w     w1, w0, w0
    6cfc:	10 5a 88    	mov.w     w0, 0xb42
    6cfe:	10 5a 80    	mov.w     0xb42, w0
    6d00:	20 07 98    	mov.w     w0, [w14+4]
    6d02:	70 71 80    	mov.w     0xe2e, w0
    6d04:	80 80 d1    	asr.w     w0, w1
    6d06:	80 71 80    	mov.w     0xe30, w0
    6d08:	00 80 d1    	asr.w     w0, w0
    6d0a:	80 80 50    	sub.w     w1, w0, w1
    6d0c:	00 5e 80    	mov.w     0xbc0, w0
    6d0e:	00 80 40    	add.w     w1, w0, w0
    6d10:	20 5a 88    	mov.w     w0, 0xb44
    6d12:	20 5a 80    	mov.w     0xb44, w0
    6d14:	10 07 98    	mov.w     w0, [w14+2]
    6d16:	b0 71 80    	mov.w     0xe36, w0
    6d18:	80 80 d1    	asr.w     w0, w1
    6d1a:	a0 71 80    	mov.w     0xe34, w0
    6d1c:	00 80 d1    	asr.w     w0, w0
    6d1e:	80 80 50    	sub.w     w1, w0, w1
    6d20:	00 5e 80    	mov.w     0xbc0, w0
    6d22:	00 80 50    	sub.w     w1, w0, w0
    6d24:	30 5a 88    	mov.w     w0, 0xb46
    6d26:	30 5a 80    	mov.w     0xb46, w0
    6d28:	00 0f 78    	mov.w     w0, [w14]
    6d2a:	00 80 fa    	ulnk      
    6d2c:	00 00 06    	return    

00006d2e <_read_accel>:
    6d2e:	00 00 fa    	lnk       #0x0
    6d30:	b0 70 80    	mov.w     0xe16, w0
    6d32:	80 80 d1    	asr.w     w0, w1
    6d34:	c0 70 80    	mov.w     0xe18, w0
    6d36:	00 80 d1    	asr.w     w0, w0
    6d38:	00 80 50    	sub.w     w1, w0, w0
    6d3a:	f0 5b 88    	mov.w     w0, 0xb7e
    6d3c:	f0 70 80    	mov.w     0xe1e, w0
    6d3e:	80 80 d1    	asr.w     w0, w1
    6d40:	e0 70 80    	mov.w     0xe1c, w0
    6d42:	00 80 d1    	asr.w     w0, w0
    6d44:	00 80 50    	sub.w     w1, w0, w0
    6d46:	00 5c 88    	mov.w     w0, 0xb80
    6d48:	10 71 80    	mov.w     0xe22, w0
    6d4a:	80 80 d1    	asr.w     w0, w1
    6d4c:	20 71 80    	mov.w     0xe24, w0
    6d4e:	00 80 d1    	asr.w     w0, w0
    6d50:	00 80 50    	sub.w     w1, w0, w0
    6d52:	10 5c 88    	mov.w     w0, 0xb82
    6d54:	10 c0 b3    	mov.b     #0x1, w0
    6d56:	d2 18 07    	rcall     0x9efc <_udb_setDSPLibInUse>
    6d58:	e2 b7 20    	mov.w     #0xb7e, w2
    6d5a:	e1 b1 20    	mov.w     #0xb1e, w1
    6d5c:	30 00 20    	mov.w     #0x3, w0
    6d5e:	97 d2 07    	rcall     0x128e <_VectorDotProduct>
    6d60:	00 00 40    	add.w     w0, w0, w0
    6d62:	d0 5a 88    	mov.w     w0, 0xb5a
    6d64:	41 b2 20    	mov.w     #0xb24, w1
    6d66:	e2 b7 20    	mov.w     #0xb7e, w2
    6d68:	30 00 20    	mov.w     #0x3, w0
    6d6a:	91 d2 07    	rcall     0x128e <_VectorDotProduct>
    6d6c:	00 00 ea    	neg.w     w0, w0
    6d6e:	00 00 40    	add.w     w0, w0, w0
    6d70:	e0 5a 88    	mov.w     w0, 0xb5c
    6d72:	a1 b2 20    	mov.w     #0xb2a, w1
    6d74:	e2 b7 20    	mov.w     #0xb7e, w2
    6d76:	30 00 20    	mov.w     #0x3, w0
    6d78:	8a d2 07    	rcall     0x128e <_VectorDotProduct>
    6d7a:	00 00 40    	add.w     w0, w0, w0
    6d7c:	80 00 78    	mov.w     w0, w1
    6d7e:	80 7b 2f    	mov.w     #0xf7b8, w0
    6d80:	00 80 40    	add.w     w1, w0, w0
    6d82:	f0 5a 88    	mov.w     w0, 0xb5e
    6d84:	04 5b 80    	mov.w     0xb60, w4
    6d86:	15 5b 80    	mov.w     0xb62, w5
    6d88:	d0 5a 80    	mov.w     0xb5a, w0
    6d8a:	cf 80 de    	asr.w     w0, #0xf, w1
    6d8c:	c0 01 dd    	sl.w      w0, #0x0, w3
    6d8e:	02 00 20    	mov.w     #0x0, w2
    6d90:	00 5b 80    	mov.w     0xb60, w0
    6d92:	11 5b 80    	mov.w     0xb62, w1
    6d94:	00 00 51    	sub.w     w2, w0, w0
    6d96:	81 80 59    	subb.w    w3, w1, w1
    6d98:	4b 09 dd    	sl.w      w1, #0xb, w2
    6d9a:	45 00 de    	lsr.w     w0, #0x5, w0
    6d9c:	00 00 71    	ior.w     w2, w0, w0
    6d9e:	c5 88 de    	asr.w     w1, #0x5, w1
    6da0:	04 00 40    	add.w     w0, w4, w0
    6da2:	85 80 48    	addc.w    w1, w5, w1
    6da4:	00 5b 88    	mov.w     w0, 0xb60
    6da6:	11 5b 88    	mov.w     w1, 0xb62
    6da8:	24 5b 80    	mov.w     0xb64, w4
    6daa:	35 5b 80    	mov.w     0xb66, w5
    6dac:	e0 5a 80    	mov.w     0xb5c, w0
    6dae:	cf 80 de    	asr.w     w0, #0xf, w1
    6db0:	c0 01 dd    	sl.w      w0, #0x0, w3
    6db2:	02 00 20    	mov.w     #0x0, w2
    6db4:	20 5b 80    	mov.w     0xb64, w0
    6db6:	31 5b 80    	mov.w     0xb66, w1
    6db8:	00 00 51    	sub.w     w2, w0, w0
    6dba:	81 80 59    	subb.w    w3, w1, w1
    6dbc:	4b 09 dd    	sl.w      w1, #0xb, w2
    6dbe:	45 00 de    	lsr.w     w0, #0x5, w0
    6dc0:	00 00 71    	ior.w     w2, w0, w0
    6dc2:	c5 88 de    	asr.w     w1, #0x5, w1
    6dc4:	04 00 40    	add.w     w0, w4, w0
    6dc6:	85 80 48    	addc.w    w1, w5, w1
    6dc8:	20 5b 88    	mov.w     w0, 0xb64
    6dca:	31 5b 88    	mov.w     w1, 0xb66
    6dcc:	44 5b 80    	mov.w     0xb68, w4
    6dce:	55 5b 80    	mov.w     0xb6a, w5
    6dd0:	f0 5a 80    	mov.w     0xb5e, w0
    6dd2:	cf 80 de    	asr.w     w0, #0xf, w1
    6dd4:	c0 01 dd    	sl.w      w0, #0x0, w3
    6dd6:	02 00 20    	mov.w     #0x0, w2
    6dd8:	40 5b 80    	mov.w     0xb68, w0
    6dda:	51 5b 80    	mov.w     0xb6a, w1
    6ddc:	00 00 51    	sub.w     w2, w0, w0
    6dde:	81 80 59    	subb.w    w3, w1, w1
    6de0:	4b 09 dd    	sl.w      w1, #0xb, w2
    6de2:	45 00 de    	lsr.w     w0, #0x5, w0
    6de4:	00 00 71    	ior.w     w2, w0, w0
    6de6:	c5 88 de    	asr.w     w1, #0x5, w1
    6de8:	04 00 40    	add.w     w0, w4, w0
    6dea:	85 80 48    	addc.w    w1, w5, w1
    6dec:	40 5b 88    	mov.w     w0, 0xb68
    6dee:	51 5b 88    	mov.w     w1, 0xb6a
    6df0:	00 40 eb    	clr.b     w0
    6df2:	84 18 07    	rcall     0x9efc <_udb_setDSPLibInUse>
    6df4:	00 80 fa    	ulnk      
    6df6:	00 00 06    	return    

00006df8 <_omegaSOG>:
    6df8:	0a 00 fa    	lnk       #0xa
    6dfa:	20 07 98    	mov.w     w0, [w14+4]
    6dfc:	31 07 98    	mov.w     w1, [w14+6]
    6dfe:	3e 00 90    	mov.w     [w14+6], w0
    6e00:	43 00 de    	lsr.w     w0, #0x3, w0
    6e02:	30 07 98    	mov.w     w0, [w14+6]
    6e04:	ae 00 90    	mov.w     [w14+4], w1
    6e06:	3e 00 90    	mov.w     [w14+6], w0
    6e08:	00 08 b9    	mul.su    w1, w0, w0
    6e0a:	00 8f be    	mov.d     w0, [w14]
    6e0c:	1e 00 90    	mov.w     [w14+2], w0
    6e0e:	f0 0f 50    	sub.w     w0, #0x10, [w15]
    6e10:	03 00 34    	bra       LE, 0x6e18 <.L10>
    6e12:	00 00 24    	mov.w     #0x4000, w0
    6e14:	40 07 98    	mov.w     w0, [w14+8]
    6e16:	18 00 37    	bra       0x6e48 <.L12>

00006e18 <.L10>:
    6e18:	1e 00 90    	mov.w     [w14+2], w0
    6e1a:	f0 0f 40    	add.w     w0, #0x10, [w15]
    6e1c:	03 00 3d    	bra       GE, 0x6e24 <.L13>
    6e1e:	02 00 2c    	mov.w     #0xc000, w2
    6e20:	42 07 98    	mov.w     w2, [w14+8]
    6e22:	12 00 37    	bra       0x6e48 <.L12>

00006e24 <.L13>:
    6e24:	1e 00 be    	mov.d     [w14], w0
    6e26:	4b 09 dd    	sl.w      w1, #0xb, w2
    6e28:	45 00 de    	lsr.w     w0, #0x5, w0
    6e2a:	00 00 71    	ior.w     w2, w0, w0
    6e2c:	c5 88 de    	asr.w     w1, #0x5, w1
    6e2e:	00 8f be    	mov.d     w0, [w14]
    6e30:	9e 00 78    	mov.w     [w14], w1
    6e32:	b0 3d 20    	mov.w     #0x3db, w0
    6e34:	00 08 b9    	mul.su    w1, w0, w0
    6e36:	00 8f be    	mov.d     w0, [w14]
    6e38:	1e 00 be    	mov.d     [w14], w0
    6e3a:	45 09 dd    	sl.w      w1, #0x5, w2
    6e3c:	cb 00 de    	lsr.w     w0, #0xb, w1
    6e3e:	81 00 71    	ior.w     w2, w1, w1
    6e40:	45 00 dd    	sl.w      w0, #0x5, w0
    6e42:	00 8f be    	mov.d     w0, [w14]
    6e44:	1e 00 90    	mov.w     [w14+2], w0
    6e46:	40 07 98    	mov.w     w0, [w14+8]

00006e48 <.L12>:
    6e48:	4e 00 90    	mov.w     [w14+8], w0
    6e4a:	00 80 fa    	ulnk      
    6e4c:	00 00 06    	return    

00006e4e <_adj_accel>:
    6e4e:	00 00 fa    	lnk       #0x0
    6e50:	88 1f 78    	mov.w     w8, [w15++]
    6e52:	f8 5b 80    	mov.w     0xb7e, w8
    6e54:	70 57 80    	mov.w     0xaee, w0
    6e56:	80 00 78    	mov.w     w0, w1
    6e58:	e0 5b 80    	mov.w     0xb7c, w0
    6e5a:	ce ff 07    	rcall     0x6df8 <_omegaSOG>
    6e5c:	00 00 54    	sub.w     w8, w0, w0
    6e5e:	f0 5b 88    	mov.w     w0, 0xb7e
    6e60:	18 5c 80    	mov.w     0xb82, w8
    6e62:	70 57 80    	mov.w     0xaee, w0
    6e64:	80 00 78    	mov.w     w0, w1
    6e66:	c0 5b 80    	mov.w     0xb78, w0
    6e68:	c7 ff 07    	rcall     0x6df8 <_omegaSOG>
    6e6a:	00 00 44    	add.w     w8, w0, w0
    6e6c:	10 5c 88    	mov.w     w0, 0xb82
    6e6e:	01 5c 80    	mov.w     0xb80, w1
    6e70:	30 56 80    	mov.w     0xac6, w0
    6e72:	00 00 40    	add.w     w0, w0, w0
    6e74:	00 80 40    	add.w     w1, w0, w0
    6e76:	00 5c 88    	mov.w     w0, 0xb80
    6e78:	4f 04 78    	mov.w     [--w15], w8
    6e7a:	00 80 fa    	ulnk      
    6e7c:	00 00 06    	return    

00006e7e <_rupdate>:
    6e7e:	00 00 fa    	lnk       #0x0
    6e80:	10 c0 b3    	mov.b     #0x1, w0
    6e82:	3c 18 07    	rcall     0x9efc <_udb_setDSPLibInUse>
    6e84:	43 b5 20    	mov.w     #0xb54, w3
    6e86:	22 b4 20    	mov.w     #0xb42, w2
    6e88:	81 b7 20    	mov.w     #0xb78, w1
    6e8a:	30 00 20    	mov.w     #0x3, w0
    6e8c:	0d d2 07    	rcall     0x12a8 <_VectorAdd>
    6e8e:	e3 b4 20    	mov.w     #0xb4e, w3
    6e90:	82 b7 20    	mov.w     #0xb78, w2
    6e92:	81 b4 20    	mov.w     #0xb48, w1
    6e94:	30 00 20    	mov.w     #0x3, w0
    6e96:	08 d2 07    	rcall     0x12a8 <_VectorAdd>
    6e98:	90 b7 80    	mov.w     0x16f2, w0
    6e9a:	80 01 78    	mov.w     w0, w3
    6e9c:	82 b4 20    	mov.w     #0xb48, w2
    6e9e:	01 b9 20    	mov.w     #0xb90, w1
    6ea0:	30 00 20    	mov.w     #0x3, w0
    6ea2:	11 d2 07    	rcall     0x12c6 <_VectorScale>
    6ea4:	a0 5c 80    	mov.w     0xb94, w0
    6ea6:	00 00 ea    	neg.w     w0, w0
    6ea8:	90 59 88    	mov.w     w0, 0xb32
    6eaa:	90 5c 80    	mov.w     0xb92, w0
    6eac:	a0 59 88    	mov.w     w0, 0xb34
    6eae:	a0 5c 80    	mov.w     0xb94, w0
    6eb0:	b0 59 88    	mov.w     w0, 0xb36
    6eb2:	80 5c 80    	mov.w     0xb90, w0
    6eb4:	00 00 ea    	neg.w     w0, w0
    6eb6:	d0 59 88    	mov.w     w0, 0xb3a
    6eb8:	90 5c 80    	mov.w     0xb92, w0
    6eba:	00 00 ea    	neg.w     w0, w0
    6ebc:	e0 59 88    	mov.w     w0, 0xb3c
    6ebe:	80 5c 80    	mov.w     0xb90, w0
    6ec0:	f0 59 88    	mov.w     w0, 0xb3e
    6ec2:	05 b3 20    	mov.w     #0xb30, w5
    6ec4:	e4 b1 20    	mov.w     #0xb1e, w4
    6ec6:	63 b9 20    	mov.w     #0xb96, w3
    6ec8:	32 00 20    	mov.w     #0x3, w2
    6eca:	31 00 20    	mov.w     #0x3, w1
    6ecc:	30 00 20    	mov.w     #0x3, w0
    6ece:	09 d2 07    	rcall     0x12e2 <_MatrixMultiply>
    6ed0:	64 b9 20    	mov.w     #0xb96, w4
    6ed2:	63 b9 20    	mov.w     #0xb96, w3
    6ed4:	e2 b1 20    	mov.w     #0xb1e, w2
    6ed6:	31 00 20    	mov.w     #0x3, w1
    6ed8:	30 00 20    	mov.w     #0x3, w0
    6eda:	26 d2 07    	rcall     0x1328 <_MatrixAdd>
    6edc:	00 40 eb    	clr.b     w0
    6ede:	0e 18 07    	rcall     0x9efc <_udb_setDSPLibInUse>
    6ee0:	00 80 fa    	ulnk      
    6ee2:	00 00 06    	return    

00006ee4 <_normalize>:
    6ee4:	04 00 fa    	lnk       #0x4
    6ee6:	10 c0 b3    	mov.b     #0x1, w0
    6ee8:	09 18 07    	rcall     0x9efc <_udb_setDSPLibInUse>
    6eea:	42 b2 20    	mov.w     #0xb24, w2
    6eec:	e1 b1 20    	mov.w     #0xb1e, w1
    6eee:	30 00 20    	mov.w     #0x3, w0
    6ef0:	ce d1 07    	rcall     0x128e <_VectorDotProduct>
    6ef2:	00 00 ea    	neg.w     w0, w0
    6ef4:	d0 5d 88    	mov.w     w0, 0xbba
    6ef6:	d0 5d 80    	mov.w     0xbba, w0
    6ef8:	42 b2 20    	mov.w     #0xb24, w2
    6efa:	80 01 78    	mov.w     w0, w3
    6efc:	61 b9 20    	mov.w     #0xb96, w1
    6efe:	30 00 20    	mov.w     #0x3, w0
    6f00:	e2 d1 07    	rcall     0x12c6 <_VectorScale>
    6f02:	d0 5d 80    	mov.w     0xbba, w0
    6f04:	c1 b9 20    	mov.w     #0xb9c, w1
    6f06:	80 01 78    	mov.w     w0, w3
    6f08:	e2 b1 20    	mov.w     #0xb1e, w2
    6f0a:	30 00 20    	mov.w     #0x3, w0
    6f0c:	dc d1 07    	rcall     0x12c6 <_VectorScale>
    6f0e:	e3 b1 20    	mov.w     #0xb1e, w3
    6f10:	62 b9 20    	mov.w     #0xb96, w2
    6f12:	61 b9 20    	mov.w     #0xb96, w1
    6f14:	30 00 20    	mov.w     #0x3, w0
    6f16:	c8 d1 07    	rcall     0x12a8 <_VectorAdd>
    6f18:	40 b2 20    	mov.w     #0xb24, w0
    6f1a:	c2 b9 20    	mov.w     #0xb9c, w2
    6f1c:	c1 b9 20    	mov.w     #0xb9c, w1
    6f1e:	80 01 78    	mov.w     w0, w3
    6f20:	30 00 20    	mov.w     #0x3, w0
    6f22:	c2 d1 07    	rcall     0x12a8 <_VectorAdd>
    6f24:	c2 b9 20    	mov.w     #0xb9c, w2
    6f26:	20 ba 20    	mov.w     #0xba2, w0
    6f28:	61 b9 20    	mov.w     #0xb96, w1
    6f2a:	86 fe 07    	rcall     0x6c38 <_VectorCross>
    6f2c:	61 b9 20    	mov.w     #0xb96, w1
    6f2e:	30 00 20    	mov.w     #0x3, w0
    6f30:	0b d2 07    	rcall     0x1348 <_VectorPower>
    6f32:	10 07 98    	mov.w     w0, [w14+2]
    6f34:	01 00 26    	mov.w     #0x6000, w1
    6f36:	1e 00 90    	mov.w     [w14+2], w0
    6f38:	00 8f 50    	sub.w     w1, w0, [w14]
    6f3a:	9e 01 78    	mov.w     [w14], w3
    6f3c:	62 b9 20    	mov.w     #0xb96, w2
    6f3e:	61 b9 20    	mov.w     #0xb96, w1
    6f40:	30 00 20    	mov.w     #0x3, w0
    6f42:	c1 d1 07    	rcall     0x12c6 <_VectorScale>
    6f44:	63 b9 20    	mov.w     #0xb96, w3
    6f46:	62 b9 20    	mov.w     #0xb96, w2
    6f48:	e1 b1 20    	mov.w     #0xb1e, w1
    6f4a:	30 00 20    	mov.w     #0x3, w0
    6f4c:	ad d1 07    	rcall     0x12a8 <_VectorAdd>
    6f4e:	c1 b9 20    	mov.w     #0xb9c, w1
    6f50:	30 00 20    	mov.w     #0x3, w0
    6f52:	fa d1 07    	rcall     0x1348 <_VectorPower>
    6f54:	10 07 98    	mov.w     w0, [w14+2]
    6f56:	01 00 26    	mov.w     #0x6000, w1
    6f58:	1e 00 90    	mov.w     [w14+2], w0
    6f5a:	00 8f 50    	sub.w     w1, w0, [w14]
    6f5c:	c2 b9 20    	mov.w     #0xb9c, w2
    6f5e:	c1 b9 20    	mov.w     #0xb9c, w1
    6f60:	9e 01 78    	mov.w     [w14], w3
    6f62:	30 00 20    	mov.w     #0x3, w0
    6f64:	b0 d1 07    	rcall     0x12c6 <_VectorScale>
    6f66:	c0 b9 20    	mov.w     #0xb9c, w0
    6f68:	c2 b9 20    	mov.w     #0xb9c, w2
    6f6a:	41 b2 20    	mov.w     #0xb24, w1
    6f6c:	80 01 78    	mov.w     w0, w3
    6f6e:	30 00 20    	mov.w     #0x3, w0
    6f70:	9b d1 07    	rcall     0x12a8 <_VectorAdd>
    6f72:	21 ba 20    	mov.w     #0xba2, w1
    6f74:	30 00 20    	mov.w     #0x3, w0
    6f76:	e8 d1 07    	rcall     0x1348 <_VectorPower>
    6f78:	10 07 98    	mov.w     w0, [w14+2]
    6f7a:	01 00 26    	mov.w     #0x6000, w1
    6f7c:	1e 00 90    	mov.w     [w14+2], w0
    6f7e:	00 8f 50    	sub.w     w1, w0, [w14]
    6f80:	22 ba 20    	mov.w     #0xba2, w2
    6f82:	21 ba 20    	mov.w     #0xba2, w1
    6f84:	9e 01 78    	mov.w     [w14], w3
    6f86:	30 00 20    	mov.w     #0x3, w0
    6f88:	9e d1 07    	rcall     0x12c6 <_VectorScale>
    6f8a:	20 ba 20    	mov.w     #0xba2, w0
    6f8c:	22 ba 20    	mov.w     #0xba2, w2
    6f8e:	a1 b2 20    	mov.w     #0xb2a, w1
    6f90:	80 01 78    	mov.w     w0, w3
    6f92:	30 00 20    	mov.w     #0x3, w0
    6f94:	89 d1 07    	rcall     0x12a8 <_VectorAdd>
    6f96:	00 40 eb    	clr.b     w0
    6f98:	b1 17 07    	rcall     0x9efc <_udb_setDSPLibInUse>
    6f9a:	00 80 fa    	ulnk      
    6f9c:	00 00 06    	return    

00006f9e <_roll_pitch_drift>:
    6f9e:	00 00 fa    	lnk       #0x0
    6fa0:	10 c0 b3    	mov.b     #0x1, w0
    6fa2:	ac 17 07    	rcall     0x9efc <_udb_setDSPLibInUse>
    6fa4:	a2 b2 20    	mov.w     #0xb2a, w2
    6fa6:	e1 b7 20    	mov.w     #0xb7e, w1
    6fa8:	80 ba 20    	mov.w     #0xba8, w0
    6faa:	46 fe 07    	rcall     0x6c38 <_VectorCross>
    6fac:	00 40 eb    	clr.b     w0
    6fae:	a6 17 07    	rcall     0x9efc <_udb_setDSPLibInUse>
    6fb0:	00 80 fa    	ulnk      
    6fb2:	00 00 06    	return    

00006fb4 <_yaw_drift>:
    6fb4:	00 00 fa    	lnk       #0x0
    6fb6:	10 5e 80    	mov.w     0xbc2, w0
    6fb8:	70 00 60    	and.w     w0, #0x10, w0
    6fba:	00 00 e0    	cp0.w     w0
    6fbc:	1b 00 32    	bra       Z, 0x6ff4 <.L30>
    6fbe:	21 56 80    	mov.w     0xac4, w1
    6fc0:	60 09 20    	mov.w     #0x96, w0
    6fc2:	80 8f 50    	sub.w     w1, w0, [w15]
    6fc4:	10 00 34    	bra       LE, 0x6fe6 <.L27>
    6fc6:	10 c0 b3    	mov.b     #0x1, w0
    6fc8:	99 17 07    	rcall     0x9efc <_udb_setDSPLibInUse>
    6fca:	42 b8 20    	mov.w     #0xb84, w2
    6fcc:	a1 b8 20    	mov.w     #0xb8a, w1
    6fce:	e0 ba 20    	mov.w     #0xbae, w0
    6fd0:	33 fe 07    	rcall     0x6c38 <_VectorCross>
    6fd2:	e5 b1 20    	mov.w     #0xb1e, w5
    6fd4:	e4 ba 20    	mov.w     #0xbae, w4
    6fd6:	43 bb 20    	mov.w     #0xbb4, w3
    6fd8:	32 00 20    	mov.w     #0x3, w2
    6fda:	31 00 20    	mov.w     #0x3, w1
    6fdc:	10 00 20    	mov.w     #0x1, w0
    6fde:	81 d1 07    	rcall     0x12e2 <_MatrixMultiply>
    6fe0:	00 40 eb    	clr.b     w0
    6fe2:	8c 17 07    	rcall     0x9efc <_udb_setDSPLibInUse>
    6fe4:	06 00 37    	bra       0x6ff2 <.L29>

00006fe6 <.L27>:
    6fe6:	00 00 eb    	clr.w     w0
    6fe8:	c0 5d 88    	mov.w     w0, 0xbb8
    6fea:	c0 5d 80    	mov.w     0xbb8, w0
    6fec:	b0 5d 88    	mov.w     w0, 0xbb6
    6fee:	b0 5d 80    	mov.w     0xbb6, w0
    6ff0:	a0 5d 88    	mov.w     w0, 0xbb4

00006ff2 <.L29>:
    6ff2:	c2 8b a9    	bclr.b    0xbc2, #0x4

00006ff4 <.L30>:
    6ff4:	00 80 fa    	ulnk      
    6ff6:	00 00 06    	return    

00006ff8 <_align_rmat_to_mag>:
    6ff8:	0a 00 fa    	lnk       #0xa
    6ffa:	20 63 80    	mov.w     0xc64, w0
    6ffc:	30 07 98    	mov.w     w0, [w14+6]
    6ffe:	30 63 80    	mov.w     0xc66, w0
    7000:	40 07 98    	mov.w     w0, [w14+8]
    7002:	66 00 47    	add.w     w14, #0x6, w0
    7004:	22 13 07    	rcall     0x964a <_rect_to_polar>
    7006:	80 40 78    	mov.b     w0, w1
    7008:	7a ca bf    	mov.b     0xa7a, WREG
    700a:	00 c0 50    	sub.b     w1, w0, w0
    700c:	40 47 98    	mov.b     w0, [w14+4]
    700e:	4e 40 90    	mov.b     [w14+4], w0
    7010:	e0 12 07    	rcall     0x95d2 <_cosine>
    7012:	10 07 98    	mov.w     w0, [w14+2]
    7014:	4e 40 90    	mov.b     [w14+4], w0
    7016:	59 12 07    	rcall     0x94ca <_sine>
    7018:	00 0f 78    	mov.w     w0, [w14]
    701a:	1e 00 90    	mov.w     [w14+2], w0
    701c:	30 59 88    	mov.w     w0, 0xb26
    701e:	30 59 80    	mov.w     0xb26, w0
    7020:	f0 58 88    	mov.w     w0, 0xb1e
    7022:	1e 00 78    	mov.w     [w14], w0
    7024:	00 59 88    	mov.w     w0, 0xb20
    7026:	1e 00 ea    	neg.w     [w14], w0
    7028:	20 59 88    	mov.w     w0, 0xb24
    702a:	00 80 fa    	ulnk      
    702c:	00 00 06    	return    

0000702e <_mag_drift>:
    702e:	12 00 fa    	lnk       #0x12
    7030:	10 5e 80    	mov.w     0xbc2, w0
    7032:	68 00 60    	and.w     w0, #0x8, w0
    7034:	00 00 e0    	cp0.w     w0
    7036:	93 00 32    	bra       Z, 0x715e <.L50>
    7038:	10 c0 b3    	mov.b     #0x1, w0
    703a:	60 17 07    	rcall     0x9efc <_udb_setDSPLibInUse>
    703c:	10 5e 80    	mov.w     0xbc2, w0
    703e:	64 00 60    	and.w     w0, #0x4, w0
    7040:	00 00 e0    	cp0.w     w0
    7042:	01 00 32    	bra       Z, 0x7046 <.L36>
    7044:	d9 ff 07    	rcall     0x6ff8 <_align_rmat_to_mag>

00007046 <.L36>:
    7046:	42 c6 20    	mov.w     #0xc64, w2
    7048:	e1 b1 20    	mov.w     #0xb1e, w1
    704a:	30 00 20    	mov.w     #0x3, w0
    704c:	20 d1 07    	rcall     0x128e <_VectorDotProduct>
    704e:	00 00 40    	add.w     w0, w0, w0
    7050:	10 d6 88    	mov.w     w0, 0x1ac2
    7052:	41 b2 20    	mov.w     #0xb24, w1
    7054:	42 c6 20    	mov.w     #0xc64, w2
    7056:	30 00 20    	mov.w     #0x3, w0
    7058:	1a d1 07    	rcall     0x128e <_VectorDotProduct>
    705a:	00 00 40    	add.w     w0, w0, w0
    705c:	20 d6 88    	mov.w     w0, 0x1ac4
    705e:	a1 b2 20    	mov.w     #0xb2a, w1
    7060:	42 c6 20    	mov.w     #0xc64, w2
    7062:	30 00 20    	mov.w     #0x3, w0
    7064:	14 d1 07    	rcall     0x128e <_VectorDotProduct>
    7066:	00 00 40    	add.w     w0, w0, w0
    7068:	30 d6 88    	mov.w     w0, 0x1ac6
    706a:	c2 bb 20    	mov.w     #0xbbc, w2
    706c:	21 ac 21    	mov.w     #0x1ac2, w1
    706e:	20 00 20    	mov.w     #0x2, w0
    7070:	0e d1 07    	rcall     0x128e <_VectorDotProduct>
    7072:	80 00 78    	mov.w     w0, w1
    7074:	40 06 20    	mov.w     #0x64, w0
    7076:	00 88 b9    	mul.ss    w1, w0, w0
    7078:	20 07 98    	mov.w     w0, [w14+4]
    707a:	a2 b2 20    	mov.w     #0xb2a, w2
    707c:	ae 01 90    	mov.w     [w14+4], w3
    707e:	41 bb 20    	mov.w     #0xbb4, w1
    7080:	30 00 20    	mov.w     #0x3, w0
    7082:	21 d1 07    	rcall     0x12c6 <_VectorScale>
    7084:	ec 00 47    	add.w     w14, #0xc, w1
    7086:	e3 ac 21    	mov.w     #0x1ace, w3
    7088:	42 c6 20    	mov.w     #0xc64, w2
    708a:	30 00 20    	mov.w     #0x3, w0
    708c:	0d d1 07    	rcall     0x12a8 <_VectorAdd>
    708e:	00 00 eb    	clr.w     w0
    7090:	10 07 98    	mov.w     w0, [w14+2]
    7092:	0c 00 37    	bra       0x70ac <.L38>

00007094 <.L39>:
    7094:	9e 01 90    	mov.w     [w14+2], w3
    7096:	1e 00 90    	mov.w     [w14+2], w0
    7098:	ec 00 47    	add.w     w14, #0xc, w1
    709a:	00 00 40    	add.w     w0, w0, w0
    709c:	60 80 78    	mov.w     [w0+w1], w0
    709e:	00 81 d1    	asr.w     w0, w2
    70a0:	ec 00 47    	add.w     w14, #0xc, w1
    70a2:	03 80 41    	add.w     w3, w3, w0
    70a4:	02 b0 78    	mov.w     w2, [w0+w1]
    70a6:	1e 00 90    	mov.w     [w14+2], w0
    70a8:	00 00 e8    	inc.w     w0, w0
    70aa:	10 07 98    	mov.w     w0, [w14+2]

000070ac <.L38>:
    70ac:	1e 00 90    	mov.w     [w14+2], w0
    70ae:	e2 0f 50    	sub.w     w0, #0x2, [w15]
    70b0:	f1 ff 34    	bra       LE, 0x7094 <.L39>
    70b2:	66 00 47    	add.w     w14, #0x6, w0
    70b4:	e5 b1 20    	mov.w     #0xb1e, w5
    70b6:	84 ac 21    	mov.w     #0x1ac8, w4
    70b8:	80 01 78    	mov.w     w0, w3
    70ba:	32 00 20    	mov.w     #0x3, w2
    70bc:	31 00 20    	mov.w     #0x3, w1
    70be:	10 00 20    	mov.w     #0x1, w0
    70c0:	10 d1 07    	rcall     0x12e2 <_MatrixMultiply>
    70c2:	66 00 47    	add.w     w14, #0x6, w0
    70c4:	6c 01 47    	add.w     w14, #0xc, w2
    70c6:	ec 00 47    	add.w     w14, #0xc, w1
    70c8:	80 01 78    	mov.w     w0, w3
    70ca:	30 00 20    	mov.w     #0x3, w0
    70cc:	49 d1 07    	rcall     0x1360 <_VectorSubtract>
    70ce:	66 00 47    	add.w     w14, #0x6, w0
    70d0:	45 ad 21    	mov.w     #0x1ad4, w5
    70d2:	24 ac 21    	mov.w     #0x1ac2, w4
    70d4:	80 01 78    	mov.w     w0, w3
    70d6:	32 00 20    	mov.w     #0x3, w2
    70d8:	31 00 20    	mov.w     #0x3, w1
    70da:	10 00 20    	mov.w     #0x1, w0
    70dc:	02 d1 07    	rcall     0x12e2 <_MatrixMultiply>
    70de:	66 00 47    	add.w     w14, #0x6, w0
    70e0:	6c 01 47    	add.w     w14, #0xc, w2
    70e2:	ec 00 47    	add.w     w14, #0xc, w1
    70e4:	80 01 78    	mov.w     w0, w3
    70e6:	30 00 20    	mov.w     #0x3, w0
    70e8:	3b d1 07    	rcall     0x1360 <_VectorSubtract>
    70ea:	00 00 eb    	clr.w     w0
    70ec:	10 07 98    	mov.w     w0, [w14+2]
    70ee:	19 00 37    	bra       0x7122 <.L41>

000070f0 <.L42>:
    70f0:	1e 00 90    	mov.w     [w14+2], w0
    70f2:	ec 00 47    	add.w     w14, #0xc, w1
    70f4:	00 00 40    	add.w     w0, w0, w0
    70f6:	60 8f 78    	mov.w     [w0+w1], [w14]
    70f8:	e0 ff 2f    	mov.w     #0xfffe, w0
    70fa:	9e 0f 10    	subr.w    w0, [w14], [w15]
    70fc:	0a 00 35    	bra       LT, 0x7112 <.L43>
    70fe:	20 00 20    	mov.w     #0x2, w0
    7100:	9e 0f 10    	subr.w    w0, [w14], [w15]
    7102:	07 00 3c    	bra       GT, 0x7112 <.L43>
    7104:	1e 00 90    	mov.w     [w14+2], w0
    7106:	6c 01 47    	add.w     w14, #0xc, w2
    7108:	80 00 40    	add.w     w0, w0, w1
    710a:	00 00 eb    	clr.w     w0
    710c:	80 30 79    	mov.w     w0, [w1+w2]
    710e:	00 00 eb    	clr.w     w0
    7110:	00 0f 78    	mov.w     w0, [w14]

00007112 <.L43>:
    7112:	1e 00 90    	mov.w     [w14+2], w0
    7114:	80 00 40    	add.w     w0, w0, w1
    7116:	60 ae 21    	mov.w     #0x1ae6, w0
    7118:	00 80 40    	add.w     w1, w0, w0
    711a:	1e 08 78    	mov.w     [w14], [w0]
    711c:	1e 00 90    	mov.w     [w14+2], w0
    711e:	00 00 e8    	inc.w     w0, w0
    7120:	10 07 98    	mov.w     w0, [w14+2]

00007122 <.L41>:
    7122:	1e 00 90    	mov.w     [w14+2], w0
    7124:	e2 0f 50    	sub.w     w0, #0x2, [w15]
    7126:	e4 ff 34    	bra       LE, 0x70f0 <.L42>
    7128:	10 5e 80    	mov.w     0xbc2, w0
    712a:	64 00 60    	and.w     w0, #0x4, w0
    712c:	00 00 e0    	cp0.w     w0
    712e:	07 00 3a    	bra       NZ, 0x713e <.L47>
    7130:	6c 00 47    	add.w     w14, #0xc, w0
    7132:	80 01 78    	mov.w     w0, w3
    7134:	02 c7 20    	mov.w     #0xc70, w2
    7136:	01 c7 20    	mov.w     #0xc70, w1
    7138:	30 00 20    	mov.w     #0x3, w0
    713a:	b6 d0 07    	rcall     0x12a8 <_VectorAdd>
    713c:	01 00 37    	bra       0x7140 <.L49>

0000713e <.L47>:
    713e:	c2 4b a9    	bclr.b    0xbc2, #0x2

00007140 <.L49>:
    7140:	22 ac 21    	mov.w     #0x1ac2, w2
    7142:	81 ac 21    	mov.w     #0x1ac8, w1
    7144:	30 00 20    	mov.w     #0x3, w0
    7146:	1c d1 07    	rcall     0x1380 <_VectorCopy>
    7148:	42 c6 20    	mov.w     #0xc64, w2
    714a:	e1 ac 21    	mov.w     #0x1ace, w1
    714c:	30 00 20    	mov.w     #0x3, w0
    714e:	18 d1 07    	rcall     0x1380 <_VectorCopy>
    7150:	e2 b1 20    	mov.w     #0xb1e, w2
    7152:	41 ad 21    	mov.w     #0x1ad4, w1
    7154:	90 00 20    	mov.w     #0x9, w0
    7156:	14 d1 07    	rcall     0x1380 <_VectorCopy>
    7158:	00 40 eb    	clr.b     w0
    715a:	d0 16 07    	rcall     0x9efc <_udb_setDSPLibInUse>
    715c:	c2 6b a9    	bclr.b    0xbc2, #0x3

0000715e <.L50>:
    715e:	00 80 fa    	ulnk      
    7160:	00 00 06    	return    

00007162 <_PI_feedback>:
    7162:	06 00 fa    	lnk       #0x6
    7164:	10 c0 b3    	mov.b     #0x1, w0
    7166:	ca 16 07    	rcall     0x9efc <_udb_setDSPLibInUse>
    7168:	03 40 20    	mov.w     #0x400, w3
    716a:	42 bb 20    	mov.w     #0xbb4, w2
    716c:	e1 b4 20    	mov.w     #0xb4e, w1
    716e:	30 00 20    	mov.w     #0x3, w0
    7170:	aa d0 07    	rcall     0x12c6 <_VectorScale>
    7172:	03 a0 20    	mov.w     #0xa00, w3
    7174:	82 ba 20    	mov.w     #0xba8, w2
    7176:	8e 00 78    	mov.w     w14, w1
    7178:	30 00 20    	mov.w     #0x3, w0
    717a:	a5 d0 07    	rcall     0x12c6 <_VectorScale>
    717c:	8e 01 78    	mov.w     w14, w3
    717e:	e2 b4 20    	mov.w     #0xb4e, w2
    7180:	e1 b4 20    	mov.w     #0xb4e, w1
    7182:	30 00 20    	mov.w     #0x3, w0
    7184:	91 d0 07    	rcall     0x12a8 <_VectorAdd>
    7186:	00 40 eb    	clr.b     w0
    7188:	b9 16 07    	rcall     0x9efc <_udb_setDSPLibInUse>
    718a:	62 5b 80    	mov.w     0xb6c, w2
    718c:	73 5b 80    	mov.w     0xb6e, w3
    718e:	41 5d 80    	mov.w     0xba8, w1
    7190:	00 20 20    	mov.w     #0x200, w0
    7192:	00 88 b9    	mul.ss    w1, w0, w0
    7194:	4d 0a dd    	sl.w      w1, #0xd, w4
    7196:	43 00 de    	lsr.w     w0, #0x3, w0
    7198:	00 00 72    	ior.w     w4, w0, w0
    719a:	c3 88 de    	asr.w     w1, #0x3, w1
    719c:	02 00 40    	add.w     w0, w2, w0
    719e:	83 80 48    	addc.w    w1, w3, w1
    71a0:	60 5b 88    	mov.w     w0, 0xb6c
    71a2:	71 5b 88    	mov.w     w1, 0xb6e
    71a4:	82 5b 80    	mov.w     0xb70, w2
    71a6:	93 5b 80    	mov.w     0xb72, w3
    71a8:	51 5d 80    	mov.w     0xbaa, w1
    71aa:	00 20 20    	mov.w     #0x200, w0
    71ac:	00 88 b9    	mul.ss    w1, w0, w0
    71ae:	4d 0a dd    	sl.w      w1, #0xd, w4
    71b0:	43 00 de    	lsr.w     w0, #0x3, w0
    71b2:	00 00 72    	ior.w     w4, w0, w0
    71b4:	c3 88 de    	asr.w     w1, #0x3, w1
    71b6:	02 00 40    	add.w     w0, w2, w0
    71b8:	83 80 48    	addc.w    w1, w3, w1
    71ba:	80 5b 88    	mov.w     w0, 0xb70
    71bc:	91 5b 88    	mov.w     w1, 0xb72
    71be:	a2 5b 80    	mov.w     0xb74, w2
    71c0:	b3 5b 80    	mov.w     0xb76, w3
    71c2:	61 5d 80    	mov.w     0xbac, w1
    71c4:	00 20 20    	mov.w     #0x200, w0
    71c6:	00 88 b9    	mul.ss    w1, w0, w0
    71c8:	4d 0a dd    	sl.w      w1, #0xd, w4
    71ca:	43 00 de    	lsr.w     w0, #0x3, w0
    71cc:	00 00 72    	ior.w     w4, w0, w0
    71ce:	c3 88 de    	asr.w     w1, #0x3, w1
    71d0:	02 00 40    	add.w     w0, w2, w0
    71d2:	83 80 48    	addc.w    w1, w3, w1
    71d4:	a0 5b 88    	mov.w     w0, 0xb74
    71d6:	b1 5b 88    	mov.w     w1, 0xb76
    71d8:	62 5b 80    	mov.w     0xb6c, w2
    71da:	73 5b 80    	mov.w     0xb6e, w3
    71dc:	a1 5d 80    	mov.w     0xbb4, w1
    71de:	00 02 20    	mov.w     #0x20, w0
    71e0:	00 88 b9    	mul.ss    w1, w0, w0
    71e2:	4d 0a dd    	sl.w      w1, #0xd, w4
    71e4:	43 00 de    	lsr.w     w0, #0x3, w0
    71e6:	00 00 72    	ior.w     w4, w0, w0
    71e8:	c3 88 de    	asr.w     w1, #0x3, w1
    71ea:	02 00 40    	add.w     w0, w2, w0
    71ec:	83 80 48    	addc.w    w1, w3, w1
    71ee:	60 5b 88    	mov.w     w0, 0xb6c
    71f0:	71 5b 88    	mov.w     w1, 0xb6e
    71f2:	82 5b 80    	mov.w     0xb70, w2
    71f4:	93 5b 80    	mov.w     0xb72, w3
    71f6:	b1 5d 80    	mov.w     0xbb6, w1
    71f8:	00 02 20    	mov.w     #0x20, w0
    71fa:	00 88 b9    	mul.ss    w1, w0, w0
    71fc:	4d 0a dd    	sl.w      w1, #0xd, w4
    71fe:	43 00 de    	lsr.w     w0, #0x3, w0
    7200:	00 00 72    	ior.w     w4, w0, w0
    7202:	c3 88 de    	asr.w     w1, #0x3, w1
    7204:	02 00 40    	add.w     w0, w2, w0
    7206:	83 80 48    	addc.w    w1, w3, w1
    7208:	80 5b 88    	mov.w     w0, 0xb70
    720a:	91 5b 88    	mov.w     w1, 0xb72
    720c:	a2 5b 80    	mov.w     0xb74, w2
    720e:	b3 5b 80    	mov.w     0xb76, w3
    7210:	c1 5d 80    	mov.w     0xbb8, w1
    7212:	00 02 20    	mov.w     #0x20, w0
    7214:	00 88 b9    	mul.ss    w1, w0, w0
    7216:	4d 0a dd    	sl.w      w1, #0xd, w4
    7218:	43 00 de    	lsr.w     w0, #0x3, w0
    721a:	00 00 72    	ior.w     w4, w0, w0
    721c:	c3 88 de    	asr.w     w1, #0x3, w1
    721e:	02 00 40    	add.w     w0, w2, w0
    7220:	83 80 48    	addc.w    w1, w3, w1
    7222:	a0 5b 88    	mov.w     w0, 0xb74
    7224:	b1 5b 88    	mov.w     w1, 0xb76
    7226:	70 5b 80    	mov.w     0xb6e, w0
    7228:	43 80 de    	asr.w     w0, #0x3, w0
    722a:	a0 5a 88    	mov.w     w0, 0xb54
    722c:	90 5b 80    	mov.w     0xb72, w0
    722e:	43 80 de    	asr.w     w0, #0x3, w0
    7230:	b0 5a 88    	mov.w     w0, 0xb56
    7232:	b0 5b 80    	mov.w     0xb76, w0
    7234:	43 80 de    	asr.w     w0, #0x3, w0
    7236:	c0 5a 88    	mov.w     w0, 0xb58
    7238:	00 80 fa    	ulnk      
    723a:	00 00 06    	return    

0000723c <_dcm_run_imu_step>:
    723c:	00 00 fa    	lnk       #0x0
    723e:	54 fd 07    	rcall     0x6ce8 <_read_gyros>
    7240:	76 fd 07    	rcall     0x6d2e <_read_accel>
    7242:	a5 17 07    	rcall     0xa18e <_dead_reckon>
    7244:	04 fe 07    	rcall     0x6e4e <_adj_accel>
    7246:	1b fe 07    	rcall     0x6e7e <_rupdate>
    7248:	4d fe 07    	rcall     0x6ee4 <_normalize>
    724a:	a9 fe 07    	rcall     0x6f9e <_roll_pitch_drift>
    724c:	20 b0 80    	mov.w     0x1604, w0
    724e:	ea 0f 50    	sub.w     w0, #0xa, [w15]
    7250:	02 00 34    	bra       LE, 0x7256 <.L54>
    7252:	ed fe 07    	rcall     0x702e <_mag_drift>
    7254:	01 00 37    	bra       0x7258 <.L56>

00007256 <.L54>:
    7256:	ae fe 07    	rcall     0x6fb4 <_yaw_drift>

00007258 <.L56>:
    7258:	84 ff 07    	rcall     0x7162 <_PI_feedback>
    725a:	00 80 fa    	ulnk      
    725c:	00 00 06    	return    

0000725e <_wp_to_relative>:
    725e:	16 00 fa    	lnk       #0x16
    7260:	88 1f 78    	mov.w     w8, [w15++]
    7262:	20 0f 98    	mov.w     w0, [w14+20]
    7264:	7c 00 57    	sub.w     w14, #0x1c, w0
    7266:	50 00 90    	mov.w     [w0+10], w0
    7268:	48 00 de    	lsr.w     w0, #0x8, w0
    726a:	61 00 60    	and.w     w0, #0x1, w0
    726c:	00 04 e0    	cp0.b     w0
    726e:	24 00 32    	bra       Z, 0x72b8 <.L2>
    7270:	6e 03 47    	add.w     w14, #0xe, w6
    7272:	7c 00 57    	sub.w     w14, #0x1c, w0
    7274:	90 00 78    	mov.w     [w0], w1
    7276:	10 01 90    	mov.w     [w0+2], w2
    7278:	a0 01 90    	mov.w     [w0+4], w3
    727a:	30 02 90    	mov.w     [w0+6], w4
    727c:	c0 02 90    	mov.w     [w0+8], w5
    727e:	06 00 78    	mov.w     w6, w0
    7280:	ff 13 07    	rcall     0x9a80 <_dcm_absolute_to_relative>
    7282:	6e 00 47    	add.w     w14, #0xe, w0
    7284:	10 01 be    	mov.d     [w0], w2
    7286:	02 8f be    	mov.d     w2, [w14]
    7288:	a0 01 90    	mov.w     [w0+4], w3
    728a:	23 07 98    	mov.w     w3, [w14+4]
    728c:	68 04 47    	add.w     w14, #0x8, w8
    728e:	6e 03 47    	add.w     w14, #0xe, w6
    7290:	7c 00 57    	sub.w     w14, #0x1c, w0
    7292:	6c 00 40    	add.w     w0, #0xc, w0
    7294:	90 00 78    	mov.w     [w0], w1
    7296:	10 01 90    	mov.w     [w0+2], w2
    7298:	a0 01 90    	mov.w     [w0+4], w3
    729a:	30 02 90    	mov.w     [w0+6], w4
    729c:	c0 02 90    	mov.w     [w0+8], w5
    729e:	06 00 78    	mov.w     w6, w0
    72a0:	ef 13 07    	rcall     0x9a80 <_dcm_absolute_to_relative>
    72a2:	6e 00 47    	add.w     w14, #0xe, w0
    72a4:	10 01 be    	mov.d     [w0], w2
    72a6:	02 8c be    	mov.d     w2, [w8]
    72a8:	a0 01 90    	mov.w     [w0+4], w3
    72aa:	23 04 98    	mov.w     w3, [w8+4]
    72ac:	7c 00 57    	sub.w     w14, #0x1c, w0
    72ae:	d0 00 90    	mov.w     [w0+10], w1
    72b0:	00 f0 2f    	mov.w     #0xff00, w0
    72b2:	00 80 40    	add.w     w1, w0, w0
    72b4:	30 07 98    	mov.w     w0, [w14+6]
    72b6:	18 00 37    	bra       0x72e8 <.L4>

000072b8 <.L2>:
    72b8:	7c 00 57    	sub.w     w14, #0x1c, w0
    72ba:	10 00 be    	mov.d     [w0], w0
    72bc:	00 0f 78    	mov.w     w0, [w14]
    72be:	7c 00 57    	sub.w     w14, #0x1c, w0
    72c0:	b0 00 90    	mov.w     [w0+6], w1
    72c2:	20 00 90    	mov.w     [w0+4], w0
    72c4:	10 07 98    	mov.w     w0, [w14+2]
    72c6:	7c 00 57    	sub.w     w14, #0x1c, w0
    72c8:	40 00 90    	mov.w     [w0+8], w0
    72ca:	20 07 98    	mov.w     w0, [w14+4]
    72cc:	7c 00 57    	sub.w     w14, #0x1c, w0
    72ce:	f0 00 90    	mov.w     [w0+14], w1
    72d0:	60 00 90    	mov.w     [w0+12], w0
    72d2:	40 07 98    	mov.w     w0, [w14+8]
    72d4:	7c 00 57    	sub.w     w14, #0x1c, w0
    72d6:	90 08 90    	mov.w     [w0+18], w1
    72d8:	00 08 90    	mov.w     [w0+16], w0
    72da:	50 07 98    	mov.w     w0, [w14+10]
    72dc:	7c 00 57    	sub.w     w14, #0x1c, w0
    72de:	20 08 90    	mov.w     [w0+20], w0
    72e0:	60 07 98    	mov.w     w0, [w14+12]
    72e2:	7c 00 57    	sub.w     w14, #0x1c, w0
    72e4:	50 00 90    	mov.w     [w0+10], w0
    72e6:	30 07 98    	mov.w     w0, [w14+6]

000072e8 <.L4>:
    72e8:	2e 08 90    	mov.w     [w14+20], w0
    72ea:	06 00 09    	repeat    #0x6
    72ec:	3e 18 78    	mov.w     [w14++], [w0++]
    72ee:	e0 00 b1    	sub.w     #0xe, w0
    72f0:	ee 00 b1    	sub.w     #0xe, w14
    72f2:	2e 08 90    	mov.w     [w14+20], w0
    72f4:	4f 04 78    	mov.w     [--w15], w8
    72f6:	00 80 fa    	ulnk      
    72f8:	00 00 06    	return    

000072fa <_init_flightplan>:
    72fa:	1e 00 fa    	lnk       #0x1e
    72fc:	70 07 98    	mov.w     w0, [w14+14]
    72fe:	00 00 eb    	clr.w     w0
    7300:	50 5e 88    	mov.w     w0, 0xbca
    7302:	7e 00 90    	mov.w     [w14+14], w0
    7304:	00 00 e0    	cp0.w     w0
    7306:	1e 00 34    	bra       LE, 0x7344 <.L7>
    7308:	50 b9 80    	mov.w     0x172a, w0
    730a:	00 00 e0    	cp0.w     w0
    730c:	1b 00 32    	bra       Z, 0x7344 <.L7>
    730e:	e0 bc 20    	mov.w     #0xbce, w0
    7310:	40 5e 88    	mov.w     w0, 0xbc8
    7312:	b0 5e 80    	mov.w     0xbd6, w0
    7314:	f8 0f 50    	sub.w     w0, #0x18, [w15]
    7316:	14 00 34    	bra       LE, 0x7340 <.L10>
    7318:	10 00 20    	mov.w     #0x1, w0
    731a:	50 5e 88    	mov.w     w0, 0xbca
    731c:	10 c0 b3    	mov.b     #0x1, w0
    731e:	cc eb b7    	mov.b     WREG, 0xbcc
    7320:	60 5f 80    	mov.w     0xbec, w0
    7322:	f8 0f 50    	sub.w     w0, #0x18, [w15]
    7324:	02 00 34    	bra       LE, 0x732a <.L12>
    7326:	20 00 20    	mov.w     #0x2, w0
    7328:	50 5e 88    	mov.w     w0, 0xbca

0000732a <.L12>:
    732a:	10 60 80    	mov.w     0xc02, w0
    732c:	f8 0f 50    	sub.w     w0, #0x18, [w15]
    732e:	02 00 34    	bra       LE, 0x7334 <.L14>
    7330:	30 00 20    	mov.w     #0x3, w0
    7332:	50 5e 88    	mov.w     w0, 0xbca

00007334 <.L14>:
    7334:	c0 60 80    	mov.w     0xc18, w0
    7336:	f8 0f 50    	sub.w     w0, #0x18, [w15]
    7338:	05 00 34    	bra       LE, 0x7344 <.L7>
    733a:	40 00 20    	mov.w     #0x4, w0
    733c:	50 5e 88    	mov.w     w0, 0xbca
    733e:	02 00 37    	bra       0x7344 <.L7>

00007340 <.L10>:
    7340:	00 00 eb    	clr.w     w0
    7342:	50 5e 88    	mov.w     w0, 0xbca

00007344 <.L7>:
    7344:	7e 00 90    	mov.w     [w14+14], w0
    7346:	e1 0f 50    	sub.w     w0, #0x1, [w15]
    7348:	08 00 3a    	bra       NZ, 0x735a <.L18>
    734a:	50 5e 80    	mov.w     0xbca, w0
    734c:	00 00 e0    	cp0.w     w0
    734e:	05 00 3a    	bra       NZ, 0x735a <.L18>
    7350:	a0 96 29    	mov.w     #0x996a, w0
    7352:	40 5e 88    	mov.w     w0, 0xbc8
    7354:	10 00 20    	mov.w     #0x1, w0
    7356:	50 5e 88    	mov.w     w0, 0xbca
    7358:	04 00 37    	bra       0x7362 <.L21>

0000735a <.L18>:
    735a:	00 98 29    	mov.w     #0x9980, w0
    735c:	40 5e 88    	mov.w     w0, 0xbc8
    735e:	10 00 20    	mov.w     #0x1, w0
    7360:	50 5e 88    	mov.w     w0, 0xbca

00007362 <.L21>:
    7362:	00 00 eb    	clr.w     w0
    7364:	30 5e 88    	mov.w     w0, 0xbc6
    7366:	41 5e 80    	mov.w     0xbc8, w1
    7368:	70 01 47    	add.w     w14, #0x10, w2
    736a:	f6 87 47    	add.w     w15, #0x16, w15
    736c:	76 80 57    	sub.w     w15, #0x16, w0
    736e:	0a 00 09    	repeat    #0xa
    7370:	31 18 78    	mov.w     [w1++], [w0++]
    7372:	60 01 b1    	sub.w     #0x16, w0
    7374:	61 01 b1    	sub.w     #0x16, w1
    7376:	02 00 78    	mov.w     w2, w0
    7378:	72 ff 07    	rcall     0x725e <_wp_to_relative>
    737a:	f6 87 57    	sub.w     w15, #0x16, w15
    737c:	70 00 47    	add.w     w14, #0x10, w0
    737e:	06 00 09    	repeat    #0x6
    7380:	30 1f 78    	mov.w     [w0++], [w14++]
    7382:	ee 00 b1    	sub.w     #0xe, w14
    7384:	e0 00 b1    	sub.w     #0xe, w0
    7386:	9e 01 78    	mov.w     [w14], w3
    7388:	1e 02 90    	mov.w     [w14+2], w4
    738a:	ae 02 90    	mov.w     [w14+4], w5
    738c:	70 56 80    	mov.w     0xace, w0
    738e:	81 56 80    	mov.w     0xad0, w1
    7390:	92 56 80    	mov.w     0xad2, w2
    7392:	5d 0d 07    	rcall     0x8e4e <_set_goal>
    7394:	68 01 47    	add.w     w14, #0x8, w2
    7396:	12 00 78    	mov.w     [w2], w0
    7398:	92 00 90    	mov.w     [w2+2], w1
    739a:	22 01 90    	mov.w     [w2+4], w2
    739c:	21 1d 07    	rcall     0xade0 <_set_camera_view>
    739e:	3e 00 90    	mov.w     [w14+6], w0
    73a0:	a4 19 07    	rcall     0xa6ea <_setBehavior>
    73a2:	00 80 fa    	ulnk      
    73a4:	00 00 06    	return    

000073a6 <_use_fixed_origin>:
    73a6:	00 00 fa    	lnk       #0x0
    73a8:	00 00 eb    	clr.w     w0
    73aa:	00 80 fa    	ulnk      
    73ac:	00 00 06    	return    

000073ae <_get_fixed_origin>:
    73ae:	18 00 fa    	lnk       #0x18
    73b0:	88 1f 78    	mov.w     w8, [w15++]
    73b2:	00 04 78    	mov.w     w0, w8
    73b4:	d0 87 20    	mov.w     #0x87d, w0
    73b6:	91 74 2b    	mov.w     #0xb749, w1
    73b8:	00 8f be    	mov.d     w0, [w14]
    73ba:	80 07 2b    	mov.w     #0xb078, w0
    73bc:	c1 64 21    	mov.w     #0x164c, w1
    73be:	20 07 98    	mov.w     w0, [w14+4]
    73c0:	31 07 98    	mov.w     w1, [w14+6]
    73c2:	00 00 20    	mov.w     #0x0, w0
    73c4:	01 1f 24    	mov.w     #0x41f0, w1
    73c6:	40 07 98    	mov.w     w0, [w14+8]
    73c8:	51 07 98    	mov.w     w1, [w14+10]
    73ca:	1e 00 be    	mov.d     [w14], w0
    73cc:	6c 01 47    	add.w     w14, #0xc, w2
    73ce:	00 89 be    	mov.d     w0, [w2]
    73d0:	2e 00 90    	mov.w     [w14+4], w0
    73d2:	be 00 90    	mov.w     [w14+6], w1
    73d4:	6c 01 47    	add.w     w14, #0xc, w2
    73d6:	20 01 98    	mov.w     w0, [w2+4]
    73d8:	31 01 98    	mov.w     w1, [w2+6]
    73da:	4e 00 90    	mov.w     [w14+8], w0
    73dc:	de 00 90    	mov.w     [w14+10], w1
    73de:	02 00 20    	mov.w     #0x0, w2
    73e0:	83 2c 24    	mov.w     #0x42c8, w3
    73e2:	65 cc 07    	rcall     0xcae <___mulsf3>
    73e4:	98 cc 07    	rcall     0xd16 <___fixsfsi>
    73e6:	6c 01 47    	add.w     w14, #0xc, w2
    73e8:	40 01 98    	mov.w     w0, [w2+8]
    73ea:	51 01 98    	mov.w     w1, [w2+10]
    73ec:	6c 00 47    	add.w     w14, #0xc, w0
    73ee:	80 00 78    	mov.w     w0, w1
    73f0:	08 00 78    	mov.w     w8, w0
    73f2:	11 01 be    	mov.d     [w1], w2
    73f4:	02 88 be    	mov.d     w2, [w0]
    73f6:	64 00 40    	add.w     w0, #0x4, w0
    73f8:	e4 80 40    	add.w     w1, #0x4, w1
    73fa:	11 01 be    	mov.d     [w1], w2
    73fc:	02 88 be    	mov.d     w2, [w0]
    73fe:	64 00 40    	add.w     w0, #0x4, w0
    7400:	e4 80 40    	add.w     w1, #0x4, w1
    7402:	11 01 be    	mov.d     [w1], w2
    7404:	02 88 be    	mov.d     w2, [w0]
    7406:	08 00 78    	mov.w     w8, w0
    7408:	4f 04 78    	mov.w     [--w15], w8
    740a:	00 80 fa    	ulnk      
    740c:	00 00 06    	return    

0000740e <_next_waypoint>:
    740e:	8c 00 fa    	lnk       #0x8c
    7410:	88 1f 78    	mov.w     w8, [w15++]
    7412:	cc cb bf    	mov.b     0xbcc, WREG
    7414:	00 04 e0    	cp0.b     w0
    7416:	35 00 32    	bra       Z, 0x7482 <.L28>
    7418:	30 5e 80    	mov.w     0xbc6, w0
    741a:	e1 0f 50    	sub.w     w0, #0x1, [w15]
    741c:	07 00 3c    	bra       GT, 0x742c <.L30>
    741e:	30 5e 80    	mov.w     0xbc6, w0
    7420:	00 00 e8    	inc.w     w0, w0
    7422:	30 5e 88    	mov.w     w0, 0xbc6
    7424:	cc cb bf    	mov.b     0xbcc, WREG
    7426:	00 40 e8    	inc.b     w0, w0
    7428:	cc eb b7    	mov.b     WREG, 0xbcc
    742a:	34 00 37    	bra       0x7494 <.L36>

0000742c <.L30>:
    742c:	40 5e 80    	mov.w     0xbc8, w0
    742e:	f6 00 40    	add.w     w0, #0x16, w1
    7430:	40 5e 80    	mov.w     0xbc8, w0
    7432:	c0 02 b0    	add.w     #0x2c, w0
    7434:	0a 00 09    	repeat    #0xa
    7436:	b0 18 78    	mov.w     [w0++], [w1++]
    7438:	61 01 b1    	sub.w     #0x16, w1
    743a:	60 01 b1    	sub.w     #0x16, w0
    743c:	40 5e 80    	mov.w     0xbc8, w0
    743e:	c1 02 20    	mov.w     #0x2c, w1
    7440:	80 80 40    	add.w     w1, w0, w1
    7442:	40 5e 80    	mov.w     0xbc8, w0
    7444:	20 04 b0    	add.w     #0x42, w0
    7446:	0a 00 09    	repeat    #0xa
    7448:	b0 18 78    	mov.w     [w0++], [w1++]
    744a:	61 01 b1    	sub.w     #0x16, w1
    744c:	60 01 b1    	sub.w     #0x16, w0
    744e:	10 60 80    	mov.w     0xc02, w0
    7450:	f8 0f 50    	sub.w     w0, #0x18, [w15]
    7452:	0e 00 34    	bra       LE, 0x7470 <.L33>
    7454:	c1 bc 20    	mov.w     #0xbcc, w1
    7456:	91 40 78    	mov.b     [w1], w1
    7458:	90 cb b3    	mov.b     #0xb9, w0
    745a:	80 cf 50    	sub.b     w1, w0, [w15]
    745c:	09 00 3e    	bra       GTU, 0x7470 <.L33>
    745e:	cc cb bf    	mov.b     0xbcc, WREG
    7460:	00 40 e8    	inc.b     w0, w0
    7462:	cc eb b7    	mov.b     WREG, 0xbcc
    7464:	cc cb bf    	mov.b     0xbcc, WREG
    7466:	80 80 fb    	ze        w0, w1
    7468:	12 00 20    	mov.w     #0x1, w2
    746a:	30 00 20    	mov.w     #0x3, w0
    746c:	85 01 07    	rcall     0x7778 <_ReadWaypoint>
    746e:	12 00 37    	bra       0x7494 <.L36>

00007470 <.L33>:
    7470:	10 c0 b3    	mov.b     #0x1, w0
    7472:	cc eb b7    	mov.b     WREG, 0xbcc
    7474:	42 00 20    	mov.w     #0x4, w2
    7476:	80 00 eb    	clr.w     w1
    7478:	00 00 eb    	clr.w     w0
    747a:	7e 01 07    	rcall     0x7778 <_ReadWaypoint>
    747c:	00 00 eb    	clr.w     w0
    747e:	30 5e 88    	mov.w     w0, 0xbc6
    7480:	09 00 37    	bra       0x7494 <.L36>

00007482 <.L28>:
    7482:	30 5e 80    	mov.w     0xbc6, w0
    7484:	00 00 e8    	inc.w     w0, w0
    7486:	30 5e 88    	mov.w     w0, 0xbc6
    7488:	31 5e 80    	mov.w     0xbc6, w1
    748a:	50 5e 80    	mov.w     0xbca, w0
    748c:	80 8f 50    	sub.w     w1, w0, [w15]
    748e:	02 00 35    	bra       LT, 0x7494 <.L36>
    7490:	00 00 eb    	clr.w     w0
    7492:	30 5e 88    	mov.w     w0, 0xbc6

00007494 <.L36>:
    7494:	30 5e 80    	mov.w     0xbc6, w0
    7496:	00 00 e0    	cp0.w     w0
    7498:	61 00 3a    	bra       NZ, 0x755c <.L38>
    749a:	50 5e 80    	mov.w     0xbca, w0
    749c:	e1 0f 50    	sub.w     w0, #0x1, [w15]
    749e:	39 00 34    	bra       LE, 0x7512 <.L40>

000074a0 <.bb>:
    74a0:	50 5e 80    	mov.w     0xbca, w0
    74a2:	76 00 b9    	mul.su    w0, #0x16, w0
    74a4:	80 00 78    	mov.w     w0, w1
    74a6:	40 5e 80    	mov.w     0xbc8, w0
    74a8:	00 80 40    	add.w     w1, w0, w0
    74aa:	f6 00 50    	sub.w     w0, #0x16, w1
    74ac:	62 04 20    	mov.w     #0x46, w2
    74ae:	0e 01 41    	add.w     w2, w14, w2
    74b0:	f6 87 47    	add.w     w15, #0x16, w15
    74b2:	76 80 57    	sub.w     w15, #0x16, w0
    74b4:	0a 00 09    	repeat    #0xa
    74b6:	31 18 78    	mov.w     [w1++], [w0++]
    74b8:	60 01 b1    	sub.w     #0x16, w0
    74ba:	61 01 b1    	sub.w     #0x16, w1
    74bc:	02 00 78    	mov.w     w2, w0
    74be:	cf fe 07    	rcall     0x725e <_wp_to_relative>
    74c0:	f6 87 57    	sub.w     w15, #0x16, w15
    74c2:	60 04 20    	mov.w     #0x46, w0
    74c4:	0e 00 40    	add.w     w0, w14, w0
    74c6:	06 00 09    	repeat    #0x6
    74c8:	30 1f 78    	mov.w     [w0++], [w14++]
    74ca:	ee 00 b1    	sub.w     #0xe, w14
    74cc:	e0 00 b1    	sub.w     #0xe, w0
    74ce:	41 5e 80    	mov.w     0xbc8, w1
    74d0:	6e 04 47    	add.w     w14, #0xe, w8
    74d2:	42 05 20    	mov.w     #0x54, w2
    74d4:	0e 01 41    	add.w     w2, w14, w2
    74d6:	f6 87 47    	add.w     w15, #0x16, w15
    74d8:	76 80 57    	sub.w     w15, #0x16, w0
    74da:	0a 00 09    	repeat    #0xa
    74dc:	31 18 78    	mov.w     [w1++], [w0++]
    74de:	60 01 b1    	sub.w     #0x16, w0
    74e0:	61 01 b1    	sub.w     #0x16, w1
    74e2:	02 00 78    	mov.w     w2, w0
    74e4:	bc fe 07    	rcall     0x725e <_wp_to_relative>
    74e6:	f6 87 57    	sub.w     w15, #0x16, w15
    74e8:	40 05 20    	mov.w     #0x54, w0
    74ea:	0e 00 40    	add.w     w0, w14, w0
    74ec:	06 00 09    	repeat    #0x6
    74ee:	30 1c 78    	mov.w     [w0++], [w8++]
    74f0:	e8 00 b1    	sub.w     #0xe, w8
    74f2:	e0 00 b1    	sub.w     #0xe, w0
    74f4:	6e 00 47    	add.w     w14, #0xe, w0
    74f6:	90 01 78    	mov.w     [w0], w3
    74f8:	10 02 90    	mov.w     [w0+2], w4
    74fa:	a0 02 90    	mov.w     [w0+4], w5
    74fc:	1e 00 78    	mov.w     [w14], w0
    74fe:	9e 00 90    	mov.w     [w14+2], w1
    7500:	2e 01 90    	mov.w     [w14+4], w2
    7502:	a5 0c 07    	rcall     0x8e4e <_set_goal>
    7504:	6e 00 47    	add.w     w14, #0xe, w0
    7506:	68 01 40    	add.w     w0, #0x8, w2
    7508:	12 00 78    	mov.w     [w2], w0
    750a:	92 00 90    	mov.w     [w2+2], w1
    750c:	22 01 90    	mov.w     [w2+4], w2
    750e:	68 1c 07    	rcall     0xade0 <_set_camera_view>
    7510:	21 00 37    	bra       0x7554 <.L42>

00007512 <.L40>:
    7512:	41 5e 80    	mov.w     0xbc8, w1
    7514:	7c 04 47    	add.w     w14, #0x1c, w8
    7516:	22 06 20    	mov.w     #0x62, w2
    7518:	0e 01 41    	add.w     w2, w14, w2
    751a:	f6 87 47    	add.w     w15, #0x16, w15
    751c:	76 80 57    	sub.w     w15, #0x16, w0
    751e:	0a 00 09    	repeat    #0xa
    7520:	31 18 78    	mov.w     [w1++], [w0++]
    7522:	60 01 b1    	sub.w     #0x16, w0
    7524:	61 01 b1    	sub.w     #0x16, w1
    7526:	02 00 78    	mov.w     w2, w0
    7528:	9a fe 07    	rcall     0x725e <_wp_to_relative>
    752a:	f6 87 57    	sub.w     w15, #0x16, w15
    752c:	20 06 20    	mov.w     #0x62, w0
    752e:	0e 00 40    	add.w     w0, w14, w0
    7530:	06 00 09    	repeat    #0x6
    7532:	30 1c 78    	mov.w     [w0++], [w8++]
    7534:	e8 00 b1    	sub.w     #0xe, w8
    7536:	e0 00 b1    	sub.w     #0xe, w0
    7538:	7c 00 47    	add.w     w14, #0x1c, w0
    753a:	90 01 78    	mov.w     [w0], w3
    753c:	10 02 90    	mov.w     [w0+2], w4
    753e:	a0 02 90    	mov.w     [w0+4], w5
    7540:	70 56 80    	mov.w     0xace, w0
    7542:	81 56 80    	mov.w     0xad0, w1
    7544:	92 56 80    	mov.w     0xad2, w2
    7546:	83 0c 07    	rcall     0x8e4e <_set_goal>
    7548:	7c 00 47    	add.w     w14, #0x1c, w0
    754a:	68 01 40    	add.w     w0, #0x8, w2
    754c:	12 00 78    	mov.w     [w2], w0
    754e:	92 00 90    	mov.w     [w2+2], w1
    7550:	22 01 90    	mov.w     [w2+4], w2
    7552:	46 1c 07    	rcall     0xade0 <_set_camera_view>

00007554 <.L42>:
    7554:	40 5e 80    	mov.w     0xbc8, w0
    7556:	50 00 90    	mov.w     [w0+10], w0
    7558:	c8 18 07    	rcall     0xa6ea <_setBehavior>
    755a:	47 00 37    	bra       0x75ea <.L44>

0000755c <.L38>:
    755c:	30 5e 80    	mov.w     0xbc6, w0
    755e:	76 00 b9    	mul.su    w0, #0x16, w0
    7560:	80 00 78    	mov.w     w0, w1
    7562:	40 5e 80    	mov.w     0xbc8, w0
    7564:	00 80 40    	add.w     w1, w0, w0
    7566:	f6 00 50    	sub.w     w0, #0x16, w1
    7568:	a8 02 20    	mov.w     #0x2a, w8
    756a:	0e 04 44    	add.w     w8, w14, w8
    756c:	02 07 20    	mov.w     #0x70, w2
    756e:	0e 01 41    	add.w     w2, w14, w2
    7570:	f6 87 47    	add.w     w15, #0x16, w15
    7572:	76 80 57    	sub.w     w15, #0x16, w0
    7574:	0a 00 09    	repeat    #0xa
    7576:	31 18 78    	mov.w     [w1++], [w0++]
    7578:	60 01 b1    	sub.w     #0x16, w0
    757a:	61 01 b1    	sub.w     #0x16, w1
    757c:	02 00 78    	mov.w     w2, w0
    757e:	6f fe 07    	rcall     0x725e <_wp_to_relative>
    7580:	f6 87 57    	sub.w     w15, #0x16, w15
    7582:	00 07 20    	mov.w     #0x70, w0
    7584:	0e 00 40    	add.w     w0, w14, w0
    7586:	06 00 09    	repeat    #0x6
    7588:	30 1c 78    	mov.w     [w0++], [w8++]
    758a:	e8 00 b1    	sub.w     #0xe, w8
    758c:	e0 00 b1    	sub.w     #0xe, w0
    758e:	30 5e 80    	mov.w     0xbc6, w0
    7590:	76 00 b9    	mul.su    w0, #0x16, w0
    7592:	80 00 78    	mov.w     w0, w1
    7594:	40 5e 80    	mov.w     0xbc8, w0
    7596:	80 80 40    	add.w     w1, w0, w1
    7598:	88 03 20    	mov.w     #0x38, w8
    759a:	0e 04 44    	add.w     w8, w14, w8
    759c:	e2 07 20    	mov.w     #0x7e, w2
    759e:	0e 01 41    	add.w     w2, w14, w2
    75a0:	f6 87 47    	add.w     w15, #0x16, w15
    75a2:	76 80 57    	sub.w     w15, #0x16, w0
    75a4:	0a 00 09    	repeat    #0xa
    75a6:	31 18 78    	mov.w     [w1++], [w0++]
    75a8:	60 01 b1    	sub.w     #0x16, w0
    75aa:	61 01 b1    	sub.w     #0x16, w1
    75ac:	02 00 78    	mov.w     w2, w0
    75ae:	57 fe 07    	rcall     0x725e <_wp_to_relative>
    75b0:	f6 87 57    	sub.w     w15, #0x16, w15
    75b2:	e0 07 20    	mov.w     #0x7e, w0
    75b4:	0e 00 40    	add.w     w0, w14, w0
    75b6:	06 00 09    	repeat    #0x6
    75b8:	30 1c 78    	mov.w     [w0++], [w8++]
    75ba:	e8 00 b1    	sub.w     #0xe, w8
    75bc:	e0 00 b1    	sub.w     #0xe, w0
    75be:	80 03 20    	mov.w     #0x38, w0
    75c0:	0e 00 40    	add.w     w0, w14, w0
    75c2:	a2 02 20    	mov.w     #0x2a, w2
    75c4:	0e 01 41    	add.w     w2, w14, w2
    75c6:	90 01 78    	mov.w     [w0], w3
    75c8:	10 02 90    	mov.w     [w0+2], w4
    75ca:	a0 02 90    	mov.w     [w0+4], w5
    75cc:	12 00 78    	mov.w     [w2], w0
    75ce:	92 00 90    	mov.w     [w2+2], w1
    75d0:	22 01 90    	mov.w     [w2+4], w2
    75d2:	3d 0c 07    	rcall     0x8e4e <_set_goal>
    75d4:	80 03 20    	mov.w     #0x38, w0
    75d6:	0e 00 40    	add.w     w0, w14, w0
    75d8:	68 01 40    	add.w     w0, #0x8, w2
    75da:	12 00 78    	mov.w     [w2], w0
    75dc:	92 00 90    	mov.w     [w2+2], w1
    75de:	22 01 90    	mov.w     [w2+4], w2
    75e0:	ff 1b 07    	rcall     0xade0 <_set_camera_view>
    75e2:	80 03 20    	mov.w     #0x38, w0
    75e4:	0e 00 40    	add.w     w0, w14, w0
    75e6:	30 00 90    	mov.w     [w0+6], w0
    75e8:	80 18 07    	rcall     0xa6ea <_setBehavior>

000075ea <.L44>:
    75ea:	4f 04 78    	mov.w     [--w15], w8
    75ec:	00 80 fa    	ulnk      
    75ee:	00 00 06    	return    

000075f0 <_run_flightplan>:
    75f0:	54 00 fa    	lnk       #0x54
    75f2:	88 1f 78    	mov.w     w8, [w15++]
    75f4:	26 cc bf    	mov.b     0xc26, WREG
    75f6:	e1 4f 40    	add.b     w0, #0x1, [w15]
    75f8:	27 00 3a    	bra       NZ, 0x7648 <.L46>
    75fa:	7c 04 47    	add.w     w14, #0x1c, w8
    75fc:	a1 02 20    	mov.w     #0x2a, w1
    75fe:	8e 80 40    	add.w     w1, w14, w1
    7600:	f6 87 47    	add.w     w15, #0x16, w15
    7602:	76 80 57    	sub.w     w15, #0x16, w0
    7604:	e2 bc 20    	mov.w     #0xbce, w2
    7606:	0a 00 09    	repeat    #0xa
    7608:	32 18 78    	mov.w     [w2++], [w0++]
    760a:	60 01 b1    	sub.w     #0x16, w0
    760c:	01 00 78    	mov.w     w1, w0
    760e:	27 fe 07    	rcall     0x725e <_wp_to_relative>
    7610:	f6 87 57    	sub.w     w15, #0x16, w15
    7612:	a0 02 20    	mov.w     #0x2a, w0
    7614:	0e 00 40    	add.w     w0, w14, w0
    7616:	06 00 09    	repeat    #0x6
    7618:	30 1c 78    	mov.w     [w0++], [w8++]
    761a:	e8 00 b1    	sub.w     #0xe, w8
    761c:	e0 00 b1    	sub.w     #0xe, w0
    761e:	7c 00 47    	add.w     w14, #0x1c, w0
    7620:	90 01 78    	mov.w     [w0], w3
    7622:	10 02 90    	mov.w     [w0+2], w4
    7624:	a0 02 90    	mov.w     [w0+4], w5
    7626:	70 56 80    	mov.w     0xace, w0
    7628:	81 56 80    	mov.w     0xad0, w1
    762a:	92 56 80    	mov.w     0xad2, w2
    762c:	10 0c 07    	rcall     0x8e4e <_set_goal>
    762e:	7c 00 47    	add.w     w14, #0x1c, w0
    7630:	68 01 40    	add.w     w0, #0x8, w2
    7632:	12 00 78    	mov.w     [w2], w0
    7634:	92 00 90    	mov.w     [w2+2], w1
    7636:	22 01 90    	mov.w     [w2+4], w2
    7638:	d3 1b 07    	rcall     0xade0 <_set_camera_view>
    763a:	7c 00 47    	add.w     w14, #0x1c, w0
    763c:	30 00 90    	mov.w     [w0+6], w0
    763e:	55 18 07    	rcall     0xa6ea <_setBehavior>
    7640:	42 0c 07    	rcall     0x8ec6 <_compute_bearing_to_goal>
    7642:	00 40 eb    	clr.b     w0
    7644:	26 ec b7    	mov.b     WREG, 0xc26
    7646:	6a 00 37    	bra       0x771c <.L65>

00007648 <.L46>:
    7648:	a0 d9 80    	mov.w     0x1b34, w0
    764a:	01 20 20    	mov.w     #0x200, w1
    764c:	01 00 60    	and.w     w0, w1, w0
    764e:	00 00 e0    	cp0.w     w0
    7650:	0c 00 32    	bra       Z, 0x766a <.L49>
    7652:	f0 61 80    	mov.w     0xc3e, w0
    7654:	b1 54 80    	mov.w     0xa96, w1
    7656:	01 00 50    	sub.w     w0, w1, w0
    7658:	e9 0f 40    	add.w     w0, #0x9, [w15]
    765a:	60 00 35    	bra       LT, 0x771c <.L65>
    765c:	f0 61 80    	mov.w     0xc3e, w0
    765e:	b1 54 80    	mov.w     0xa96, w1
    7660:	01 00 50    	sub.w     w0, w1, w0
    7662:	e9 0f 50    	sub.w     w0, #0x9, [w15]
    7664:	5b 00 3c    	bra       GT, 0x771c <.L65>
    7666:	d3 fe 07    	rcall     0x740e <_next_waypoint>
    7668:	59 00 37    	bra       0x771c <.L65>

0000766a <.L49>:
    766a:	a0 d9 80    	mov.w     0x1b34, w0
    766c:	01 40 20    	mov.w     #0x400, w1
    766e:	01 00 60    	and.w     w0, w1, w0
    7670:	00 00 e0    	cp0.w     w0
    7672:	2a 00 32    	bra       Z, 0x76c8 <.L55>
    7674:	00 55 80    	mov.w     0xaa0, w0
    7676:	f8 0f 50    	sub.w     w0, #0x18, [w15]
    7678:	51 00 3c    	bra       GT, 0x771c <.L65>
    767a:	a0 d9 80    	mov.w     0x1b34, w0
    767c:	01 04 20    	mov.w     #0x40, w1
    767e:	01 00 60    	and.w     w0, w1, w0
    7680:	00 00 e0    	cp0.w     w0
    7682:	20 00 32    	bra       Z, 0x76c4 <.L59>
    7684:	30 5e 80    	mov.w     0xbc6, w0
    7686:	76 00 b9    	mul.su    w0, #0x16, w0
    7688:	80 00 78    	mov.w     w0, w1
    768a:	40 5e 80    	mov.w     0xbc8, w0
    768c:	80 80 40    	add.w     w1, w0, w1
    768e:	6e 04 47    	add.w     w14, #0xe, w8
    7690:	82 03 20    	mov.w     #0x38, w2
    7692:	0e 01 41    	add.w     w2, w14, w2
    7694:	f6 87 47    	add.w     w15, #0x16, w15
    7696:	76 80 57    	sub.w     w15, #0x16, w0
    7698:	0a 00 09    	repeat    #0xa
    769a:	31 18 78    	mov.w     [w1++], [w0++]
    769c:	60 01 b1    	sub.w     #0x16, w0
    769e:	61 01 b1    	sub.w     #0x16, w1
    76a0:	02 00 78    	mov.w     w2, w0
    76a2:	dd fd 07    	rcall     0x725e <_wp_to_relative>
    76a4:	f6 87 57    	sub.w     w15, #0x16, w15
    76a6:	80 03 20    	mov.w     #0x38, w0
    76a8:	0e 00 40    	add.w     w0, w14, w0
    76aa:	06 00 09    	repeat    #0x6
    76ac:	30 1c 78    	mov.w     [w0++], [w8++]
    76ae:	e8 00 b1    	sub.w     #0xe, w8
    76b0:	e0 00 b1    	sub.w     #0xe, w0
    76b2:	6e 00 47    	add.w     w14, #0xe, w0
    76b4:	90 01 78    	mov.w     [w0], w3
    76b6:	10 02 90    	mov.w     [w0+2], w4
    76b8:	a0 02 90    	mov.w     [w0+4], w5
    76ba:	70 56 80    	mov.w     0xace, w0
    76bc:	81 56 80    	mov.w     0xad0, w1
    76be:	92 56 80    	mov.w     0xad2, w2
    76c0:	c6 0b 07    	rcall     0x8e4e <_set_goal>
    76c2:	2c 00 37    	bra       0x771c <.L65>

000076c4 <.L59>:
    76c4:	a4 fe 07    	rcall     0x740e <_next_waypoint>
    76c6:	2a 00 37    	bra       0x771c <.L65>

000076c8 <.L55>:
    76c8:	00 55 80    	mov.w     0xaa0, w0
    76ca:	f8 0f 50    	sub.w     w0, #0x18, [w15]
    76cc:	03 00 34    	bra       LE, 0x76d4 <.L61>
    76ce:	e0 54 80    	mov.w     0xa9c, w0
    76d0:	f8 0f 50    	sub.w     w0, #0x18, [w15]
    76d2:	24 00 3c    	bra       GT, 0x771c <.L65>

000076d4 <.L61>:
    76d4:	a0 d9 80    	mov.w     0x1b34, w0
    76d6:	01 04 20    	mov.w     #0x40, w1
    76d8:	01 00 60    	and.w     w0, w1, w0
    76da:	00 00 e0    	cp0.w     w0
    76dc:	1e 00 32    	bra       Z, 0x771a <.L63>
    76de:	30 5e 80    	mov.w     0xbc6, w0
    76e0:	76 00 b9    	mul.su    w0, #0x16, w0
    76e2:	80 00 78    	mov.w     w0, w1
    76e4:	40 5e 80    	mov.w     0xbc8, w0
    76e6:	80 80 40    	add.w     w1, w0, w1
    76e8:	62 04 20    	mov.w     #0x46, w2
    76ea:	0e 01 41    	add.w     w2, w14, w2
    76ec:	f6 87 47    	add.w     w15, #0x16, w15
    76ee:	76 80 57    	sub.w     w15, #0x16, w0
    76f0:	0a 00 09    	repeat    #0xa
    76f2:	31 18 78    	mov.w     [w1++], [w0++]
    76f4:	60 01 b1    	sub.w     #0x16, w0
    76f6:	61 01 b1    	sub.w     #0x16, w1
    76f8:	02 00 78    	mov.w     w2, w0
    76fa:	b1 fd 07    	rcall     0x725e <_wp_to_relative>
    76fc:	f6 87 57    	sub.w     w15, #0x16, w15
    76fe:	60 04 20    	mov.w     #0x46, w0
    7700:	0e 00 40    	add.w     w0, w14, w0
    7702:	06 00 09    	repeat    #0x6
    7704:	30 1f 78    	mov.w     [w0++], [w14++]
    7706:	ee 00 b1    	sub.w     #0xe, w14
    7708:	e0 00 b1    	sub.w     #0xe, w0
    770a:	9e 01 78    	mov.w     [w14], w3
    770c:	1e 02 90    	mov.w     [w14+2], w4
    770e:	ae 02 90    	mov.w     [w14+4], w5
    7710:	70 56 80    	mov.w     0xace, w0
    7712:	81 56 80    	mov.w     0xad0, w1
    7714:	92 56 80    	mov.w     0xad2, w2
    7716:	9b 0b 07    	rcall     0x8e4e <_set_goal>
    7718:	01 00 37    	bra       0x771c <.L65>

0000771a <.L63>:
    771a:	79 fe 07    	rcall     0x740e <_next_waypoint>

0000771c <.L65>:
    771c:	4f 04 78    	mov.w     [--w15], w8
    771e:	00 80 fa    	ulnk      
    7720:	00 00 06    	return    

00007722 <_flightplan_live_begin>:
    7722:	00 00 fa    	lnk       #0x0
    7724:	00 40 eb    	clr.b     w0
    7726:	26 ec b7    	mov.b     WREG, 0xc26
    7728:	00 80 fa    	ulnk      
    772a:	00 00 06    	return    

0000772c <_flightplan_live_received_byte>:
    772c:	02 00 fa    	lnk       #0x2
    772e:	00 4f 78    	mov.b     w0, [w14]
    7730:	26 cc bf    	mov.b     0xc26, WREG
    7732:	f5 4f 50    	sub.b     w0, #0x15, [w15]
    7734:	0e 00 3e    	bra       GTU, 0x7752 <.L69>
    7736:	62 c2 20    	mov.w     #0xc26, w2
    7738:	12 41 78    	mov.b     [w2], w2
    773a:	82 80 fb    	ze        w2, w1
    773c:	60 99 29    	mov.w     #0x9996, w0
    773e:	00 80 40    	add.w     w1, w0, w0
    7740:	10 40 78    	mov.b     [w0], w0
    7742:	00 80 fb    	ze        w0, w0
    7744:	80 00 78    	mov.w     w0, w1
    7746:	e0 bc 20    	mov.w     #0xbce, w0
    7748:	00 80 40    	add.w     w1, w0, w0
    774a:	1e 48 78    	mov.b     [w14], [w0]
    774c:	02 40 e8    	inc.b     w2, w0
    774e:	26 ec b7    	mov.b     WREG, 0xc26
    7750:	06 00 37    	bra       0x775e <.L73>

00007752 <.L69>:
    7752:	26 cc bf    	mov.b     0xc26, WREG
    7754:	f6 4f 50    	sub.b     w0, #0x16, [w15]
    7756:	03 00 3a    	bra       NZ, 0x775e <.L73>
    7758:	26 cc bf    	mov.b     0xc26, WREG
    775a:	00 40 e8    	inc.b     w0, w0
    775c:	26 ec b7    	mov.b     WREG, 0xc26

0000775e <.L73>:
    775e:	00 80 fa    	ulnk      
    7760:	00 00 06    	return    

00007762 <_flightplan_live_commit>:
    7762:	00 00 fa    	lnk       #0x0
    7764:	26 cc bf    	mov.b     0xc26, WREG
    7766:	f6 4f 50    	sub.b     w0, #0x16, [w15]
    7768:	03 00 3a    	bra       NZ, 0x7770 <.L75>
    776a:	00 c0 eb    	setm.b    w0
    776c:	26 ec b7    	mov.b     WREG, 0xc26
    776e:	02 00 37    	bra       0x7774 <.L78>

00007770 <.L75>:
    7770:	00 40 eb    	clr.b     w0
    7772:	26 ec b7    	mov.b     WREG, 0xc26

00007774 <.L78>:
    7774:	00 80 fa    	ulnk      
    7776:	00 00 06    	return    

00007778 <_ReadWaypoint>:
    7778:	0a 00 fa    	lnk       #0xa
    777a:	20 07 98    	mov.w     w0, [w14+4]
    777c:	31 07 98    	mov.w     w1, [w14+6]
    777e:	42 07 98    	mov.w     w2, [w14+8]
    7780:	e0 bc 20    	mov.w     #0xbce, w0
    7782:	10 07 98    	mov.w     w0, [w14+2]
    7784:	00 00 22    	mov.w     #0x2000, w0
    7786:	00 0f 78    	mov.w     w0, [w14]
    7788:	50 b9 80    	mov.w     0x172a, w0
    778a:	00 00 e0    	cp0.w     w0
    778c:	05 00 3a    	bra       NZ, 0x7798 <.L80>
    778e:	82 05 20    	mov.w     #0x58, w2
    7790:	80 80 eb    	setm.w    w1
    7792:	e0 bc 20    	mov.w     #0xbce, w0
    7794:	a7 c5 07    	rcall     0x2e4 <_memset>
    7796:	2e 00 37    	bra       0x77f4 <.L90>

00007798 <.L80>:
    7798:	4e 00 90    	mov.w     [w14+8], w0
    779a:	e4 0f 50    	sub.w     w0, #0x4, [w15]
    779c:	2b 00 3c    	bra       GT, 0x77f4 <.L90>
    779e:	4e 00 90    	mov.w     [w14+8], w0
    77a0:	00 00 e0    	cp0.w     w0
    77a2:	28 00 34    	bra       LE, 0x77f4 <.L90>
    77a4:	2e 00 90    	mov.w     [w14+4], w0
    77a6:	e3 0f 50    	sub.w     w0, #0x3, [w15]
    77a8:	25 00 3c    	bra       GT, 0x77f4 <.L90>
    77aa:	2e 00 90    	mov.w     [w14+4], w0
    77ac:	00 00 e0    	cp0.w     w0
    77ae:	22 00 35    	bra       LT, 0x77f4 <.L90>
    77b0:	be 00 90    	mov.w     [w14+6], w1
    77b2:	90 0b 20    	mov.w     #0xb9, w0
    77b4:	80 8f 50    	sub.w     w1, w0, [w15]
    77b6:	1e 00 3e    	bra       GTU, 0x77f4 <.L90>
    77b8:	4e 00 90    	mov.w     [w14+8], w0
    77ba:	63 00 60    	and.w     w0, #0x3, w0
    77bc:	40 07 98    	mov.w     w0, [w14+8]
    77be:	2e 00 90    	mov.w     [w14+4], w0
    77c0:	63 00 60    	and.w     w0, #0x3, w0
    77c2:	20 07 98    	mov.w     w0, [w14+4]
    77c4:	ce 00 90    	mov.w     [w14+8], w1
    77c6:	2e 00 90    	mov.w     [w14+4], w0
    77c8:	00 80 40    	add.w     w1, w0, w0
    77ca:	e4 0f 50    	sub.w     w0, #0x4, [w15]
    77cc:	05 00 34    	bra       LE, 0x77d8 <.L88>
    77ce:	ce 00 90    	mov.w     [w14+8], w1
    77d0:	2e 00 90    	mov.w     [w14+4], w0
    77d2:	00 80 40    	add.w     w1, w0, w0
    77d4:	63 00 60    	and.w     w0, #0x3, w0
    77d6:	40 07 98    	mov.w     w0, [w14+8]

000077d8 <.L88>:
    77d8:	2e 00 90    	mov.w     [w14+4], w0
    77da:	76 00 b9    	mul.su    w0, #0x16, w0
    77dc:	80 00 78    	mov.w     w0, w1
    77de:	e0 bc 20    	mov.w     #0xbce, w0
    77e0:	00 80 40    	add.w     w1, w0, w0
    77e2:	10 07 98    	mov.w     w0, [w14+2]
    77e4:	3e 00 90    	mov.w     [w14+6], w0
    77e6:	76 00 b9    	mul.su    w0, #0x16, w0
    77e8:	1e 0f 40    	add.w     w0, [w14], [w14]
    77ea:	4e 00 90    	mov.w     [w14+8], w0
    77ec:	76 00 b9    	mul.su    w0, #0x16, w0
    77ee:	1e 01 90    	mov.w     [w14+2], w2
    77f0:	9e 00 78    	mov.w     [w14], w1
    77f2:	2f 01 07    	rcall     0x7a52 <_EE_Read>

000077f4 <.L90>:
    77f4:	00 80 fa    	ulnk      
    77f6:	00 00 06    	return    

000077f8 <_WriteWaypoint>:
    77f8:	0a 00 fa    	lnk       #0xa
    77fa:	20 07 98    	mov.w     w0, [w14+4]
    77fc:	31 07 98    	mov.w     w1, [w14+6]
    77fe:	42 07 98    	mov.w     w2, [w14+8]
    7800:	e0 bc 20    	mov.w     #0xbce, w0
    7802:	10 07 98    	mov.w     w0, [w14+2]
    7804:	00 00 22    	mov.w     #0x2000, w0
    7806:	00 0f 78    	mov.w     w0, [w14]
    7808:	50 b9 80    	mov.w     0x172a, w0
    780a:	00 00 e0    	cp0.w     w0
    780c:	2e 00 32    	bra       Z, 0x786a <.L101>
    780e:	4e 00 90    	mov.w     [w14+8], w0
    7810:	e4 0f 50    	sub.w     w0, #0x4, [w15]
    7812:	2b 00 3c    	bra       GT, 0x786a <.L101>
    7814:	4e 00 90    	mov.w     [w14+8], w0
    7816:	00 00 e0    	cp0.w     w0
    7818:	28 00 34    	bra       LE, 0x786a <.L101>
    781a:	3e 00 90    	mov.w     [w14+6], w0
    781c:	e3 0f 50    	sub.w     w0, #0x3, [w15]
    781e:	25 00 3c    	bra       GT, 0x786a <.L101>
    7820:	3e 00 90    	mov.w     [w14+6], w0
    7822:	00 00 e0    	cp0.w     w0
    7824:	22 00 35    	bra       LT, 0x786a <.L101>
    7826:	ae 00 90    	mov.w     [w14+4], w1
    7828:	90 0b 20    	mov.w     #0xb9, w0
    782a:	80 8f 50    	sub.w     w1, w0, [w15]
    782c:	1e 00 3e    	bra       GTU, 0x786a <.L101>
    782e:	4e 00 90    	mov.w     [w14+8], w0
    7830:	67 00 60    	and.w     w0, #0x7, w0
    7832:	40 07 98    	mov.w     w0, [w14+8]
    7834:	3e 00 90    	mov.w     [w14+6], w0
    7836:	63 00 60    	and.w     w0, #0x3, w0
    7838:	30 07 98    	mov.w     w0, [w14+6]
    783a:	ce 00 90    	mov.w     [w14+8], w1
    783c:	3e 00 90    	mov.w     [w14+6], w0
    783e:	00 80 40    	add.w     w1, w0, w0
    7840:	e4 0f 50    	sub.w     w0, #0x4, [w15]
    7842:	05 00 34    	bra       LE, 0x784e <.L99>
    7844:	ce 00 90    	mov.w     [w14+8], w1
    7846:	3e 00 90    	mov.w     [w14+6], w0
    7848:	00 80 40    	add.w     w1, w0, w0
    784a:	63 00 60    	and.w     w0, #0x3, w0
    784c:	40 07 98    	mov.w     w0, [w14+8]

0000784e <.L99>:
    784e:	3e 00 90    	mov.w     [w14+6], w0
    7850:	76 00 b9    	mul.su    w0, #0x16, w0
    7852:	80 00 78    	mov.w     w0, w1
    7854:	e0 bc 20    	mov.w     #0xbce, w0
    7856:	00 80 40    	add.w     w1, w0, w0
    7858:	10 07 98    	mov.w     w0, [w14+2]
    785a:	2e 00 90    	mov.w     [w14+4], w0
    785c:	76 00 b9    	mul.su    w0, #0x16, w0
    785e:	1e 0f 40    	add.w     w0, [w14], [w14]
    7860:	4e 00 90    	mov.w     [w14+8], w0
    7862:	76 00 b9    	mul.su    w0, #0x16, w0
    7864:	1e 01 90    	mov.w     [w14+2], w2
    7866:	9e 00 78    	mov.w     [w14], w1
    7868:	be 00 07    	rcall     0x79e6 <_EE_Write>

0000786a <.L101>:
    786a:	00 80 fa    	ulnk      
    786c:	00 00 06    	return    

0000786e <_doneEE>:
    786e:	04 00 fa    	lnk       #0x4
    7870:	00 a5 80    	mov.w     0x14a0, w0
    7872:	00 00 e0    	cp0.w     w0
    7874:	02 00 32    	bra       Z, 0x787a <.L2>
    7876:	2c 1b a9    	bclr.b    0x1b2c, #0x0
    7878:	b4 00 37    	bra       0x79e2 <.L30>

0000787a <.L2>:
    787a:	f0 a4 80    	mov.w     0x149e, w0
    787c:	00 00 e0    	cp0.w     w0
    787e:	46 00 34    	bra       LE, 0x790c <.L5>
    7880:	11 a5 80    	mov.w     0x14a2, w1
    7882:	20 a5 80    	mov.w     0x14a4, w0
    7884:	80 8f 50    	sub.w     w1, w0, [w15]
    7886:	04 00 39    	bra       NC, 0x7890 <.L7>
    7888:	00 00 eb    	clr.w     w0
    788a:	f0 a4 88    	mov.w     w0, 0x149e
    788c:	2c 1b a9    	bclr.b    0x1b2c, #0x0
    788e:	a9 00 37    	bra       0x79e2 <.L30>

00007890 <.L7>:
    7890:	f0 a4 80    	mov.w     0x149e, w0
    7892:	00 00 e8    	inc.w     w0, w0
    7894:	f0 a4 88    	mov.w     w0, 0x149e
    7896:	70 00 20    	mov.w     #0x7, w0
    7898:	00 0f 78    	mov.w     w0, [w14]
    789a:	00 00 eb    	clr.w     w0
    789c:	10 07 98    	mov.w     w0, [w14+2]
    789e:	0d 00 37    	bra       0x78ba <.L10>

000078a0 <.L11>:
    78a0:	1e 01 90    	mov.w     [w14+2], w2
    78a2:	1e 00 90    	mov.w     [w14+2], w0
    78a4:	80 00 40    	add.w     w0, w0, w1
    78a6:	60 9b 29    	mov.w     #0x99b6, w0
    78a8:	00 80 40    	add.w     w1, w0, w0
    78aa:	90 01 78    	mov.w     [w0], w3
    78ac:	82 00 41    	add.w     w2, w2, w1
    78ae:	80 53 21    	mov.w     #0x1538, w0
    78b0:	00 80 40    	add.w     w1, w0, w0
    78b2:	03 08 78    	mov.w     w3, [w0]
    78b4:	1e 00 90    	mov.w     [w14+2], w0
    78b6:	00 00 e8    	inc.w     w0, w0
    78b8:	10 07 98    	mov.w     w0, [w14+2]

000078ba <.L10>:
    78ba:	1e 00 90    	mov.w     [w14+2], w0
    78bc:	9e 0f 50    	sub.w     w0, [w14], [w15]
    78be:	f0 ff 34    	bra       LE, 0x78a0 <.L11>
    78c0:	21 a5 80    	mov.w     0x14a4, w1
    78c2:	10 a5 80    	mov.w     0x14a2, w0
    78c4:	00 80 50    	sub.w     w1, w0, w0
    78c6:	00 0f 78    	mov.w     w0, [w14]
    78c8:	00 04 20    	mov.w     #0x40, w0
    78ca:	9e 0f 10    	subr.w    w0, [w14], [w15]
    78cc:	02 00 34    	bra       LE, 0x78d2 <.L13>
    78ce:	00 04 20    	mov.w     #0x40, w0
    78d0:	00 0f 78    	mov.w     w0, [w14]

000078d2 <.L13>:
    78d2:	1e 00 78    	mov.w     [w14], w0
    78d4:	00 40 e9    	dec.b     w0, w0
    78d6:	43 f5 b7    	mov.b     WREG, 0x1543
    78d8:	30 a5 80    	mov.w     0x14a6, w0
    78da:	10 b3 88    	mov.w     w0, 0x1662
    78dc:	10 a5 80    	mov.w     0x14a2, w0
    78de:	a9 f4 b7    	mov.b     WREG, 0x14a9
    78e0:	10 a5 80    	mov.w     0x14a2, w0
    78e2:	48 00 de    	lsr.w     w0, #0x8, w0
    78e4:	a8 f4 b7    	mov.b     WREG, 0x14a8
    78e6:	31 a5 80    	mov.w     0x14a6, w1
    78e8:	1e 00 78    	mov.w     [w14], w0
    78ea:	00 80 40    	add.w     w1, w0, w0
    78ec:	30 a5 88    	mov.w     w0, 0x14a6
    78ee:	11 a5 80    	mov.w     0x14a2, w1
    78f0:	1e 00 78    	mov.w     [w14], w0
    78f2:	00 80 40    	add.w     w1, w0, w0
    78f4:	10 a5 88    	mov.w     w0, 0x14a2
    78f6:	80 5b 21    	mov.w     #0x15b8, w0
    78f8:	e1 64 21    	mov.w     #0x164e, w1
    78fa:	0e 00 09    	repeat    #0xe
    78fc:	31 18 78    	mov.w     [w1++], [w0++]
    78fe:	1e 00 78    	mov.w     [w14], w0
    7900:	c2 02 20    	mov.w     #0x2c, w2
    7902:	11 00 09    	repeat    #0x11
    7904:	02 00 d8    	div.sw    w0, w2
    7906:	63 00 40    	add.w     w0, #0x3, w0
    7908:	72 f2 07    	rcall     0x5dee <_I2C_Start>
    790a:	6b 00 37    	bra       0x79e2 <.L30>

0000790c <.L5>:
    790c:	f0 a4 80    	mov.w     0x149e, w0
    790e:	00 00 e0    	cp0.w     w0
    7910:	67 00 3d    	bra       GE, 0x79e0 <.L15>
    7912:	11 a5 80    	mov.w     0x14a2, w1
    7914:	20 a5 80    	mov.w     0x14a4, w0
    7916:	80 8f 50    	sub.w     w1, w0, [w15]
    7918:	04 00 39    	bra       NC, 0x7922 <.L17>
    791a:	00 00 eb    	clr.w     w0
    791c:	f0 a4 88    	mov.w     w0, 0x149e
    791e:	2c 1b a9    	bclr.b    0x1b2c, #0x0
    7920:	60 00 37    	bra       0x79e2 <.L30>

00007922 <.L17>:
    7922:	f0 a4 80    	mov.w     0x149e, w0
    7924:	00 00 e9    	dec.w     w0, w0
    7926:	f0 a4 88    	mov.w     w0, 0x149e
    7928:	40 00 20    	mov.w     #0x4, w0
    792a:	00 0f 78    	mov.w     w0, [w14]
    792c:	00 00 eb    	clr.w     w0
    792e:	10 07 98    	mov.w     w0, [w14+2]
    7930:	0d 00 37    	bra       0x794c <.L20>

00007932 <.L21>:
    7932:	1e 01 90    	mov.w     [w14+2], w2
    7934:	1e 00 90    	mov.w     [w14+2], w0
    7936:	80 00 40    	add.w     w0, w0, w1
    7938:	c0 9a 29    	mov.w     #0x99ac, w0
    793a:	00 80 40    	add.w     w1, w0, w0
    793c:	90 01 78    	mov.w     [w0], w3
    793e:	82 00 41    	add.w     w2, w2, w1
    7940:	80 53 21    	mov.w     #0x1538, w0
    7942:	00 80 40    	add.w     w1, w0, w0
    7944:	03 08 78    	mov.w     w3, [w0]
    7946:	1e 00 90    	mov.w     [w14+2], w0
    7948:	00 00 e8    	inc.w     w0, w0
    794a:	10 07 98    	mov.w     w0, [w14+2]

0000794c <.L20>:
    794c:	1e 00 90    	mov.w     [w14+2], w0
    794e:	9e 0f 50    	sub.w     w0, [w14], [w15]
    7950:	f0 ff 34    	bra       LE, 0x7932 <.L21>
    7952:	21 a5 80    	mov.w     0x14a4, w1
    7954:	10 a5 80    	mov.w     0x14a2, w0
    7956:	00 80 50    	sub.w     w1, w0, w0
    7958:	00 0f 78    	mov.w     w0, [w14]
    795a:	00 04 20    	mov.w     #0x40, w0
    795c:	9e 0f 10    	subr.w    w0, [w14], [w15]
    795e:	02 00 34    	bra       LE, 0x7964 <.L23>
    7960:	00 04 20    	mov.w     #0x40, w0
    7962:	00 0f 78    	mov.w     w0, [w14]

00007964 <.L23>:
    7964:	11 a5 80    	mov.w     0x14a2, w1
    7966:	f0 03 20    	mov.w     #0x3f, w0
    7968:	80 80 60    	and.w     w1, w0, w1
    796a:	1e 00 78    	mov.w     [w14], w0
    796c:	00 80 40    	add.w     w1, w0, w0
    796e:	80 00 e9    	dec.w     w0, w1
    7970:	f0 03 20    	mov.w     #0x3f, w0
    7972:	80 8f 50    	sub.w     w1, w0, [w15]
    7974:	06 00 36    	bra       LEU, 0x7982 <.L25>
    7976:	11 a5 80    	mov.w     0x14a2, w1
    7978:	f0 03 20    	mov.w     #0x3f, w0
    797a:	80 80 60    	and.w     w1, w0, w1
    797c:	00 04 20    	mov.w     #0x40, w0
    797e:	01 00 50    	sub.w     w0, w1, w0
    7980:	00 0f 78    	mov.w     w0, [w14]

00007982 <.L25>:
    7982:	1e 00 78    	mov.w     [w14], w0
    7984:	00 40 e8    	inc.b     w0, w0
    7986:	3d f5 b7    	mov.b     WREG, 0x153d
    7988:	00 00 eb    	clr.w     w0
    798a:	10 07 98    	mov.w     w0, [w14+2]
    798c:	0c 00 37    	bra       0x79a6 <.L27>

0000798e <.L28>:
    798e:	1e 00 90    	mov.w     [w14+2], w0
    7990:	00 81 e8    	inc2.w    w0, w2
    7992:	31 a5 80    	mov.w     0x14a6, w1
    7994:	1e 00 90    	mov.w     [w14+2], w0
    7996:	00 80 40    	add.w     w1, w0, w0
    7998:	90 40 78    	mov.b     [w0], w1
    799a:	80 4a 21    	mov.w     #0x14a8, w0
    799c:	00 00 41    	add.w     w2, w0, w0
    799e:	01 48 78    	mov.b     w1, [w0]
    79a0:	1e 00 90    	mov.w     [w14+2], w0
    79a2:	00 00 e8    	inc.w     w0, w0
    79a4:	10 07 98    	mov.w     w0, [w14+2]

000079a6 <.L27>:
    79a6:	1e 00 90    	mov.w     [w14+2], w0
    79a8:	9e 0f 50    	sub.w     w0, [w14], [w15]
    79aa:	f1 ff 35    	bra       LT, 0x798e <.L28>
    79ac:	10 a5 80    	mov.w     0x14a2, w0
    79ae:	a9 f4 b7    	mov.b     WREG, 0x14a9
    79b0:	10 a5 80    	mov.w     0x14a2, w0
    79b2:	48 00 de    	lsr.w     w0, #0x8, w0
    79b4:	a8 f4 b7    	mov.b     WREG, 0x14a8
    79b6:	31 a5 80    	mov.w     0x14a6, w1
    79b8:	1e 00 78    	mov.w     [w14], w0
    79ba:	00 80 40    	add.w     w1, w0, w0
    79bc:	30 a5 88    	mov.w     w0, 0x14a6
    79be:	11 a5 80    	mov.w     0x14a2, w1
    79c0:	1e 00 78    	mov.w     [w14], w0
    79c2:	00 80 40    	add.w     w1, w0, w0
    79c4:	10 a5 88    	mov.w     w0, 0x14a2
    79c6:	80 5b 21    	mov.w     #0x15b8, w0
    79c8:	01 63 21    	mov.w     #0x1630, w1
    79ca:	0e 00 09    	repeat    #0xe
    79cc:	31 18 78    	mov.w     [w1++], [w0++]
    79ce:	60 00 20    	mov.w     #0x6, w0
    79d0:	00 a5 88    	mov.w     w0, 0x14a0
    79d2:	1e 00 78    	mov.w     [w14], w0
    79d4:	c2 02 20    	mov.w     #0x2c, w2
    79d6:	11 00 09    	repeat    #0x11
    79d8:	02 00 d8    	div.sw    w0, w2
    79da:	63 00 40    	add.w     w0, #0x3, w0
    79dc:	08 f2 07    	rcall     0x5dee <_I2C_Start>
    79de:	01 00 37    	bra       0x79e2 <.L30>

000079e0 <.L15>:
    79e0:	2c 1b a9    	bclr.b    0x1b2c, #0x0

000079e2 <.L30>:
    79e2:	00 80 fa    	ulnk      
    79e4:	00 00 06    	return    

000079e6 <_EE_Write>:
    79e6:	08 00 fa    	lnk       #0x8
    79e8:	00 0f 78    	mov.w     w0, [w14]
    79ea:	11 07 98    	mov.w     w1, [w14+2]
    79ec:	22 07 98    	mov.w     w2, [w14+4]
    79ee:	80 b1 80    	mov.w     0x1630, w0
    79f0:	e3 0f 50    	sub.w     w0, #0x3, [w15]
    79f2:	0a 00 32    	bra       Z, 0x7a08 <.L32>
    79f4:	30 00 20    	mov.w     #0x3, w0
    79f6:	80 b1 88    	mov.w     w0, 0x1630
    79f8:	00 00 eb    	clr.w     w0
    79fa:	00 b2 88    	mov.w     w0, 0x1640
    79fc:	80 4a 21    	mov.w     #0x14a8, w0
    79fe:	20 b2 88    	mov.w     w0, 0x1644
    7a00:	e0 86 27    	mov.w     #0x786e, w0
    7a02:	90 b9 88    	mov.w     w0, 0x1732
    7a04:	70 00 20    	mov.w     #0x7, w0
    7a06:	a0 b1 88    	mov.w     w0, 0x1634

00007a08 <.L32>:
    7a08:	f0 a4 80    	mov.w     0x149e, w0
    7a0a:	00 00 e0    	cp0.w     w0
    7a0c:	0a 00 3a    	bra       NZ, 0x7a22 <.L34>
    7a0e:	00 a5 80    	mov.w     0x14a0, w0
    7a10:	00 00 e0    	cp0.w     w0
    7a12:	07 00 3a    	bra       NZ, 0x7a22 <.L34>
    7a14:	00 00 21    	mov.w     #0x1000, w0
    7a16:	9e 0f 10    	subr.w    w0, [w14], [w15]
    7a18:	04 00 3e    	bra       GTU, 0x7a22 <.L34>
    7a1a:	ae 00 90    	mov.w     [w14+4], w1
    7a1c:	00 80 27    	mov.w     #0x7800, w0
    7a1e:	80 8f 50    	sub.w     w1, w0, [w15]
    7a20:	03 00 36    	bra       LEU, 0x7a28 <.L38>

00007a22 <.L34>:
    7a22:	00 b2 80    	mov.w     0x1640, w0
    7a24:	30 07 98    	mov.w     w0, [w14+6]
    7a26:	12 00 37    	bra       0x7a4c <.L39>

00007a28 <.L38>:
    7a28:	1e 00 90    	mov.w     [w14+2], w0
    7a2a:	10 a5 88    	mov.w     w0, 0x14a2
    7a2c:	10 a5 80    	mov.w     0x14a2, w0
    7a2e:	1e 00 40    	add.w     w0, [w14], w0
    7a30:	20 a5 88    	mov.w     w0, 0x14a4
    7a32:	2e 00 90    	mov.w     [w14+4], w0
    7a34:	30 a5 88    	mov.w     w0, 0x14a6
    7a36:	00 80 eb    	setm.w    w0
    7a38:	f0 a4 88    	mov.w     w0, 0x149e
    7a3a:	0a 00 fc    	disi      #0xa
    7a3c:	60 d9 80    	mov.w     0x1b2c, w0
    7a3e:	61 00 60    	and.w     w0, #0x1, w0
    7a40:	00 00 e0    	cp0.w     w0
    7a42:	02 00 3a    	bra       NZ, 0x7a48 <.L40>
    7a44:	2c 1b a8    	bset.b    0x1b2c, #0x0
    7a46:	13 ff 07    	rcall     0x786e <_doneEE>

00007a48 <.L40>:
    7a48:	f0 a4 80    	mov.w     0x149e, w0
    7a4a:	30 07 98    	mov.w     w0, [w14+6]

00007a4c <.L39>:
    7a4c:	3e 00 90    	mov.w     [w14+6], w0
    7a4e:	00 80 fa    	ulnk      
    7a50:	00 00 06    	return    

00007a52 <_EE_Read>:
    7a52:	08 00 fa    	lnk       #0x8
    7a54:	00 0f 78    	mov.w     w0, [w14]
    7a56:	11 07 98    	mov.w     w1, [w14+2]
    7a58:	22 07 98    	mov.w     w2, [w14+4]
    7a5a:	70 b2 80    	mov.w     0x164e, w0
    7a5c:	e4 0f 50    	sub.w     w0, #0x4, [w15]
    7a5e:	0a 00 32    	bra       Z, 0x7a74 <.L44>
    7a60:	40 00 20    	mov.w     #0x4, w0
    7a62:	70 b2 88    	mov.w     w0, 0x164e
    7a64:	00 00 eb    	clr.w     w0
    7a66:	f0 b2 88    	mov.w     w0, 0x165e
    7a68:	80 4a 21    	mov.w     #0x14a8, w0
    7a6a:	10 b3 88    	mov.w     w0, 0x1662
    7a6c:	e0 86 27    	mov.w     #0x786e, w0
    7a6e:	a0 b9 88    	mov.w     w0, 0x1734
    7a70:	70 00 20    	mov.w     #0x7, w0
    7a72:	90 b2 88    	mov.w     w0, 0x1652

00007a74 <.L44>:
    7a74:	f0 a4 80    	mov.w     0x149e, w0
    7a76:	00 00 e0    	cp0.w     w0
    7a78:	0a 00 3a    	bra       NZ, 0x7a8e <.L46>
    7a7a:	00 a5 80    	mov.w     0x14a0, w0
    7a7c:	00 00 e0    	cp0.w     w0
    7a7e:	07 00 3a    	bra       NZ, 0x7a8e <.L46>
    7a80:	00 00 21    	mov.w     #0x1000, w0
    7a82:	9e 0f 10    	subr.w    w0, [w14], [w15]
    7a84:	04 00 3e    	bra       GTU, 0x7a8e <.L46>
    7a86:	ae 00 90    	mov.w     [w14+4], w1
    7a88:	00 80 27    	mov.w     #0x7800, w0
    7a8a:	80 8f 50    	sub.w     w1, w0, [w15]
    7a8c:	03 00 36    	bra       LEU, 0x7a94 <.L50>

00007a8e <.L46>:
    7a8e:	f0 b2 80    	mov.w     0x165e, w0
    7a90:	30 07 98    	mov.w     w0, [w14+6]
    7a92:	12 00 37    	bra       0x7ab8 <.L51>

00007a94 <.L50>:
    7a94:	1e 00 90    	mov.w     [w14+2], w0
    7a96:	10 a5 88    	mov.w     w0, 0x14a2
    7a98:	10 a5 80    	mov.w     0x14a2, w0
    7a9a:	1e 00 40    	add.w     w0, [w14], w0
    7a9c:	20 a5 88    	mov.w     w0, 0x14a4
    7a9e:	2e 00 90    	mov.w     [w14+4], w0
    7aa0:	30 a5 88    	mov.w     w0, 0x14a6
    7aa2:	10 00 20    	mov.w     #0x1, w0
    7aa4:	f0 a4 88    	mov.w     w0, 0x149e
    7aa6:	0a 00 fc    	disi      #0xa
    7aa8:	60 d9 80    	mov.w     0x1b2c, w0
    7aaa:	61 00 60    	and.w     w0, #0x1, w0
    7aac:	00 00 e0    	cp0.w     w0
    7aae:	02 00 3a    	bra       NZ, 0x7ab4 <.L52>
    7ab0:	2c 1b a8    	bset.b    0x1b2c, #0x0
    7ab2:	dd fe 07    	rcall     0x786e <_doneEE>

00007ab4 <.L52>:
    7ab4:	f0 a4 80    	mov.w     0x149e, w0
    7ab6:	30 07 98    	mov.w     w0, [w14+6]

00007ab8 <.L51>:
    7ab8:	3e 00 90    	mov.w     [w14+6], w0
    7aba:	00 80 fa    	ulnk      
    7abc:	00 00 06    	return    

00007abe <_ReadParameters>:
    7abe:	12 00 fa    	lnk       #0x12
    7ac0:	01 00 37    	bra       0x7ac4 <.L56>

00007ac2 <.L57>:
    7ac2:	21 e1 a9    	bclr.b    0x121, #0x7

00007ac4 <.L56>:
    7ac4:	6a 01 47    	add.w     w14, #0xa, w2
    7ac6:	01 08 20    	mov.w     #0x80, w1
    7ac8:	80 00 20    	mov.w     #0x8, w0
    7aca:	c3 ff 07    	rcall     0x7a52 <_EE_Read>
    7acc:	00 00 e0    	cp0.w     w0
    7ace:	f9 ff 34    	bra       LE, 0x7ac2 <.L57>
    7ad0:	00 85 20    	mov.w     #0x850, w0
    7ad2:	a0 00 90    	mov.w     [w0+4], w1
    7ad4:	00 85 20    	mov.w     #0x850, w0
    7ad6:	10 00 90    	mov.w     [w0+2], w0
    7ad8:	00 80 50    	sub.w     w1, w0, w0
    7ada:	30 07 98    	mov.w     w0, [w14+6]
    7adc:	01 00 37    	bra       0x7ae0 <.L59>

00007ade <.L60>:
    7ade:	21 e1 a9    	bclr.b    0x121, #0x7

00007ae0 <.L59>:
    7ae0:	f0 a4 80    	mov.w     0x149e, w0
    7ae2:	00 00 e0    	cp0.w     w0
    7ae4:	fc ff 3a    	bra       NZ, 0x7ade <.L60>
    7ae6:	fe 00 90    	mov.w     [w14+14], w1
    7ae8:	6e 00 90    	mov.w     [w14+12], w0
    7aea:	00 80 50    	sub.w     w1, w0, w0
    7aec:	40 07 98    	mov.w     w0, [w14+8]
    7aee:	de 00 90    	mov.w     [w14+10], w1
    7af0:	00 85 20    	mov.w     #0x850, w0
    7af2:	10 00 78    	mov.w     [w0], w0
    7af4:	80 8f 50    	sub.w     w1, w0, [w15]
    7af6:	04 00 3a    	bra       NZ, 0x7b00 <.L62>
    7af8:	ce 00 90    	mov.w     [w14+8], w1
    7afa:	3e 00 90    	mov.w     [w14+6], w0
    7afc:	80 8f 50    	sub.w     w1, w0, [w15]
    7afe:	02 00 32    	bra       Z, 0x7b04 <.L64>

00007b00 <.L62>:
    7b00:	8c 00 07    	rcall     0x7c1a <_WriteParameters>
    7b02:	89 00 37    	bra       0x7c16 <.L97>

00007b04 <.L64>:
    7b04:	01 85 20    	mov.w     #0x850, w1
    7b06:	00 00 eb    	clr.w     w0
    7b08:	b0 00 98    	mov.w     w0, [w1+6]
    7b0a:	00 00 eb    	clr.w     w0
    7b0c:	40 07 98    	mov.w     w0, [w14+8]
    7b0e:	80 00 20    	mov.w     #0x8, w0
    7b10:	10 07 98    	mov.w     w0, [w14+2]

00007b12 <.L66>:
    7b12:	be 00 90    	mov.w     [w14+6], w1
    7b14:	4e 00 90    	mov.w     [w14+8], w0
    7b16:	00 80 50    	sub.w     w1, w0, w0
    7b18:	20 07 98    	mov.w     w0, [w14+4]
    7b1a:	ae 00 90    	mov.w     [w14+4], w1
    7b1c:	00 20 20    	mov.w     #0x200, w0
    7b1e:	80 8f 50    	sub.w     w1, w0, [w15]
    7b20:	02 00 36    	bra       LEU, 0x7b26 <.L67>
    7b22:	00 20 20    	mov.w     #0x200, w0
    7b24:	20 07 98    	mov.w     w0, [w14+4]

00007b26 <.L67>:
    7b26:	ae 00 90    	mov.w     [w14+4], w1
    7b28:	00 08 20    	mov.w     #0x80, w0
    7b2a:	80 8f 50    	sub.w     w1, w0, [w15]
    7b2c:	04 00 34    	bra       LE, 0x7b36 <.L71>
    7b2e:	00 08 20    	mov.w     #0x80, w0
    7b30:	20 07 98    	mov.w     w0, [w14+4]
    7b32:	01 00 37    	bra       0x7b36 <.L71>

00007b34 <.L72>:
    7b34:	21 e1 a9    	bclr.b    0x121, #0x7

00007b36 <.L71>:
    7b36:	4e 00 90    	mov.w     [w14+8], w0
    7b38:	01 08 20    	mov.w     #0x80, w1
    7b3a:	80 80 40    	add.w     w1, w0, w1
    7b3c:	2e 00 90    	mov.w     [w14+4], w0
    7b3e:	02 70 22    	mov.w     #0x2700, w2
    7b40:	88 ff 07    	rcall     0x7a52 <_EE_Read>
    7b42:	00 00 e0    	cp0.w     w0
    7b44:	f7 ff 34    	bra       LE, 0x7b34 <.L72>
    7b46:	4e 00 90    	mov.w     [w14+8], w0
    7b48:	ae 00 90    	mov.w     [w14+4], w1
    7b4a:	01 00 40    	add.w     w0, w1, w0
    7b4c:	40 07 98    	mov.w     w0, [w14+8]
    7b4e:	01 00 37    	bra       0x7b52 <.L74>

00007b50 <.L75>:
    7b50:	21 e1 a9    	bclr.b    0x121, #0x7

00007b52 <.L74>:
    7b52:	f0 a4 80    	mov.w     0x149e, w0
    7b54:	00 00 e0    	cp0.w     w0
    7b56:	fc ff 3a    	bra       NZ, 0x7b50 <.L75>
    7b58:	0d 00 37    	bra       0x7b74 <.L77>

00007b5a <.L78>:
    7b5a:	00 85 20    	mov.w     #0x850, w0
    7b5c:	30 01 90    	mov.w     [w0+6], w2
    7b5e:	9e 00 90    	mov.w     [w14+2], w1
    7b60:	00 70 22    	mov.w     #0x2700, w0
    7b62:	00 80 40    	add.w     w1, w0, w0
    7b64:	10 40 78    	mov.b     [w0], w0
    7b66:	00 80 fb    	ze        w0, w0
    7b68:	80 00 41    	add.w     w2, w0, w1
    7b6a:	00 85 20    	mov.w     #0x850, w0
    7b6c:	31 00 98    	mov.w     w1, [w0+6]
    7b6e:	1e 00 90    	mov.w     [w14+2], w0
    7b70:	00 00 e8    	inc.w     w0, w0
    7b72:	10 07 98    	mov.w     w0, [w14+2]

00007b74 <.L77>:
    7b74:	9e 00 90    	mov.w     [w14+2], w1
    7b76:	2e 00 90    	mov.w     [w14+4], w0
    7b78:	80 8f 50    	sub.w     w1, w0, [w15]
    7b7a:	ef ff 35    	bra       LT, 0x7b5a <.L78>
    7b7c:	00 00 eb    	clr.w     w0
    7b7e:	10 07 98    	mov.w     w0, [w14+2]
    7b80:	be 00 90    	mov.w     [w14+6], w1
    7b82:	4e 00 90    	mov.w     [w14+8], w0
    7b84:	80 8f 50    	sub.w     w1, w0, [w15]
    7b86:	c5 ff 3e    	bra       GTU, 0x7b12 <.L66>
    7b88:	00 85 20    	mov.w     #0x850, w0
    7b8a:	b0 00 90    	mov.w     [w0+6], w1
    7b8c:	0e 08 90    	mov.w     [w14+16], w0
    7b8e:	80 8f 50    	sub.w     w1, w0, [w15]
    7b90:	02 00 32    	bra       Z, 0x7b96 <.L81>
    7b92:	43 00 07    	rcall     0x7c1a <_WriteParameters>
    7b94:	40 00 37    	bra       0x7c16 <.L97>

00007b96 <.L81>:
    7b96:	01 85 20    	mov.w     #0x850, w1
    7b98:	00 00 eb    	clr.w     w0
    7b9a:	b0 00 98    	mov.w     w0, [w1+6]
    7b9c:	00 00 eb    	clr.w     w0
    7b9e:	40 07 98    	mov.w     w0, [w14+8]
    7ba0:	00 85 20    	mov.w     #0x850, w0
    7ba2:	00 0f 78    	mov.w     w0, [w14]

00007ba4 <.L83>:
    7ba4:	be 00 90    	mov.w     [w14+6], w1
    7ba6:	4e 00 90    	mov.w     [w14+8], w0
    7ba8:	00 80 50    	sub.w     w1, w0, w0
    7baa:	20 07 98    	mov.w     w0, [w14+4]
    7bac:	ae 00 90    	mov.w     [w14+4], w1
    7bae:	00 20 20    	mov.w     #0x200, w0
    7bb0:	80 8f 50    	sub.w     w1, w0, [w15]
    7bb2:	02 00 36    	bra       LEU, 0x7bb8 <.L84>
    7bb4:	00 20 20    	mov.w     #0x200, w0
    7bb6:	20 07 98    	mov.w     w0, [w14+4]

00007bb8 <.L84>:
    7bb8:	ae 00 90    	mov.w     [w14+4], w1
    7bba:	00 08 20    	mov.w     #0x80, w0
    7bbc:	80 8f 50    	sub.w     w1, w0, [w15]
    7bbe:	04 00 34    	bra       LE, 0x7bc8 <.L88>
    7bc0:	00 08 20    	mov.w     #0x80, w0
    7bc2:	20 07 98    	mov.w     w0, [w14+4]
    7bc4:	01 00 37    	bra       0x7bc8 <.L88>

00007bc6 <.L89>:
    7bc6:	21 e1 a9    	bclr.b    0x121, #0x7

00007bc8 <.L88>:
    7bc8:	4e 00 90    	mov.w     [w14+8], w0
    7bca:	01 08 20    	mov.w     #0x80, w1
    7bcc:	80 80 40    	add.w     w1, w0, w1
    7bce:	2e 00 90    	mov.w     [w14+4], w0
    7bd0:	02 70 22    	mov.w     #0x2700, w2
    7bd2:	3f ff 07    	rcall     0x7a52 <_EE_Read>
    7bd4:	00 00 e0    	cp0.w     w0
    7bd6:	f7 ff 34    	bra       LE, 0x7bc6 <.L89>
    7bd8:	4e 00 90    	mov.w     [w14+8], w0
    7bda:	ae 00 90    	mov.w     [w14+4], w1
    7bdc:	01 00 40    	add.w     w0, w1, w0
    7bde:	40 07 98    	mov.w     w0, [w14+8]
    7be0:	01 00 37    	bra       0x7be4 <.L91>

00007be2 <.L92>:
    7be2:	21 e1 a9    	bclr.b    0x121, #0x7

00007be4 <.L91>:
    7be4:	f0 a4 80    	mov.w     0x149e, w0
    7be6:	00 00 e0    	cp0.w     w0
    7be8:	fc ff 3a    	bra       NZ, 0x7be2 <.L92>
    7bea:	00 00 eb    	clr.w     w0
    7bec:	10 07 98    	mov.w     w0, [w14+2]
    7bee:	0b 00 37    	bra       0x7c06 <.L94>

00007bf0 <.L95>:
    7bf0:	0a 00 fc    	disi      #0xa
    7bf2:	9e 00 90    	mov.w     [w14+2], w1
    7bf4:	00 70 22    	mov.w     #0x2700, w0
    7bf6:	00 80 40    	add.w     w1, w0, w0
    7bf8:	90 40 78    	mov.b     [w0], w1
    7bfa:	1e 00 78    	mov.w     [w14], w0
    7bfc:	01 48 78    	mov.b     w1, [w0]
    7bfe:	1e 0f e8    	inc.w     [w14], [w14]
    7c00:	1e 00 90    	mov.w     [w14+2], w0
    7c02:	00 00 e8    	inc.w     w0, w0
    7c04:	10 07 98    	mov.w     w0, [w14+2]

00007c06 <.L94>:
    7c06:	9e 00 90    	mov.w     [w14+2], w1
    7c08:	2e 00 90    	mov.w     [w14+4], w0
    7c0a:	80 8f 50    	sub.w     w1, w0, [w15]
    7c0c:	f1 ff 35    	bra       LT, 0x7bf0 <.L95>
    7c0e:	be 00 90    	mov.w     [w14+6], w1
    7c10:	4e 00 90    	mov.w     [w14+8], w0
    7c12:	80 8f 50    	sub.w     w1, w0, [w15]
    7c14:	c7 ff 3e    	bra       GTU, 0x7ba4 <.L83>

00007c16 <.L97>:
    7c16:	00 80 fa    	ulnk      
    7c18:	00 00 06    	return    

00007c1a <_WriteParameters>:
    7c1a:	06 00 fa    	lnk       #0x6
    7c1c:	01 85 20    	mov.w     #0x850, w1
    7c1e:	00 00 eb    	clr.w     w0
    7c20:	b0 00 98    	mov.w     w0, [w1+6]
    7c22:	00 85 20    	mov.w     #0x850, w0
    7c24:	00 0f 78    	mov.w     w0, [w14]
    7c26:	1e 00 78    	mov.w     [w14], w0
    7c28:	68 0f 40    	add.w     w0, #0x8, [w14]
    7c2a:	00 85 20    	mov.w     #0x850, w0
    7c2c:	a0 00 90    	mov.w     [w0+4], w1
    7c2e:	00 85 20    	mov.w     #0x850, w0
    7c30:	10 00 90    	mov.w     [w0+2], w0
    7c32:	00 80 50    	sub.w     w1, w0, w0
    7c34:	68 00 50    	sub.w     w0, #0x8, w0
    7c36:	20 07 98    	mov.w     w0, [w14+4]
    7c38:	00 00 eb    	clr.w     w0
    7c3a:	10 07 98    	mov.w     w0, [w14+2]
    7c3c:	0c 00 37    	bra       0x7c56 <.L99>

00007c3e <.L100>:
    7c3e:	00 85 20    	mov.w     #0x850, w0
    7c40:	b0 00 90    	mov.w     [w0+6], w1
    7c42:	1e 00 78    	mov.w     [w14], w0
    7c44:	10 40 78    	mov.b     [w0], w0
    7c46:	00 80 fb    	ze        w0, w0
    7c48:	80 80 40    	add.w     w1, w0, w1
    7c4a:	00 85 20    	mov.w     #0x850, w0
    7c4c:	31 00 98    	mov.w     w1, [w0+6]
    7c4e:	1e 0f e8    	inc.w     [w14], [w14]
    7c50:	1e 00 90    	mov.w     [w14+2], w0
    7c52:	00 00 e8    	inc.w     w0, w0
    7c54:	10 07 98    	mov.w     w0, [w14+2]

00007c56 <.L99>:
    7c56:	9e 00 90    	mov.w     [w14+2], w1
    7c58:	2e 00 90    	mov.w     [w14+4], w0
    7c5a:	80 8f 50    	sub.w     w1, w0, [w15]
    7c5c:	f0 ff 35    	bra       LT, 0x7c3e <.L100>
    7c5e:	00 85 20    	mov.w     #0x850, w0
    7c60:	a0 00 90    	mov.w     [w0+4], w1
    7c62:	00 85 20    	mov.w     #0x850, w0
    7c64:	10 00 90    	mov.w     [w0+2], w0
    7c66:	00 80 50    	sub.w     w1, w0, w0
    7c68:	20 07 98    	mov.w     w0, [w14+4]
    7c6a:	00 85 20    	mov.w     #0x850, w0
    7c6c:	00 0f 78    	mov.w     w0, [w14]
    7c6e:	01 00 37    	bra       0x7c72 <.L102>

00007c70 <.L103>:
    7c70:	21 e1 a9    	bclr.b    0x121, #0x7

00007c72 <.L102>:
    7c72:	2e 00 90    	mov.w     [w14+4], w0
    7c74:	1e 01 78    	mov.w     [w14], w2
    7c76:	01 08 20    	mov.w     #0x80, w1
    7c78:	b6 fe 07    	rcall     0x79e6 <_EE_Write>
    7c7a:	e1 0f 40    	add.w     w0, #0x1, [w15]
    7c7c:	f9 ff 3c    	bra       GT, 0x7c70 <.L103>
    7c7e:	01 00 37    	bra       0x7c82 <.L105>

00007c80 <.L106>:
    7c80:	21 e1 a9    	bclr.b    0x121, #0x7

00007c82 <.L105>:
    7c82:	f0 a4 80    	mov.w     0x149e, w0
    7c84:	00 00 e0    	cp0.w     w0
    7c86:	fc ff 3a    	bra       NZ, 0x7c80 <.L106>
    7c88:	2e 00 90    	mov.w     [w14+4], w0
    7c8a:	10 07 98    	mov.w     w0, [w14+2]
    7c8c:	00 80 fa    	ulnk      
    7c8e:	00 00 06    	return    

00007c90 <_udb_init_EE>:
    7c90:	02 00 fa    	lnk       #0x2
    7c92:	00 00 eb    	clr.w     w0
    7c94:	00 0f 78    	mov.w     w0, [w14]
    7c96:	01 00 37    	bra       0x7c9a <.L110>

00007c98 <.L111>:
    7c98:	21 e1 a9    	bclr.b    0x121, #0x7

00007c9a <.L110>:
    7c9a:	02 70 22    	mov.w     #0x2700, w2
    7c9c:	80 00 eb    	clr.w     w1
    7c9e:	00 01 20    	mov.w     #0x10, w0
    7ca0:	d8 fe 07    	rcall     0x7a52 <_EE_Read>
    7ca2:	00 00 e0    	cp0.w     w0
    7ca4:	f9 ff 34    	bra       LE, 0x7c98 <.L111>
    7ca6:	01 00 37    	bra       0x7caa <.L113>

00007ca8 <.L114>:
    7ca8:	21 e1 a9    	bclr.b    0x121, #0x7

00007caa <.L113>:
    7caa:	f0 a4 80    	mov.w     0x149e, w0
    7cac:	00 00 e0    	cp0.w     w0
    7cae:	fc ff 3a    	bra       NZ, 0x7ca8 <.L114>
    7cb0:	00 70 22    	mov.w     #0x2700, w0
    7cb2:	90 40 78    	mov.b     [w0], w1
    7cb4:	10 c4 b3    	mov.b     #0x41, w0
    7cb6:	80 cf 50    	sub.b     w1, w0, [w15]
    7cb8:	13 00 3a    	bra       NZ, 0x7ce0 <.L116>
    7cba:	10 70 22    	mov.w     #0x2701, w0
    7cbc:	90 40 78    	mov.b     [w0], w1
    7cbe:	30 c5 b3    	mov.b     #0x53, w0
    7cc0:	80 cf 50    	sub.b     w1, w0, [w15]
    7cc2:	0e 00 3a    	bra       NZ, 0x7ce0 <.L116>
    7cc4:	20 70 22    	mov.w     #0x2702, w0
    7cc6:	90 40 78    	mov.b     [w0], w1
    7cc8:	00 c5 b3    	mov.b     #0x50, w0
    7cca:	80 cf 50    	sub.b     w1, w0, [w15]
    7ccc:	09 00 3a    	bra       NZ, 0x7ce0 <.L116>
    7cce:	30 70 22    	mov.w     #0x2703, w0
    7cd0:	90 40 78    	mov.b     [w0], w1
    7cd2:	70 c4 b3    	mov.b     #0x47, w0
    7cd4:	80 cf 50    	sub.b     w1, w0, [w15]
    7cd6:	04 00 3a    	bra       NZ, 0x7ce0 <.L116>
    7cd8:	10 00 20    	mov.w     #0x1, w0
    7cda:	00 0f 78    	mov.w     w0, [w14]
    7cdc:	f0 fe 07    	rcall     0x7abe <_ReadParameters>
    7cde:	42 00 37    	bra       0x7d64 <.L121>

00007ce0 <.L116>:
    7ce0:	01 70 22    	mov.w     #0x2700, w1
    7ce2:	00 00 eb    	clr.w     w0
    7ce4:	80 1f 78    	mov.w     w0, [w15++]
    7ce6:	10 00 20    	mov.w     #0x1, w0
    7ce8:	80 1f 78    	mov.w     w0, [w15++]
    7cea:	60 9c 29    	mov.w     #0x99c6, w0
    7cec:	80 1f 78    	mov.w     w0, [w15++]
    7cee:	01 00 78    	mov.w     w1, w0
    7cf0:	06 c3 07    	rcall     0x2fe <__isprintf>
    7cf2:	e6 87 57    	sub.w     w15, #0x6, w15
    7cf4:	00 0f 78    	mov.w     w0, [w14]
    7cf6:	01 00 37    	bra       0x7cfa <.L122>

00007cf8 <.L123>:
    7cf8:	21 e1 a9    	bclr.b    0x121, #0x7

00007cfa <.L122>:
    7cfa:	1e 00 e8    	inc.w     [w14], w0
    7cfc:	02 70 22    	mov.w     #0x2700, w2
    7cfe:	80 00 eb    	clr.w     w1
    7d00:	72 fe 07    	rcall     0x79e6 <_EE_Write>
    7d02:	e1 0f 40    	add.w     w0, #0x1, [w15]
    7d04:	f9 ff 3c    	bra       GT, 0x7cf8 <.L123>
    7d06:	01 00 37    	bra       0x7d0a <.L125>

00007d08 <.L126>:
    7d08:	21 e1 a9    	bclr.b    0x121, #0x7

00007d0a <.L125>:
    7d0a:	f0 a4 80    	mov.w     0x149e, w0
    7d0c:	00 00 e0    	cp0.w     w0
    7d0e:	fc ff 3a    	bra       NZ, 0x7d08 <.L126>
    7d10:	80 40 eb    	clr.b     w1
    7d12:	00 70 22    	mov.w     #0x2700, w0
    7d14:	01 48 78    	mov.b     w1, [w0]
    7d16:	01 00 37    	bra       0x7d1a <.L128>

00007d18 <.L129>:
    7d18:	21 e1 a9    	bclr.b    0x121, #0x7

00007d1a <.L128>:
    7d1a:	02 70 22    	mov.w     #0x2700, w2
    7d1c:	80 00 eb    	clr.w     w1
    7d1e:	00 01 20    	mov.w     #0x10, w0
    7d20:	98 fe 07    	rcall     0x7a52 <_EE_Read>
    7d22:	00 00 e0    	cp0.w     w0
    7d24:	f9 ff 34    	bra       LE, 0x7d18 <.L129>
    7d26:	01 00 37    	bra       0x7d2a <.L131>

00007d28 <.L132>:
    7d28:	21 e1 a9    	bclr.b    0x121, #0x7

00007d2a <.L131>:
    7d2a:	f0 a4 80    	mov.w     0x149e, w0
    7d2c:	00 00 e0    	cp0.w     w0
    7d2e:	fc ff 3a    	bra       NZ, 0x7d28 <.L132>
    7d30:	00 70 22    	mov.w     #0x2700, w0
    7d32:	90 40 78    	mov.b     [w0], w1
    7d34:	10 c4 b3    	mov.b     #0x41, w0
    7d36:	80 cf 50    	sub.b     w1, w0, [w15]
    7d38:	13 00 3a    	bra       NZ, 0x7d60 <.L134>
    7d3a:	10 70 22    	mov.w     #0x2701, w0
    7d3c:	90 40 78    	mov.b     [w0], w1
    7d3e:	30 c5 b3    	mov.b     #0x53, w0
    7d40:	80 cf 50    	sub.b     w1, w0, [w15]
    7d42:	0e 00 3a    	bra       NZ, 0x7d60 <.L134>
    7d44:	20 70 22    	mov.w     #0x2702, w0
    7d46:	90 40 78    	mov.b     [w0], w1
    7d48:	00 c5 b3    	mov.b     #0x50, w0
    7d4a:	80 cf 50    	sub.b     w1, w0, [w15]
    7d4c:	09 00 3a    	bra       NZ, 0x7d60 <.L134>
    7d4e:	30 70 22    	mov.w     #0x2703, w0
    7d50:	90 40 78    	mov.b     [w0], w1
    7d52:	70 c4 b3    	mov.b     #0x47, w0
    7d54:	80 cf 50    	sub.b     w1, w0, [w15]
    7d56:	04 00 3a    	bra       NZ, 0x7d60 <.L134>
    7d58:	10 00 20    	mov.w     #0x1, w0
    7d5a:	00 0f 78    	mov.w     w0, [w14]
    7d5c:	5e ff 07    	rcall     0x7c1a <_WriteParameters>
    7d5e:	02 00 37    	bra       0x7d64 <.L121>

00007d60 <.L134>:
    7d60:	00 00 eb    	clr.w     w0
    7d62:	00 0f 78    	mov.w     w0, [w14]

00007d64 <.L121>:
    7d64:	1e 00 78    	mov.w     [w14], w0
    7d66:	50 b9 88    	mov.w     w0, 0x172a
    7d68:	1e 00 78    	mov.w     [w14], w0
    7d6a:	00 80 fa    	ulnk      
    7d6c:	00 00 06    	return    

00007d6e <_crc_accumulate>:
    7d6e:	04 00 fa    	lnk       #0x4
    7d70:	00 4f 78    	mov.b     w0, [w14]
    7d72:	11 07 98    	mov.w     w1, [w14+2]
    7d74:	1e 00 90    	mov.w     [w14+2], w0
    7d76:	90 00 78    	mov.w     [w0], w1
    7d78:	1e 80 fb    	ze        [w14], w0
    7d7a:	80 80 40    	add.w     w1, w0, w1
    7d7c:	1e 00 90    	mov.w     [w14+2], w0
    7d7e:	01 08 78    	mov.w     w1, [w0]
    7d80:	00 80 fa    	ulnk      
    7d82:	00 00 06    	return    

00007d84 <_crc_init>:
    7d84:	02 00 fa    	lnk       #0x2
    7d86:	00 0f 78    	mov.w     w0, [w14]
    7d88:	9e 00 78    	mov.w     [w14], w1
    7d8a:	00 80 eb    	setm.w    w0
    7d8c:	80 08 78    	mov.w     w0, [w1]
    7d8e:	00 80 fa    	ulnk      
    7d90:	00 00 06    	return    

00007d92 <_crc_calculate>:
    7d92:	0a 00 fa    	lnk       #0xa
    7d94:	30 07 98    	mov.w     w0, [w14+6]
    7d96:	41 07 98    	mov.w     w1, [w14+8]
    7d98:	3e 00 90    	mov.w     [w14+6], w0
    7d9a:	10 07 98    	mov.w     w0, [w14+2]
    7d9c:	64 00 47    	add.w     w14, #0x4, w0
    7d9e:	f2 ff 07    	rcall     0x7d84 <_crc_init>
    7da0:	00 00 eb    	clr.w     w0
    7da2:	00 0f 78    	mov.w     w0, [w14]
    7da4:	09 00 37    	bra       0x7db8 <.L6>

00007da6 <.L7>:
    7da6:	1e 00 90    	mov.w     [w14+2], w0
    7da8:	10 41 78    	mov.b     [w0], w2
    7daa:	1e 00 90    	mov.w     [w14+2], w0
    7dac:	00 00 e8    	inc.w     w0, w0
    7dae:	10 07 98    	mov.w     w0, [w14+2]
    7db0:	e4 00 47    	add.w     w14, #0x4, w1
    7db2:	02 40 78    	mov.b     w2, w0
    7db4:	dc ff 07    	rcall     0x7d6e <_crc_accumulate>
    7db6:	1e 0f e8    	inc.w     [w14], [w14]

00007db8 <.L6>:
    7db8:	4e 00 90    	mov.w     [w14+8], w0
    7dba:	9e 0f 10    	subr.w    w0, [w14], [w15]
    7dbc:	f4 ff 35    	bra       LT, 0x7da6 <.L7>
    7dbe:	2e 00 90    	mov.w     [w14+4], w0
    7dc0:	00 80 fa    	ulnk      
    7dc2:	00 00 06    	return    

00007dc4 <_crc_calculate_msg>:
    7dc4:	0a 00 fa    	lnk       #0xa
    7dc6:	30 07 98    	mov.w     w0, [w14+6]
    7dc8:	41 07 98    	mov.w     w1, [w14+8]
    7dca:	3e 00 90    	mov.w     [w14+6], w0
    7dcc:	00 00 e8    	inc.w     w0, w0
    7dce:	10 07 98    	mov.w     w0, [w14+2]
    7dd0:	64 00 47    	add.w     w14, #0x4, w0
    7dd2:	d8 ff 07    	rcall     0x7d84 <_crc_init>
    7dd4:	00 00 eb    	clr.w     w0
    7dd6:	00 0f 78    	mov.w     w0, [w14]
    7dd8:	09 00 37    	bra       0x7dec <.L11>

00007dda <.L12>:
    7dda:	1e 00 90    	mov.w     [w14+2], w0
    7ddc:	10 41 78    	mov.b     [w0], w2
    7dde:	1e 00 90    	mov.w     [w14+2], w0
    7de0:	00 00 e8    	inc.w     w0, w0
    7de2:	10 07 98    	mov.w     w0, [w14+2]
    7de4:	e4 00 47    	add.w     w14, #0x4, w1
    7de6:	02 40 78    	mov.b     w2, w0
    7de8:	c2 ff 07    	rcall     0x7d6e <_crc_accumulate>
    7dea:	1e 0f e8    	inc.w     [w14], [w14]

00007dec <.L11>:
    7dec:	40 00 20    	mov.w     #0x4, w0
    7dee:	9e 0f 10    	subr.w    w0, [w14], [w15]
    7df0:	f4 ff 34    	bra       LE, 0x7dda <.L12>
    7df2:	3e 00 90    	mov.w     [w14+6], w0
    7df4:	68 00 40    	add.w     w0, #0x8, w0
    7df6:	10 07 98    	mov.w     w0, [w14+2]
    7df8:	09 00 37    	bra       0x7e0c <.L14>

00007dfa <.L15>:
    7dfa:	1e 00 90    	mov.w     [w14+2], w0
    7dfc:	10 41 78    	mov.b     [w0], w2
    7dfe:	1e 00 90    	mov.w     [w14+2], w0
    7e00:	00 00 e8    	inc.w     w0, w0
    7e02:	10 07 98    	mov.w     w0, [w14+2]
    7e04:	e4 00 47    	add.w     w14, #0x4, w1
    7e06:	02 40 78    	mov.b     w2, w0
    7e08:	b2 ff 07    	rcall     0x7d6e <_crc_accumulate>
    7e0a:	1e 0f e8    	inc.w     [w14], [w14]

00007e0c <.L14>:
    7e0c:	4e 00 90    	mov.w     [w14+8], w0
    7e0e:	9e 0f 10    	subr.w    w0, [w14], [w15]
    7e10:	f4 ff 35    	bra       LT, 0x7dfa <.L15>
    7e12:	2e 00 90    	mov.w     [w14+4], w0
    7e14:	00 80 fa    	ulnk      
    7e16:	00 00 06    	return    

00007e18 <_mavlink_parse_state_initialize>:
    7e18:	02 00 fa    	lnk       #0x2
    7e1a:	00 0f 78    	mov.w     w0, [w14]
    7e1c:	1e 00 78    	mov.w     [w14], w0
    7e1e:	30 00 90    	mov.w     [w0+6], w0
    7e20:	00 00 e0    	cp0.w     w0
    7e22:	04 00 32    	bra       Z, 0x7e2c <.L19>
    7e24:	1e 00 78    	mov.w     [w14], w0
    7e26:	30 00 90    	mov.w     [w0+6], w0
    7e28:	e9 0f 50    	sub.w     w0, #0x9, [w15]
    7e2a:	21 00 36    	bra       LEU, 0x7e6e <.L22>

00007e2c <.L19>:
    7e2c:	9e 00 78    	mov.w     [w14], w1
    7e2e:	00 40 eb    	clr.b     w0
    7e30:	80 48 78    	mov.b     w0, [w1]
    7e32:	9e 00 78    	mov.w     [w14], w1
    7e34:	00 40 eb    	clr.b     w0
    7e36:	90 40 98    	mov.b     w0, [w1+1]
    7e38:	9e 00 78    	mov.w     [w14], w1
    7e3a:	00 40 eb    	clr.b     w0
    7e3c:	a0 40 98    	mov.b     w0, [w1+2]
    7e3e:	9e 00 78    	mov.w     [w14], w1
    7e40:	00 40 eb    	clr.b     w0
    7e42:	b0 40 98    	mov.b     w0, [w1+3]
    7e44:	9e 00 78    	mov.w     [w14], w1
    7e46:	00 40 eb    	clr.b     w0
    7e48:	c0 40 98    	mov.b     w0, [w1+4]
    7e4a:	9e 00 78    	mov.w     [w14], w1
    7e4c:	00 00 eb    	clr.w     w0
    7e4e:	b0 00 98    	mov.w     w0, [w1+6]
    7e50:	9e 00 78    	mov.w     [w14], w1
    7e52:	00 40 eb    	clr.b     w0
    7e54:	80 48 98    	mov.b     w0, [w1+8]
    7e56:	9e 00 78    	mov.w     [w14], w1
    7e58:	00 00 eb    	clr.w     w0
    7e5a:	f0 00 98    	mov.w     w0, [w1+14]
    7e5c:	9e 00 78    	mov.w     [w14], w1
    7e5e:	00 00 eb    	clr.w     w0
    7e60:	e0 00 98    	mov.w     w0, [w1+12]
    7e62:	9e 00 78    	mov.w     [w14], w1
    7e64:	00 40 eb    	clr.b     w0
    7e66:	90 48 98    	mov.b     w0, [w1+9]
    7e68:	9e 00 78    	mov.w     [w14], w1
    7e6a:	00 40 eb    	clr.b     w0
    7e6c:	a0 48 98    	mov.b     w0, [w1+10]

00007e6e <.L22>:
    7e6e:	00 80 fa    	ulnk      
    7e70:	00 00 06    	return    

00007e72 <_mavlink_get_channel_status>:
    7e72:	02 00 fa    	lnk       #0x2
    7e74:	00 4f 78    	mov.b     w0, [w14]
    7e76:	1e 80 fb    	ze        [w14], w0
    7e78:	44 00 dd    	sl.w      w0, #0x4, w0
    7e7a:	80 00 78    	mov.w     w0, w1
    7e7c:	e0 7e 21    	mov.w     #0x17ee, w0
    7e7e:	00 80 40    	add.w     w1, w0, w0
    7e80:	00 80 fa    	ulnk      
    7e82:	00 00 06    	return    

00007e84 <_mavlink_finalize_message>:
    7e84:	08 00 fa    	lnk       #0x8
    7e86:	88 1f 78    	mov.w     w8, [w15++]
    7e88:	10 07 98    	mov.w     w0, [w14+2]
    7e8a:	41 47 98    	mov.b     w1, [w14+4]
    7e8c:	52 47 98    	mov.b     w2, [w14+5]
    7e8e:	33 07 98    	mov.w     w3, [w14+6]
    7e90:	3e 00 90    	mov.w     [w14+6], w0
    7e92:	80 40 78    	mov.b     w0, w1
    7e94:	1e 00 90    	mov.w     [w14+2], w0
    7e96:	11 40 98    	mov.b     w1, [w0+1]
    7e98:	1e 00 90    	mov.w     [w14+2], w0
    7e9a:	ce 40 90    	mov.b     [w14+4], w1
    7e9c:	31 40 98    	mov.b     w1, [w0+3]
    7e9e:	1e 00 90    	mov.w     [w14+2], w0
    7ea0:	de 40 90    	mov.b     [w14+5], w1
    7ea2:	41 40 98    	mov.b     w1, [w0+4]
    7ea4:	00 40 eb    	clr.b     w0
    7ea6:	e5 ff 07    	rcall     0x7e72 <_mavlink_get_channel_status>
    7ea8:	a0 48 90    	mov.b     [w0+10], w1
    7eaa:	1e 00 90    	mov.w     [w14+2], w0
    7eac:	21 40 98    	mov.b     w1, [w0+2]
    7eae:	00 40 eb    	clr.b     w0
    7eb0:	e0 ff 07    	rcall     0x7e72 <_mavlink_get_channel_status>
    7eb2:	00 04 78    	mov.w     w0, w8
    7eb4:	00 40 eb    	clr.b     w0
    7eb6:	dd ff 07    	rcall     0x7e72 <_mavlink_get_channel_status>
    7eb8:	20 48 90    	mov.b     [w0+10], w0
    7eba:	00 40 e8    	inc.b     w0, w0
    7ebc:	20 4c 98    	mov.b     w0, [w8+10]
    7ebe:	3e 00 90    	mov.w     [w14+6], w0
    7ec0:	65 00 40    	add.w     w0, #0x5, w0
    7ec2:	80 00 78    	mov.w     w0, w1
    7ec4:	1e 00 90    	mov.w     [w14+2], w0
    7ec6:	7e ff 07    	rcall     0x7dc4 <_crc_calculate_msg>
    7ec8:	00 0f 78    	mov.w     w0, [w14]
    7eca:	1e 00 78    	mov.w     [w14], w0
    7ecc:	80 40 78    	mov.b     w0, w1
    7ece:	1e 00 90    	mov.w     [w14+2], w0
    7ed0:	61 40 98    	mov.b     w1, [w0+6]
    7ed2:	1e 00 78    	mov.w     [w14], w0
    7ed4:	48 00 de    	lsr.w     w0, #0x8, w0
    7ed6:	80 40 78    	mov.b     w0, w1
    7ed8:	1e 00 90    	mov.w     [w14+2], w0
    7eda:	71 40 98    	mov.b     w1, [w0+7]
    7edc:	3e 00 90    	mov.w     [w14+6], w0
    7ede:	67 00 40    	add.w     w0, #0x7, w0
    7ee0:	4f 04 78    	mov.w     [--w15], w8
    7ee2:	00 80 fa    	ulnk      
    7ee4:	00 00 06    	return    

00007ee6 <_mavlink_finalize_message_chan>:
    7ee6:	0a 00 fa    	lnk       #0xa
    7ee8:	88 1f 78    	mov.w     w8, [w15++]
    7eea:	10 07 98    	mov.w     w0, [w14+2]
    7eec:	41 47 98    	mov.b     w1, [w14+4]
    7eee:	52 47 98    	mov.b     w2, [w14+5]
    7ef0:	63 47 98    	mov.b     w3, [w14+6]
    7ef2:	44 07 98    	mov.w     w4, [w14+8]
    7ef4:	4e 00 90    	mov.w     [w14+8], w0
    7ef6:	80 40 78    	mov.b     w0, w1
    7ef8:	1e 00 90    	mov.w     [w14+2], w0
    7efa:	11 40 98    	mov.b     w1, [w0+1]
    7efc:	1e 00 90    	mov.w     [w14+2], w0
    7efe:	ce 40 90    	mov.b     [w14+4], w1
    7f00:	31 40 98    	mov.b     w1, [w0+3]
    7f02:	1e 00 90    	mov.w     [w14+2], w0
    7f04:	de 40 90    	mov.b     [w14+5], w1
    7f06:	41 40 98    	mov.b     w1, [w0+4]
    7f08:	6e 40 90    	mov.b     [w14+6], w0
    7f0a:	b3 ff 07    	rcall     0x7e72 <_mavlink_get_channel_status>
    7f0c:	a0 48 90    	mov.b     [w0+10], w1
    7f0e:	1e 00 90    	mov.w     [w14+2], w0
    7f10:	21 40 98    	mov.b     w1, [w0+2]
    7f12:	6e 40 90    	mov.b     [w14+6], w0
    7f14:	ae ff 07    	rcall     0x7e72 <_mavlink_get_channel_status>
    7f16:	00 04 78    	mov.w     w0, w8
    7f18:	6e 40 90    	mov.b     [w14+6], w0
    7f1a:	ab ff 07    	rcall     0x7e72 <_mavlink_get_channel_status>
    7f1c:	20 48 90    	mov.b     [w0+10], w0
    7f1e:	00 40 e8    	inc.b     w0, w0
    7f20:	20 4c 98    	mov.b     w0, [w8+10]
    7f22:	4e 00 90    	mov.w     [w14+8], w0
    7f24:	65 00 40    	add.w     w0, #0x5, w0
    7f26:	80 00 78    	mov.w     w0, w1
    7f28:	1e 00 90    	mov.w     [w14+2], w0
    7f2a:	4c ff 07    	rcall     0x7dc4 <_crc_calculate_msg>
    7f2c:	00 0f 78    	mov.w     w0, [w14]
    7f2e:	1e 00 78    	mov.w     [w14], w0
    7f30:	80 40 78    	mov.b     w0, w1
    7f32:	1e 00 90    	mov.w     [w14+2], w0
    7f34:	61 40 98    	mov.b     w1, [w0+6]
    7f36:	1e 00 78    	mov.w     [w14], w0
    7f38:	48 00 de    	lsr.w     w0, #0x8, w0
    7f3a:	80 40 78    	mov.b     w0, w1
    7f3c:	1e 00 90    	mov.w     [w14+2], w0
    7f3e:	71 40 98    	mov.b     w1, [w0+7]
    7f40:	4e 00 90    	mov.w     [w14+8], w0
    7f42:	67 00 40    	add.w     w0, #0x7, w0
    7f44:	4f 04 78    	mov.w     [--w15], w8
    7f46:	00 80 fa    	ulnk      
    7f48:	00 00 06    	return    

00007f4a <_mavlink_msg_to_send_buffer>:
    7f4a:	04 00 fa    	lnk       #0x4
    7f4c:	00 0f 78    	mov.w     w0, [w14]
    7f4e:	11 07 98    	mov.w     w1, [w14+2]
    7f50:	9e 00 78    	mov.w     [w14], w1
    7f52:	50 c5 b3    	mov.b     #0x55, w0
    7f54:	80 48 78    	mov.b     w0, [w1]
    7f56:	1e 00 90    	mov.w     [w14+2], w0
    7f58:	10 40 90    	mov.b     [w0+1], w0
    7f5a:	00 80 fb    	ze        w0, w0
    7f5c:	65 00 40    	add.w     w0, #0x5, w0
    7f5e:	00 01 78    	mov.w     w0, w2
    7f60:	1e 00 e8    	inc.w     [w14], w0
    7f62:	9e 00 90    	mov.w     [w14+2], w1
    7f64:	ef c1 07    	rcall     0x344 <_memcpy>
    7f66:	1e 00 90    	mov.w     [w14+2], w0
    7f68:	10 40 90    	mov.b     [w0+1], w0
    7f6a:	00 80 fb    	ze        w0, w0
    7f6c:	1e 00 40    	add.w     w0, [w14], w0
    7f6e:	e6 00 40    	add.w     w0, #0x6, w1
    7f70:	1e 00 90    	mov.w     [w14+2], w0
    7f72:	60 40 90    	mov.b     [w0+6], w0
    7f74:	80 48 78    	mov.b     w0, [w1]
    7f76:	1e 00 90    	mov.w     [w14+2], w0
    7f78:	10 40 90    	mov.b     [w0+1], w0
    7f7a:	00 80 fb    	ze        w0, w0
    7f7c:	1e 00 40    	add.w     w0, [w14], w0
    7f7e:	e7 00 40    	add.w     w0, #0x7, w1
    7f80:	1e 00 90    	mov.w     [w14+2], w0
    7f82:	70 40 90    	mov.b     [w0+7], w0
    7f84:	80 48 78    	mov.b     w0, [w1]
    7f86:	1e 00 90    	mov.w     [w14+2], w0
    7f88:	10 40 90    	mov.b     [w0+1], w0
    7f8a:	00 80 fb    	ze        w0, w0
    7f8c:	68 00 40    	add.w     w0, #0x8, w0
    7f8e:	00 80 fa    	ulnk      
    7f90:	00 00 06    	return    

00007f92 <_mavlink_msg_get_send_buffer_length>:
    7f92:	02 00 fa    	lnk       #0x2
    7f94:	00 0f 78    	mov.w     w0, [w14]
    7f96:	1e 00 78    	mov.w     [w14], w0
    7f98:	10 40 90    	mov.b     [w0+1], w0
    7f9a:	00 80 fb    	ze        w0, w0
    7f9c:	68 00 40    	add.w     w0, #0x8, w0
    7f9e:	00 80 fa    	ulnk      
    7fa0:	00 00 06    	return    

00007fa2 <_mavlink_start_checksum>:
    7fa2:	04 00 fa    	lnk       #0x4
    7fa4:	10 07 98    	mov.w     w0, [w14+2]
    7fa6:	0e 00 78    	mov.w     w14, w0
    7fa8:	ed fe 07    	rcall     0x7d84 <_crc_init>
    7faa:	9e 40 78    	mov.b     [w14], w1
    7fac:	1e 00 90    	mov.w     [w14+2], w0
    7fae:	61 40 98    	mov.b     w1, [w0+6]
    7fb0:	9e 40 90    	mov.b     [w14+1], w1
    7fb2:	1e 00 90    	mov.w     [w14+2], w0
    7fb4:	71 40 98    	mov.b     w1, [w0+7]
    7fb6:	00 80 fa    	ulnk      
    7fb8:	00 00 06    	return    

00007fba <_mavlink_update_checksum>:
    7fba:	06 00 fa    	lnk       #0x6
    7fbc:	10 07 98    	mov.w     w0, [w14+2]
    7fbe:	41 47 98    	mov.b     w1, [w14+4]
    7fc0:	1e 00 90    	mov.w     [w14+2], w0
    7fc2:	60 40 90    	mov.b     [w0+6], w0
    7fc4:	00 4f 78    	mov.b     w0, [w14]
    7fc6:	1e 00 90    	mov.w     [w14+2], w0
    7fc8:	70 40 90    	mov.b     [w0+7], w0
    7fca:	10 47 98    	mov.b     w0, [w14+1]
    7fcc:	8e 00 78    	mov.w     w14, w1
    7fce:	4e 40 90    	mov.b     [w14+4], w0
    7fd0:	ce fe 07    	rcall     0x7d6e <_crc_accumulate>
    7fd2:	9e 40 78    	mov.b     [w14], w1
    7fd4:	1e 00 90    	mov.w     [w14+2], w0
    7fd6:	61 40 98    	mov.b     w1, [w0+6]
    7fd8:	9e 40 90    	mov.b     [w14+1], w1
    7fda:	1e 00 90    	mov.w     [w14+2], w0
    7fdc:	71 40 98    	mov.b     w1, [w0+7]
    7fde:	00 80 fa    	ulnk      
    7fe0:	00 00 06    	return    

00007fe2 <_mavlink_parse_char>:
    7fe2:	10 00 fa    	lnk       #0x10
    7fe4:	60 47 98    	mov.b     w0, [w14+6]
    7fe6:	71 47 98    	mov.b     w1, [w14+7]
    7fe8:	42 07 98    	mov.w     w2, [w14+8]
    7fea:	53 07 98    	mov.w     w3, [w14+10]
    7fec:	6e 40 90    	mov.b     [w14+6], w0
    7fee:	41 ff 07    	rcall     0x7e72 <_mavlink_get_channel_status>
    7ff0:	13 ff 07    	rcall     0x7e18 <_mavlink_parse_state_initialize>
    7ff2:	6e 40 90    	mov.b     [w14+6], w0
    7ff4:	80 80 fb    	ze        w0, w1
    7ff6:	70 10 20    	mov.w     #0x107, w0
    7ff8:	00 88 b9    	mul.ss    w1, w0, w0
    7ffa:	80 00 78    	mov.w     w0, w1
    7ffc:	e0 82 21    	mov.w     #0x182e, w0
    7ffe:	00 80 40    	add.w     w1, w0, w0
    8000:	20 07 98    	mov.w     w0, [w14+4]
    8002:	6e 40 90    	mov.b     [w14+6], w0
    8004:	36 ff 07    	rcall     0x7e72 <_mavlink_get_channel_status>
    8006:	10 07 98    	mov.w     w0, [w14+2]
    8008:	00 00 eb    	clr.w     w0
    800a:	00 0f 78    	mov.w     w0, [w14]
    800c:	9e 00 90    	mov.w     [w14+2], w1
    800e:	00 40 eb    	clr.b     w0
    8010:	a0 40 98    	mov.b     w0, [w1+2]
    8012:	1e 00 90    	mov.w     [w14+2], w0
    8014:	30 00 90    	mov.w     [w0+6], w0
    8016:	61 01 b8    	mul.uu    w0, #0x1, w2
    8018:	62 07 98    	mov.w     w2, [w14+12]
    801a:	73 07 98    	mov.w     w3, [w14+14]
    801c:	90 00 20    	mov.w     #0x9, w0
    801e:	01 00 20    	mov.w     #0x0, w1
    8020:	6e 01 90    	mov.w     [w14+12], w2
    8022:	fe 01 90    	mov.w     [w14+14], w3
    8024:	80 0f 51    	sub.w     w2, w0, [w15]
    8026:	81 8f 59    	subb.w    w3, w1, [w15]
    8028:	c4 00 3e    	bra       GTU, 0x81b2 <.L38>
    802a:	6e 00 90    	mov.w     [w14+12], w0
    802c:	fe 00 90    	mov.w     [w14+14], w1
    802e:	00 60 01    	bra       w0
    8030:	09 00 37    	bra       0x8044 <.L39>
    8032:	08 00 37    	bra       0x8044 <.L39>
    8034:	11 00 37    	bra       0x8058 <.L40>
    8036:	3c 00 37    	bra       0x80b0 <.L41>
    8038:	31 00 37    	bra       0x809c <.L42>
    803a:	44 00 37    	bra       0x80c4 <.L43>
    803c:	4d 00 37    	bra       0x80d8 <.L44>
    803e:	5e 00 37    	bra       0x80fc <.L45>
    8040:	74 00 37    	bra       0x812a <.L46>
    8042:	91 00 37    	bra       0x8166 <.L47>

00008044 <.L39>:
    8044:	fe 40 90    	mov.b     [w14+7], w1
    8046:	50 c5 b3    	mov.b     #0x55, w0
    8048:	80 cf 50    	sub.b     w1, w0, [w15]
    804a:	b3 00 3a    	bra       NZ, 0x81b2 <.L38>
    804c:	9e 00 90    	mov.w     [w14+2], w1
    804e:	20 00 20    	mov.w     #0x2, w0
    8050:	b0 00 98    	mov.w     w0, [w1+6]
    8052:	2e 00 90    	mov.w     [w14+4], w0
    8054:	a6 ff 07    	rcall     0x7fa2 <_mavlink_start_checksum>
    8056:	ad 00 37    	bra       0x81b2 <.L38>

00008058 <.L40>:
    8058:	1e 00 90    	mov.w     [w14+2], w0
    805a:	20 40 90    	mov.b     [w0+2], w0
    805c:	00 04 e0    	cp0.b     w0
    805e:	11 00 32    	bra       Z, 0x8082 <.L51>
    8060:	1e 00 90    	mov.w     [w14+2], w0
    8062:	30 40 90    	mov.b     [w0+3], w0
    8064:	80 40 e8    	inc.b     w0, w1
    8066:	1e 00 90    	mov.w     [w14+2], w0
    8068:	31 40 98    	mov.b     w1, [w0+3]
    806a:	1e 00 90    	mov.w     [w14+2], w0
    806c:	40 40 90    	mov.b     [w0+4], w0
    806e:	80 40 e8    	inc.b     w0, w1
    8070:	1e 00 90    	mov.w     [w14+2], w0
    8072:	41 40 98    	mov.b     w1, [w0+4]
    8074:	9e 00 90    	mov.w     [w14+2], w1
    8076:	00 40 eb    	clr.b     w0
    8078:	a0 40 98    	mov.b     w0, [w1+2]
    807a:	9e 00 90    	mov.w     [w14+2], w1
    807c:	10 00 20    	mov.w     #0x1, w0
    807e:	b0 00 98    	mov.w     w0, [w1+6]
    8080:	98 00 37    	bra       0x81b2 <.L38>

00008082 <.L51>:
    8082:	2e 00 90    	mov.w     [w14+4], w0
    8084:	fe 40 90    	mov.b     [w14+7], w1
    8086:	11 40 98    	mov.b     w1, [w0+1]
    8088:	9e 00 90    	mov.w     [w14+2], w1
    808a:	00 40 eb    	clr.b     w0
    808c:	80 48 98    	mov.b     w0, [w1+8]
    808e:	fe 40 90    	mov.b     [w14+7], w1
    8090:	2e 00 90    	mov.w     [w14+4], w0
    8092:	93 ff 07    	rcall     0x7fba <_mavlink_update_checksum>
    8094:	9e 00 90    	mov.w     [w14+2], w1
    8096:	40 00 20    	mov.w     #0x4, w0
    8098:	b0 00 98    	mov.w     w0, [w1+6]
    809a:	8b 00 37    	bra       0x81b2 <.L38>

0000809c <.L42>:
    809c:	2e 00 90    	mov.w     [w14+4], w0
    809e:	7e 41 90    	mov.b     [w14+7], w2
    80a0:	22 40 98    	mov.b     w2, [w0+2]
    80a2:	fe 40 90    	mov.b     [w14+7], w1
    80a4:	2e 00 90    	mov.w     [w14+4], w0
    80a6:	89 ff 07    	rcall     0x7fba <_mavlink_update_checksum>
    80a8:	9e 00 90    	mov.w     [w14+2], w1
    80aa:	30 00 20    	mov.w     #0x3, w0
    80ac:	b0 00 98    	mov.w     w0, [w1+6]
    80ae:	81 00 37    	bra       0x81b2 <.L38>

000080b0 <.L41>:
    80b0:	2e 00 90    	mov.w     [w14+4], w0
    80b2:	fe 41 90    	mov.b     [w14+7], w3
    80b4:	33 40 98    	mov.b     w3, [w0+3]
    80b6:	fe 40 90    	mov.b     [w14+7], w1
    80b8:	2e 00 90    	mov.w     [w14+4], w0
    80ba:	7f ff 07    	rcall     0x7fba <_mavlink_update_checksum>
    80bc:	9e 00 90    	mov.w     [w14+2], w1
    80be:	50 00 20    	mov.w     #0x5, w0
    80c0:	b0 00 98    	mov.w     w0, [w1+6]
    80c2:	77 00 37    	bra       0x81b2 <.L38>

000080c4 <.L43>:
    80c4:	2e 00 90    	mov.w     [w14+4], w0
    80c6:	fe 40 90    	mov.b     [w14+7], w1
    80c8:	41 40 98    	mov.b     w1, [w0+4]
    80ca:	fe 40 90    	mov.b     [w14+7], w1
    80cc:	2e 00 90    	mov.w     [w14+4], w0
    80ce:	75 ff 07    	rcall     0x7fba <_mavlink_update_checksum>
    80d0:	9e 00 90    	mov.w     [w14+2], w1
    80d2:	60 00 20    	mov.w     #0x6, w0
    80d4:	b0 00 98    	mov.w     w0, [w1+6]
    80d6:	6d 00 37    	bra       0x81b2 <.L38>

000080d8 <.L44>:
    80d8:	2e 00 90    	mov.w     [w14+4], w0
    80da:	7e 41 90    	mov.b     [w14+7], w2
    80dc:	52 40 98    	mov.b     w2, [w0+5]
    80de:	fe 40 90    	mov.b     [w14+7], w1
    80e0:	2e 00 90    	mov.w     [w14+4], w0
    80e2:	6b ff 07    	rcall     0x7fba <_mavlink_update_checksum>
    80e4:	2e 00 90    	mov.w     [w14+4], w0
    80e6:	10 40 90    	mov.b     [w0+1], w0
    80e8:	00 04 e0    	cp0.b     w0
    80ea:	04 00 3a    	bra       NZ, 0x80f4 <.L54>
    80ec:	9e 00 90    	mov.w     [w14+2], w1
    80ee:	80 00 20    	mov.w     #0x8, w0
    80f0:	b0 00 98    	mov.w     w0, [w1+6]
    80f2:	5f 00 37    	bra       0x81b2 <.L38>

000080f4 <.L54>:
    80f4:	9e 00 90    	mov.w     [w14+2], w1
    80f6:	70 00 20    	mov.w     #0x7, w0
    80f8:	b0 00 98    	mov.w     w0, [w1+6]
    80fa:	5b 00 37    	bra       0x81b2 <.L38>

000080fc <.L45>:
    80fc:	1e 00 90    	mov.w     [w14+2], w0
    80fe:	00 49 90    	mov.b     [w0+8], w2
    8100:	02 80 fb    	ze        w2, w0
    8102:	ae 00 90    	mov.w     [w14+4], w1
    8104:	68 00 40    	add.w     w0, #0x8, w0
    8106:	fe 41 90    	mov.b     [w14+7], w3
    8108:	03 f0 78    	mov.b     w3, [w0+w1]
    810a:	82 40 e8    	inc.b     w2, w1
    810c:	1e 00 90    	mov.w     [w14+2], w0
    810e:	01 48 98    	mov.b     w1, [w0+8]
    8110:	fe 40 90    	mov.b     [w14+7], w1
    8112:	2e 00 90    	mov.w     [w14+4], w0
    8114:	52 ff 07    	rcall     0x7fba <_mavlink_update_checksum>
    8116:	1e 00 90    	mov.w     [w14+2], w0
    8118:	80 48 90    	mov.b     [w0+8], w1
    811a:	2e 00 90    	mov.w     [w14+4], w0
    811c:	10 40 90    	mov.b     [w0+1], w0
    811e:	80 cf 50    	sub.b     w1, w0, [w15]
    8120:	48 00 3a    	bra       NZ, 0x81b2 <.L38>
    8122:	9e 00 90    	mov.w     [w14+2], w1
    8124:	80 00 20    	mov.w     #0x8, w0
    8126:	b0 00 98    	mov.w     w0, [w1+6]
    8128:	44 00 37    	bra       0x81b2 <.L38>

0000812a <.L46>:
    812a:	2e 00 90    	mov.w     [w14+4], w0
    812c:	e0 40 90    	mov.b     [w0+6], w1
    812e:	7e 40 90    	mov.b     [w14+7], w0
    8130:	80 cf 50    	sub.b     w1, w0, [w15]
    8132:	15 00 32    	bra       Z, 0x815e <.L59>
    8134:	1e 00 90    	mov.w     [w14+2], w0
    8136:	40 40 90    	mov.b     [w0+4], w0
    8138:	80 40 e8    	inc.b     w0, w1
    813a:	1e 00 90    	mov.w     [w14+2], w0
    813c:	41 40 98    	mov.b     w1, [w0+4]
    813e:	9e 00 90    	mov.w     [w14+2], w1
    8140:	00 40 eb    	clr.b     w0
    8142:	a0 40 98    	mov.b     w0, [w1+2]
    8144:	9e 00 90    	mov.w     [w14+2], w1
    8146:	10 00 20    	mov.w     #0x1, w0
    8148:	b0 00 98    	mov.w     w0, [w1+6]
    814a:	fe 40 90    	mov.b     [w14+7], w1
    814c:	50 c5 b3    	mov.b     #0x55, w0
    814e:	80 cf 50    	sub.b     w1, w0, [w15]
    8150:	30 00 3a    	bra       NZ, 0x81b2 <.L38>
    8152:	9e 00 90    	mov.w     [w14+2], w1
    8154:	20 00 20    	mov.w     #0x2, w0
    8156:	b0 00 98    	mov.w     w0, [w1+6]
    8158:	2e 00 90    	mov.w     [w14+4], w0
    815a:	23 ff 07    	rcall     0x7fa2 <_mavlink_start_checksum>
    815c:	2a 00 37    	bra       0x81b2 <.L38>

0000815e <.L59>:
    815e:	9e 00 90    	mov.w     [w14+2], w1
    8160:	90 00 20    	mov.w     #0x9, w0
    8162:	b0 00 98    	mov.w     w0, [w1+6]
    8164:	26 00 37    	bra       0x81b2 <.L38>

00008166 <.L47>:
    8166:	2e 00 90    	mov.w     [w14+4], w0
    8168:	f0 40 90    	mov.b     [w0+7], w1
    816a:	7e 40 90    	mov.b     [w14+7], w0
    816c:	80 cf 50    	sub.b     w1, w0, [w15]
    816e:	15 00 32    	bra       Z, 0x819a <.L64>
    8170:	1e 00 90    	mov.w     [w14+2], w0
    8172:	40 40 90    	mov.b     [w0+4], w0
    8174:	80 40 e8    	inc.b     w0, w1
    8176:	1e 00 90    	mov.w     [w14+2], w0
    8178:	41 40 98    	mov.b     w1, [w0+4]
    817a:	9e 00 90    	mov.w     [w14+2], w1
    817c:	00 40 eb    	clr.b     w0
    817e:	a0 40 98    	mov.b     w0, [w1+2]
    8180:	9e 00 90    	mov.w     [w14+2], w1
    8182:	10 00 20    	mov.w     #0x1, w0
    8184:	b0 00 98    	mov.w     w0, [w1+6]
    8186:	fe 40 90    	mov.b     [w14+7], w1
    8188:	50 c5 b3    	mov.b     #0x55, w0
    818a:	80 cf 50    	sub.b     w1, w0, [w15]
    818c:	12 00 3a    	bra       NZ, 0x81b2 <.L38>
    818e:	9e 00 90    	mov.w     [w14+2], w1
    8190:	20 00 20    	mov.w     #0x2, w0
    8192:	b0 00 98    	mov.w     w0, [w1+6]
    8194:	2e 00 90    	mov.w     [w14+4], w0
    8196:	05 ff 07    	rcall     0x7fa2 <_mavlink_start_checksum>
    8198:	0c 00 37    	bra       0x81b2 <.L38>

0000819a <.L64>:
    819a:	9e 00 90    	mov.w     [w14+2], w1
    819c:	10 c0 b3    	mov.b     #0x1, w0
    819e:	a0 40 98    	mov.b     w0, [w1+2]
    81a0:	9e 00 90    	mov.w     [w14+2], w1
    81a2:	10 00 20    	mov.w     #0x1, w0
    81a4:	b0 00 98    	mov.w     w0, [w1+6]
    81a6:	ce 00 90    	mov.w     [w14+8], w1
    81a8:	2e 00 90    	mov.w     [w14+4], w0
    81aa:	06 01 09    	repeat    #0x106
    81ac:	b0 58 78    	mov.b     [w0++], [w1++]
    81ae:	71 10 b1    	sub.w     #0x107, w1
    81b0:	70 10 b1    	sub.w     #0x107, w0

000081b2 <.L38>:
    81b2:	1e 0f e8    	inc.w     [w14], [w14]
    81b4:	1e 00 90    	mov.w     [w14+2], w0
    81b6:	20 40 90    	mov.b     [w0+2], w0
    81b8:	e1 4f 50    	sub.b     w0, #0x1, [w15]
    81ba:	10 00 3a    	bra       NZ, 0x81dc <.L68>
    81bc:	2e 00 90    	mov.w     [w14+4], w0
    81be:	a0 40 90    	mov.b     [w0+2], w1
    81c0:	1e 00 90    	mov.w     [w14+2], w0
    81c2:	11 48 98    	mov.b     w1, [w0+9]
    81c4:	1e 00 90    	mov.w     [w14+2], w0
    81c6:	60 00 90    	mov.w     [w0+12], w0
    81c8:	00 00 e0    	cp0.w     w0
    81ca:	03 00 3a    	bra       NZ, 0x81d2 <.L70>
    81cc:	9e 00 90    	mov.w     [w14+2], w1
    81ce:	00 00 eb    	clr.w     w0
    81d0:	f0 00 98    	mov.w     w0, [w1+14]

000081d2 <.L70>:
    81d2:	1e 00 90    	mov.w     [w14+2], w0
    81d4:	60 00 90    	mov.w     [w0+12], w0
    81d6:	80 00 e8    	inc.w     w0, w1
    81d8:	1e 00 90    	mov.w     [w14+2], w0
    81da:	61 00 98    	mov.w     w1, [w0+12]

000081dc <.L68>:
    81dc:	1e 00 90    	mov.w     [w14+2], w0
    81de:	10 48 90    	mov.b     [w0+9], w0
    81e0:	00 40 e8    	inc.b     w0, w0
    81e2:	80 40 78    	mov.b     w0, w1
    81e4:	5e 00 90    	mov.w     [w14+10], w0
    81e6:	11 48 98    	mov.b     w1, [w0+9]
    81e8:	1e 00 90    	mov.w     [w14+2], w0
    81ea:	e0 00 90    	mov.w     [w0+12], w1
    81ec:	5e 00 90    	mov.w     [w14+10], w0
    81ee:	61 00 98    	mov.w     w1, [w0+12]
    81f0:	1e 00 90    	mov.w     [w14+2], w0
    81f2:	40 40 90    	mov.b     [w0+4], w0
    81f4:	80 80 fb    	ze        w0, w1
    81f6:	5e 00 90    	mov.w     [w14+10], w0
    81f8:	71 00 98    	mov.w     w1, [w0+14]
    81fa:	9e 00 90    	mov.w     [w14+2], w1
    81fc:	00 40 eb    	clr.b     w0
    81fe:	c0 40 98    	mov.b     w0, [w1+4]
    8200:	1e 00 90    	mov.w     [w14+2], w0
    8202:	20 40 90    	mov.b     [w0+2], w0
    8204:	00 80 fb    	ze        w0, w0
    8206:	00 80 fa    	ulnk      
    8208:	00 00 06    	return    

0000820a <_udb_init_gyros>:
    820a:	02 00 fa    	lnk       #0x2
    820c:	e5 a2 a9    	bclr.b    0x2e5, #0x5
    820e:	e5 c2 bf    	mov.b     0x2e5, WREG
    8210:	00 80 fb    	ze        w0, w0
    8212:	45 00 de    	lsr.w     w0, #0x5, w0
    8214:	61 40 60    	and.b     w0, #0x1, w0
    8216:	61 40 60    	and.b     w0, #0x1, w0
    8218:	44 01 dd    	sl.w      w0, #0x4, w2
    821a:	51 2e 20    	mov.w     #0x2e5, w1
    821c:	91 40 78    	mov.b     [w1], w1
    821e:	f0 ce b3    	mov.b     #0xef, w0
    8220:	00 c0 60    	and.b     w1, w0, w0
    8222:	02 40 70    	ior.b     w0, w2, w0
    8224:	e5 e2 b7    	mov.b     WREG, 0x2e5
    8226:	e9 a2 a9    	bclr.b    0x2e9, #0x5
    8228:	e9 c2 bf    	mov.b     0x2e9, WREG
    822a:	00 80 fb    	ze        w0, w0
    822c:	45 00 de    	lsr.w     w0, #0x5, w0
    822e:	61 40 60    	and.b     w0, #0x1, w0
    8230:	61 40 60    	and.b     w0, #0x1, w0
    8232:	44 01 dd    	sl.w      w0, #0x4, w2
    8234:	91 2e 20    	mov.w     #0x2e9, w1
    8236:	91 40 78    	mov.b     [w1], w1
    8238:	f0 ce b3    	mov.b     #0xef, w0
    823a:	00 c0 60    	and.b     w1, w0, w0
    823c:	02 40 70    	ior.b     w0, w2, w0
    823e:	e9 e2 b7    	mov.b     WREG, 0x2e9
    8240:	60 76 21    	mov.w     #0x1766, w0
    8242:	25 16 07    	rcall     0xae8e <_MDSFIRDelayInit>
    8244:	40 77 21    	mov.w     #0x1774, w0
    8246:	23 16 07    	rcall     0xae8e <_MDSFIRDelayInit>
    8248:	20 78 21    	mov.w     #0x1782, w0
    824a:	21 16 07    	rcall     0xae8e <_MDSFIRDelayInit>
    824c:	00 00 eb    	clr.w     w0
    824e:	00 0f 78    	mov.w     w0, [w14]
    8250:	47 00 37    	bra       0x82e0 <.L2>

00008252 <.L3>:
    8252:	1e 00 78    	mov.w     [w14], w0
    8254:	6c 00 b9    	mul.su    w0, #0xc, w0
    8256:	80 00 78    	mov.w     w0, w1
    8258:	00 b8 27    	mov.w     #0x7b80, w0
    825a:	80 80 40    	add.w     w1, w0, w1
    825c:	00 00 eb    	clr.w     w0
    825e:	80 08 78    	mov.w     w0, [w1]
    8260:	1e 00 78    	mov.w     [w14], w0
    8262:	6c 00 b9    	mul.su    w0, #0xc, w0
    8264:	80 80 e8    	inc2.w    w0, w1
    8266:	00 b8 27    	mov.w     #0x7b80, w0
    8268:	80 80 40    	add.w     w1, w0, w1
    826a:	a0 00 20    	mov.w     #0xa, w0
    826c:	80 08 78    	mov.w     w0, [w1]
    826e:	1e 00 78    	mov.w     [w14], w0
    8270:	6c 00 b9    	mul.su    w0, #0xc, w0
    8272:	e4 00 40    	add.w     w0, #0x4, w1
    8274:	00 b8 27    	mov.w     #0x7b80, w0
    8276:	80 80 40    	add.w     w1, w0, w1
    8278:	50 ff 20    	mov.w     #0xff5, w0
    827a:	80 08 78    	mov.w     w0, [w1]
    827c:	1e 00 78    	mov.w     [w14], w0
    827e:	6c 00 b9    	mul.su    w0, #0xc, w0
    8280:	e6 00 40    	add.w     w0, #0x6, w1
    8282:	00 b8 27    	mov.w     #0x7b80, w0
    8284:	80 80 40    	add.w     w1, w0, w1
    8286:	f0 ff 20    	mov.w     #0xfff, w0
    8288:	80 08 78    	mov.w     w0, [w1]
    828a:	1e 00 78    	mov.w     [w14], w0
    828c:	6c 00 b9    	mul.su    w0, #0xc, w0
    828e:	e8 00 40    	add.w     w0, #0x8, w1
    8290:	00 b8 27    	mov.w     #0x7b80, w0
    8292:	80 80 40    	add.w     w1, w0, w1
    8294:	90 19 20    	mov.w     #0x199, w0
    8296:	80 08 78    	mov.w     w0, [w1]
    8298:	1e 00 78    	mov.w     [w14], w0
    829a:	6c 00 b9    	mul.su    w0, #0xc, w0
    829c:	ea 00 40    	add.w     w0, #0xa, w1
    829e:	00 b8 27    	mov.w     #0x7b80, w0
    82a0:	80 80 40    	add.w     w1, w0, w1
    82a2:	00 40 20    	mov.w     #0x400, w0
    82a4:	80 08 78    	mov.w     w0, [w1]
    82a6:	1e 00 78    	mov.w     [w14], w0
    82a8:	6c 00 b9    	mul.su    w0, #0xc, w0
    82aa:	ec 00 40    	add.w     w0, #0xc, w1
    82ac:	00 b8 27    	mov.w     #0x7b80, w0
    82ae:	80 80 40    	add.w     w1, w0, w1
    82b0:	00 80 20    	mov.w     #0x800, w0
    82b2:	80 08 78    	mov.w     w0, [w1]
    82b4:	1e 00 78    	mov.w     [w14], w0
    82b6:	6c 00 b9    	mul.su    w0, #0xc, w0
    82b8:	ee 00 40    	add.w     w0, #0xe, w1
    82ba:	00 b8 27    	mov.w     #0x7b80, w0
    82bc:	80 80 40    	add.w     w1, w0, w1
    82be:	00 c0 20    	mov.w     #0xc00, w0
    82c0:	80 08 78    	mov.w     w0, [w1]
    82c2:	1e 00 78    	mov.w     [w14], w0
    82c4:	6c 00 b9    	mul.su    w0, #0xc, w0
    82c6:	f0 00 40    	add.w     w0, #0x10, w1
    82c8:	00 b8 27    	mov.w     #0x7b80, w0
    82ca:	80 80 40    	add.w     w1, w0, w1
    82cc:	70 e6 20    	mov.w     #0xe67, w0
    82ce:	80 08 78    	mov.w     w0, [w1]
    82d0:	1e 00 78    	mov.w     [w14], w0
    82d2:	6c 00 b9    	mul.su    w0, #0xc, w0
    82d4:	f2 00 40    	add.w     w0, #0x12, w1
    82d6:	00 b8 27    	mov.w     #0x7b80, w0
    82d8:	80 80 40    	add.w     w1, w0, w1
    82da:	00 00 eb    	clr.w     w0
    82dc:	80 08 78    	mov.w     w0, [w1]
    82de:	1e 0f e8    	inc.w     [w14], [w14]

000082e0 <.L2>:
    82e0:	f0 00 20    	mov.w     #0xf, w0
    82e2:	9e 0f 10    	subr.w    w0, [w14], [w15]
    82e4:	b6 ff 34    	bra       LE, 0x8252 <.L3>
    82e6:	00 80 fa    	ulnk      
    82e8:	00 00 06    	return    

000082ea <_udb_init_accelerometer>:
    82ea:	00 00 fa    	lnk       #0x0
    82ec:	00 79 21    	mov.w     #0x1790, w0
    82ee:	cf 15 07    	rcall     0xae8e <_MDSFIRDelayInit>
    82f0:	e0 79 21    	mov.w     #0x179e, w0
    82f2:	cd 15 07    	rcall     0xae8e <_MDSFIRDelayInit>
    82f4:	c0 7a 21    	mov.w     #0x17ac, w0
    82f6:	cb 15 07    	rcall     0xae8e <_MDSFIRDelayInit>
    82f8:	00 80 fa    	ulnk      
    82fa:	00 00 06    	return    

000082fc <_udb_init_ADC>:
    82fc:	00 00 fa    	lnk       #0x0
    82fe:	85 ff 07    	rcall     0x820a <_udb_init_gyros>
    8300:	f4 ff 07    	rcall     0x82ea <_udb_init_accelerometer>
    8302:	40 7b a8    	bset.b    0x1b40, #0x3
    8304:	00 00 eb    	clr.w     w0
    8306:	80 1b 88    	mov.w     w0, 0x370
    8308:	80 1b 80    	mov.w     0x370, w0
    830a:	70 19 88    	mov.w     w0, 0x32e
    830c:	70 19 80    	mov.w     0x32e, w0
    830e:	80 19 88    	mov.w     w0, 0x330
    8310:	40 f2 2f    	mov.w     #0xff24, w0
    8312:	60 19 88    	mov.w     w0, 0x32c
    8314:	60 19 80    	mov.w     0x32c, w0
    8316:	60 1b 88    	mov.w     w0, 0x36c
    8318:	f0 03 20    	mov.w     #0x3f, w0
    831a:	50 19 88    	mov.w     w0, 0x32a
    831c:	00 fc 2f    	mov.w     #0xffc0, w0
    831e:	70 19 88    	mov.w     w0, 0x32e
    8320:	21 43 a8    	bset.b    0x321, #0x2
    8322:	11 32 20    	mov.w     #0x321, w1
    8324:	91 40 78    	mov.b     [w1], w1
    8326:	c0 cf b3    	mov.b     #0xfc, w0
    8328:	00 c0 60    	and.b     w1, w0, w0
    832a:	21 e3 b7    	mov.b     WREG, 0x321
    832c:	01 32 20    	mov.w     #0x320, w1
    832e:	91 40 78    	mov.b     [w1], w1
    8330:	00 ce b3    	mov.b     #0xe0, w0
    8332:	00 c0 70    	ior.b     w1, w0, w0
    8334:	20 e3 b7    	mov.b     WREG, 0x320
    8336:	20 43 a8    	bset.b    0x320, #0x2
    8338:	20 63 a9    	bclr.b    0x320, #0x3
    833a:	23 c3 bf    	mov.b     0x323, WREG
    833c:	7f 40 60    	and.b     w0, #0x1f, w0
    833e:	23 e3 b7    	mov.b     WREG, 0x323
    8340:	23 43 a8    	bset.b    0x323, #0x2
    8342:	22 03 a9    	bclr.b    0x322, #0x0
    8344:	22 23 a8    	bset.b    0x322, #0x1
    8346:	51 32 20    	mov.w     #0x325, w1
    8348:	91 40 78    	mov.b     [w1], w1
    834a:	00 ce b3    	mov.b     #0xe0, w0
    834c:	00 c0 60    	and.b     w1, w0, w0
    834e:	60 40 b3    	ior.b     #0x6, w0
    8350:	25 e3 b7    	mov.b     WREG, 0x325
    8352:	40 c0 b3    	mov.b     #0x4, w0
    8354:	24 e3 b7    	mov.b     WREG, 0x324
    8356:	21 83 a8    	bset.b    0x321, #0x4
    8358:	21 32 20    	mov.w     #0x322, w1
    835a:	91 40 78    	mov.b     [w1], w1
    835c:	30 cc b3    	mov.b     #0xc3, w0
    835e:	00 c0 60    	and.b     w1, w0, w0
    8360:	41 c2 b3    	mov.b     #0x24, w1
    8362:	01 40 70    	ior.b     w0, w1, w0
    8364:	22 e3 b7    	mov.b     WREG, 0x322
    8366:	21 33 20    	mov.w     #0x332, w1
    8368:	91 40 78    	mov.b     [w1], w1
    836a:	80 cf b3    	mov.b     #0xf8, w0
    836c:	00 c0 60    	and.b     w1, w0, w0
    836e:	00 24 a0    	bset.b    w0, #0x2
    8370:	32 e3 b7    	mov.b     WREG, 0x332
    8372:	01 38 20    	mov.w     #0x380, w1
    8374:	91 40 78    	mov.b     [w1], w1
    8376:	f0 cc b3    	mov.b     #0xcf, w0
    8378:	00 c0 60    	and.b     w1, w0, w0
    837a:	80 e3 b7    	mov.b     WREG, 0x380
    837c:	01 38 20    	mov.w     #0x380, w1
    837e:	91 40 78    	mov.b     [w1], w1
    8380:	c0 cf b3    	mov.b     #0xfc, w0
    8382:	00 c0 60    	and.b     w1, w0, w0
    8384:	00 14 a0    	bset.b    w0, #0x1
    8386:	80 e3 b7    	mov.b     WREG, 0x380
    8388:	81 c3 a9    	bclr.b    0x381, #0x6
    838a:	81 a3 a9    	bclr.b    0x381, #0x5
    838c:	81 83 a9    	bclr.b    0x381, #0x4
    838e:	d0 00 20    	mov.w     #0xd, w0
    8390:	10 1c 88    	mov.w     w0, 0x382
    8392:	00 00 20    	mov.w     #0x0, w0
    8394:	20 1c 88    	mov.w     w0, 0x384
    8396:	00 20 20    	mov.w     #0x200, w0
    8398:	30 1c 88    	mov.w     w0, 0x386
    839a:	00 30 20    	mov.w     #0x300, w0
    839c:	40 1c 88    	mov.w     w0, 0x388
    839e:	f0 09 20    	mov.w     #0x9f, w0
    83a0:	50 1c 88    	mov.w     w0, 0x38a
    83a2:	84 80 a9    	bclr.b    0x84, #0x4
    83a4:	94 80 a8    	bset.b    0x94, #0x4
    83a6:	81 e3 a8    	bset.b    0x381, #0x7
    83a8:	85 a0 a9    	bclr.b    0x85, #0x5
    83aa:	a1 0a 20    	mov.w     #0xaa, w1
    83ac:	91 40 78    	mov.b     [w1], w1
    83ae:	f0 c8 b3    	mov.b     #0x8f, w0
    83b0:	00 c0 60    	and.b     w1, w0, w0
    83b2:	01 c5 b3    	mov.b     #0x50, w1
    83b4:	01 40 70    	ior.b     w0, w1, w0
    83b6:	aa e0 b7    	mov.b     WREG, 0xaa
    83b8:	95 a0 a9    	bclr.b    0x95, #0x5
    83ba:	21 e3 a8    	bset.b    0x321, #0x7
    83bc:	00 80 fa    	ulnk      
    83be:	00 00 06    	return    

000083c0 <__DMA0Interrupt>:
    83c0:	36 00 f8    	push      0x36
    83c2:	80 9f be    	mov.d     w0, [w15++]
    83c4:	82 9f be    	mov.d     w2, [w15++]
    83c6:	84 9f be    	mov.d     w4, [w15++]
    83c8:	86 9f be    	mov.d     w6, [w15++]
    83ca:	06 00 fa    	lnk       #0x6
    83cc:	21 e1 a8    	bset.b    0x121, #0x7
    83ce:	30 55 80    	mov.w     0xaa6, w0
    83d0:	00 00 e0    	cp0.w     w0
    83d2:	1a 00 32    	bra       Z, 0x8408 <.L11>

000083d4 <.bb>:
    83d4:	44 00 f8    	push      0x44
    83d6:	42 00 f8    	push      0x42
    83d8:	46 00 f8    	push      0x46
    83da:	50 00 f8    	push      0x50
    83dc:	22 00 f8    	push      0x22
    83de:	24 00 f8    	push      0x24
    83e0:	26 00 f8    	push      0x26
    83e2:	28 00 f8    	push      0x28
    83e4:	2a 00 f8    	push      0x2a
    83e6:	2c 00 f8    	push      0x2c
    83e8:	36 00 f8    	push      0x36
    83ea:	38 00 f8    	push      0x38
    83ec:	3a 00 f8    	push      0x3a
    83ee:	3c 00 f8    	push      0x3c
    83f0:	3e 00 f8    	push      0x3e
    83f2:	40 00 f8    	push      0x40
    83f4:	10 00 20    	mov.w     #0x1, w0
    83f6:	20 07 98    	mov.w     w0, [w14+4]
    83f8:	2e 00 90    	mov.w     [w14+4], w0
    83fa:	80 1f 78    	mov.w     w0, [w15++]
    83fc:	20 07 98    	mov.w     w0, [w14+4]
    83fe:	40 55 80    	mov.w     0xaa8, w0
    8400:	20 02 88    	mov.w     w0, 0x44
    8402:	00 00 eb    	clr.w     w0
    8404:	30 55 88    	mov.w     w0, 0xaa6
    8406:	05 00 37    	bra       0x8412 <.L13>

00008408 <.L11>:
    8408:	00 00 eb    	clr.w     w0
    840a:	10 07 98    	mov.w     w0, [w14+2]
    840c:	1e 00 90    	mov.w     [w14+2], w0
    840e:	80 1f 78    	mov.w     w0, [w15++]
    8410:	10 07 98    	mov.w     w0, [w14+2]

00008412 <.L13>:
    8412:	10 c0 b3    	mov.b     #0x1, w0
    8414:	73 0d 07    	rcall     0x9efc <_udb_setDSPLibInUse>
    8416:	30 ba 80    	mov.w     0x1746, w0
    8418:	00 00 e0    	cp0.w     w0
    841a:	04 00 3a    	bra       NZ, 0x8424 <.L14>
    841c:	00 80 27    	mov.w     #0x7800, w0
    841e:	e1 e3 20    	mov.w     #0xe3e, w1
    8420:	3c 15 07    	rcall     0xae9a <_superSample>
    8422:	03 00 37    	bra       0x842a <.L16>

00008424 <.L14>:
    8424:	00 a0 27    	mov.w     #0x7a00, w0
    8426:	e1 e3 20    	mov.w     #0xe3e, w1
    8428:	38 15 07    	rcall     0xae9a <_superSample>

0000842a <.L16>:
    842a:	00 40 eb    	clr.b     w0
    842c:	67 0d 07    	rcall     0x9efc <_udb_setDSPLibInUse>
    842e:	30 ba 80    	mov.w     0x1746, w0
    8430:	00 00 a2    	btg.w     w0, #0x0
    8432:	30 ba 88    	mov.w     w0, 0x1746
    8434:	84 80 a9    	bclr.b    0x84, #0x4
    8436:	32 d4 80    	mov.w     0x1a86, w2
    8438:	01 72 80    	mov.w     0xe40, w1
    843a:	20 72 80    	mov.w     0xe44, w0
    843c:	80 81 50    	sub.w     w1, w0, w3
    843e:	02 00 41    	add.w     w2, w2, w0
    8440:	01 08 20    	mov.w     #0x80, w1
    8442:	80 80 40    	add.w     w1, w0, w1
    8444:	00 00 22    	mov.w     #0x2000, w0
    8446:	00 80 40    	add.w     w1, w0, w0
    8448:	03 08 78    	mov.w     w3, [w0]
    844a:	32 d4 80    	mov.w     0x1a86, w2
    844c:	31 72 80    	mov.w     0xe46, w1
    844e:	60 72 80    	mov.w     0xe4c, w0
    8450:	80 81 50    	sub.w     w1, w0, w3
    8452:	02 00 41    	add.w     w2, w2, w0
    8454:	01 10 20    	mov.w     #0x100, w1
    8456:	80 80 40    	add.w     w1, w0, w1
    8458:	00 00 22    	mov.w     #0x2000, w0
    845a:	00 80 40    	add.w     w1, w0, w0
    845c:	03 08 78    	mov.w     w3, [w0]
    845e:	32 d4 80    	mov.w     0x1a86, w2
    8460:	81 72 80    	mov.w     0xe50, w1
    8462:	60 72 80    	mov.w     0xe4c, w0
    8464:	80 81 50    	sub.w     w1, w0, w3
    8466:	02 00 41    	add.w     w2, w2, w0
    8468:	01 18 20    	mov.w     #0x180, w1
    846a:	80 80 40    	add.w     w1, w0, w1
    846c:	00 00 22    	mov.w     #0x2000, w0
    846e:	00 80 40    	add.w     w1, w0, w0
    8470:	03 08 78    	mov.w     w3, [w0]
    8472:	30 d4 80    	mov.w     0x1a86, w0
    8474:	00 00 e8    	inc.w     w0, w0
    8476:	30 d4 88    	mov.w     w0, 0x1a86
    8478:	31 d4 80    	mov.w     0x1a86, w1
    847a:	00 04 20    	mov.w     #0x40, w0
    847c:	80 8f 50    	sub.w     w1, w0, [w15]
    847e:	02 00 34    	bra       LE, 0x8484 <.L17>
    8480:	00 00 eb    	clr.w     w0
    8482:	30 d4 88    	mov.w     w0, 0x1a86

00008484 <.L17>:
    8484:	1e 00 78    	mov.w     [w14], w0
    8486:	4f 00 78    	mov.w     [--w15], w0
    8488:	00 0f 78    	mov.w     w0, [w14]
    848a:	1e 00 e0    	cp0.w     [w14]
    848c:	12 00 32    	bra       Z, 0x84b2 <.L21>
    848e:	40 00 f9    	pop       0x40
    8490:	3e 00 f9    	pop       0x3e
    8492:	3c 00 f9    	pop       0x3c
    8494:	3a 00 f9    	pop       0x3a
    8496:	38 00 f9    	pop       0x38
    8498:	36 00 f9    	pop       0x36
    849a:	2c 00 f9    	pop       0x2c
    849c:	2a 00 f9    	pop       0x2a
    849e:	28 00 f9    	pop       0x28
    84a0:	26 00 f9    	pop       0x26
    84a2:	24 00 f9    	pop       0x24
    84a4:	22 00 f9    	pop       0x22
    84a6:	50 00 f9    	pop       0x50
    84a8:	46 00 f9    	pop       0x46
    84aa:	42 00 f9    	pop       0x42
    84ac:	44 00 f9    	pop       0x44
    84ae:	10 00 20    	mov.w     #0x1, w0
    84b0:	30 55 88    	mov.w     w0, 0xaa6

000084b2 <.L21>:
    84b2:	00 80 fa    	ulnk      
    84b4:	4f 03 be    	mov.d     [--w15], w6
    84b6:	4f 02 be    	mov.d     [--w15], w4
    84b8:	4f 01 be    	mov.d     [--w15], w2
    84ba:	4f 00 be    	mov.d     [--w15], w0
    84bc:	36 00 f9    	pop       0x36
    84be:	00 40 06    	retfie    

000084c0 <__ADC2Interrupt>:
    84c0:	80 9f be    	mov.d     w0, [w15++]
    84c2:	82 1f 78    	mov.w     w2, [w15++]
    84c4:	08 00 fa    	lnk       #0x8
    84c6:	30 55 80    	mov.w     0xaa6, w0
    84c8:	00 00 e0    	cp0.w     w0
    84ca:	1a 00 32    	bra       Z, 0x8500 <.L23>

000084cc <.bb>:
    84cc:	44 00 f8    	push      0x44
    84ce:	42 00 f8    	push      0x42
    84d0:	46 00 f8    	push      0x46
    84d2:	50 00 f8    	push      0x50
    84d4:	22 00 f8    	push      0x22
    84d6:	24 00 f8    	push      0x24
    84d8:	26 00 f8    	push      0x26
    84da:	28 00 f8    	push      0x28
    84dc:	2a 00 f8    	push      0x2a
    84de:	2c 00 f8    	push      0x2c
    84e0:	36 00 f8    	push      0x36
    84e2:	38 00 f8    	push      0x38
    84e4:	3a 00 f8    	push      0x3a
    84e6:	3c 00 f8    	push      0x3c
    84e8:	3e 00 f8    	push      0x3e
    84ea:	40 00 f8    	push      0x40
    84ec:	10 00 20    	mov.w     #0x1, w0
    84ee:	20 07 98    	mov.w     w0, [w14+4]
    84f0:	2e 00 90    	mov.w     [w14+4], w0
    84f2:	80 1f 78    	mov.w     w0, [w15++]
    84f4:	20 07 98    	mov.w     w0, [w14+4]
    84f6:	40 55 80    	mov.w     0xaa8, w0
    84f8:	20 02 88    	mov.w     w0, 0x44
    84fa:	00 00 eb    	clr.w     w0
    84fc:	30 55 88    	mov.w     w0, 0xaa6
    84fe:	05 00 37    	bra       0x850a <.L25>

00008500 <.L23>:
    8500:	00 00 eb    	clr.w     w0
    8502:	10 07 98    	mov.w     w0, [w14+2]
    8504:	1e 00 90    	mov.w     [w14+2], w0
    8506:	80 1f 78    	mov.w     w0, [w15++]
    8508:	10 07 98    	mov.w     w0, [w14+2]

0000850a <.L25>:
    850a:	21 e1 a8    	bset.b    0x121, #0x7
    850c:	86 a0 a9    	bclr.b    0x86, #0x5
    850e:	20 ba 80    	mov.w     0x1744, w0
    8510:	30 07 98    	mov.w     w0, [w14+6]
    8512:	3e 00 90    	mov.w     [w14+6], w0
    8514:	e1 0f 40    	add.w     w0, #0x1, [w15]
    8516:	60 00 32    	bra       Z, 0x85d8 <.L29>
    8518:	3e 00 90    	mov.w     [w14+6], w0
    851a:	e1 0f 40    	add.w     w0, #0x1, [w15]
    851c:	07 00 3c    	bra       GT, 0x852c <.L33>
    851e:	3e 00 90    	mov.w     [w14+6], w0
    8520:	e3 0f 40    	add.w     w0, #0x3, [w15]
    8522:	47 00 32    	bra       Z, 0x85b2 <.L27>
    8524:	3e 00 90    	mov.w     [w14+6], w0
    8526:	e2 0f 40    	add.w     w0, #0x2, [w15]
    8528:	6b 00 32    	bra       Z, 0x8600 <.L28>
    852a:	7e 00 37    	bra       0x8628 <.L26>

0000852c <.L33>:
    852c:	3e 00 90    	mov.w     [w14+6], w0
    852e:	e6 0f 50    	sub.w     w0, #0x6, [w15]
    8530:	2d 00 32    	bra       Z, 0x858c <.L31>
    8532:	3e 00 90    	mov.w     [w14+6], w0
    8534:	ea 0f 50    	sub.w     w0, #0xa, [w15]
    8536:	17 00 32    	bra       Z, 0x8566 <.L32>
    8538:	3e 00 90    	mov.w     [w14+6], w0
    853a:	e2 0f 50    	sub.w     w0, #0x2, [w15]
    853c:	01 00 32    	bra       Z, 0x8540 <.L30>
    853e:	74 00 37    	bra       0x8628 <.L26>

00008540 <.L30>:
    8540:	00 1a 80    	mov.w     0x340, w0
    8542:	60 71 88    	mov.w     w0, 0xe2c
    8544:	00 da 80    	mov.w     0x1b40, w0
    8546:	68 00 60    	and.w     w0, #0x8, w0
    8548:	00 00 e0    	cp0.w     w0
    854a:	03 00 32    	bra       Z, 0x8552 <.L34>
    854c:	60 71 80    	mov.w     0xe2c, w0
    854e:	70 71 88    	mov.w     w0, 0xe2e
    8550:	6b 00 37    	bra       0x8628 <.L26>

00008552 <.L34>:
    8552:	72 71 80    	mov.w     0xe2e, w2
    8554:	60 71 80    	mov.w     0xe2c, w0
    8556:	80 80 d1    	asr.w     w0, w1
    8558:	70 71 80    	mov.w     0xe2e, w0
    855a:	00 80 d1    	asr.w     w0, w0
    855c:	00 80 50    	sub.w     w1, w0, w0
    855e:	43 80 de    	asr.w     w0, #0x3, w0
    8560:	00 00 41    	add.w     w2, w0, w0
    8562:	70 71 88    	mov.w     w0, 0xe2e
    8564:	61 00 37    	bra       0x8628 <.L26>

00008566 <.L32>:
    8566:	00 1a 80    	mov.w     0x340, w0
    8568:	90 71 88    	mov.w     w0, 0xe32
    856a:	00 da 80    	mov.w     0x1b40, w0
    856c:	68 00 60    	and.w     w0, #0x8, w0
    856e:	00 00 e0    	cp0.w     w0
    8570:	03 00 32    	bra       Z, 0x8578 <.L37>
    8572:	90 71 80    	mov.w     0xe32, w0
    8574:	a0 71 88    	mov.w     w0, 0xe34
    8576:	58 00 37    	bra       0x8628 <.L26>

00008578 <.L37>:
    8578:	a2 71 80    	mov.w     0xe34, w2
    857a:	90 71 80    	mov.w     0xe32, w0
    857c:	80 80 d1    	asr.w     w0, w1
    857e:	a0 71 80    	mov.w     0xe34, w0
    8580:	00 80 d1    	asr.w     w0, w0
    8582:	00 80 50    	sub.w     w1, w0, w0
    8584:	43 80 de    	asr.w     w0, #0x3, w0
    8586:	00 00 41    	add.w     w2, w0, w0
    8588:	a0 71 88    	mov.w     w0, 0xe34
    858a:	4e 00 37    	bra       0x8628 <.L26>

0000858c <.L31>:
    858c:	00 1a 80    	mov.w     0x340, w0
    858e:	30 71 88    	mov.w     w0, 0xe26
    8590:	00 da 80    	mov.w     0x1b40, w0
    8592:	68 00 60    	and.w     w0, #0x8, w0
    8594:	00 00 e0    	cp0.w     w0
    8596:	03 00 32    	bra       Z, 0x859e <.L40>
    8598:	30 71 80    	mov.w     0xe26, w0
    859a:	40 71 88    	mov.w     w0, 0xe28
    859c:	45 00 37    	bra       0x8628 <.L26>

0000859e <.L40>:
    859e:	42 71 80    	mov.w     0xe28, w2
    85a0:	30 71 80    	mov.w     0xe26, w0
    85a2:	80 80 d1    	asr.w     w0, w1
    85a4:	40 71 80    	mov.w     0xe28, w0
    85a6:	00 80 d1    	asr.w     w0, w0
    85a8:	00 80 50    	sub.w     w1, w0, w0
    85aa:	43 80 de    	asr.w     w0, #0x3, w0
    85ac:	00 00 41    	add.w     w2, w0, w0
    85ae:	40 71 88    	mov.w     w0, 0xe28
    85b0:	3b 00 37    	bra       0x8628 <.L26>

000085b2 <.L27>:
    85b2:	00 1a 80    	mov.w     0x340, w0
    85b4:	00 71 88    	mov.w     w0, 0xe20
    85b6:	00 da 80    	mov.w     0x1b40, w0
    85b8:	68 00 60    	and.w     w0, #0x8, w0
    85ba:	00 00 e0    	cp0.w     w0
    85bc:	03 00 32    	bra       Z, 0x85c4 <.L43>
    85be:	00 71 80    	mov.w     0xe20, w0
    85c0:	10 71 88    	mov.w     w0, 0xe22
    85c2:	32 00 37    	bra       0x8628 <.L26>

000085c4 <.L43>:
    85c4:	12 71 80    	mov.w     0xe22, w2
    85c6:	00 71 80    	mov.w     0xe20, w0
    85c8:	80 80 d1    	asr.w     w0, w1
    85ca:	10 71 80    	mov.w     0xe22, w0
    85cc:	00 80 d1    	asr.w     w0, w0
    85ce:	00 80 50    	sub.w     w1, w0, w0
    85d0:	43 80 de    	asr.w     w0, #0x3, w0
    85d2:	00 00 41    	add.w     w2, w0, w0
    85d4:	10 71 88    	mov.w     w0, 0xe22
    85d6:	28 00 37    	bra       0x8628 <.L26>

000085d8 <.L29>:
    85d8:	00 1a 80    	mov.w     0x340, w0
    85da:	00 00 ea    	neg.w     w0, w0
    85dc:	a0 70 88    	mov.w     w0, 0xe14
    85de:	00 da 80    	mov.w     0x1b40, w0
    85e0:	68 00 60    	and.w     w0, #0x8, w0
    85e2:	00 00 e0    	cp0.w     w0
    85e4:	03 00 32    	bra       Z, 0x85ec <.L46>
    85e6:	a0 70 80    	mov.w     0xe14, w0
    85e8:	b0 70 88    	mov.w     w0, 0xe16
    85ea:	1e 00 37    	bra       0x8628 <.L26>

000085ec <.L46>:
    85ec:	b2 70 80    	mov.w     0xe16, w2
    85ee:	a0 70 80    	mov.w     0xe14, w0
    85f0:	80 80 d1    	asr.w     w0, w1
    85f2:	b0 70 80    	mov.w     0xe16, w0
    85f4:	00 80 d1    	asr.w     w0, w0
    85f6:	00 80 50    	sub.w     w1, w0, w0
    85f8:	43 80 de    	asr.w     w0, #0x3, w0
    85fa:	00 00 41    	add.w     w2, w0, w0
    85fc:	b0 70 88    	mov.w     w0, 0xe16
    85fe:	14 00 37    	bra       0x8628 <.L26>

00008600 <.L28>:
    8600:	00 1a 80    	mov.w     0x340, w0
    8602:	00 00 ea    	neg.w     w0, w0
    8604:	d0 70 88    	mov.w     w0, 0xe1a
    8606:	00 da 80    	mov.w     0x1b40, w0
    8608:	68 00 60    	and.w     w0, #0x8, w0
    860a:	00 00 e0    	cp0.w     w0
    860c:	04 00 32    	bra       Z, 0x8616 <.L49>
    860e:	d0 70 80    	mov.w     0xe1a, w0
    8610:	e0 70 88    	mov.w     w0, 0xe1c
    8612:	40 7b a9    	bclr.b    0x1b40, #0x3
    8614:	09 00 37    	bra       0x8628 <.L26>

00008616 <.L49>:
    8616:	e2 70 80    	mov.w     0xe1c, w2
    8618:	d0 70 80    	mov.w     0xe1a, w0
    861a:	80 80 d1    	asr.w     w0, w1
    861c:	e0 70 80    	mov.w     0xe1c, w0
    861e:	00 80 d1    	asr.w     w0, w0
    8620:	00 80 50    	sub.w     w1, w0, w0
    8622:	43 80 de    	asr.w     w0, #0x3, w0
    8624:	00 00 41    	add.w     w2, w0, w0
    8626:	e0 70 88    	mov.w     w0, 0xe1c

00008628 <.L26>:
    8628:	20 ba 80    	mov.w     0x1744, w0
    862a:	00 00 e8    	inc.w     w0, w0
    862c:	20 ba 88    	mov.w     w0, 0x1744
    862e:	20 ba 80    	mov.w     0x1744, w0
    8630:	e6 0f 50    	sub.w     w0, #0x6, [w15]
    8632:	02 00 34    	bra       LE, 0x8638 <.L51>
    8634:	10 00 20    	mov.w     #0x1, w0
    8636:	20 ba 88    	mov.w     w0, 0x1744

00008638 <.L51>:
    8638:	1e 00 78    	mov.w     [w14], w0
    863a:	4f 00 78    	mov.w     [--w15], w0
    863c:	00 0f 78    	mov.w     w0, [w14]
    863e:	1e 00 e0    	cp0.w     [w14]
    8640:	12 00 32    	bra       Z, 0x8666 <.L55>
    8642:	40 00 f9    	pop       0x40
    8644:	3e 00 f9    	pop       0x3e
    8646:	3c 00 f9    	pop       0x3c
    8648:	3a 00 f9    	pop       0x3a
    864a:	38 00 f9    	pop       0x38
    864c:	36 00 f9    	pop       0x36
    864e:	2c 00 f9    	pop       0x2c
    8650:	2a 00 f9    	pop       0x2a
    8652:	28 00 f9    	pop       0x28
    8654:	26 00 f9    	pop       0x26
    8656:	24 00 f9    	pop       0x24
    8658:	22 00 f9    	pop       0x22
    865a:	50 00 f9    	pop       0x50
    865c:	46 00 f9    	pop       0x46
    865e:	42 00 f9    	pop       0x42
    8660:	44 00 f9    	pop       0x44
    8662:	10 00 20    	mov.w     #0x1, w0
    8664:	30 55 88    	mov.w     w0, 0xaa6

00008666 <.L55>:
    8666:	00 80 fa    	ulnk      
    8668:	4f 01 78    	mov.w     [--w15], w2
    866a:	4f 00 be    	mov.d     [--w15], w0
    866c:	00 40 06    	retfie    

0000866e <_init_states>:
    866e:	00 00 fa    	lnk       #0x0
    8670:	00 00 eb    	clr.w     w0
    8672:	70 d8 88    	mov.w     w0, 0x1b0e
    8674:	00 00 eb    	clr.w     w0
    8676:	20 b7 88    	mov.w     w0, 0x16e4
    8678:	a0 00 20    	mov.w     #0xa, w0
    867a:	e0 58 88    	mov.w     w0, 0xb1c
    867c:	c2 0b a9    	bclr.b    0xbc2, #0x0
    867e:	80 86 28    	mov.w     #0x8868, w0
    8680:	30 b7 88    	mov.w     w0, 0x16e6
    8682:	00 80 fa    	ulnk      
    8684:	00 00 06    	return    

00008686 <_udb_background_callback_periodic>:
    8686:	02 00 fa    	lnk       #0x2
    8688:	00 da 80    	mov.w     0x1b40, w0
    868a:	70 00 60    	and.w     w0, #0x10, w0
    868c:	00 00 e0    	cp0.w     w0
    868e:	6a 00 32    	bra       Z, 0x8764 <.L4>
    8690:	31 65 80    	mov.w     0xca6, w1
    8692:	80 a9 23    	mov.w     #0x3a98, w0
    8694:	80 8f 50    	sub.w     w1, w0, [w15]
    8696:	13 00 34    	bra       LE, 0x86be <.L6>
    8698:	0f 7b a9    	bclr.b    0x1b0f, #0x3
    869a:	0f 9b a9    	bclr.b    0x1b0f, #0x4
    869c:	0f bb a8    	bset.b    0x1b0f, #0x5
    869e:	b1 d8 80    	mov.w     0x1b16, w1
    86a0:	00 fc 2f    	mov.w     #0xffc0, w0
    86a2:	00 80 60    	and.w     w1, w0, w0
    86a4:	f0 01 b3    	ior.w     #0x1f, w0
    86a6:	b0 d8 88    	mov.w     w0, 0x1b16
    86a8:	b1 d8 80    	mov.w     0x1b16, w1
    86aa:	f0 03 2f    	mov.w     #0xf03f, w0
    86ac:	00 80 60    	and.w     w1, w0, w0
    86ae:	01 7c 20    	mov.w     #0x7c0, w1
    86b0:	01 00 70    	ior.w     w0, w1, w0
    86b2:	b0 d8 88    	mov.w     w0, 0x1b16
    86b4:	17 9b a8    	bset.b    0x1b17, #0x4
    86b6:	17 bb a8    	bset.b    0x1b17, #0x5
    86b8:	17 db a8    	bset.b    0x1b17, #0x6
    86ba:	17 fb a9    	bclr.b    0x1b17, #0x7
    86bc:	2b 00 37    	bra       0x8714 <.L8>

000086be <.L6>:
    86be:	30 65 80    	mov.w     0xca6, w0
    86c0:	00 00 e0    	cp0.w     w0
    86c2:	13 00 34    	bra       LE, 0x86ea <.L9>
    86c4:	0f 7b a9    	bclr.b    0x1b0f, #0x3
    86c6:	0f 9b a8    	bset.b    0x1b0f, #0x4
    86c8:	0f bb a9    	bclr.b    0x1b0f, #0x5
    86ca:	b1 d8 80    	mov.w     0x1b16, w1
    86cc:	00 fc 2f    	mov.w     #0xffc0, w0
    86ce:	00 80 60    	and.w     w1, w0, w0
    86d0:	f0 01 b3    	ior.w     #0x1f, w0
    86d2:	b0 d8 88    	mov.w     w0, 0x1b16
    86d4:	b1 d8 80    	mov.w     0x1b16, w1
    86d6:	f0 03 2f    	mov.w     #0xf03f, w0
    86d8:	00 80 60    	and.w     w1, w0, w0
    86da:	01 7c 20    	mov.w     #0x7c0, w1
    86dc:	01 00 70    	ior.w     w0, w1, w0
    86de:	b0 d8 88    	mov.w     w0, 0x1b16
    86e0:	17 9b a8    	bset.b    0x1b17, #0x4
    86e2:	17 bb a8    	bset.b    0x1b17, #0x5
    86e4:	17 db a8    	bset.b    0x1b17, #0x6
    86e6:	17 fb a8    	bset.b    0x1b17, #0x7
    86e8:	15 00 37    	bra       0x8714 <.L8>

000086ea <.L9>:
    86ea:	0f 7b a8    	bset.b    0x1b0f, #0x3
    86ec:	0f 9b a9    	bclr.b    0x1b0f, #0x4
    86ee:	0f bb a9    	bclr.b    0x1b0f, #0x5
    86f0:	17 9b a9    	bclr.b    0x1b17, #0x4
    86f2:	17 bb a9    	bclr.b    0x1b17, #0x5
    86f4:	17 db a8    	bset.b    0x1b17, #0x6
    86f6:	17 fb a9    	bclr.b    0x1b17, #0x7
    86f8:	30 65 80    	mov.w     0xca6, w0
    86fa:	02 80 20    	mov.w     #0x800, w2
    86fc:	11 00 09    	repeat    #0x11
    86fe:	02 00 d8    	div.sw    w0, w2
    8700:	70 40 40    	add.b     w0, #0x10, w0
    8702:	f0 43 b2    	and.b     #0x3f, w0
    8704:	80 80 fb    	ze        w0, w1
    8706:	f0 03 20    	mov.w     #0x3f, w0
    8708:	00 81 60    	and.w     w1, w0, w2
    870a:	b1 d8 80    	mov.w     0x1b16, w1
    870c:	00 fc 2f    	mov.w     #0xffc0, w0
    870e:	00 80 60    	and.w     w1, w0, w0
    8710:	02 00 70    	ior.w     w0, w2, w0
    8712:	b0 d8 88    	mov.w     w0, 0x1b16

00008714 <.L8>:
    8714:	70 d8 80    	mov.w     0x1b0e, w0
    8716:	01 00 24    	mov.w     #0x4000, w1
    8718:	01 00 60    	and.w     w0, w1, w0
    871a:	00 00 e0    	cp0.w     w0
    871c:	20 00 32    	bra       Z, 0x875e <.L11>
    871e:	70 d8 80    	mov.w     0x1b0e, w0
    8720:	4b 00 de    	lsr.w     w0, #0xb, w0
    8722:	e1 40 60    	and.b     w0, #0x1, w1
    8724:	80 d8 80    	mov.w     0x1b10, w0
    8726:	4b 00 de    	lsr.w     w0, #0xb, w0
    8728:	61 40 60    	and.b     w0, #0x1, w0
    872a:	80 cf 50    	sub.b     w1, w0, [w15]
    872c:	14 00 3a    	bra       NZ, 0x8756 <.L13>
    872e:	70 d8 80    	mov.w     0x1b0e, w0
    8730:	4c 00 de    	lsr.w     w0, #0xc, w0
    8732:	e1 40 60    	and.b     w0, #0x1, w1
    8734:	80 d8 80    	mov.w     0x1b10, w0
    8736:	4c 00 de    	lsr.w     w0, #0xc, w0
    8738:	61 40 60    	and.b     w0, #0x1, w0
    873a:	80 cf 50    	sub.b     w1, w0, [w15]
    873c:	0c 00 3a    	bra       NZ, 0x8756 <.L13>
    873e:	70 d8 80    	mov.w     0x1b0e, w0
    8740:	4d 00 de    	lsr.w     w0, #0xd, w0
    8742:	e1 40 60    	and.b     w0, #0x1, w1
    8744:	80 d8 80    	mov.w     0x1b10, w0
    8746:	4d 00 de    	lsr.w     w0, #0xd, w0
    8748:	61 40 60    	and.b     w0, #0x1, w0
    874a:	80 cf 50    	sub.b     w1, w0, [w15]
    874c:	04 00 3a    	bra       NZ, 0x8756 <.L13>
    874e:	0f 7b a9    	bclr.b    0x1b0f, #0x3
    8750:	0f 9b a9    	bclr.b    0x1b0f, #0x4
    8752:	0f bb a9    	bclr.b    0x1b0f, #0x5
    8754:	19 00 37    	bra       0x8788 <.L19>

00008756 <.L13>:
    8756:	70 d8 80    	mov.w     0x1b0e, w0
    8758:	80 d8 88    	mov.w     w0, 0x1b10
    875a:	0f db a9    	bclr.b    0x1b0f, #0x6
    875c:	15 00 37    	bra       0x8788 <.L19>

0000875e <.L11>:
    875e:	70 d8 80    	mov.w     0x1b0e, w0
    8760:	80 d8 88    	mov.w     w0, 0x1b10
    8762:	12 00 37    	bra       0x8788 <.L19>

00008764 <.L4>:
    8764:	0f 7b a9    	bclr.b    0x1b0f, #0x3
    8766:	0f 9b a9    	bclr.b    0x1b0f, #0x4
    8768:	0f bb a8    	bset.b    0x1b0f, #0x5
    876a:	b1 d8 80    	mov.w     0x1b16, w1
    876c:	00 fc 2f    	mov.w     #0xffc0, w0
    876e:	00 80 60    	and.w     w1, w0, w0
    8770:	00 40 a0    	bset.w    w0, #0x4
    8772:	b0 d8 88    	mov.w     w0, 0x1b16
    8774:	b1 d8 80    	mov.w     0x1b16, w1
    8776:	f0 03 2f    	mov.w     #0xf03f, w0
    8778:	00 80 60    	and.w     w1, w0, w0
    877a:	01 40 20    	mov.w     #0x400, w1
    877c:	01 00 70    	ior.w     w0, w1, w0
    877e:	b0 d8 88    	mov.w     w0, 0x1b16
    8780:	17 9b a8    	bset.b    0x1b17, #0x4
    8782:	17 bb a8    	bset.b    0x1b17, #0x5
    8784:	17 db a8    	bset.b    0x1b17, #0x6
    8786:	17 fb a9    	bclr.b    0x1b17, #0x7

00008788 <.L19>:
    8788:	e0 58 80    	mov.w     0xb1c, w0
    878a:	e8 0f 50    	sub.w     w0, #0x8, [w15]
    878c:	03 00 3c    	bra       GT, 0x8794 <.L20>
    878e:	e0 58 80    	mov.w     0xb1c, w0
    8790:	00 00 e8    	inc.w     w0, w0
    8792:	e0 58 88    	mov.w     w0, 0xb1c

00008794 <.L20>:
    8794:	e0 58 80    	mov.w     0xb1c, w0
    8796:	80 40 eb    	clr.b     w1
    8798:	01 4f 78    	mov.b     w1, [w14]
    879a:	e8 0f 50    	sub.w     w0, #0x8, [w15]
    879c:	02 00 3c    	bra       GT, 0x87a2 <.L22>
    879e:	10 c0 b3    	mov.b     #0x1, w0
    87a0:	00 4f 78    	mov.b     w0, [w14]

000087a2 <.L22>:
    87a2:	9e 40 78    	mov.b     [w14], w1
    87a4:	01 80 fb    	ze        w1, w0
    87a6:	61 00 60    	and.w     w0, #0x1, w0
    87a8:	46 01 dd    	sl.w      w0, #0x6, w2
    87aa:	11 5e 80    	mov.w     0xbc2, w1
    87ac:	f0 fb 2f    	mov.w     #0xffbf, w0
    87ae:	00 80 60    	and.w     w1, w0, w0
    87b0:	02 00 70    	ior.w     w0, w2, w0
    87b2:	10 5e 88    	mov.w     w0, 0xbc2
    87b4:	30 b7 80    	mov.w     0x16e6, w0
    87b6:	00 00 01    	call      w0
    87b8:	00 80 fa    	ulnk      
    87ba:	00 00 06    	return    

000087bc <_ent_calibrateS>:
    87bc:	00 00 fa    	lnk       #0x0
    87be:	0e fb a9    	bclr.b    0x1b0e, #0x7
    87c0:	0f 1b a9    	bclr.b    0x1b0f, #0x0
    87c2:	0f 3b a9    	bclr.b    0x1b0f, #0x1
    87c4:	0f 5b a9    	bclr.b    0x1b0f, #0x2
    87c6:	00 00 eb    	clr.w     w0
    87c8:	20 b7 88    	mov.w     w0, 0x16e4
    87ca:	00 87 28    	mov.w     #0x8870, w0
    87cc:	30 b7 88    	mov.w     w0, 0x16e6
    87ce:	50 01 20    	mov.w     #0x15, w0
    87d0:	90 d8 88    	mov.w     w0, 0x1b12
    87d2:	cb 62 a9    	bclr.b    0x2cb, #0x3
    87d4:	00 80 fa    	ulnk      
    87d6:	00 00 06    	return    

000087d8 <_ent_acquiringS>:
    87d8:	00 00 fa    	lnk       #0x0
    87da:	0e fb a9    	bclr.b    0x1b0e, #0x7
    87dc:	0f 1b a9    	bclr.b    0x1b0f, #0x0
    87de:	0f 3b a9    	bclr.b    0x1b0f, #0x1
    87e0:	0f 5b a9    	bclr.b    0x1b0f, #0x2
    87e2:	aa 0b 07    	rcall     0x9f38 <_udb_servo_record_trims>
    87e4:	29 09 07    	rcall     0x9a38 <_dcm_calibrate>
    87e6:	c0 12 20    	mov.w     #0x12c, w0
    87e8:	20 b7 88    	mov.w     w0, 0x16e4
    87ea:	00 00 eb    	clr.w     w0
    87ec:	40 b6 88    	mov.w     w0, 0x16c8
    87ee:	e0 8a 28    	mov.w     #0x88ae, w0
    87f0:	30 b7 88    	mov.w     w0, 0x16e6
    87f2:	00 03 20    	mov.w     #0x30, w0
    87f4:	a0 d8 88    	mov.w     w0, 0x1b14
    87f6:	cb 62 a8    	bset.b    0x2cb, #0x3
    87f8:	00 80 fa    	ulnk      
    87fa:	00 00 06    	return    

000087fc <_ent_manualS>:
    87fc:	00 00 fa    	lnk       #0x0
    87fe:	0e fb a9    	bclr.b    0x1b0e, #0x7
    8800:	0f 1b a9    	bclr.b    0x1b0f, #0x0
    8802:	0f 3b a9    	bclr.b    0x1b0f, #0x1
    8804:	0f 5b a9    	bclr.b    0x1b0f, #0x2
    8806:	00 00 eb    	clr.w     w0
    8808:	20 b7 88    	mov.w     w0, 0x16e4
    880a:	cb 62 a8    	bset.b    0x2cb, #0x3
    880c:	80 91 28    	mov.w     #0x8918, w0
    880e:	30 b7 88    	mov.w     w0, 0x16e6
    8810:	00 80 fa    	ulnk      
    8812:	00 00 06    	return    

00008814 <_ent_stabilizedS>:
    8814:	00 00 fa    	lnk       #0x0
    8816:	f0 61 80    	mov.w     0xc3e, w0
    8818:	fa 04 07    	rcall     0x920e <_setTargetAltitude>
    881a:	0e fb a9    	bclr.b    0x1b0e, #0x7
    881c:	0f 1b a8    	bset.b    0x1b0f, #0x0
    881e:	0f 3b a9    	bclr.b    0x1b0f, #0x1
    8820:	0f 5b a8    	bset.b    0x1b0f, #0x2
    8822:	00 00 eb    	clr.w     w0
    8824:	20 b7 88    	mov.w     w0, 0x16e4
    8826:	cb 62 a9    	bclr.b    0x2cb, #0x3
    8828:	e0 95 28    	mov.w     #0x895e, w0
    882a:	30 b7 88    	mov.w     w0, 0x16e6
    882c:	00 80 fa    	ulnk      
    882e:	00 00 06    	return    

00008830 <_ent_waypointS>:
    8830:	00 00 fa    	lnk       #0x0
    8832:	0e fb a8    	bset.b    0x1b0e, #0x7
    8834:	0f 1b a8    	bset.b    0x1b0f, #0x0
    8836:	0f 3b a8    	bset.b    0x1b0f, #0x1
    8838:	0f 5b a8    	bset.b    0x1b0f, #0x2
    883a:	00 00 eb    	clr.w     w0
    883c:	20 b7 88    	mov.w     w0, 0x16e4
    883e:	10 00 20    	mov.w     #0x1, w0
    8840:	5c f5 07    	rcall     0x72fa <_init_flightplan>
    8842:	cb 62 a9    	bclr.b    0x2cb, #0x3
    8844:	00 9a 28    	mov.w     #0x89a0, w0
    8846:	30 b7 88    	mov.w     w0, 0x16e6
    8848:	00 80 fa    	ulnk      
    884a:	00 00 06    	return    

0000884c <_ent_returnS>:
    884c:	00 00 fa    	lnk       #0x0
    884e:	0e fb a8    	bset.b    0x1b0e, #0x7
    8850:	0f 1b a8    	bset.b    0x1b0f, #0x0
    8852:	0f 3b a8    	bset.b    0x1b0f, #0x1
    8854:	0f 5b a8    	bset.b    0x1b0f, #0x2
    8856:	00 00 eb    	clr.w     w0
    8858:	50 f5 07    	rcall     0x72fa <_init_flightplan>
    885a:	00 00 eb    	clr.w     w0
    885c:	20 b7 88    	mov.w     w0, 0x16e4
    885e:	cb 62 a9    	bclr.b    0x2cb, #0x3
    8860:	a0 9e 28    	mov.w     #0x89ea, w0
    8862:	30 b7 88    	mov.w     w0, 0x16e6
    8864:	00 80 fa    	ulnk      
    8866:	00 00 06    	return    

00008868 <_startS>:
    8868:	00 00 fa    	lnk       #0x0
    886a:	a8 ff 07    	rcall     0x87bc <_ent_calibrateS>
    886c:	00 80 fa    	ulnk      
    886e:	00 00 06    	return    

00008870 <_calibrateS>:
    8870:	00 00 fa    	lnk       #0x0
    8872:	00 da 80    	mov.w     0x1b40, w0
    8874:	70 00 60    	and.w     w0, #0x10, w0
    8876:	00 00 e0    	cp0.w     w0
    8878:	17 00 32    	bra       Z, 0x88a8 <.L39>
    887a:	cb c2 bf    	mov.b     0x2cb, WREG
    887c:	00 80 fb    	ze        w0, w0
    887e:	43 00 de    	lsr.w     w0, #0x3, w0
    8880:	00 04 a2    	btg.b     w0, #0x0
    8882:	61 40 60    	and.b     w0, #0x1, w0
    8884:	61 40 60    	and.b     w0, #0x1, w0
    8886:	61 40 60    	and.b     w0, #0x1, w0
    8888:	61 40 60    	and.b     w0, #0x1, w0
    888a:	43 01 dd    	sl.w      w0, #0x3, w2
    888c:	b1 2c 20    	mov.w     #0x2cb, w1
    888e:	91 40 78    	mov.b     [w1], w1
    8890:	70 cf b3    	mov.b     #0xf7, w0
    8892:	00 c0 60    	and.b     w1, w0, w0
    8894:	02 40 70    	ior.b     w0, w2, w0
    8896:	cb e2 b7    	mov.b     WREG, 0x2cb
    8898:	90 d8 80    	mov.w     0x1b12, w0
    889a:	00 00 e9    	dec.w     w0, w0
    889c:	90 d8 88    	mov.w     w0, 0x1b12
    889e:	90 d8 80    	mov.w     0x1b12, w0
    88a0:	00 00 e0    	cp0.w     w0
    88a2:	03 00 3c    	bra       GT, 0x88aa <.L44>
    88a4:	99 ff 07    	rcall     0x87d8 <_ent_acquiringS>
    88a6:	01 00 37    	bra       0x88aa <.L44>

000088a8 <.L39>:
    88a8:	89 ff 07    	rcall     0x87bc <_ent_calibrateS>

000088aa <.L44>:
    88aa:	00 80 fa    	ulnk      
    88ac:	00 00 06    	return    

000088ae <_acquiringS>:
    88ae:	00 00 fa    	lnk       #0x0
    88b0:	10 5e 80    	mov.w     0xbc2, w0
    88b2:	01 04 20    	mov.w     #0x40, w1
    88b4:	01 00 60    	and.w     w0, w1, w0
    88b6:	00 00 e0    	cp0.w     w0
    88b8:	2b 00 32    	bra       Z, 0x8910 <.L46>
    88ba:	20 b0 80    	mov.w     0x1604, w0
    88bc:	e6 0f 50    	sub.w     w0, #0x6, [w15]
    88be:	28 00 34    	bra       LE, 0x8910 <.L46>
    88c0:	00 da 80    	mov.w     0x1b40, w0
    88c2:	70 00 60    	and.w     w0, #0x10, w0
    88c4:	00 00 e0    	cp0.w     w0
    88c6:	21 00 32    	bra       Z, 0x890a <.L49>
    88c8:	a0 d8 80    	mov.w     0x1b14, w0
    88ca:	e5 0f 50    	sub.w     w0, #0x5, [w15]
    88cc:	03 00 3a    	bra       NZ, 0x88d4 <.L51>
    88ce:	c0 12 20    	mov.w     #0x12c, w0
    88d0:	20 b7 88    	mov.w     w0, 0x16e4
    88d2:	09 00 37    	bra       0x88e6 <.L53>

000088d4 <.L51>:
    88d4:	a0 d8 80    	mov.w     0x1b14, w0
    88d6:	e4 0f 50    	sub.w     w0, #0x4, [w15]
    88d8:	04 00 3c    	bra       GT, 0x88e2 <.L54>
    88da:	20 b7 80    	mov.w     0x16e4, w0
    88dc:	00 00 ea    	neg.w     w0, w0
    88de:	20 b7 88    	mov.w     w0, 0x16e4
    88e0:	02 00 37    	bra       0x88e6 <.L53>

000088e2 <.L54>:
    88e2:	00 00 eb    	clr.w     w0
    88e4:	20 b7 88    	mov.w     w0, 0x16e4

000088e6 <.L53>:
    88e6:	a0 d8 80    	mov.w     0x1b14, w0
    88e8:	00 00 e9    	dec.w     w0, w0
    88ea:	a0 d8 88    	mov.w     w0, 0x1b14
    88ec:	a0 d8 80    	mov.w     0x1b14, w0
    88ee:	e6 0f 50    	sub.w     w0, #0x6, [w15]
    88f0:	02 00 3a    	bra       NZ, 0x88f6 <.L56>
    88f2:	0e db a8    	bset.b    0x1b0e, #0x6
    88f4:	0f 00 37    	bra       0x8914 <.L64>

000088f6 <.L56>:
    88f6:	a0 d8 80    	mov.w     0x1b14, w0
    88f8:	e2 0f 50    	sub.w     w0, #0x2, [w15]
    88fa:	02 00 3a    	bra       NZ, 0x8900 <.L59>
    88fc:	c2 0b a8    	bset.b    0xbc2, #0x0
    88fe:	0a 00 37    	bra       0x8914 <.L64>

00008900 <.L59>:
    8900:	a0 d8 80    	mov.w     0x1b14, w0
    8902:	00 00 e0    	cp0.w     w0
    8904:	07 00 3c    	bra       GT, 0x8914 <.L64>
    8906:	7a ff 07    	rcall     0x87fc <_ent_manualS>
    8908:	05 00 37    	bra       0x8914 <.L64>

0000890a <.L49>:
    890a:	00 00 eb    	clr.w     w0
    890c:	20 b7 88    	mov.w     w0, 0x16e4
    890e:	02 00 37    	bra       0x8914 <.L64>

00008910 <.L46>:
    8910:	00 00 eb    	clr.w     w0
    8912:	20 b7 88    	mov.w     w0, 0x16e4

00008914 <.L64>:
    8914:	00 80 fa    	ulnk      
    8916:	00 00 06    	return    

00008918 <_manualS>:
    8918:	00 00 fa    	lnk       #0x0
    891a:	00 da 80    	mov.w     0x1b40, w0
    891c:	70 00 60    	and.w     w0, #0x10, w0
    891e:	00 00 e0    	cp0.w     w0
    8920:	14 00 32    	bra       Z, 0x894a <.L66>
    8922:	70 d8 80    	mov.w     0x1b0e, w0
    8924:	4d 00 de    	lsr.w     w0, #0xd, w0
    8926:	61 40 60    	and.b     w0, #0x1, w0
    8928:	80 80 fb    	ze        w0, w1
    892a:	10 5e 80    	mov.w     0xbc2, w0
    892c:	46 00 de    	lsr.w     w0, #0x6, w0
    892e:	61 40 60    	and.b     w0, #0x1, w0
    8930:	00 80 fb    	ze        w0, w0
    8932:	00 80 60    	and.w     w1, w0, w0
    8934:	00 00 e0    	cp0.w     w0
    8936:	02 00 32    	bra       Z, 0x893c <.L68>
    8938:	7b ff 07    	rcall     0x8830 <_ent_waypointS>
    893a:	0f 00 37    	bra       0x895a <.L75>

0000893c <.L68>:
    893c:	70 d8 80    	mov.w     0x1b0e, w0
    893e:	01 00 21    	mov.w     #0x1000, w1
    8940:	01 00 60    	and.w     w0, w1, w0
    8942:	00 00 e0    	cp0.w     w0
    8944:	0a 00 32    	bra       Z, 0x895a <.L75>
    8946:	66 ff 07    	rcall     0x8814 <_ent_stabilizedS>
    8948:	08 00 37    	bra       0x895a <.L75>

0000894a <.L66>:
    894a:	10 5e 80    	mov.w     0xbc2, w0
    894c:	01 04 20    	mov.w     #0x40, w1
    894e:	01 00 60    	and.w     w0, w1, w0
    8950:	00 00 e0    	cp0.w     w0
    8952:	02 00 32    	bra       Z, 0x8958 <.L73>
    8954:	7b ff 07    	rcall     0x884c <_ent_returnS>
    8956:	01 00 37    	bra       0x895a <.L75>

00008958 <.L73>:
    8958:	5d ff 07    	rcall     0x8814 <_ent_stabilizedS>

0000895a <.L75>:
    895a:	00 80 fa    	ulnk      
    895c:	00 00 06    	return    

0000895e <_stabilizedS>:
    895e:	00 00 fa    	lnk       #0x0
    8960:	00 da 80    	mov.w     0x1b40, w0
    8962:	70 00 60    	and.w     w0, #0x10, w0
    8964:	00 00 e0    	cp0.w     w0
    8966:	14 00 32    	bra       Z, 0x8990 <.L77>
    8968:	70 d8 80    	mov.w     0x1b0e, w0
    896a:	4d 00 de    	lsr.w     w0, #0xd, w0
    896c:	61 40 60    	and.b     w0, #0x1, w0
    896e:	80 80 fb    	ze        w0, w1
    8970:	10 5e 80    	mov.w     0xbc2, w0
    8972:	46 00 de    	lsr.w     w0, #0x6, w0
    8974:	61 40 60    	and.b     w0, #0x1, w0
    8976:	00 80 fb    	ze        w0, w0
    8978:	00 80 60    	and.w     w1, w0, w0
    897a:	00 00 e0    	cp0.w     w0
    897c:	02 00 32    	bra       Z, 0x8982 <.L79>
    897e:	58 ff 07    	rcall     0x8830 <_ent_waypointS>
    8980:	0d 00 37    	bra       0x899c <.L85>

00008982 <.L79>:
    8982:	70 d8 80    	mov.w     0x1b0e, w0
    8984:	01 80 20    	mov.w     #0x800, w1
    8986:	01 00 60    	and.w     w0, w1, w0
    8988:	00 00 e0    	cp0.w     w0
    898a:	08 00 32    	bra       Z, 0x899c <.L85>
    898c:	37 ff 07    	rcall     0x87fc <_ent_manualS>
    898e:	06 00 37    	bra       0x899c <.L85>

00008990 <.L77>:
    8990:	10 5e 80    	mov.w     0xbc2, w0
    8992:	01 04 20    	mov.w     #0x40, w1
    8994:	01 00 60    	and.w     w0, w1, w0
    8996:	00 00 e0    	cp0.w     w0
    8998:	01 00 32    	bra       Z, 0x899c <.L85>
    899a:	58 ff 07    	rcall     0x884c <_ent_returnS>

0000899c <.L85>:
    899c:	00 80 fa    	ulnk      
    899e:	00 00 06    	return    

000089a0 <_waypointS>:
    89a0:	00 00 fa    	lnk       #0x0
    89a2:	cb c2 bf    	mov.b     0x2cb, WREG
    89a4:	00 80 fb    	ze        w0, w0
    89a6:	43 00 de    	lsr.w     w0, #0x3, w0
    89a8:	00 04 a2    	btg.b     w0, #0x0
    89aa:	61 40 60    	and.b     w0, #0x1, w0
    89ac:	61 40 60    	and.b     w0, #0x1, w0
    89ae:	61 40 60    	and.b     w0, #0x1, w0
    89b0:	61 40 60    	and.b     w0, #0x1, w0
    89b2:	43 01 dd    	sl.w      w0, #0x3, w2
    89b4:	b1 2c 20    	mov.w     #0x2cb, w1
    89b6:	91 40 78    	mov.b     [w1], w1
    89b8:	70 cf b3    	mov.b     #0xf7, w0
    89ba:	00 c0 60    	and.b     w1, w0, w0
    89bc:	02 40 70    	ior.b     w0, w2, w0
    89be:	cb e2 b7    	mov.b     WREG, 0x2cb
    89c0:	00 da 80    	mov.w     0x1b40, w0
    89c2:	70 00 60    	and.w     w0, #0x10, w0
    89c4:	00 00 e0    	cp0.w     w0
    89c6:	0e 00 32    	bra       Z, 0x89e4 <.L87>
    89c8:	70 d8 80    	mov.w     0x1b0e, w0
    89ca:	01 80 20    	mov.w     #0x800, w1
    89cc:	01 00 60    	and.w     w0, w1, w0
    89ce:	00 00 e0    	cp0.w     w0
    89d0:	02 00 32    	bra       Z, 0x89d6 <.L89>
    89d2:	14 ff 07    	rcall     0x87fc <_ent_manualS>
    89d4:	08 00 37    	bra       0x89e6 <.L94>

000089d6 <.L89>:
    89d6:	70 d8 80    	mov.w     0x1b0e, w0
    89d8:	01 00 21    	mov.w     #0x1000, w1
    89da:	01 00 60    	and.w     w0, w1, w0
    89dc:	00 00 e0    	cp0.w     w0
    89de:	03 00 32    	bra       Z, 0x89e6 <.L94>
    89e0:	19 ff 07    	rcall     0x8814 <_ent_stabilizedS>
    89e2:	01 00 37    	bra       0x89e6 <.L94>

000089e4 <.L87>:
    89e4:	33 ff 07    	rcall     0x884c <_ent_returnS>

000089e6 <.L94>:
    89e6:	00 80 fa    	ulnk      
    89e8:	00 00 06    	return    

000089ea <_returnS>:
    89ea:	00 00 fa    	lnk       #0x0
    89ec:	00 da 80    	mov.w     0x1b40, w0
    89ee:	70 00 60    	and.w     w0, #0x10, w0
    89f0:	00 00 e0    	cp0.w     w0
    89f2:	1a 00 32    	bra       Z, 0x8a28 <.L103>
    89f4:	70 d8 80    	mov.w     0x1b0e, w0
    89f6:	01 80 20    	mov.w     #0x800, w1
    89f8:	01 00 60    	and.w     w0, w1, w0
    89fa:	00 00 e0    	cp0.w     w0
    89fc:	02 00 32    	bra       Z, 0x8a02 <.L98>
    89fe:	fe fe 07    	rcall     0x87fc <_ent_manualS>
    8a00:	13 00 37    	bra       0x8a28 <.L103>

00008a02 <.L98>:
    8a02:	70 d8 80    	mov.w     0x1b0e, w0
    8a04:	01 00 21    	mov.w     #0x1000, w1
    8a06:	01 00 60    	and.w     w0, w1, w0
    8a08:	00 00 e0    	cp0.w     w0
    8a0a:	02 00 32    	bra       Z, 0x8a10 <.L100>
    8a0c:	03 ff 07    	rcall     0x8814 <_ent_stabilizedS>
    8a0e:	0c 00 37    	bra       0x8a28 <.L103>

00008a10 <.L100>:
    8a10:	70 d8 80    	mov.w     0x1b0e, w0
    8a12:	4d 00 de    	lsr.w     w0, #0xd, w0
    8a14:	61 40 60    	and.b     w0, #0x1, w0
    8a16:	80 80 fb    	ze        w0, w1
    8a18:	10 5e 80    	mov.w     0xbc2, w0
    8a1a:	46 00 de    	lsr.w     w0, #0x6, w0
    8a1c:	61 40 60    	and.b     w0, #0x1, w0
    8a1e:	00 80 fb    	ze        w0, w0
    8a20:	00 80 60    	and.w     w1, w0, w0
    8a22:	00 00 e0    	cp0.w     w0
    8a24:	01 00 32    	bra       Z, 0x8a28 <.L103>
    8a26:	04 ff 07    	rcall     0x8830 <_ent_waypointS>

00008a28 <.L103>:
    8a28:	00 80 fa    	ulnk      
    8a2a:	00 00 06    	return    

00008a2c <_udb_init_GPS>:
    8a2c:	00 00 fa    	lnk       #0x0
    8a2e:	21 e2 a9    	bclr.b    0x221, #0x7
    8a30:	21 a2 a9    	bclr.b    0x221, #0x5
    8a32:	21 82 a9    	bclr.b    0x221, #0x4
    8a34:	21 62 a9    	bclr.b    0x221, #0x3
    8a36:	11 22 20    	mov.w     #0x221, w1
    8a38:	91 40 78    	mov.b     [w1], w1
    8a3a:	c0 cf b3    	mov.b     #0xfc, w0
    8a3c:	00 c0 60    	and.b     w1, w0, w0
    8a3e:	21 e2 b7    	mov.b     WREG, 0x221
    8a40:	20 e2 a9    	bclr.b    0x220, #0x7
    8a42:	20 c2 a9    	bclr.b    0x220, #0x6
    8a44:	20 a2 a9    	bclr.b    0x220, #0x5
    8a46:	20 82 a9    	bclr.b    0x220, #0x4
    8a48:	20 62 a8    	bset.b    0x220, #0x3
    8a4a:	01 22 20    	mov.w     #0x220, w1
    8a4c:	91 40 78    	mov.b     [w1], w1
    8a4e:	90 cf b3    	mov.b     #0xf9, w0
    8a50:	00 c0 60    	and.b     w1, w0, w0
    8a52:	20 e2 b7    	mov.b     WREG, 0x220
    8a54:	20 02 a9    	bclr.b    0x220, #0x0
    8a56:	23 e2 a9    	bclr.b    0x223, #0x7
    8a58:	23 c2 a9    	bclr.b    0x223, #0x6
    8a5a:	23 a2 a8    	bset.b    0x223, #0x5
    8a5c:	23 62 a9    	bclr.b    0x223, #0x3
    8a5e:	22 c2 bf    	mov.b     0x222, WREG
    8a60:	f0 43 b2    	and.b     #0x3f, w0
    8a62:	22 e2 b7    	mov.b     WREG, 0x222
    8a64:	22 a2 a9    	bclr.b    0x222, #0x5
    8a66:	22 22 a9    	bclr.b    0x222, #0x1
    8a68:	91 0a 20    	mov.w     #0xa9, w1
    8a6a:	91 40 78    	mov.b     [w1], w1
    8a6c:	f0 c8 b3    	mov.b     #0x8f, w0
    8a6e:	00 c0 60    	and.b     w1, w0, w0
    8a70:	01 c3 b3    	mov.b     #0x30, w1
    8a72:	01 40 70    	ior.b     w0, w1, w0
    8a74:	a9 e0 b7    	mov.b     WREG, 0xa9
    8a76:	85 80 a9    	bclr.b    0x85, #0x4
    8a78:	95 80 a8    	bset.b    0x95, #0x4
    8a7a:	85 60 a9    	bclr.b    0x85, #0x3
    8a7c:	95 60 a8    	bset.b    0x95, #0x3
    8a7e:	21 e2 a8    	bset.b    0x221, #0x7
    8a80:	23 42 a8    	bset.b    0x223, #0x2
    8a82:	00 80 fa    	ulnk      
    8a84:	00 00 06    	return    

00008a86 <_udb_gps_set_rate>:
    8a86:	04 00 fa    	lnk       #0x4
    8a88:	00 8f be    	mov.d     w0, [w14]
    8a8a:	1e 00 be    	mov.d     [w14], w0
    8a8c:	42 09 dd    	sl.w      w1, #0x2, w2
    8a8e:	ce 01 de    	lsr.w     w0, #0xe, w3
    8a90:	83 01 71    	ior.w     w2, w3, w3
    8a92:	42 01 dd    	sl.w      w0, #0x2, w2
    8a94:	00 a0 25    	mov.w     #0x5a00, w0
    8a96:	21 26 20    	mov.w     #0x262, w1
    8a98:	d0 c0 07    	rcall     0xc3a <___divsi3>
    8a9a:	00 00 e9    	dec.w     w0, w0
    8a9c:	40 11 88    	mov.w     w0, 0x228
    8a9e:	00 80 fa    	ulnk      
    8aa0:	00 00 06    	return    

00008aa2 <_udb_gps_check_rate>:
    8aa2:	06 00 fa    	lnk       #0x6
    8aa4:	00 8f be    	mov.d     w0, [w14]
    8aa6:	1e 00 be    	mov.d     [w14], w0
    8aa8:	42 09 dd    	sl.w      w1, #0x2, w2
    8aaa:	ce 01 de    	lsr.w     w0, #0xe, w3
    8aac:	83 01 71    	ior.w     w2, w3, w3
    8aae:	42 01 dd    	sl.w      w0, #0x2, w2
    8ab0:	00 a0 25    	mov.w     #0x5a00, w0
    8ab2:	21 26 20    	mov.w     #0x262, w1
    8ab4:	c2 c0 07    	rcall     0xc3a <___divsi3>
    8ab6:	00 00 e9    	dec.w     w0, w0
    8ab8:	80 00 78    	mov.w     w0, w1
    8aba:	40 11 80    	mov.w     0x228, w0
    8abc:	00 01 eb    	clr.w     w2
    8abe:	22 07 98    	mov.w     w2, [w14+4]
    8ac0:	80 8f 50    	sub.w     w1, w0, [w15]
    8ac2:	02 00 3a    	bra       NZ, 0x8ac8 <.L6>
    8ac4:	10 00 20    	mov.w     #0x1, w0
    8ac6:	20 07 98    	mov.w     w0, [w14+4]

00008ac8 <.L6>:
    8ac8:	2e 00 90    	mov.w     [w14+4], w0
    8aca:	00 80 fa    	ulnk      
    8acc:	00 00 06    	return    

00008ace <__U1RXInterrupt>:
    8ace:	36 00 f8    	push      0x36
    8ad0:	80 9f be    	mov.d     w0, [w15++]
    8ad2:	82 9f be    	mov.d     w2, [w15++]
    8ad4:	84 9f be    	mov.d     w4, [w15++]
    8ad6:	86 9f be    	mov.d     w6, [w15++]
    8ad8:	34 00 f8    	push      0x34
    8ada:	00 00 20    	mov.w     #0x0, w0
    8adc:	a0 01 88    	mov.w     w0, 0x34
    8ade:	08 00 fa    	lnk       #0x8
    8ae0:	30 55 80    	mov.w     0xaa6, w0
    8ae2:	00 00 e0    	cp0.w     w0
    8ae4:	1a 00 32    	bra       Z, 0x8b1a <.L9>

00008ae6 <.bb>:
    8ae6:	44 00 f8    	push      0x44
    8ae8:	42 00 f8    	push      0x42
    8aea:	46 00 f8    	push      0x46
    8aec:	50 00 f8    	push      0x50
    8aee:	22 00 f8    	push      0x22
    8af0:	24 00 f8    	push      0x24
    8af2:	26 00 f8    	push      0x26
    8af4:	28 00 f8    	push      0x28
    8af6:	2a 00 f8    	push      0x2a
    8af8:	2c 00 f8    	push      0x2c
    8afa:	36 00 f8    	push      0x36
    8afc:	38 00 f8    	push      0x38
    8afe:	3a 00 f8    	push      0x3a
    8b00:	3c 00 f8    	push      0x3c
    8b02:	3e 00 f8    	push      0x3e
    8b04:	40 00 f8    	push      0x40
    8b06:	10 00 20    	mov.w     #0x1, w0
    8b08:	30 07 98    	mov.w     w0, [w14+6]
    8b0a:	3e 00 90    	mov.w     [w14+6], w0
    8b0c:	80 1f 78    	mov.w     w0, [w15++]
    8b0e:	30 07 98    	mov.w     w0, [w14+6]
    8b10:	40 55 80    	mov.w     0xaa8, w0
    8b12:	20 02 88    	mov.w     w0, 0x44
    8b14:	00 00 eb    	clr.w     w0
    8b16:	30 55 88    	mov.w     w0, 0xaa6
    8b18:	05 00 37    	bra       0x8b24 <.L11>

00008b1a <.L9>:
    8b1a:	00 00 eb    	clr.w     w0
    8b1c:	20 07 98    	mov.w     w0, [w14+4]
    8b1e:	2e 00 90    	mov.w     [w14+4], w0
    8b20:	80 1f 78    	mov.w     w0, [w15++]
    8b22:	20 07 98    	mov.w     w0, [w14+4]

00008b24 <.L11>:
    8b24:	21 e1 a8    	bset.b    0x121, #0x7
    8b26:	04 00 37    	bra       0x8b30 <.L12>

00008b28 <.L13>:
    8b28:	30 11 80    	mov.w     0x226, w0
    8b2a:	20 47 98    	mov.b     w0, [w14+2]
    8b2c:	2e 40 90    	mov.b     [w14+2], w0
    8b2e:	ed 10 07    	rcall     0xad0a <_udb_gps_callback_received_char>

00008b30 <.L12>:
    8b30:	22 c2 bf    	mov.b     0x222, WREG
    8b32:	61 40 60    	and.b     w0, #0x1, w0
    8b34:	00 04 e0    	cp0.b     w0
    8b36:	f8 ff 3a    	bra       NZ, 0x8b28 <.L13>
    8b38:	85 60 a9    	bclr.b    0x85, #0x3
    8b3a:	22 c2 bf    	mov.b     0x222, WREG
    8b3c:	62 40 60    	and.b     w0, #0x2, w0
    8b3e:	00 04 e0    	cp0.b     w0
    8b40:	01 00 32    	bra       Z, 0x8b44 <.L15>
    8b42:	22 22 a9    	bclr.b    0x222, #0x1

00008b44 <.L15>:
    8b44:	1e 00 78    	mov.w     [w14], w0
    8b46:	4f 00 78    	mov.w     [--w15], w0
    8b48:	00 0f 78    	mov.w     w0, [w14]
    8b4a:	1e 00 e0    	cp0.w     [w14]
    8b4c:	12 00 32    	bra       Z, 0x8b72 <.L19>
    8b4e:	40 00 f9    	pop       0x40
    8b50:	3e 00 f9    	pop       0x3e
    8b52:	3c 00 f9    	pop       0x3c
    8b54:	3a 00 f9    	pop       0x3a
    8b56:	38 00 f9    	pop       0x38
    8b58:	36 00 f9    	pop       0x36
    8b5a:	2c 00 f9    	pop       0x2c
    8b5c:	2a 00 f9    	pop       0x2a
    8b5e:	28 00 f9    	pop       0x28
    8b60:	26 00 f9    	pop       0x26
    8b62:	24 00 f9    	pop       0x24
    8b64:	22 00 f9    	pop       0x22
    8b66:	50 00 f9    	pop       0x50
    8b68:	46 00 f9    	pop       0x46
    8b6a:	42 00 f9    	pop       0x42
    8b6c:	44 00 f9    	pop       0x44
    8b6e:	10 00 20    	mov.w     #0x1, w0
    8b70:	30 55 88    	mov.w     w0, 0xaa6

00008b72 <.L19>:
    8b72:	00 80 fa    	ulnk      
    8b74:	34 00 f9    	pop       0x34
    8b76:	4f 03 be    	mov.d     [--w15], w6
    8b78:	4f 02 be    	mov.d     [--w15], w4
    8b7a:	4f 01 be    	mov.d     [--w15], w2
    8b7c:	4f 00 be    	mov.d     [--w15], w0
    8b7e:	36 00 f9    	pop       0x36
    8b80:	00 40 06    	retfie    

00008b82 <_udb_gps_send_packet>:
    8b82:	04 00 fa    	lnk       #0x4
    8b84:	00 0f 78    	mov.w     w0, [w14]
    8b86:	11 07 98    	mov.w     w1, [w14+2]
    8b88:	21 e1 a8    	bset.b    0x121, #0x7
    8b8a:	9e 00 90    	mov.w     [w14+2], w1
    8b8c:	f0 1f 20    	mov.w     #0x1ff, w0
    8b8e:	80 8f 50    	sub.w     w1, w0, [w15]
    8b90:	02 00 34    	bra       LE, 0x8b96 <.L21>
    8b92:	f0 1f 20    	mov.w     #0x1ff, w0
    8b94:	10 07 98    	mov.w     w0, [w14+2]

00008b96 <.L21>:
    8b96:	d1 d9 80    	mov.w     0x1b3a, w1
    8b98:	10 b9 80    	mov.w     0x1722, w0
    8b9a:	80 8f 50    	sub.w     w1, w0, [w15]
    8b9c:	06 00 3a    	bra       NZ, 0x8baa <.L23>
    8b9e:	ff 0f fc    	disi      #0xfff
    8ba0:	00 00 eb    	clr.w     w0
    8ba2:	d0 d9 88    	mov.w     w0, 0x1b3a
    8ba4:	00 00 eb    	clr.w     w0
    8ba6:	10 b9 88    	mov.w     w0, 0x1722
    8ba8:	00 00 fc    	disi      #0x0

00008baa <.L23>:
    8baa:	d2 d9 80    	mov.w     0x1b3a, w2
    8bac:	1e 00 78    	mov.w     [w14], w0
    8bae:	90 40 78    	mov.b     [w0], w1
    8bb0:	00 c0 21    	mov.w     #0x1c00, w0
    8bb2:	00 00 41    	add.w     w2, w0, w0
    8bb4:	01 48 78    	mov.b     w1, [w0]
    8bb6:	d0 d9 80    	mov.w     0x1b3a, w0
    8bb8:	00 00 e8    	inc.w     w0, w0
    8bba:	d0 d9 88    	mov.w     w0, 0x1b3a
    8bbc:	1e 0f e8    	inc.w     [w14], [w14]
    8bbe:	1e 00 90    	mov.w     [w14+2], w0
    8bc0:	00 00 e9    	dec.w     w0, w0
    8bc2:	10 07 98    	mov.w     w0, [w14+2]
    8bc4:	d1 d9 80    	mov.w     0x1b3a, w1
    8bc6:	f0 1f 20    	mov.w     #0x1ff, w0
    8bc8:	80 8f 50    	sub.w     w1, w0, [w15]
    8bca:	02 00 34    	bra       LE, 0x8bd0 <.L25>
    8bcc:	00 00 eb    	clr.w     w0
    8bce:	d0 d9 88    	mov.w     w0, 0x1b3a

00008bd0 <.L25>:
    8bd0:	1e 00 90    	mov.w     [w14+2], w0
    8bd2:	00 00 e0    	cp0.w     w0
    8bd4:	ea ff 3c    	bra       GT, 0x8baa <.L23>
    8bd6:	85 80 a8    	bset.b    0x85, #0x4
    8bd8:	00 80 fa    	ulnk      
    8bda:	00 00 06    	return    

00008bdc <_udb_gps_send_char>:
    8bdc:	04 00 fa    	lnk       #0x4
    8bde:	20 47 98    	mov.b     w0, [w14+2]
    8be0:	2e 40 90    	mov.b     [w14+2], w0
    8be2:	00 4f 78    	mov.b     w0, [w14]
    8be4:	11 00 20    	mov.w     #0x1, w1
    8be6:	0e 00 78    	mov.w     w14, w0
    8be8:	cc ff 07    	rcall     0x8b82 <_udb_gps_send_packet>
    8bea:	00 80 fa    	ulnk      
    8bec:	00 00 06    	return    

00008bee <__U1TXInterrupt>:
    8bee:	80 9f be    	mov.d     w0, [w15++]
    8bf0:	02 00 fa    	lnk       #0x2
    8bf2:	21 e1 a8    	bset.b    0x121, #0x7
    8bf4:	0e 00 37    	bra       0x8c12 <.L32>

00008bf6 <.L33>:
    8bf6:	11 b9 80    	mov.w     0x1722, w1
    8bf8:	00 c0 21    	mov.w     #0x1c00, w0
    8bfa:	00 80 40    	add.w     w1, w0, w0
    8bfc:	10 4f 78    	mov.b     [w0], [w14]
    8bfe:	01 00 e8    	inc.w     w1, w0
    8c00:	10 b9 88    	mov.w     w0, 0x1722
    8c02:	1e 80 fb    	ze        [w14], w0
    8c04:	20 11 88    	mov.w     w0, 0x224
    8c06:	11 b9 80    	mov.w     0x1722, w1
    8c08:	f0 1f 20    	mov.w     #0x1ff, w0
    8c0a:	80 8f 50    	sub.w     w1, w0, [w15]
    8c0c:	02 00 34    	bra       LE, 0x8c12 <.L32>
    8c0e:	00 00 eb    	clr.w     w0
    8c10:	10 b9 88    	mov.w     w0, 0x1722

00008c12 <.L32>:
    8c12:	23 c2 bf    	mov.b     0x223, WREG
    8c14:	62 40 60    	and.b     w0, #0x2, w0
    8c16:	00 04 e0    	cp0.b     w0
    8c18:	04 00 3a    	bra       NZ, 0x8c22 <.L35>
    8c1a:	d1 d9 80    	mov.w     0x1b3a, w1
    8c1c:	10 b9 80    	mov.w     0x1722, w0
    8c1e:	80 8f 50    	sub.w     w1, w0, [w15]
    8c20:	ea ff 3a    	bra       NZ, 0x8bf6 <.L33>

00008c22 <.L35>:
    8c22:	85 80 a9    	bclr.b    0x85, #0x4
    8c24:	00 80 fa    	ulnk      
    8c26:	4f 00 be    	mov.d     [--w15], w0
    8c28:	00 40 06    	retfie    

00008c2a <_udb_init_USART>:
    8c2a:	00 00 fa    	lnk       #0x0
    8c2c:	31 e2 a9    	bclr.b    0x231, #0x7
    8c2e:	31 a2 a9    	bclr.b    0x231, #0x5
    8c30:	31 82 a9    	bclr.b    0x231, #0x4
    8c32:	31 62 a9    	bclr.b    0x231, #0x3
    8c34:	11 23 20    	mov.w     #0x231, w1
    8c36:	91 40 78    	mov.b     [w1], w1
    8c38:	c0 cf b3    	mov.b     #0xfc, w0
    8c3a:	00 c0 60    	and.b     w1, w0, w0
    8c3c:	31 e2 b7    	mov.b     WREG, 0x231
    8c3e:	30 e2 a9    	bclr.b    0x230, #0x7
    8c40:	30 c2 a9    	bclr.b    0x230, #0x6
    8c42:	30 a2 a9    	bclr.b    0x230, #0x5
    8c44:	30 82 a9    	bclr.b    0x230, #0x4
    8c46:	30 62 a8    	bset.b    0x230, #0x3
    8c48:	01 23 20    	mov.w     #0x230, w1
    8c4a:	91 40 78    	mov.b     [w1], w1
    8c4c:	90 cf b3    	mov.b     #0xf9, w0
    8c4e:	00 c0 60    	and.b     w1, w0, w0
    8c50:	30 e2 b7    	mov.b     WREG, 0x230
    8c52:	30 02 a9    	bclr.b    0x230, #0x0
    8c54:	33 e2 a8    	bset.b    0x233, #0x7
    8c56:	33 c2 a9    	bclr.b    0x233, #0x6
    8c58:	33 a2 a9    	bclr.b    0x233, #0x5
    8c5a:	33 62 a9    	bclr.b    0x233, #0x3
    8c5c:	32 c2 bf    	mov.b     0x232, WREG
    8c5e:	f0 43 b2    	and.b     #0x3f, w0
    8c60:	32 e2 b7    	mov.b     WREG, 0x232
    8c62:	32 a2 a9    	bclr.b    0x232, #0x5
    8c64:	32 22 a9    	bclr.b    0x232, #0x1
    8c66:	31 0b 20    	mov.w     #0xb3, w1
    8c68:	91 40 78    	mov.b     [w1], w1
    8c6a:	f0 c8 b3    	mov.b     #0x8f, w0
    8c6c:	00 c0 60    	and.b     w1, w0, w0
    8c6e:	01 c3 b3    	mov.b     #0x30, w1
    8c70:	01 40 70    	ior.b     w0, w1, w0
    8c72:	b3 e0 b7    	mov.b     WREG, 0xb3
    8c74:	31 0b 20    	mov.w     #0xb3, w1
    8c76:	91 40 78    	mov.b     [w1], w1
    8c78:	80 cf b3    	mov.b     #0xf8, w0
    8c7a:	00 c0 60    	and.b     w1, w0, w0
    8c7c:	30 40 b3    	ior.b     #0x3, w0
    8c7e:	b3 e0 b7    	mov.b     WREG, 0xb3
    8c80:	87 e0 a9    	bclr.b    0x87, #0x7
    8c82:	97 e0 a8    	bset.b    0x97, #0x7
    8c84:	87 c0 a9    	bclr.b    0x87, #0x6
    8c86:	97 c0 a8    	bset.b    0x97, #0x6
    8c88:	31 e2 a8    	bset.b    0x231, #0x7
    8c8a:	33 42 a8    	bset.b    0x233, #0x2
    8c8c:	00 80 fa    	ulnk      
    8c8e:	00 00 06    	return    

00008c90 <_udb_serial_set_rate>:
    8c90:	04 00 fa    	lnk       #0x4
    8c92:	00 8f be    	mov.d     w0, [w14]
    8c94:	1e 00 be    	mov.d     [w14], w0
    8c96:	42 09 dd    	sl.w      w1, #0x2, w2
    8c98:	ce 01 de    	lsr.w     w0, #0xe, w3
    8c9a:	83 01 71    	ior.w     w2, w3, w3
    8c9c:	42 01 dd    	sl.w      w0, #0x2, w2
    8c9e:	00 a0 25    	mov.w     #0x5a00, w0
    8ca0:	21 26 20    	mov.w     #0x262, w1
    8ca2:	cb bf 07    	rcall     0xc3a <___divsi3>
    8ca4:	00 00 e9    	dec.w     w0, w0
    8ca6:	c0 11 88    	mov.w     w0, 0x238
    8ca8:	00 80 fa    	ulnk      
    8caa:	00 00 06    	return    

00008cac <_udb_serial_start_sending>:
    8cac:	00 00 fa    	lnk       #0x0
    8cae:	87 e0 a8    	bset.b    0x87, #0x7
    8cb0:	00 80 fa    	ulnk      
    8cb2:	00 00 06    	return    

00008cb4 <__U2RXInterrupt>:
    8cb4:	36 00 f8    	push      0x36
    8cb6:	80 9f be    	mov.d     w0, [w15++]
    8cb8:	82 9f be    	mov.d     w2, [w15++]
    8cba:	84 9f be    	mov.d     w4, [w15++]
    8cbc:	86 9f be    	mov.d     w6, [w15++]
    8cbe:	02 00 fa    	lnk       #0x2
    8cc0:	21 e1 a8    	bset.b    0x121, #0x7
    8cc2:	04 00 37    	bra       0x8ccc <.L46>

00008cc4 <.L47>:
    8cc4:	b0 11 80    	mov.w     0x236, w0
    8cc6:	00 4f 78    	mov.b     w0, [w14]
    8cc8:	1e 40 78    	mov.b     [w14], w0
    8cca:	be d1 07    	rcall     0x3048 <_udb_serial_callback_received_char>

00008ccc <.L46>:
    8ccc:	32 c2 bf    	mov.b     0x232, WREG
    8cce:	61 40 60    	and.b     w0, #0x1, w0
    8cd0:	00 04 e0    	cp0.b     w0
    8cd2:	f8 ff 3a    	bra       NZ, 0x8cc4 <.L47>
    8cd4:	87 c0 a9    	bclr.b    0x87, #0x6
    8cd6:	32 c2 bf    	mov.b     0x232, WREG
    8cd8:	62 40 60    	and.b     w0, #0x2, w0
    8cda:	00 04 e0    	cp0.b     w0
    8cdc:	01 00 32    	bra       Z, 0x8ce0 <.L51>
    8cde:	32 22 a9    	bclr.b    0x232, #0x1

00008ce0 <.L51>:
    8ce0:	00 80 fa    	ulnk      
    8ce2:	4f 03 be    	mov.d     [--w15], w6
    8ce4:	4f 02 be    	mov.d     [--w15], w4
    8ce6:	4f 01 be    	mov.d     [--w15], w2
    8ce8:	4f 00 be    	mov.d     [--w15], w0
    8cea:	36 00 f9    	pop       0x36
    8cec:	00 40 06    	retfie    

00008cee <_udb_serial_send_packet>:
    8cee:	04 00 fa    	lnk       #0x4
    8cf0:	00 0f 78    	mov.w     w0, [w14]
    8cf2:	11 07 98    	mov.w     w1, [w14+2]
    8cf4:	9e 00 90    	mov.w     [w14+2], w1
    8cf6:	f0 1f 20    	mov.w     #0x1ff, w0
    8cf8:	80 8f 50    	sub.w     w1, w0, [w15]
    8cfa:	02 00 34    	bra       LE, 0x8d00 <.L53>
    8cfc:	f0 1f 20    	mov.w     #0x1ff, w0
    8cfe:	10 07 98    	mov.w     w0, [w14+2]

00008d00 <.L53>:
    8d00:	e1 d9 80    	mov.w     0x1b3c, w1
    8d02:	20 b9 80    	mov.w     0x1724, w0
    8d04:	80 8f 50    	sub.w     w1, w0, [w15]
    8d06:	06 00 3a    	bra       NZ, 0x8d14 <.L55>
    8d08:	ff 0f fc    	disi      #0xfff
    8d0a:	00 00 eb    	clr.w     w0
    8d0c:	e0 d9 88    	mov.w     w0, 0x1b3c
    8d0e:	00 00 eb    	clr.w     w0
    8d10:	20 b9 88    	mov.w     w0, 0x1724
    8d12:	00 00 fc    	disi      #0x0

00008d14 <.L55>:
    8d14:	e2 d9 80    	mov.w     0x1b3c, w2
    8d16:	1e 00 78    	mov.w     [w14], w0
    8d18:	90 40 78    	mov.b     [w0], w1
    8d1a:	00 e0 21    	mov.w     #0x1e00, w0
    8d1c:	00 00 41    	add.w     w2, w0, w0
    8d1e:	01 48 78    	mov.b     w1, [w0]
    8d20:	e0 d9 80    	mov.w     0x1b3c, w0
    8d22:	00 00 e8    	inc.w     w0, w0
    8d24:	e0 d9 88    	mov.w     w0, 0x1b3c
    8d26:	1e 0f e8    	inc.w     [w14], [w14]
    8d28:	1e 00 90    	mov.w     [w14+2], w0
    8d2a:	00 00 e9    	dec.w     w0, w0
    8d2c:	10 07 98    	mov.w     w0, [w14+2]
    8d2e:	e1 d9 80    	mov.w     0x1b3c, w1
    8d30:	f0 1f 20    	mov.w     #0x1ff, w0
    8d32:	80 8f 50    	sub.w     w1, w0, [w15]
    8d34:	02 00 34    	bra       LE, 0x8d3a <.L57>
    8d36:	00 00 eb    	clr.w     w0
    8d38:	e0 d9 88    	mov.w     w0, 0x1b3c

00008d3a <.L57>:
    8d3a:	1e 00 90    	mov.w     [w14+2], w0
    8d3c:	00 00 e0    	cp0.w     w0
    8d3e:	ea ff 3c    	bra       GT, 0x8d14 <.L55>
    8d40:	87 e0 a8    	bset.b    0x87, #0x7
    8d42:	00 80 fa    	ulnk      
    8d44:	00 00 06    	return    

00008d46 <_udb_serial_send_string>:
    8d46:	04 00 fa    	lnk       #0x4
    8d48:	10 07 98    	mov.w     w0, [w14+2]
    8d4a:	00 00 eb    	clr.w     w0
    8d4c:	00 0f 78    	mov.w     w0, [w14]
    8d4e:	e1 d9 80    	mov.w     0x1b3c, w1
    8d50:	20 b9 80    	mov.w     0x1724, w0
    8d52:	80 8f 50    	sub.w     w1, w0, [w15]
    8d54:	1a 00 3a    	bra       NZ, 0x8d8a <.L64>
    8d56:	ff 0f fc    	disi      #0xfff
    8d58:	00 00 eb    	clr.w     w0
    8d5a:	e0 d9 88    	mov.w     w0, 0x1b3c
    8d5c:	00 00 eb    	clr.w     w0
    8d5e:	20 b9 88    	mov.w     w0, 0x1724
    8d60:	00 00 fc    	disi      #0x0
    8d62:	13 00 37    	bra       0x8d8a <.L64>

00008d64 <.L65>:
    8d64:	e2 d9 80    	mov.w     0x1b3c, w2
    8d66:	1e 00 90    	mov.w     [w14+2], w0
    8d68:	90 40 78    	mov.b     [w0], w1
    8d6a:	00 e0 21    	mov.w     #0x1e00, w0
    8d6c:	00 00 41    	add.w     w2, w0, w0
    8d6e:	01 48 78    	mov.b     w1, [w0]
    8d70:	e0 d9 80    	mov.w     0x1b3c, w0
    8d72:	00 00 e8    	inc.w     w0, w0
    8d74:	e0 d9 88    	mov.w     w0, 0x1b3c
    8d76:	1e 00 90    	mov.w     [w14+2], w0
    8d78:	00 00 e8    	inc.w     w0, w0
    8d7a:	10 07 98    	mov.w     w0, [w14+2]
    8d7c:	1e 0f e8    	inc.w     [w14], [w14]
    8d7e:	e1 d9 80    	mov.w     0x1b3c, w1
    8d80:	f0 1f 20    	mov.w     #0x1ff, w0
    8d82:	80 8f 50    	sub.w     w1, w0, [w15]
    8d84:	02 00 34    	bra       LE, 0x8d8a <.L64>
    8d86:	00 00 eb    	clr.w     w0
    8d88:	e0 d9 88    	mov.w     w0, 0x1b3c

00008d8a <.L64>:
    8d8a:	e0 1f 20    	mov.w     #0x1fe, w0
    8d8c:	9e 0f 10    	subr.w    w0, [w14], [w15]
    8d8e:	04 00 3c    	bra       GT, 0x8d98 <.L67>
    8d90:	1e 00 90    	mov.w     [w14+2], w0
    8d92:	10 40 78    	mov.b     [w0], w0
    8d94:	00 04 e0    	cp0.b     w0
    8d96:	e6 ff 3a    	bra       NZ, 0x8d64 <.L65>

00008d98 <.L67>:
    8d98:	87 e0 a8    	bset.b    0x87, #0x7
    8d9a:	00 80 fa    	ulnk      
    8d9c:	00 00 06    	return    

00008d9e <_udb_serial_send_char>:
    8d9e:	04 00 fa    	lnk       #0x4
    8da0:	20 47 98    	mov.b     w0, [w14+2]
    8da2:	2e 40 90    	mov.b     [w14+2], w0
    8da4:	00 4f 78    	mov.b     w0, [w14]
    8da6:	11 00 20    	mov.w     #0x1, w1
    8da8:	0e 00 78    	mov.w     w14, w0
    8daa:	a1 ff 07    	rcall     0x8cee <_udb_serial_send_packet>
    8dac:	00 80 fa    	ulnk      
    8dae:	00 00 06    	return    

00008db0 <__U2TXInterrupt>:
    8db0:	80 9f be    	mov.d     w0, [w15++]
    8db2:	02 00 fa    	lnk       #0x2
    8db4:	0e 00 37    	bra       0x8dd2 <.L74>

00008db6 <.L75>:
    8db6:	21 b9 80    	mov.w     0x1724, w1
    8db8:	00 e0 21    	mov.w     #0x1e00, w0
    8dba:	00 80 40    	add.w     w1, w0, w0
    8dbc:	10 4f 78    	mov.b     [w0], [w14]
    8dbe:	01 00 e8    	inc.w     w1, w0
    8dc0:	20 b9 88    	mov.w     w0, 0x1724
    8dc2:	1e 80 fb    	ze        [w14], w0
    8dc4:	a0 11 88    	mov.w     w0, 0x234
    8dc6:	21 b9 80    	mov.w     0x1724, w1
    8dc8:	f0 1f 20    	mov.w     #0x1ff, w0
    8dca:	80 8f 50    	sub.w     w1, w0, [w15]
    8dcc:	02 00 34    	bra       LE, 0x8dd2 <.L74>
    8dce:	00 00 eb    	clr.w     w0
    8dd0:	20 b9 88    	mov.w     w0, 0x1724

00008dd2 <.L74>:
    8dd2:	33 c2 bf    	mov.b     0x233, WREG
    8dd4:	62 40 60    	and.b     w0, #0x2, w0
    8dd6:	00 04 e0    	cp0.b     w0
    8dd8:	04 00 3a    	bra       NZ, 0x8de2 <.L77>
    8dda:	e1 d9 80    	mov.w     0x1b3c, w1
    8ddc:	20 b9 80    	mov.w     0x1724, w0
    8dde:	80 8f 50    	sub.w     w1, w0, [w15]
    8de0:	ea ff 3a    	bra       NZ, 0x8db6 <.L75>

00008de2 <.L77>:
    8de2:	87 e0 a9    	bclr.b    0x87, #0x7
    8de4:	00 80 fa    	ulnk      
    8de6:	4f 00 be    	mov.d     [--w15], w0
    8de8:	00 40 06    	retfie    

00008dea <_setup_origin>:
    8dea:	18 00 fa    	lnk       #0x18
    8dec:	dc f2 07    	rcall     0x73a6 <_use_fixed_origin>
    8dee:	00 04 e0    	cp0.b     w0
    8df0:	18 00 32    	bra       Z, 0x8e22 <.L2>
    8df2:	6c 00 47    	add.w     w14, #0xc, w0
    8df4:	dc f2 07    	rcall     0x73ae <_get_fixed_origin>
    8df6:	6c 00 47    	add.w     w14, #0xc, w0
    8df8:	80 00 78    	mov.w     w0, w1
    8dfa:	0e 00 78    	mov.w     w14, w0
    8dfc:	11 01 be    	mov.d     [w1], w2
    8dfe:	02 88 be    	mov.d     w2, [w0]
    8e00:	64 00 40    	add.w     w0, #0x4, w0
    8e02:	e4 80 40    	add.w     w1, #0x4, w1
    8e04:	11 01 be    	mov.d     [w1], w2
    8e06:	02 88 be    	mov.d     w2, [w0]
    8e08:	64 00 40    	add.w     w0, #0x4, w0
    8e0a:	e4 80 40    	add.w     w1, #0x4, w1
    8e0c:	11 01 be    	mov.d     [w1], w2
    8e0e:	02 88 be    	mov.d     w2, [w0]
    8e10:	4e 00 90    	mov.w     [w14+8], w0
    8e12:	de 00 90    	mov.w     [w14+10], w1
    8e14:	2e 01 90    	mov.w     [w14+4], w2
    8e16:	be 01 90    	mov.w     [w14+6], w3
    8e18:	1e 03 be    	mov.d     [w14], w6
    8e1a:	00 02 be    	mov.d     w0, w4
    8e1c:	06 00 be    	mov.d     w6, w0
    8e1e:	12 06 07    	rcall     0x9a44 <_dcm_set_origin_location>
    8e20:	09 00 37    	bra       0x8e34 <.L4>

00008e22 <.L2>:
    8e22:	30 57 80    	mov.w     0xae6, w0
    8e24:	41 57 80    	mov.w     0xae8, w1
    8e26:	f2 56 80    	mov.w     0xade, w2
    8e28:	03 57 80    	mov.w     0xae0, w3
    8e2a:	16 57 80    	mov.w     0xae2, w6
    8e2c:	27 57 80    	mov.w     0xae4, w7
    8e2e:	00 02 be    	mov.d     w0, w4
    8e30:	06 00 be    	mov.d     w6, w0
    8e32:	08 06 07    	rcall     0x9a44 <_dcm_set_origin_location>

00008e34 <.L4>:
    8e34:	0f fb a8    	bset.b    0x1b0f, #0x7
    8e36:	00 80 fa    	ulnk      
    8e38:	00 00 06    	return    

00008e3a <_dcm_callback_gps_location_updated>:
    8e3a:	00 00 fa    	lnk       #0x0
    8e3c:	70 d8 80    	mov.w     0x1b0e, w0
    8e3e:	01 04 20    	mov.w     #0x40, w1
    8e40:	01 00 60    	and.w     w0, w1, w0
    8e42:	00 00 e0    	cp0.w     w0
    8e44:	02 00 32    	bra       Z, 0x8e4a <.L9>
    8e46:	0e db a9    	bclr.b    0x1b0e, #0x6
    8e48:	d0 ff 07    	rcall     0x8dea <_setup_origin>

00008e4a <.L9>:
    8e4a:	00 80 fa    	ulnk      
    8e4c:	00 00 06    	return    

00008e4e <_set_goal>:
    8e4e:	10 00 fa    	lnk       #0x10
    8e50:	64 03 47    	add.w     w14, #0x4, w6
    8e52:	00 0b 78    	mov.w     w0, [w6]
    8e54:	11 03 98    	mov.w     w1, [w6+2]
    8e56:	22 03 98    	mov.w     w2, [w6+4]
    8e58:	6a 00 47    	add.w     w14, #0xa, w0
    8e5a:	03 08 78    	mov.w     w3, [w0]
    8e5c:	14 00 98    	mov.w     w4, [w0+2]
    8e5e:	25 00 98    	mov.w     w5, [w0+4]
    8e60:	6a 00 47    	add.w     w14, #0xa, w0
    8e62:	10 00 78    	mov.w     [w0], w0
    8e64:	60 54 88    	mov.w     w0, 0xa8c
    8e66:	6a 00 47    	add.w     w14, #0xa, w0
    8e68:	10 00 90    	mov.w     [w0+2], w0
    8e6a:	70 54 88    	mov.w     w0, 0xa8e
    8e6c:	6a 00 47    	add.w     w14, #0xa, w0
    8e6e:	20 00 90    	mov.w     [w0+4], w0
    8e70:	b0 54 88    	mov.w     w0, 0xa96
    8e72:	64 00 47    	add.w     w14, #0x4, w0
    8e74:	20 00 90    	mov.w     [w0+4], w0
    8e76:	c0 54 88    	mov.w     w0, 0xa98
    8e78:	6a 00 47    	add.w     w14, #0xa, w0
    8e7a:	90 00 78    	mov.w     [w0], w1
    8e7c:	64 00 47    	add.w     w14, #0x4, w0
    8e7e:	10 00 78    	mov.w     [w0], w0
    8e80:	00 80 50    	sub.w     w1, w0, w0
    8e82:	00 0f 78    	mov.w     w0, [w14]
    8e84:	6a 00 47    	add.w     w14, #0xa, w0
    8e86:	90 00 90    	mov.w     [w0+2], w1
    8e88:	64 00 47    	add.w     w14, #0x4, w0
    8e8a:	10 00 90    	mov.w     [w0+2], w0
    8e8c:	00 80 50    	sub.w     w1, w0, w0
    8e8e:	10 07 98    	mov.w     w0, [w14+2]
    8e90:	0e 00 78    	mov.w     w14, w0
    8e92:	db 03 07    	rcall     0x964a <_rect_to_polar>
    8e94:	94 ea b7    	mov.b     WREG, 0xa94
    8e96:	1e 00 78    	mov.w     [w14], w0
    8e98:	d0 54 88    	mov.w     w0, 0xa9a
    8e9a:	94 ca bf    	mov.b     0xa94, WREG
    8e9c:	9a 03 07    	rcall     0x95d2 <_cosine>
    8e9e:	80 54 88    	mov.w     w0, 0xa90
    8ea0:	94 ca bf    	mov.b     0xa94, WREG
    8ea2:	13 03 07    	rcall     0x94ca <_sine>
    8ea4:	90 54 88    	mov.w     w0, 0xa92
    8ea6:	00 80 fa    	ulnk      
    8ea8:	00 00 06    	return    

00008eaa <_process_flightplan>:
    8eaa:	00 00 fa    	lnk       #0x0
    8eac:	6e 08 07    	rcall     0x9f8a <_gps_nav_valid>
    8eae:	00 04 e0    	cp0.b     w0
    8eb0:	08 00 32    	bra       Z, 0x8ec2 <.L16>
    8eb2:	70 d8 80    	mov.w     0x1b0e, w0
    8eb4:	01 08 20    	mov.w     #0x80, w1
    8eb6:	01 00 60    	and.w     w0, w1, w0
    8eb8:	00 00 e0    	cp0.w     w0
    8eba:	03 00 32    	bra       Z, 0x8ec2 <.L16>
    8ebc:	04 00 07    	rcall     0x8ec6 <_compute_bearing_to_goal>
    8ebe:	98 f3 07    	rcall     0x75f0
    8ec0:	9b 0f 07    	rcall     0xadf8 <_compute_camera_view>

00008ec2 <.L16>:
    8ec2:	00 80 fa    	ulnk      
    8ec4:	00 00 06    	return    

00008ec6 <_compute_bearing_to_goal>:
    8ec6:	10 00 fa    	lnk       #0x10
    8ec8:	88 9f be    	mov.d     w8, [w15++]
    8eca:	61 54 80    	mov.w     0xa8c, w1
    8ecc:	b0 61 80    	mov.w     0xc36, w0
    8ece:	00 80 50    	sub.w     w1, w0, w0
    8ed0:	e0 54 88    	mov.w     w0, 0xa9c
    8ed2:	71 54 80    	mov.w     0xa8e, w1
    8ed4:	d0 61 80    	mov.w     0xc3a, w0
    8ed6:	00 80 50    	sub.w     w1, w0, w0
    8ed8:	f0 54 88    	mov.w     w0, 0xa9e
    8eda:	81 54 80    	mov.w     0xa90, w1
    8edc:	e0 54 80    	mov.w     0xa9c, w0
    8ede:	01 81 b9    	mul.ss    w0, w1, w2
    8ee0:	91 54 80    	mov.w     0xa92, w1
    8ee2:	f0 54 80    	mov.w     0xa9e, w0
    8ee4:	01 80 b9    	mul.ss    w0, w1, w0
    8ee6:	02 00 40    	add.w     w0, w2, w0
    8ee8:	83 80 48    	addc.w    w1, w3, w1
    8eea:	42 09 dd    	sl.w      w1, #0x2, w2
    8eec:	ce 00 de    	lsr.w     w0, #0xe, w1
    8eee:	81 00 71    	ior.w     w2, w1, w1
    8ef0:	42 00 dd    	sl.w      w0, #0x2, w0
    8ef2:	20 07 98    	mov.w     w0, [w14+4]
    8ef4:	31 07 98    	mov.w     w1, [w14+6]
    8ef6:	3e 00 90    	mov.w     [w14+6], w0
    8ef8:	00 55 88    	mov.w     w0, 0xaa0
    8efa:	a1 d9 80    	mov.w     0x1b34, w1
    8efc:	00 40 20    	mov.w     #0x400, w0
    8efe:	00 80 60    	and.w     w1, w0, w0
    8f00:	00 00 e0    	cp0.w     w0
    8f02:	6c 00 32    	bra       Z, 0x8fdc <.L18>
    8f04:	81 54 80    	mov.w     0xa90, w1
    8f06:	f0 54 80    	mov.w     0xa9e, w0
    8f08:	01 81 b9    	mul.ss    w0, w1, w2
    8f0a:	91 54 80    	mov.w     0xa92, w1
    8f0c:	e0 54 80    	mov.w     0xa9c, w0
    8f0e:	01 80 b9    	mul.ss    w0, w1, w0
    8f10:	00 00 51    	sub.w     w2, w0, w0
    8f12:	81 80 59    	subb.w    w3, w1, w1
    8f14:	42 09 dd    	sl.w      w1, #0x2, w2
    8f16:	ce 00 de    	lsr.w     w0, #0xe, w1
    8f18:	81 00 71    	ior.w     w2, w1, w1
    8f1a:	42 00 dd    	sl.w      w0, #0x2, w0
    8f1c:	20 07 98    	mov.w     w0, [w14+4]
    8f1e:	31 07 98    	mov.w     w1, [w14+6]
    8f20:	3e 00 90    	mov.w     [w14+6], w0
    8f22:	00 0f 78    	mov.w     w0, [w14]
    8f24:	11 ff 2f    	mov.w     #0xfff1, w1
    8f26:	9e 8f 10    	subr.w    w1, [w14], [w15]
    8f28:	13 00 35    	bra       LT, 0x8f50 <.L20>
    8f2a:	f2 00 20    	mov.w     #0xf, w2
    8f2c:	9e 0f 11    	subr.w    w2, [w14], [w15]
    8f2e:	10 00 3c    	bra       GT, 0x8f50 <.L20>
    8f30:	1e 00 e0    	cp0.w     [w14]
    8f32:	07 00 34    	bra       LE, 0x8f42 <.L23>
    8f34:	41 a9 20    	mov.w     #0xa94, w1
    8f36:	91 40 78    	mov.b     [w1], w1
    8f38:	1e 00 78    	mov.w     [w14], w0
    8f3a:	00 00 40    	add.w     w0, w0, w0
    8f3c:	00 c0 40    	add.b     w1, w0, w0
    8f3e:	20 47 98    	mov.b     w0, [w14+2]
    8f40:	11 00 37    	bra       0x8f64 <.L26>

00008f42 <.L23>:
    8f42:	41 a9 20    	mov.w     #0xa94, w1
    8f44:	91 40 78    	mov.b     [w1], w1
    8f46:	1e 00 78    	mov.w     [w14], w0
    8f48:	00 00 40    	add.w     w0, w0, w0
    8f4a:	00 c0 40    	add.b     w1, w0, w0
    8f4c:	20 47 98    	mov.b     w0, [w14+2]
    8f4e:	0a 00 37    	bra       0x8f64 <.L26>

00008f50 <.L20>:
    8f50:	1e 00 e0    	cp0.w     [w14]
    8f52:	04 00 34    	bra       LE, 0x8f5c <.L27>
    8f54:	94 ca bf    	mov.b     0xa94, WREG
    8f56:	00 42 b0    	add.b     #0x20, w0
    8f58:	20 47 98    	mov.b     w0, [w14+2]
    8f5a:	04 00 37    	bra       0x8f64 <.L26>

00008f5c <.L27>:
    8f5c:	94 ca bf    	mov.b     0xa94, WREG
    8f5e:	01 ce b3    	mov.b     #0xe0, w1
    8f60:	01 40 40    	add.b     w0, w1, w0
    8f62:	20 47 98    	mov.b     w0, [w14+2]

00008f64 <.L26>:
    8f64:	c0 55 80    	mov.w     0xab8, w0
    8f66:	00 00 e0    	cp0.w     w0
    8f68:	03 00 3a    	bra       NZ, 0x8f70 <.L29>
    8f6a:	d0 55 80    	mov.w     0xaba, w0
    8f6c:	00 00 e0    	cp0.w     w0
    8f6e:	04 00 32    	bra       Z, 0x8f78 <.L31>

00008f70 <.L29>:
    8f70:	51 56 80    	mov.w     0xaca, w1
    8f72:	70 0c 20    	mov.w     #0xc7, w0
    8f74:	80 8f 50    	sub.w     w1, w0, [w15]
    8f76:	03 00 3c    	bra       GT, 0x8f7e <.L32>

00008f78 <.L31>:
    8f78:	2e 40 90    	mov.b     [w14+2], w0
    8f7a:	30 47 98    	mov.b     w0, [w14+3]
    8f7c:	6e 00 37    	bra       0x905a <.L37>

00008f7e <.L32>:
    8f7e:	2e 40 90    	mov.b     [w14+2], w0
    8f80:	a4 02 07    	rcall     0x94ca <_sine>
    8f82:	80 00 78    	mov.w     w0, w1
    8f84:	c0 55 80    	mov.w     0xab8, w0
    8f86:	01 84 b9    	mul.ss    w0, w1, w8
    8f88:	2e 40 90    	mov.b     [w14+2], w0
    8f8a:	23 03 07    	rcall     0x95d2 <_cosine>
    8f8c:	80 00 78    	mov.w     w0, w1
    8f8e:	d0 55 80    	mov.w     0xaba, w0
    8f90:	01 80 b9    	mul.ss    w0, w1, w0
    8f92:	00 00 54    	sub.w     w8, w0, w0
    8f94:	81 80 5c    	subb.w    w9, w1, w1
    8f96:	42 09 dd    	sl.w      w1, #0x2, w2
    8f98:	ce 00 de    	lsr.w     w0, #0xe, w1
    8f9a:	81 00 71    	ior.w     w2, w1, w1
    8f9c:	42 00 dd    	sl.w      w0, #0x2, w0
    8f9e:	40 07 98    	mov.w     w0, [w14+8]
    8fa0:	51 07 98    	mov.w     w1, [w14+10]
    8fa2:	5e 00 90    	mov.w     [w14+10], w0
    8fa4:	70 07 98    	mov.w     w0, [w14+14]
    8fa6:	7e 00 90    	mov.w     [w14+14], w0
    8fa8:	00 00 e0    	cp0.w     w0
    8faa:	03 00 3d    	bra       GE, 0x8fb2 <.L34>
    8fac:	fe 00 90    	mov.w     [w14+14], w1
    8fae:	81 00 ea    	neg.w     w1, w1
    8fb0:	71 07 98    	mov.w     w1, [w14+14]

00008fb2 <.L34>:
    8fb2:	50 56 80    	mov.w     0xaca, w0
    8fb4:	7e 01 90    	mov.w     [w14+14], w2
    8fb6:	80 0f 51    	sub.w     w2, w0, [w15]
    8fb8:	0e 00 3d    	bra       GE, 0x8fd6 <.L35>
    8fba:	52 56 80    	mov.w     0xaca, w2
    8fbc:	4e 00 90    	mov.w     [w14+8], w0
    8fbe:	de 00 90    	mov.w     [w14+10], w1
    8fc0:	81 1f 78    	mov.w     w1, [w15++]
    8fc2:	11 00 09    	repeat    #0x11
    8fc4:	42 08 d8    	div.sd    w0, w2
    8fc6:	cf 00 78    	mov.w     [--w15], w1
    8fc8:	42 80 de    	asr.w     w0, #0x2, w0
    8fca:	af 02 07    	rcall     0x952a <_arcsine>
    8fcc:	80 40 78    	mov.b     w0, w1
    8fce:	2e 40 90    	mov.b     [w14+2], w0
    8fd0:	00 c0 40    	add.b     w1, w0, w0
    8fd2:	30 47 98    	mov.b     w0, [w14+3]
    8fd4:	42 00 37    	bra       0x905a <.L37>

00008fd6 <.L35>:
    8fd6:	2e 40 90    	mov.b     [w14+2], w0
    8fd8:	30 47 98    	mov.b     w0, [w14+3]
    8fda:	3f 00 37    	bra       0x905a <.L37>

00008fdc <.L18>:
    8fdc:	c0 55 80    	mov.w     0xab8, w0
    8fde:	00 00 e0    	cp0.w     w0
    8fe0:	03 00 3a    	bra       NZ, 0x8fe8 <.L38>
    8fe2:	d0 55 80    	mov.w     0xaba, w0
    8fe4:	00 00 e0    	cp0.w     w0
    8fe6:	04 00 32    	bra       Z, 0x8ff0 <.L40>

00008fe8 <.L38>:
    8fe8:	51 56 80    	mov.w     0xaca, w1
    8fea:	70 0c 20    	mov.w     #0xc7, w0
    8fec:	80 8f 50    	sub.w     w1, w0, [w15]
    8fee:	04 00 3c    	bra       GT, 0x8ff8 <.L41>

00008ff0 <.L40>:
    8ff0:	c0 a9 20    	mov.w     #0xa9c, w0
    8ff2:	2b 03 07    	rcall     0x964a <_rect_to_polar>
    8ff4:	30 47 98    	mov.b     w0, [w14+3]
    8ff6:	31 00 37    	bra       0x905a <.L37>

00008ff8 <.L41>:
    8ff8:	c0 a9 20    	mov.w     #0xa9c, w0
    8ffa:	27 03 07    	rcall     0x964a <_rect_to_polar>
    8ffc:	20 47 98    	mov.b     w0, [w14+2]
    8ffe:	2e 40 90    	mov.b     [w14+2], w0
    9000:	64 02 07    	rcall     0x94ca <_sine>
    9002:	80 00 78    	mov.w     w0, w1
    9004:	c0 55 80    	mov.w     0xab8, w0
    9006:	01 84 b9    	mul.ss    w0, w1, w8
    9008:	2e 40 90    	mov.b     [w14+2], w0
    900a:	e3 02 07    	rcall     0x95d2 <_cosine>
    900c:	80 00 78    	mov.w     w0, w1
    900e:	d0 55 80    	mov.w     0xaba, w0
    9010:	01 80 b9    	mul.ss    w0, w1, w0
    9012:	00 00 54    	sub.w     w8, w0, w0
    9014:	81 80 5c    	subb.w    w9, w1, w1
    9016:	42 09 dd    	sl.w      w1, #0x2, w2
    9018:	ce 00 de    	lsr.w     w0, #0xe, w1
    901a:	81 00 71    	ior.w     w2, w1, w1
    901c:	42 00 dd    	sl.w      w0, #0x2, w0
    901e:	40 07 98    	mov.w     w0, [w14+8]
    9020:	51 07 98    	mov.w     w1, [w14+10]
    9022:	5e 00 90    	mov.w     [w14+10], w0
    9024:	60 07 98    	mov.w     w0, [w14+12]
    9026:	6e 00 90    	mov.w     [w14+12], w0
    9028:	00 00 e0    	cp0.w     w0
    902a:	03 00 3d    	bra       GE, 0x9032 <.L42>
    902c:	ee 00 90    	mov.w     [w14+12], w1
    902e:	81 00 ea    	neg.w     w1, w1
    9030:	61 07 98    	mov.w     w1, [w14+12]

00009032 <.L42>:
    9032:	50 56 80    	mov.w     0xaca, w0
    9034:	6e 01 90    	mov.w     [w14+12], w2
    9036:	80 0f 51    	sub.w     w2, w0, [w15]
    9038:	0e 00 3d    	bra       GE, 0x9056 <.L43>
    903a:	52 56 80    	mov.w     0xaca, w2
    903c:	4e 00 90    	mov.w     [w14+8], w0
    903e:	de 00 90    	mov.w     [w14+10], w1
    9040:	81 1f 78    	mov.w     w1, [w15++]
    9042:	11 00 09    	repeat    #0x11
    9044:	42 08 d8    	div.sd    w0, w2
    9046:	cf 00 78    	mov.w     [--w15], w1
    9048:	42 80 de    	asr.w     w0, #0x2, w0
    904a:	6f 02 07    	rcall     0x952a <_arcsine>
    904c:	80 40 78    	mov.b     w0, w1
    904e:	2e 40 90    	mov.b     [w14+2], w0
    9050:	00 c0 40    	add.b     w1, w0, w0
    9052:	30 47 98    	mov.b     w0, [w14+3]
    9054:	02 00 37    	bra       0x905a <.L37>

00009056 <.L43>:
    9056:	2e 40 90    	mov.b     [w14+2], w0
    9058:	30 47 98    	mov.b     w0, [w14+3]

0000905a <.L37>:
    905a:	70 d8 80    	mov.w     0x1b0e, w0
    905c:	01 08 20    	mov.w     #0x80, w1
    905e:	01 00 60    	and.w     w0, w1, w0
    9060:	00 00 e0    	cp0.w     w0
    9062:	2a 00 32    	bra       Z, 0x90b8 <.L45>
    9064:	3e 40 90    	mov.b     [w14+3], w0
    9066:	a4 ea b7    	mov.b     WREG, 0xaa4
    9068:	d0 54 80    	mov.w     0xa9a, w0
    906a:	00 00 e0    	cp0.w     w0
    906c:	22 00 34    	bra       LE, 0x90b2 <.L47>
    906e:	d0 54 80    	mov.w     0xa9a, w0
    9070:	61 01 b9    	mul.su    w0, #0x1, w2
    9072:	00 55 80    	mov.w     0xaa0, w0
    9074:	cf 80 de    	asr.w     w0, #0xf, w1
    9076:	00 02 51    	sub.w     w2, w0, w4
    9078:	81 82 59    	subb.w    w3, w1, w5
    907a:	20 56 80    	mov.w     0xac4, w0
    907c:	42 06 20    	mov.w     #0x64, w2
    907e:	11 00 09    	repeat    #0x11
    9080:	02 00 d8    	div.sw    w0, w2
    9082:	cf 80 de    	asr.w     w0, #0xf, w1
    9084:	04 00 40    	add.w     w0, w4, w0
    9086:	85 80 48    	addc.w    w1, w5, w1
    9088:	4c 0a dd    	sl.w      w1, #0xc, w4
    908a:	c4 02 de    	lsr.w     w0, #0x4, w5
    908c:	85 02 72    	ior.w     w4, w5, w5
    908e:	4c 02 dd    	sl.w      w0, #0xc, w4
    9090:	d0 54 80    	mov.w     0xa9a, w0
    9092:	61 01 b9    	mul.su    w0, #0x1, w2
    9094:	04 00 be    	mov.d     w4, w0
    9096:	d1 bd 07    	rcall     0xc3a <___divsi3>
    9098:	10 55 88    	mov.w     w0, 0xaa2
    909a:	10 55 80    	mov.w     0xaa2, w0
    909c:	00 00 e0    	cp0.w     w0
    909e:	02 00 3d    	bra       GE, 0x90a4 <.L49>
    90a0:	00 00 eb    	clr.w     w0
    90a2:	10 55 88    	mov.w     w0, 0xaa2

000090a4 <.L49>:
    90a4:	11 55 80    	mov.w     0xaa2, w1
    90a6:	00 00 21    	mov.w     #0x1000, w0
    90a8:	80 8f 50    	sub.w     w1, w0, [w15]
    90aa:	0b 00 34    	bra       LE, 0x90c2 <.L56>
    90ac:	00 00 21    	mov.w     #0x1000, w0
    90ae:	10 55 88    	mov.w     w0, 0xaa2
    90b0:	08 00 37    	bra       0x90c2 <.L56>

000090b2 <.L47>:
    90b2:	00 00 21    	mov.w     #0x1000, w0
    90b4:	10 55 88    	mov.w     w0, 0xaa2
    90b6:	05 00 37    	bra       0x90c2 <.L56>

000090b8 <.L45>:
    90b8:	90 d9 80    	mov.w     0x1b32, w0
    90ba:	e4 0f 50    	sub.w     w0, #0x4, [w15]
    90bc:	02 00 32    	bra       Z, 0x90c2 <.L56>
    90be:	cc ca bf    	mov.b     0xacc, WREG
    90c0:	a4 ea b7    	mov.b     WREG, 0xaa4

000090c2 <.L56>:
    90c2:	4f 04 be    	mov.d     [--w15], w8
    90c4:	00 80 fa    	ulnk      
    90c6:	00 00 06    	return    

000090c8 <_determine_navigation_deflection>:
    90c8:	1a 00 fa    	lnk       #0x1a
    90ca:	60 57 98    	mov.b     w0, [w14+22]
    90cc:	ee 50 90    	mov.b     [w14+22], w1
    90ce:	90 c7 b3    	mov.b     #0x79, w0
    90d0:	80 cf 50    	sub.b     w1, w0, [w15]
    90d2:	07 00 3a    	bra       NZ, 0x90e2 <.L58>
    90d4:	d0 42 80    	mov.w     0x85a, w0
    90d6:	00 0f 78    	mov.w     w0, [w14]
    90d8:	02 59 80    	mov.w     0xb20, w2
    90da:	22 07 98    	mov.w     w2, [w14+4]
    90dc:	30 59 80    	mov.w     0xb26, w0
    90de:	10 07 98    	mov.w     w0, [w14+2]
    90e0:	19 00 37    	bra       0x9114 <.L60>

000090e2 <.L58>:
    90e2:	ee 50 90    	mov.b     [w14+22], w1
    90e4:	10 c6 b3    	mov.b     #0x61, w0
    90e6:	80 cf 50    	sub.b     w1, w0, [w15]
    90e8:	07 00 3a    	bra       NZ, 0x90f8 <.L61>
    90ea:	c2 42 80    	mov.w     0x858, w2
    90ec:	02 0f 78    	mov.w     w2, [w14]
    90ee:	00 59 80    	mov.w     0xb20, w0
    90f0:	20 07 98    	mov.w     w0, [w14+4]
    90f2:	32 59 80    	mov.w     0xb26, w2
    90f4:	12 07 98    	mov.w     w2, [w14+2]
    90f6:	0e 00 37    	bra       0x9114 <.L60>

000090f8 <.L61>:
    90f8:	ee 50 90    	mov.b     [w14+22], w1
    90fa:	80 c6 b3    	mov.b     #0x68, w0
    90fc:	80 cf 50    	sub.b     w1, w0, [w15]
    90fe:	07 00 3a    	bra       NZ, 0x910e <.L63>
    9100:	c0 42 80    	mov.w     0x858, w0
    9102:	00 0f 78    	mov.w     w0, [w14]
    9104:	12 59 80    	mov.w     0xb22, w2
    9106:	22 07 98    	mov.w     w2, [w14+4]
    9108:	40 59 80    	mov.w     0xb28, w0
    910a:	10 07 98    	mov.w     w0, [w14+2]
    910c:	03 00 37    	bra       0x9114 <.L60>

0000910e <.L63>:
    910e:	00 01 eb    	clr.w     w2
    9110:	42 0f 98    	mov.w     w2, [w14+24]
    9112:	45 00 37    	bra       0x919e <.L65>

00009114 <.L60>:
    9114:	a4 ca bf    	mov.b     0xaa4, WREG
    9116:	5d 02 07    	rcall     0x95d2 <_cosine>
    9118:	00 00 ea    	neg.w     w0, w0
    911a:	40 07 98    	mov.w     w0, [w14+8]
    911c:	a4 ca bf    	mov.b     0xaa4, WREG
    911e:	d5 01 07    	rcall     0x94ca <_sine>
    9120:	30 07 98    	mov.w     w0, [w14+6]
    9122:	ae 00 90    	mov.w     [w14+4], w1
    9124:	4e 00 90    	mov.w     [w14+8], w0
    9126:	00 89 b9    	mul.ss    w1, w0, w2
    9128:	9e 00 90    	mov.w     [w14+2], w1
    912a:	3e 00 90    	mov.w     [w14+6], w0
    912c:	00 88 b9    	mul.ss    w1, w0, w0
    912e:	02 00 40    	add.w     w0, w2, w0
    9130:	83 80 48    	addc.w    w1, w3, w1
    9132:	70 07 98    	mov.w     w0, [w14+14]
    9134:	01 0f 98    	mov.w     w1, [w14+16]
    9136:	ae 00 90    	mov.w     [w14+4], w1
    9138:	3e 00 90    	mov.w     [w14+6], w0
    913a:	00 89 b9    	mul.ss    w1, w0, w2
    913c:	9e 00 90    	mov.w     [w14+2], w1
    913e:	4e 00 90    	mov.w     [w14+8], w0
    9140:	00 88 b9    	mul.ss    w1, w0, w0
    9142:	00 00 51    	sub.w     w2, w0, w0
    9144:	81 80 59    	subb.w    w3, w1, w1
    9146:	10 0f 98    	mov.w     w0, [w14+18]
    9148:	21 0f 98    	mov.w     w1, [w14+20]
    914a:	1e 08 90    	mov.w     [w14+18], w0
    914c:	ae 08 90    	mov.w     [w14+20], w1
    914e:	42 09 dd    	sl.w      w1, #0x2, w2
    9150:	ce 00 de    	lsr.w     w0, #0xe, w1
    9152:	81 00 71    	ior.w     w2, w1, w1
    9154:	42 00 dd    	sl.w      w0, #0x2, w0
    9156:	10 0f 98    	mov.w     w0, [w14+18]
    9158:	21 0f 98    	mov.w     w1, [w14+20]
    915a:	0e 08 90    	mov.w     [w14+16], w0
    915c:	00 00 e0    	cp0.w     w0
    915e:	05 00 34    	bra       LE, 0x916a <.L66>
    9160:	2e 08 90    	mov.w     [w14+20], w0
    9162:	1e 80 b9    	mul.ss    w0, [w14], w0
    9164:	50 07 98    	mov.w     w0, [w14+10]
    9166:	61 07 98    	mov.w     w1, [w14+12]
    9168:	0e 00 37    	bra       0x9186 <.L68>

0000916a <.L66>:
    916a:	2e 08 90    	mov.w     [w14+20], w0
    916c:	00 00 e0    	cp0.w     w0
    916e:	06 00 34    	bra       LE, 0x917c <.L69>
    9170:	1e 00 78    	mov.w     [w14], w0
    9172:	42 00 20    	mov.w     #0x4, w2
    9174:	11 00 09    	repeat    #0x11
    9176:	02 00 d8    	div.sw    w0, w2
    9178:	60 07 98    	mov.w     w0, [w14+12]
    917a:	05 00 37    	bra       0x9186 <.L68>

0000917c <.L69>:
    917c:	1e 00 ea    	neg.w     [w14], w0
    917e:	42 00 20    	mov.w     #0x4, w2
    9180:	11 00 09    	repeat    #0x11
    9182:	02 00 d8    	div.sw    w0, w2
    9184:	60 07 98    	mov.w     w0, [w14+12]

00009186 <.L68>:
    9186:	ee 50 90    	mov.b     [w14+22], w1
    9188:	80 c6 b3    	mov.b     #0x68, w0
    918a:	80 cf 50    	sub.b     w1, w0, [w15]
    918c:	06 00 3a    	bra       NZ, 0x919a <.L71>
    918e:	5e 00 90    	mov.w     [w14+10], w0
    9190:	ee 00 90    	mov.w     [w14+12], w1
    9192:	60 00 10    	subr.w    w0, #0x0, w0
    9194:	e0 80 18    	subbr.w   w1, #0x0, w1
    9196:	50 07 98    	mov.w     w0, [w14+10]
    9198:	61 07 98    	mov.w     w1, [w14+12]

0000919a <.L71>:
    919a:	6e 00 90    	mov.w     [w14+12], w0
    919c:	40 0f 98    	mov.w     w0, [w14+24]

0000919e <.L65>:
    919e:	4e 08 90    	mov.w     [w14+24], w0
    91a0:	00 80 fa    	ulnk      
    91a2:	00 00 06    	return    

000091a4 <_altitudeCntrl>:
void hoverAltitudeCntrl(void) ;


void altitudeCntrl(void)
{
    91a4:	00 00 fa    	lnk       #0x0
	if ( canStabilizeHover() && current_orientation == F_HOVER )
    91a6:	b8 0a 07    	rcall     0xa718 <_canStabilizeHover>
    91a8:	00 04 e0    	cp0.b     w0
    91aa:	05 00 32    	bra       Z, 0x91b6 <.L2>
    91ac:	90 d9 80    	mov.w     0x1b32, w0
    91ae:	e4 0f 50    	sub.w     w0, #0x4, [w15]
    91b0:	02 00 3a    	bra       NZ, 0x91b6 <.L2>
	{
		hoverAltitudeCntrl() ;
    91b2:	60 01 07    	rcall     0x9474 <_hoverAltitudeCntrl>
    91b4:	01 00 37    	bra       0x91b8 <.L6>

000091b6 <.L2>:
	}
	else
	{
		normalAltitudeCntrl() ;
    91b6:	31 00 07    	rcall     0x921a <_normalAltitudeCntrl>

000091b8 <.L6>:
	}
	
	return ;
}
    91b8:	00 80 fa    	ulnk      
    91ba:	00 00 06    	return    

000091bc <_set_throttle_control>:


void set_throttle_control(int throttle)
{
    91bc:	06 00 fa    	lnk       #0x6
    91be:	20 07 98    	mov.w     w0, [w14+4]
	int throttleIn ;
	
	if ( flags._.altitude_hold_throttle || flags._.altitude_hold_pitch || filterManual )
    91c0:	70 d8 80    	mov.w     0x1b0e, w0
    91c2:	01 20 20    	mov.w     #0x200, w1
    91c4:	01 00 60    	and.w     w0, w1, w0
    91c6:	00 00 e0    	cp0.w     w0
    91c8:	08 00 3a    	bra       NZ, 0x91da <.L8>
    91ca:	70 d8 80    	mov.w     0x1b0e, w0
    91cc:	01 40 20    	mov.w     #0x400, w1
    91ce:	01 00 60    	and.w     w0, w1, w0
    91d0:	00 00 e0    	cp0.w     w0
    91d2:	03 00 3a    	bra       NZ, 0x91da <.L8>
    91d4:	cc d6 bf    	mov.b     0x16cc, WREG
    91d6:	00 04 e0    	cp0.b     w0
    91d8:	16 00 32    	bra       Z, 0x9206 <.L11>

000091da <.L8>:
	{
		if ( udb_flags._.radio_on == 1 )
    91da:	00 da 80    	mov.w     0x1b40, w0
    91dc:	70 00 60    	and.w     w0, #0x10, w0
    91de:	00 00 e0    	cp0.w     w0
    91e0:	03 00 32    	bra       Z, 0x91e8 <.L12>
		{
			throttleIn = udb_pwIn[THROTTLE_INPUT_CHANNEL] ;
    91e2:	80 64 80    	mov.w     0xc90, w0
    91e4:	10 07 98    	mov.w     w0, [w14+2]
    91e6:	02 00 37    	bra       0x91ec <.L14>

000091e8 <.L12>:
		}
		else
		{
			throttleIn = udb_pwTrim[THROTTLE_INPUT_CHANNEL] ;
    91e8:	90 68 80    	mov.w     0xd12, w0
    91ea:	10 07 98    	mov.w     w0, [w14+2]

000091ec <.L14>:
		}
		
		int temp = throttleIn + REVERSE_IF_NEEDED(THROTTLE_CHANNEL_REVERSED, throttle) ;
    91ec:	1e 00 90    	mov.w     [w14+2], w0
    91ee:	ae 00 90    	mov.w     [w14+4], w1
    91f0:	01 0f 40    	add.w     w0, w1, [w14]
		
		if ( THROTTLE_CHANNEL_REVERSED )
		{
			if (temp > udb_pwTrim[THROTTLE_INPUT_CHANNEL]) throttle = throttleIn - udb_pwTrim[THROTTLE_INPUT_CHANNEL] ;
		}
		else
		{
			if (temp < udb_pwTrim[THROTTLE_INPUT_CHANNEL]) throttle = udb_pwTrim[THROTTLE_INPUT_CHANNEL] - throttleIn ;
    91f2:	90 68 80    	mov.w     0xd12, w0
    91f4:	9e 0f 50    	sub.w     w0, [w14], [w15]
    91f6:	04 00 34    	bra       LE, 0x9200 <.L15>
    91f8:	90 68 80    	mov.w     0xd12, w0
    91fa:	9e 00 90    	mov.w     [w14+2], w1
    91fc:	01 00 50    	sub.w     w0, w1, w0
    91fe:	20 07 98    	mov.w     w0, [w14+4]

00009200 <.L15>:
		}
		
		throttle_control = throttle ;
    9200:	2e 00 90    	mov.w     [w14+4], w0
    9202:	00 d9 88    	mov.w     w0, 0x1b20
    9204:	02 00 37    	bra       0x920a <.L18>

00009206 <.L11>:
	}
	else
	{
		throttle_control = 0 ;
    9206:	00 00 eb    	clr.w     w0
    9208:	00 d9 88    	mov.w     w0, 0x1b20

0000920a <.L18>:
	}
	
	return ;
}
    920a:	00 80 fa    	ulnk      
    920c:	00 00 06    	return    

0000920e <_setTargetAltitude>:


void setTargetAltitude(int targetAlt)
{
    920e:	02 00 fa    	lnk       #0x2
    9210:	00 0f 78    	mov.w     w0, [w14]
	desiredHeight = targetAlt ;
    9212:	1e 00 78    	mov.w     [w14], w0
    9214:	f0 d9 88    	mov.w     w0, 0x1b3e
	return ;
}
    9216:	00 80 fa    	ulnk      
    9218:	00 00 06    	return    

0000921a <_normalAltitudeCntrl>:


void normalAltitudeCntrl(void)
{
    921a:	12 00 fa    	lnk       #0x12
    921c:	88 9f be    	mov.d     w8, [w15++]
	union longww throttleAccum ;
	union longww pitchAccum ;
	int throttleIn ;
	int throttleInOffset ;
	union longww heightError = { 0 } ;
    921e:	60 00 b8    	mul.uu    w0, #0x0, w0
    9220:	70 07 98    	mov.w     w0, [w14+14]
    9222:	01 0f 98    	mov.w     w1, [w14+16]
	
	if ( udb_flags._.radio_on == 1 )
    9224:	00 da 80    	mov.w     0x1b40, w0
    9226:	70 00 60    	and.w     w0, #0x10, w0
    9228:	00 00 e0    	cp0.w     w0
    922a:	0c 00 32    	bra       Z, 0x9244 <.L22>
	{
		throttleIn = udb_pwIn[THROTTLE_INPUT_CHANNEL] ;
    922c:	80 64 80    	mov.w     0xc90, w0
    922e:	20 07 98    	mov.w     w0, [w14+4]
		// keep the In and Trim throttle values within 2000-4000 to account for
		// Spektrum receivers using failsafe values below 2000.
		throttleInOffset = udb_servo_pulsesat( udb_pwIn[THROTTLE_INPUT_CHANNEL] ) - udb_servo_pulsesat( udb_pwTrim[THROTTLE_INPUT_CHANNEL] ) ;
    9230:	80 64 80    	mov.w     0xc90, w0
    9232:	cf 80 de    	asr.w     w0, #0xf, w1
    9234:	95 06 07    	rcall     0x9f60 <_udb_servo_pulsesat>
    9236:	00 04 78    	mov.w     w0, w8
    9238:	90 68 80    	mov.w     0xd12, w0
    923a:	cf 80 de    	asr.w     w0, #0xf, w1
    923c:	91 06 07    	rcall     0x9f60 <_udb_servo_pulsesat>
    923e:	00 00 54    	sub.w     w8, w0, w0
    9240:	10 07 98    	mov.w     w0, [w14+2]
    9242:	04 00 37    	bra       0x924c <.L24>

00009244 <.L22>:
	}
	else
	{
		throttleIn = udb_pwTrim[THROTTLE_INPUT_CHANNEL] ;
    9244:	92 68 80    	mov.w     0xd12, w2
    9246:	22 07 98    	mov.w     w2, [w14+4]
		throttleInOffset = 0 ;
    9248:	00 00 eb    	clr.w     w0
    924a:	10 07 98    	mov.w     w0, [w14+2]

0000924c <.L24>:
	}
	
	if ( flags._.altitude_hold_throttle || flags._.altitude_hold_pitch )
    924c:	70 d8 80    	mov.w     0x1b0e, w0
    924e:	01 20 20    	mov.w     #0x200, w1
    9250:	01 00 60    	and.w     w0, w1, w0
    9252:	00 00 e0    	cp0.w     w0
    9254:	05 00 3a    	bra       NZ, 0x9260 <.L25>
    9256:	70 d8 80    	mov.w     0x1b0e, w0
    9258:	01 40 20    	mov.w     #0x400, w1
    925a:	01 00 60    	and.w     w0, w1, w0
    925c:	00 00 e0    	cp0.w     w0
    925e:	e1 00 32    	bra       Z, 0x9422 <.L27>

00009260 <.L25>:
	{
		if ( THROTTLE_CHANNEL_REVERSED ) throttleInOffset = - throttleInOffset ;
		
		if ( flags._.GPS_steering )
    9260:	70 d8 80    	mov.w     0x1b0e, w0
    9262:	01 08 20    	mov.w     #0x80, w1
    9264:	01 00 60    	and.w     w0, w1, w0
    9266:	00 00 e0    	cp0.w     w0
    9268:	23 00 32    	bra       Z, 0x92b0 <.L28>
		{
			if ( desired_behavior._.takeoff || desired_behavior._.altitude )
    926a:	a0 d9 80    	mov.w     0x1b34, w0
    926c:	61 00 60    	and.w     w0, #0x1, w0
    926e:	00 00 e0    	cp0.w     w0
    9270:	05 00 3a    	bra       NZ, 0x927c <.L30>
    9272:	a0 d9 80    	mov.w     0x1b34, w0
    9274:	01 20 20    	mov.w     #0x200, w1
    9276:	01 00 60    	and.w     w0, w1, w0
    9278:	00 00 e0    	cp0.w     w0
    927a:	03 00 32    	bra       Z, 0x9282 <.L32>

0000927c <.L30>:
			{
				desiredHeight = goal.height ;
    927c:	b0 54 80    	mov.w     0xa96, w0
    927e:	f0 d9 88    	mov.w     w0, 0x1b3e
    9280:	22 00 37    	bra       0x92c6 <.L34>

00009282 <.L32>:
			}
			else
			{
				desiredHeight = goal.fromHeight + (((goal.height - goal.fromHeight) * (long)progress_to_goal)>>12)  ;
    9282:	c3 54 80    	mov.w     0xa98, w3
    9284:	b1 54 80    	mov.w     0xa96, w1
    9286:	c0 54 80    	mov.w     0xa98, w0
    9288:	00 80 50    	sub.w     w1, w0, w0
    928a:	61 04 b9    	mul.su    w0, #0x1, w8
    928c:	10 55 80    	mov.w     0xaa2, w0
    928e:	61 03 b9    	mul.su    w0, #0x1, w6
    9290:	88 00 78    	mov.w     w8, w1
    9292:	06 00 78    	mov.w     w6, w0
    9294:	00 0a b8    	mul.uu    w1, w0, w4
    9296:	07 c0 b9    	mul.ss    w8, w7, w0
    9298:	05 01 78    	mov.w     w5, w2
    929a:	00 01 41    	add.w     w2, w0, w2
    929c:	09 b0 b9    	mul.ss    w6, w9, w0
    929e:	00 01 41    	add.w     w2, w0, w2
    92a0:	82 02 78    	mov.w     w2, w5
    92a2:	44 29 dd    	sl.w      w5, #0x4, w2
    92a4:	4c 20 de    	lsr.w     w4, #0xc, w0
    92a6:	00 00 71    	ior.w     w2, w0, w0
    92a8:	cc a8 de    	asr.w     w5, #0xc, w1
    92aa:	00 80 41    	add.w     w3, w0, w0
    92ac:	f0 d9 88    	mov.w     w0, 0x1b3e
    92ae:	0b 00 37    	bra       0x92c6 <.L34>

000092b0 <.L28>:
			}
		}
		else
		{
#if (ALTITUDEHOLD_STABILIZED == AH_PITCH_ONLY)
			// In stabilized mode using pitch-only altitude hold, use desiredHeight as
			// set from the state machine upon entering stabilized mode in ent_stabilizedS().
			if (desiredHeight < (int)( HEIGHT_TARGET_MIN )) desiredHeight = (int)( HEIGHT_TARGET_MIN ) ;
    92b0:	f0 d9 80    	mov.w     0x1b3e, w0
    92b2:	f8 0f 50    	sub.w     w0, #0x18, [w15]
    92b4:	02 00 3c    	bra       GT, 0x92ba <.L35>
    92b6:	90 01 20    	mov.w     #0x19, w0
    92b8:	f0 d9 88    	mov.w     w0, 0x1b3e

000092ba <.L35>:
			if (desiredHeight > (int)( HEIGHT_TARGET_MAX )) desiredHeight = (int)( HEIGHT_TARGET_MAX ) ;
    92ba:	f1 d9 80    	mov.w     0x1b3e, w1
    92bc:	40 06 20    	mov.w     #0x64, w0
    92be:	80 8f 50    	sub.w     w1, w0, [w15]
    92c0:	02 00 34    	bra       LE, 0x92c6 <.L34>
    92c2:	40 06 20    	mov.w     #0x64, w0
    92c4:	f0 d9 88    	mov.w     w0, 0x1b3e

000092c6 <.L34>:
#elif (ALTITUDEHOLD_STABILIZED == AH_FULL)
			// In stabilized mode using full altitude hold, use the throttle stick value to determine desiredHeight,
			desiredHeight =(( __builtin_mulss( (int)( HEIGHTTHROTTLEGAIN ), throttleInOffset )) >> 11) ;
#endif
		}
		
		if ( throttleInOffset < (int)( DEADBAND ) && udb_flags._.radio_on )
    92c6:	9e 00 90    	mov.w     [w14+2], w1
    92c8:	50 09 20    	mov.w     #0x95, w0
    92ca:	80 8f 50    	sub.w     w1, w0, [w15]
    92cc:	0a 00 3c    	bra       GT, 0x92e2 <.L38>
    92ce:	00 da 80    	mov.w     0x1b40, w0
    92d0:	70 00 60    	and.w     w0, #0x10, w0
    92d2:	00 00 e0    	cp0.w     w0
    92d4:	06 00 32    	bra       Z, 0x92e2 <.L38>
		{
			pitchAltitudeAdjust = 0 ;
    92d6:	00 00 eb    	clr.w     w0
    92d8:	50 b6 88    	mov.w     w0, 0x16ca
			throttleAccum.WW  = 0 ;
    92da:	60 00 b8    	mul.uu    w0, #0x0, w0
    92dc:	30 07 98    	mov.w     w0, [w14+6]
    92de:	41 07 98    	mov.w     w1, [w14+8]
    92e0:	53 00 37    	bra       0x9388 <.L41>

000092e2 <.L38>:
		}
		else
		{
			heightError._.W1 = - desiredHeight ;
    92e2:	f0 d9 80    	mov.w     0x1b3e, w0
    92e4:	00 00 ea    	neg.w     w0, w0
    92e6:	00 0f 98    	mov.w     w0, [w14+16]
			heightError.WW += IMUlocationz.WW ;
    92e8:	7e 01 90    	mov.w     [w14+14], w2
    92ea:	8e 09 90    	mov.w     [w14+16], w3
    92ec:	e0 61 80    	mov.w     0xc3c, w0
    92ee:	f1 61 80    	mov.w     0xc3e, w1
    92f0:	02 00 40    	add.w     w0, w2, w0
    92f2:	83 80 48    	addc.w    w1, w3, w1
    92f4:	70 07 98    	mov.w     w0, [w14+14]
    92f6:	01 0f 98    	mov.w     w1, [w14+16]
			heightError.WW = heightError.WW >> 13 ;
    92f8:	7e 00 90    	mov.w     [w14+14], w0
    92fa:	8e 08 90    	mov.w     [w14+16], w1
    92fc:	43 0a dd    	sl.w      w1, #0x3, w4
    92fe:	4d 00 de    	lsr.w     w0, #0xd, w0
    9300:	00 00 72    	ior.w     w4, w0, w0
    9302:	cd 88 de    	asr.w     w1, #0xd, w1
    9304:	70 07 98    	mov.w     w0, [w14+14]
    9306:	01 0f 98    	mov.w     w1, [w14+16]
			if ( heightError._.W0 < ( - (int)(HEIGHT_MARGIN*8.0)) )
    9308:	fe 00 90    	mov.w     [w14+14], w1
    930a:	00 fb 2f    	mov.w     #0xffb0, w0
    930c:	80 8f 50    	sub.w     w1, w0, [w15]
    930e:	07 00 3d    	bra       GE, 0x931e <.L42>
			{
				throttleAccum.WW = (int)(MAXTHROTTLE) ;
    9310:	80 38 21    	mov.w     #0x1388, w0
    9312:	01 00 20    	mov.w     #0x0, w1
    9314:	30 07 98    	mov.w     w0, [w14+6]
    9316:	41 07 98    	mov.w     w1, [w14+8]
				pitchAltitudeAdjust = (int)(PITCHATMAX) ;
    9318:	10 0c 21    	mov.w     #0x10c1, w0
    931a:	50 b6 88    	mov.w     w0, 0x16ca
    931c:	35 00 37    	bra       0x9388 <.L41>

0000931e <.L42>:
			}
			else if (  heightError._.W0 > (int)(HEIGHT_MARGIN*8.0) )
    931e:	fe 00 90    	mov.w     [w14+14], w1
    9320:	00 05 20    	mov.w     #0x50, w0
    9322:	80 8f 50    	sub.w     w1, w0, [w15]
    9324:	06 00 34    	bra       LE, 0x9332 <.L44>
			{
				throttleAccum.WW = 0 ;
    9326:	60 00 b8    	mul.uu    w0, #0x0, w0
    9328:	30 07 98    	mov.w     w0, [w14+6]
    932a:	41 07 98    	mov.w     w1, [w14+8]
				pitchAltitudeAdjust = (int)( PITCHATZERO ) ;
    932c:	f0 f3 2e    	mov.w     #0xef3f, w0
    932e:	50 b6 88    	mov.w     w0, 0x16ca
    9330:	2b 00 37    	bra       0x9388 <.L41>

00009332 <.L44>:
			}
			else
			{
				throttleAccum.WW = (int)(MAXTHROTTLE) + (__builtin_mulss( (int)(THROTTLEHEIGHTGAIN), ( -heightError._.W0 - (int)(HEIGHT_MARGIN*8.0) ) )>>3) ;
    9332:	7e 00 90    	mov.w     [w14+14], w0
    9334:	80 00 ea    	neg.w     w0, w1
    9336:	00 fb 2f    	mov.w     #0xffb0, w0
    9338:	80 80 40    	add.w     w1, w0, w1
    933a:	20 0a 20    	mov.w     #0xa2, w0
    933c:	01 80 b9    	mul.ss    w0, w1, w0
    933e:	c3 89 de    	asr.w     w1, #0x3, w3
    9340:	4d 0a dd    	sl.w      w1, #0xd, w4
    9342:	43 01 de    	lsr.w     w0, #0x3, w2
    9344:	02 01 72    	ior.w     w4, w2, w2
    9346:	80 38 21    	mov.w     #0x1388, w0
    9348:	01 00 20    	mov.w     #0x0, w1
    934a:	02 00 40    	add.w     w0, w2, w0
    934c:	83 80 48    	addc.w    w1, w3, w1
    934e:	30 07 98    	mov.w     w0, [w14+6]
    9350:	41 07 98    	mov.w     w1, [w14+8]
				if ( throttleAccum.WW > (int)(MAXTHROTTLE) ) throttleAccum.WW = (int)(MAXTHROTTLE) ;
    9352:	3e 01 90    	mov.w     [w14+6], w2
    9354:	ce 01 90    	mov.w     [w14+8], w3
    9356:	80 38 21    	mov.w     #0x1388, w0
    9358:	01 00 20    	mov.w     #0x0, w1
    935a:	80 0f 51    	sub.w     w2, w0, [w15]
    935c:	81 8f 59    	subb.w    w3, w1, [w15]
    935e:	04 00 34    	bra       LE, 0x9368 <.L46>
    9360:	80 38 21    	mov.w     #0x1388, w0
    9362:	01 00 20    	mov.w     #0x0, w1
    9364:	30 07 98    	mov.w     w0, [w14+6]
    9366:	41 07 98    	mov.w     w1, [w14+8]

00009368 <.L46>:
				pitchAccum.WW = __builtin_mulss( (int)(PITCHHEIGHTGAIN) , - heightError._.W0 - (int)(HEIGHT_MARGIN*8.0 ))>>3 ;
    9368:	7e 00 90    	mov.w     [w14+14], w0
    936a:	80 00 ea    	neg.w     w0, w1
    936c:	00 fb 2f    	mov.w     #0xffb0, w0
    936e:	80 80 40    	add.w     w1, w0, w1
    9370:	c0 1a 20    	mov.w     #0x1ac, w0
    9372:	01 80 b9    	mul.ss    w0, w1, w0
    9374:	4d 09 dd    	sl.w      w1, #0xd, w2
    9376:	43 00 de    	lsr.w     w0, #0x3, w0
    9378:	00 00 71    	ior.w     w2, w0, w0
    937a:	c3 88 de    	asr.w     w1, #0x3, w1
    937c:	50 07 98    	mov.w     w0, [w14+10]
    937e:	61 07 98    	mov.w     w1, [w14+12]
				pitchAltitudeAdjust = (int)(PITCHATMAX) + pitchAccum._.W0 ;
    9380:	de 00 90    	mov.w     [w14+10], w1
    9382:	10 0c 21    	mov.w     #0x10c1, w0
    9384:	00 80 40    	add.w     w1, w0, w0
    9386:	50 b6 88    	mov.w     w0, 0x16ca

00009388 <.L41>:
			}
			
#if (RACING_MODE == 1)
			if ( flags._.GPS_steering )
			{
				throttleAccum.WW = (long)(FIXED_WP_THROTTLE) ;
			}
#endif
		}
		
		if ( !flags._.altitude_hold_throttle )
    9388:	70 d8 80    	mov.w     0x1b0e, w0
    938a:	01 20 20    	mov.w     #0x200, w1
    938c:	01 00 60    	and.w     w0, w1, w0
    938e:	00 00 e0    	cp0.w     w0
    9390:	03 00 3a    	bra       NZ, 0x9398 <.L48>
		{
			manualThrottle(throttleIn) ;
    9392:	2e 00 90    	mov.w     [w14+4], w0
    9394:	4d 00 07    	rcall     0x9430 <_manualThrottle>
    9396:	3b 00 37    	bra       0x940e <.L50>

00009398 <.L48>:
		}
		else if ( flags._.GPS_steering && desired_behavior._.land )
    9398:	70 d8 80    	mov.w     0x1b0e, w0
    939a:	01 08 20    	mov.w     #0x80, w1
    939c:	01 00 60    	and.w     w0, w1, w0
    939e:	00 00 e0    	cp0.w     w0
    93a0:	1d 00 32    	bra       Z, 0x93dc <.L51>
    93a2:	a0 d9 80    	mov.w     0x1b34, w0
    93a4:	01 08 20    	mov.w     #0x80, w1
    93a6:	01 00 60    	and.w     w0, w1, w0
    93a8:	00 00 e0    	cp0.w     w0
    93aa:	18 00 32    	bra       Z, 0x93dc <.L51>
		{
			// place a ceiling, in other words, go down, but not up.
			if ( pitchAltitudeAdjust > 0 )
    93ac:	50 b6 80    	mov.w     0x16ca, w0
    93ae:	00 00 e0    	cp0.w     w0
    93b0:	02 00 34    	bra       LE, 0x93b6 <.L54>
			{
				pitchAltitudeAdjust = 0 ;
    93b2:	00 00 eb    	clr.w     w0
    93b4:	50 b6 88    	mov.w     w0, 0x16ca

000093b6 <.L54>:
			}
			
			throttleFiltered.WW += (((long)(udb_pwTrim[THROTTLE_INPUT_CHANNEL] - throttleFiltered._.W1 ))<<THROTTLEFILTSHIFT ) ;
    93b6:	32 b6 80    	mov.w     0x16c6, w2
    93b8:	43 b6 80    	mov.w     0x16c8, w3
    93ba:	91 68 80    	mov.w     0xd12, w1
    93bc:	40 b6 80    	mov.w     0x16c8, w0
    93be:	00 80 50    	sub.w     w1, w0, w0
    93c0:	cf 80 de    	asr.w     w0, #0xf, w1
    93c2:	4c 0a dd    	sl.w      w1, #0xc, w4
    93c4:	c4 00 de    	lsr.w     w0, #0x4, w1
    93c6:	81 00 72    	ior.w     w4, w1, w1
    93c8:	4c 00 dd    	sl.w      w0, #0xc, w0
    93ca:	02 00 40    	add.w     w0, w2, w0
    93cc:	83 80 48    	addc.w    w1, w3, w1
    93ce:	30 b6 88    	mov.w     w0, 0x16c6
    93d0:	41 b6 88    	mov.w     w1, 0x16c8
			set_throttle_control(throttleFiltered._.W1 - throttleIn) ;
    93d2:	41 b6 80    	mov.w     0x16c8, w1
    93d4:	2e 00 90    	mov.w     [w14+4], w0
    93d6:	00 80 50    	sub.w     w1, w0, w0
    93d8:	f1 fe 07    	rcall     0x91bc <_set_throttle_control>
    93da:	19 00 37    	bra       0x940e <.L50>

000093dc <.L51>:
		}
		else
		{
			// Servo reversing is handled in servoMix.c
			int throttleOut = udb_servo_pulsesat( udb_pwTrim[THROTTLE_INPUT_CHANNEL] + throttleAccum.WW ) ;
    93dc:	90 68 80    	mov.w     0xd12, w0
    93de:	61 01 b9    	mul.su    w0, #0x1, w2
    93e0:	3e 00 90    	mov.w     [w14+6], w0
    93e2:	ce 00 90    	mov.w     [w14+8], w1
    93e4:	02 00 40    	add.w     w0, w2, w0
    93e6:	83 80 48    	addc.w    w1, w3, w1
    93e8:	bb 05 07    	rcall     0x9f60 <_udb_servo_pulsesat>
    93ea:	00 0f 78    	mov.w     w0, [w14]
			throttleFiltered.WW += (((long)( throttleOut - throttleFiltered._.W1 )) << THROTTLEFILTSHIFT ) ;
    93ec:	32 b6 80    	mov.w     0x16c6, w2
    93ee:	43 b6 80    	mov.w     0x16c8, w3
    93f0:	40 b6 80    	mov.w     0x16c8, w0
    93f2:	1e 00 10    	subr.w    w0, [w14], w0
    93f4:	cf 80 de    	asr.w     w0, #0xf, w1
    93f6:	4c 0a dd    	sl.w      w1, #0xc, w4
    93f8:	c4 00 de    	lsr.w     w0, #0x4, w1
    93fa:	81 00 72    	ior.w     w4, w1, w1
    93fc:	4c 00 dd    	sl.w      w0, #0xc, w0
    93fe:	02 00 40    	add.w     w0, w2, w0
    9400:	83 80 48    	addc.w    w1, w3, w1
    9402:	30 b6 88    	mov.w     w0, 0x16c6
    9404:	41 b6 88    	mov.w     w1, 0x16c8
			set_throttle_control(throttleFiltered._.W1 - throttleIn) ;
    9406:	41 b6 80    	mov.w     0x16c8, w1
    9408:	2e 00 90    	mov.w     [w14+4], w0
    940a:	00 80 50    	sub.w     w1, w0, w0
    940c:	d7 fe 07    	rcall     0x91bc <_set_throttle_control>

0000940e <.L50>:
		}
		
		if ( !flags._.altitude_hold_pitch )
    940e:	70 d8 80    	mov.w     0x1b0e, w0
    9410:	01 40 20    	mov.w     #0x400, w1
    9412:	01 00 60    	and.w     w0, w1, w0
    9414:	00 00 e0    	cp0.w     w0
    9416:	02 00 3a    	bra       NZ, 0x941c <.L56>
		{
			pitchAltitudeAdjust = 0 ;
    9418:	00 00 eb    	clr.w     w0
    941a:	50 b6 88    	mov.w     w0, 0x16ca

0000941c <.L56>:
		}
		
		filterManual = true;
    941c:	10 c0 b3    	mov.b     #0x1, w0
    941e:	cc f6 b7    	mov.b     WREG, 0x16cc
    9420:	04 00 37    	bra       0x942a <.L59>

00009422 <.L27>:
	}
	else
	{
		pitchAltitudeAdjust = 0 ;
    9422:	00 00 eb    	clr.w     w0
    9424:	50 b6 88    	mov.w     w0, 0x16ca
		manualThrottle(throttleIn) ;
    9426:	2e 00 90    	mov.w     [w14+4], w0
    9428:	03 00 07    	rcall     0x9430 <_manualThrottle>

0000942a <.L59>:
	}
	
	return ;
}
    942a:	4f 04 be    	mov.d     [--w15], w8
    942c:	00 80 fa    	ulnk      
    942e:	00 00 06    	return    

00009430 <_manualThrottle>:


void manualThrottle( int throttleIn )
{
    9430:	04 00 fa    	lnk       #0x4
    9432:	10 07 98    	mov.w     w0, [w14+2]
	int throttle_control_pre ;
	
	throttleFiltered.WW += (((long)( throttleIn - throttleFiltered._.W1 )) << THROTTLEFILTSHIFT ) ;
    9434:	32 b6 80    	mov.w     0x16c6, w2
    9436:	43 b6 80    	mov.w     0x16c8, w3
    9438:	41 b6 80    	mov.w     0x16c8, w1
    943a:	1e 00 90    	mov.w     [w14+2], w0
    943c:	01 00 50    	sub.w     w0, w1, w0
    943e:	cf 80 de    	asr.w     w0, #0xf, w1
    9440:	4c 0a dd    	sl.w      w1, #0xc, w4
    9442:	c4 00 de    	lsr.w     w0, #0x4, w1
    9444:	81 00 72    	ior.w     w4, w1, w1
    9446:	4c 00 dd    	sl.w      w0, #0xc, w0
    9448:	02 00 40    	add.w     w0, w2, w0
    944a:	83 80 48    	addc.w    w1, w3, w1
    944c:	30 b6 88    	mov.w     w0, 0x16c6
    944e:	41 b6 88    	mov.w     w1, 0x16c8
	
	if (filterManual) {
    9450:	cc d6 bf    	mov.b     0x16cc, WREG
    9452:	00 04 e0    	cp0.b     w0
    9454:	09 00 32    	bra       Z, 0x9468 <.L61>
		// Continue to filter the throttle control value in manual mode to avoid large, instant
		// changes to throttle value, which can burn out a brushed motor.  But after fading over
		// to the new throttle value, stop applying the filter to the throttle out to allow
		// faster control.
		throttle_control_pre = throttleFiltered._.W1 - throttleIn ;
    9456:	41 b6 80    	mov.w     0x16c8, w1
    9458:	1e 00 90    	mov.w     [w14+2], w0
    945a:	00 8f 50    	sub.w     w1, w0, [w14]
		if (throttle_control_pre < 10) filterManual = false ;
    945c:	90 00 20    	mov.w     #0x9, w0
    945e:	9e 0f 10    	subr.w    w0, [w14], [w15]
    9460:	05 00 3c    	bra       GT, 0x946c <.L65>
    9462:	00 40 eb    	clr.b     w0
    9464:	cc f6 b7    	mov.b     WREG, 0x16cc
    9466:	02 00 37    	bra       0x946c <.L65>

00009468 <.L61>:
	}
	else {
		throttle_control_pre = 0 ;
    9468:	00 00 eb    	clr.w     w0
    946a:	00 0f 78    	mov.w     w0, [w14]

0000946c <.L65>:
	}
	
	set_throttle_control(throttle_control_pre) ;
    946c:	1e 00 78    	mov.w     [w14], w0
    946e:	a6 fe 07    	rcall     0x91bc <_set_throttle_control>
	
	return ;
}
    9470:	00 80 fa    	ulnk      
    9472:	00 00 06    	return    

00009474 <_hoverAltitudeCntrl>:


// For now, hovering does not attempt to control the throttle, and instead
// gives manual throttle control back to the pilot.
void hoverAltitudeCntrl(void)
{
    9474:	06 00 fa    	lnk       #0x6
	int throttle_control_pre ;
	int throttleIn = ( udb_flags._.radio_on == 1 ) ? udb_pwIn[THROTTLE_INPUT_CHANNEL] : udb_pwTrim[THROTTLE_INPUT_CHANNEL] ;
    9476:	00 da 80    	mov.w     0x1b40, w0
    9478:	70 00 60    	and.w     w0, #0x10, w0
    947a:	00 00 e0    	cp0.w     w0
    947c:	03 00 32    	bra       Z, 0x9484 <.L68>
    947e:	80 64 80    	mov.w     0xc90, w0
    9480:	20 07 98    	mov.w     w0, [w14+4]
    9482:	02 00 37    	bra       0x9488 <.L70>

00009484 <.L68>:
    9484:	94 68 80    	mov.w     0xd12, w4
    9486:	24 07 98    	mov.w     w4, [w14+4]

00009488 <.L70>:
    9488:	2e 00 90    	mov.w     [w14+4], w0
    948a:	00 0f 78    	mov.w     w0, [w14]
	
	throttleFiltered.WW += (((long)( throttleIn - throttleFiltered._.W1 )) << THROTTLEFILTSHIFT ) ;
    948c:	32 b6 80    	mov.w     0x16c6, w2
    948e:	43 b6 80    	mov.w     0x16c8, w3
    9490:	40 b6 80    	mov.w     0x16c8, w0
    9492:	1e 00 10    	subr.w    w0, [w14], w0
    9494:	cf 80 de    	asr.w     w0, #0xf, w1
    9496:	4c 0a dd    	sl.w      w1, #0xc, w4
    9498:	c4 00 de    	lsr.w     w0, #0x4, w1
    949a:	81 00 72    	ior.w     w4, w1, w1
    949c:	4c 00 dd    	sl.w      w0, #0xc, w0
    949e:	02 00 40    	add.w     w0, w2, w0
    94a0:	83 80 48    	addc.w    w1, w3, w1
    94a2:	30 b6 88    	mov.w     w0, 0x16c6
    94a4:	41 b6 88    	mov.w     w1, 0x16c8
	
	if (filterManual) {
    94a6:	cc d6 bf    	mov.b     0x16cc, WREG
    94a8:	00 04 e0    	cp0.b     w0
    94aa:	09 00 32    	bra       Z, 0x94be <.L71>
		// Continue to filter the throttle control value in manual mode to avoid large, instant
		// changes to throttle value, which can burn out a brushed motor.  But after fading over
		// to the new throttle value, stop applying the filter to the throttle out to allow
		// faster control.
		throttle_control_pre = throttleFiltered._.W1 - throttleIn ;
    94ac:	40 b6 80    	mov.w     0x16c8, w0
    94ae:	1e 00 50    	sub.w     w0, [w14], w0
    94b0:	10 07 98    	mov.w     w0, [w14+2]
		if (throttle_control_pre < 10) filterManual = false ;
    94b2:	1e 00 90    	mov.w     [w14+2], w0
    94b4:	e9 0f 50    	sub.w     w0, #0x9, [w15]
    94b6:	05 00 3c    	bra       GT, 0x94c2 <.L75>
    94b8:	00 40 eb    	clr.b     w0
    94ba:	cc f6 b7    	mov.b     WREG, 0x16cc
    94bc:	02 00 37    	bra       0x94c2 <.L75>

000094be <.L71>:
	}
	else {
		throttle_control_pre = 0 ;
    94be:	00 00 eb    	clr.w     w0
    94c0:	10 07 98    	mov.w     w0, [w14+2]

000094c2 <.L75>:
	}
	
	set_throttle_control(throttle_control_pre) ;
    94c2:	1e 00 90    	mov.w     [w14+2], w0
    94c4:	7b fe 07    	rcall     0x91bc <_set_throttle_control>
	
	return ;
}
    94c6:	00 80 fa    	ulnk      
    94c8:	00 00 06    	return    

000094ca <_sine>:
    94ca:	06 00 fa    	lnk       #0x6
    94cc:	20 47 98    	mov.b     w0, [w14+2]
    94ce:	2e 40 90    	mov.b     [w14+2], w0
    94d0:	00 00 fb    	se        w0, w0
    94d2:	00 0f 78    	mov.w     w0, [w14]
    94d4:	1e 00 e0    	cp0.w     [w14]
    94d6:	12 00 35    	bra       LT, 0x94fc <.L2>
    94d8:	00 04 20    	mov.w     #0x40, w0
    94da:	9e 0f 10    	subr.w    w0, [w14], [w15]
    94dc:	08 00 34    	bra       LE, 0x94ee <.L4>
    94de:	00 08 20    	mov.w     #0x80, w0
    94e0:	1e 00 50    	sub.w     w0, [w14], w0
    94e2:	80 00 40    	add.w     w0, w0, w1
    94e4:	80 8e 29    	mov.w     #0x98e8, w0
    94e6:	00 80 40    	add.w     w1, w0, w0
    94e8:	10 00 78    	mov.w     [w0], w0
    94ea:	20 07 98    	mov.w     w0, [w14+4]
    94ec:	1b 00 37    	bra       0x9524 <.L6>

000094ee <.L4>:
    94ee:	1e 00 78    	mov.w     [w14], w0
    94f0:	80 00 40    	add.w     w0, w0, w1
    94f2:	80 8e 29    	mov.w     #0x98e8, w0
    94f4:	00 80 40    	add.w     w1, w0, w0
    94f6:	10 00 78    	mov.w     [w0], w0
    94f8:	20 07 98    	mov.w     w0, [w14+4]
    94fa:	14 00 37    	bra       0x9524 <.L6>

000094fc <.L2>:
    94fc:	1e 0f ea    	neg.w     [w14], [w14]
    94fe:	00 04 20    	mov.w     #0x40, w0
    9500:	9e 0f 10    	subr.w    w0, [w14], [w15]
    9502:	09 00 34    	bra       LE, 0x9516 <.L7>
    9504:	00 08 20    	mov.w     #0x80, w0
    9506:	1e 00 50    	sub.w     w0, [w14], w0
    9508:	80 00 40    	add.w     w0, w0, w1
    950a:	80 8e 29    	mov.w     #0x98e8, w0
    950c:	00 80 40    	add.w     w1, w0, w0
    950e:	10 00 78    	mov.w     [w0], w0
    9510:	00 00 ea    	neg.w     w0, w0
    9512:	20 07 98    	mov.w     w0, [w14+4]
    9514:	07 00 37    	bra       0x9524 <.L6>

00009516 <.L7>:
    9516:	1e 00 78    	mov.w     [w14], w0
    9518:	80 00 40    	add.w     w0, w0, w1
    951a:	80 8e 29    	mov.w     #0x98e8, w0
    951c:	00 80 40    	add.w     w1, w0, w0
    951e:	10 00 78    	mov.w     [w0], w0
    9520:	00 00 ea    	neg.w     w0, w0
    9522:	20 07 98    	mov.w     w0, [w14+4]

00009524 <.L6>:
    9524:	2e 00 90    	mov.w     [w14+4], w0
    9526:	00 80 fa    	ulnk      
    9528:	00 00 06    	return    

0000952a <_arcsine>:
    952a:	08 00 fa    	lnk       #0x8
    952c:	88 1f 78    	mov.w     w8, [w15++]
    952e:	20 07 98    	mov.w     w0, [w14+4]
    9530:	00 c2 b3    	mov.b     #0x20, w0
    9532:	30 47 98    	mov.b     w0, [w14+3]
    9534:	00 c4 b3    	mov.b     #0x40, w0
    9536:	20 47 98    	mov.b     w0, [w14+2]
    9538:	00 c2 b3    	mov.b     #0x20, w0
    953a:	10 47 98    	mov.b     w0, [w14+1]
    953c:	2e 00 90    	mov.w     [w14+4], w0
    953e:	00 00 e0    	cp0.w     w0
    9540:	03 00 34    	bra       LE, 0x9548 <.L11>
    9542:	10 c0 b3    	mov.b     #0x1, w0
    9544:	00 4f 78    	mov.b     w0, [w14]
    9546:	05 00 37    	bra       0x9552 <.L13>

00009548 <.L11>:
    9548:	00 c0 eb    	setm.b    w0
    954a:	00 4f 78    	mov.b     w0, [w14]
    954c:	2e 00 90    	mov.w     [w14+4], w0
    954e:	00 00 ea    	neg.w     w0, w0
    9550:	20 07 98    	mov.w     w0, [w14+4]

00009552 <.L13>:
    9552:	ae 00 90    	mov.w     [w14+4], w1
    9554:	00 00 24    	mov.w     #0x4000, w0
    9556:	80 8f 50    	sub.w     w1, w0, [w15]
    9558:	2d 00 3a    	bra       NZ, 0x95b4 <.L17>
    955a:	1e 00 fb    	se        [w14], w0
    955c:	46 00 dd    	sl.w      w0, #0x6, w0
    955e:	00 00 fb    	se        w0, w0
    9560:	30 07 98    	mov.w     w0, [w14+6]
    9562:	33 00 37    	bra       0x95ca <.L16>

00009564 <.L18>:
    9564:	2e 40 90    	mov.b     [w14+2], w0
    9566:	00 00 fb    	se        w0, w0
    9568:	00 80 d1    	asr.w     w0, w0
    956a:	30 47 98    	mov.b     w0, [w14+3]
    956c:	3e 40 90    	mov.b     [w14+3], w0
    956e:	ad ff 07    	rcall     0x94ca <_sine>
    9570:	80 00 78    	mov.w     w0, w1
    9572:	2e 00 90    	mov.w     [w14+4], w0
    9574:	80 8f 50    	sub.w     w1, w0, [w15]
    9576:	06 00 3a    	bra       NZ, 0x9584 <.L19>
    9578:	9e 40 78    	mov.b     [w14], w1
    957a:	3e 40 90    	mov.b     [w14+3], w0
    957c:	00 88 b9    	mul.ss    w1, w0, w0
    957e:	00 00 fb    	se        w0, w0
    9580:	30 07 98    	mov.w     w0, [w14+6]
    9582:	23 00 37    	bra       0x95ca <.L16>

00009584 <.L19>:
    9584:	3e 40 90    	mov.b     [w14+3], w0
    9586:	a1 ff 07    	rcall     0x94ca <_sine>
    9588:	00 04 78    	mov.w     w0, w8
    958a:	3e 40 90    	mov.b     [w14+3], w0
    958c:	00 40 e9    	dec.b     w0, w0
    958e:	9d ff 07    	rcall     0x94ca <_sine>
    9590:	00 00 44    	add.w     w8, w0, w0
    9592:	80 80 d1    	asr.w     w0, w1
    9594:	2e 00 90    	mov.w     [w14+4], w0
    9596:	80 8f 50    	sub.w     w1, w0, [w15]
    9598:	05 00 3d    	bra       GE, 0x95a4 <.L21>
    959a:	2e 40 90    	mov.b     [w14+2], w0
    959c:	9e 40 90    	mov.b     [w14+1], w1
    959e:	01 40 40    	add.b     w0, w1, w0
    95a0:	20 47 98    	mov.b     w0, [w14+2]
    95a2:	04 00 37    	bra       0x95ac <.L23>

000095a4 <.L21>:
    95a4:	2e 40 90    	mov.b     [w14+2], w0
    95a6:	9e 40 90    	mov.b     [w14+1], w1
    95a8:	01 40 50    	sub.b     w0, w1, w0
    95aa:	20 47 98    	mov.b     w0, [w14+2]

000095ac <.L23>:
    95ac:	1e 40 90    	mov.b     [w14+1], w0
    95ae:	00 00 fb    	se        w0, w0
    95b0:	00 80 d1    	asr.w     w0, w0
    95b2:	10 47 98    	mov.b     w0, [w14+1]

000095b4 <.L17>:
    95b4:	1e 40 90    	mov.b     [w14+1], w0
    95b6:	00 04 e0    	cp0.b     w0
    95b8:	d5 ff 3c    	bra       GT, 0x9564 <.L18>
    95ba:	2e 40 90    	mov.b     [w14+2], w0
    95bc:	00 00 fb    	se        w0, w0
    95be:	00 80 d1    	asr.w     w0, w0
    95c0:	80 40 78    	mov.b     w0, w1
    95c2:	1e 40 78    	mov.b     [w14], w0
    95c4:	00 88 b9    	mul.ss    w1, w0, w0
    95c6:	00 00 fb    	se        w0, w0
    95c8:	30 07 98    	mov.w     w0, [w14+6]

000095ca <.L16>:
    95ca:	3e 00 90    	mov.w     [w14+6], w0
    95cc:	4f 04 78    	mov.w     [--w15], w8
    95ce:	00 80 fa    	ulnk      
    95d0:	00 00 06    	return    

000095d2 <_cosine>:
    95d2:	02 00 fa    	lnk       #0x2
    95d4:	00 4f 78    	mov.b     w0, [w14]
    95d6:	01 c4 b3    	mov.b     #0x40, w1
    95d8:	1e c0 40    	add.b     w1, [w14], w0
    95da:	77 ff 07    	rcall     0x94ca <_sine>
    95dc:	00 80 fa    	ulnk      
    95de:	00 00 06    	return    

000095e0 <_rotate>:
    95e0:	10 00 fa    	lnk       #0x10
    95e2:	60 07 98    	mov.w     w0, [w14+12]
    95e4:	61 4f 98    	mov.b     w1, [w14+14]
    95e6:	6e 48 90    	mov.b     [w14+14], w0
    95e8:	70 ff 07    	rcall     0x94ca <_sine>
    95ea:	20 07 98    	mov.w     w0, [w14+4]
    95ec:	6e 48 90    	mov.b     [w14+14], w0
    95ee:	f1 ff 07    	rcall     0x95d2 <_cosine>
    95f0:	30 07 98    	mov.w     w0, [w14+6]
    95f2:	6e 00 90    	mov.w     [w14+12], w0
    95f4:	90 00 78    	mov.w     [w0], w1
    95f6:	3e 00 90    	mov.w     [w14+6], w0
    95f8:	01 81 b9    	mul.ss    w0, w1, w2
    95fa:	6e 00 90    	mov.w     [w14+12], w0
    95fc:	90 00 90    	mov.w     [w0+2], w1
    95fe:	2e 00 90    	mov.w     [w14+4], w0
    9600:	01 80 b9    	mul.ss    w0, w1, w0
    9602:	00 00 51    	sub.w     w2, w0, w0
    9604:	81 80 59    	subb.w    w3, w1, w1
    9606:	42 09 dd    	sl.w      w1, #0x2, w2
    9608:	ce 00 de    	lsr.w     w0, #0xe, w1
    960a:	81 00 71    	ior.w     w2, w1, w1
    960c:	42 00 dd    	sl.w      w0, #0x2, w0
    960e:	40 07 98    	mov.w     w0, [w14+8]
    9610:	51 07 98    	mov.w     w1, [w14+10]
    9612:	5e 00 90    	mov.w     [w14+10], w0
    9614:	10 07 98    	mov.w     w0, [w14+2]
    9616:	6e 00 90    	mov.w     [w14+12], w0
    9618:	90 00 78    	mov.w     [w0], w1
    961a:	2e 00 90    	mov.w     [w14+4], w0
    961c:	01 81 b9    	mul.ss    w0, w1, w2
    961e:	6e 00 90    	mov.w     [w14+12], w0
    9620:	90 00 90    	mov.w     [w0+2], w1
    9622:	3e 00 90    	mov.w     [w14+6], w0
    9624:	01 80 b9    	mul.ss    w0, w1, w0
    9626:	02 00 40    	add.w     w0, w2, w0
    9628:	83 80 48    	addc.w    w1, w3, w1
    962a:	42 09 dd    	sl.w      w1, #0x2, w2
    962c:	ce 00 de    	lsr.w     w0, #0xe, w1
    962e:	81 00 71    	ior.w     w2, w1, w1
    9630:	42 00 dd    	sl.w      w0, #0x2, w0
    9632:	40 07 98    	mov.w     w0, [w14+8]
    9634:	51 07 98    	mov.w     w1, [w14+10]
    9636:	5e 00 90    	mov.w     [w14+10], w0
    9638:	00 0f 78    	mov.w     w0, [w14]
    963a:	6e 00 90    	mov.w     [w14+12], w0
    963c:	9e 00 90    	mov.w     [w14+2], w1
    963e:	01 08 78    	mov.w     w1, [w0]
    9640:	6e 00 90    	mov.w     [w14+12], w0
    9642:	1e 01 78    	mov.w     [w14], w2
    9644:	12 00 98    	mov.w     w2, [w0+2]
    9646:	00 80 fa    	ulnk      
    9648:	00 00 06    	return    

0000964a <_rect_to_polar>:
    964a:	08 00 fa    	lnk       #0x8
    964c:	30 07 98    	mov.w     w0, [w14+6]
    964e:	00 40 eb    	clr.b     w0
    9650:	50 47 98    	mov.b     w0, [w14+5]
    9652:	00 c4 b3    	mov.b     #0x40, w0
    9654:	40 47 98    	mov.b     w0, [w14+4]
    9656:	70 c0 b3    	mov.b     #0x7, w0
    9658:	20 47 98    	mov.b     w0, [w14+2]
    965a:	3e 00 90    	mov.w     [w14+6], w0
    965c:	90 00 78    	mov.w     [w0], w1
    965e:	e0 0f 20    	mov.w     #0xfe, w0
    9660:	80 8f 50    	sub.w     w1, w0, [w15]
    9662:	1c 00 3c    	bra       GT, 0x969c <.L31>
    9664:	3e 00 90    	mov.w     [w14+6], w0
    9666:	90 00 78    	mov.w     [w0], w1
    9668:	10 f0 2f    	mov.w     #0xff01, w0
    966a:	80 8f 50    	sub.w     w1, w0, [w15]
    966c:	17 00 34    	bra       LE, 0x969c <.L31>
    966e:	3e 00 90    	mov.w     [w14+6], w0
    9670:	90 00 90    	mov.w     [w0+2], w1
    9672:	e0 0f 20    	mov.w     #0xfe, w0
    9674:	80 8f 50    	sub.w     w1, w0, [w15]
    9676:	12 00 3c    	bra       GT, 0x969c <.L31>
    9678:	3e 00 90    	mov.w     [w14+6], w0
    967a:	90 00 90    	mov.w     [w0+2], w1
    967c:	10 f0 2f    	mov.w     #0xff01, w0
    967e:	80 8f 50    	sub.w     w1, w0, [w15]
    9680:	0d 00 34    	bra       LE, 0x969c <.L31>
    9682:	60 00 20    	mov.w     #0x6, w0
    9684:	00 0f 78    	mov.w     w0, [w14]
    9686:	3e 00 90    	mov.w     [w14+6], w0
    9688:	10 00 78    	mov.w     [w0], w0
    968a:	c6 00 dd    	sl.w      w0, #0x6, w1
    968c:	3e 00 90    	mov.w     [w14+6], w0
    968e:	01 08 78    	mov.w     w1, [w0]
    9690:	3e 00 90    	mov.w     [w14+6], w0
    9692:	10 00 90    	mov.w     [w0+2], w0
    9694:	c6 00 dd    	sl.w      w0, #0x6, w1
    9696:	3e 00 90    	mov.w     [w14+6], w0
    9698:	11 00 98    	mov.w     w1, [w0+2]
    969a:	1a 00 37    	bra       0x96d0 <.L37>

0000969c <.L31>:
    969c:	00 00 eb    	clr.w     w0
    969e:	00 0f 78    	mov.w     w0, [w14]
    96a0:	17 00 37    	bra       0x96d0 <.L37>

000096a2 <.L38>:
    96a2:	4e 40 90    	mov.b     [w14+4], w0
    96a4:	30 47 98    	mov.b     w0, [w14+3]
    96a6:	3e 00 90    	mov.w     [w14+6], w0
    96a8:	10 00 90    	mov.w     [w0+2], w0
    96aa:	00 00 e0    	cp0.w     w0
    96ac:	03 00 34    	bra       LE, 0x96b4 <.L39>
    96ae:	3e 40 90    	mov.b     [w14+3], w0
    96b0:	00 40 ea    	neg.b     w0, w0
    96b2:	30 47 98    	mov.b     w0, [w14+3]

000096b4 <.L39>:
    96b4:	be 40 90    	mov.b     [w14+3], w1
    96b6:	3e 00 90    	mov.w     [w14+6], w0
    96b8:	93 ff 07    	rcall     0x95e0 <_rotate>
    96ba:	de 40 90    	mov.b     [w14+5], w1
    96bc:	3e 40 90    	mov.b     [w14+3], w0
    96be:	00 c0 40    	add.b     w1, w0, w0
    96c0:	50 47 98    	mov.b     w0, [w14+5]
    96c2:	4e 40 90    	mov.b     [w14+4], w0
    96c4:	00 00 fb    	se        w0, w0
    96c6:	00 80 d1    	asr.w     w0, w0
    96c8:	40 47 98    	mov.b     w0, [w14+4]
    96ca:	2e 40 90    	mov.b     [w14+2], w0
    96cc:	00 40 e9    	dec.b     w0, w0
    96ce:	20 47 98    	mov.b     w0, [w14+2]

000096d0 <.L37>:
    96d0:	2e 40 90    	mov.b     [w14+2], w0
    96d2:	00 04 e0    	cp0.b     w0
    96d4:	e6 ff 3c    	bra       GT, 0x96a2 <.L38>
    96d6:	3e 00 90    	mov.w     [w14+6], w0
    96d8:	10 00 90    	mov.w     [w0+2], w0
    96da:	00 00 e0    	cp0.w     w0
    96dc:	03 00 34    	bra       LE, 0x96e4 <.L42>
    96de:	5e 40 90    	mov.b     [w14+5], w0
    96e0:	00 40 e9    	dec.b     w0, w0
    96e2:	50 47 98    	mov.b     w0, [w14+5]

000096e4 <.L42>:
    96e4:	3e 00 90    	mov.w     [w14+6], w0
    96e6:	90 00 78    	mov.w     [w0], w1
    96e8:	1e 00 78    	mov.w     [w14], w0
    96ea:	80 88 de    	asr.w     w1, w0, w1
    96ec:	3e 00 90    	mov.w     [w14+6], w0
    96ee:	01 08 78    	mov.w     w1, [w0]
    96f0:	3e 00 90    	mov.w     [w14+6], w0
    96f2:	90 00 90    	mov.w     [w0+2], w1
    96f4:	1e 00 78    	mov.w     [w14], w0
    96f6:	80 88 de    	asr.w     w1, w0, w1
    96f8:	3e 00 90    	mov.w     [w14+6], w0
    96fa:	11 00 98    	mov.w     w1, [w0+2]
    96fc:	5e 40 90    	mov.b     [w14+5], w0
    96fe:	00 40 ea    	neg.b     w0, w0
    9700:	00 00 fb    	se        w0, w0
    9702:	00 80 fa    	ulnk      
    9704:	00 00 06    	return    

00009706 <_rect_to_polar16>:
    9706:	0a 00 fa    	lnk       #0xa
    9708:	40 07 98    	mov.w     w0, [w14+8]
    970a:	00 40 eb    	clr.b     w0
    970c:	30 47 98    	mov.b     w0, [w14+3]
    970e:	00 c4 b3    	mov.b     #0x40, w0
    9710:	20 47 98    	mov.b     w0, [w14+2]
    9712:	70 c0 b3    	mov.b     #0x7, w0
    9714:	00 4f 78    	mov.b     w0, [w14]
    9716:	4e 00 90    	mov.w     [w14+8], w0
    9718:	90 00 78    	mov.w     [w0], w1
    971a:	e0 0f 20    	mov.w     #0xfe, w0
    971c:	80 8f 50    	sub.w     w1, w0, [w15]
    971e:	1c 00 3c    	bra       GT, 0x9758 <.L46>
    9720:	4e 00 90    	mov.w     [w14+8], w0
    9722:	90 00 78    	mov.w     [w0], w1
    9724:	10 f0 2f    	mov.w     #0xff01, w0
    9726:	80 8f 50    	sub.w     w1, w0, [w15]
    9728:	17 00 34    	bra       LE, 0x9758 <.L46>
    972a:	4e 00 90    	mov.w     [w14+8], w0
    972c:	90 00 90    	mov.w     [w0+2], w1
    972e:	e0 0f 20    	mov.w     #0xfe, w0
    9730:	80 8f 50    	sub.w     w1, w0, [w15]
    9732:	12 00 3c    	bra       GT, 0x9758 <.L46>
    9734:	4e 00 90    	mov.w     [w14+8], w0
    9736:	90 00 90    	mov.w     [w0+2], w1
    9738:	10 f0 2f    	mov.w     #0xff01, w0
    973a:	80 8f 50    	sub.w     w1, w0, [w15]
    973c:	0d 00 34    	bra       LE, 0x9758 <.L46>
    973e:	60 00 20    	mov.w     #0x6, w0
    9740:	30 07 98    	mov.w     w0, [w14+6]
    9742:	4e 00 90    	mov.w     [w14+8], w0
    9744:	10 00 78    	mov.w     [w0], w0
    9746:	c6 00 dd    	sl.w      w0, #0x6, w1
    9748:	4e 00 90    	mov.w     [w14+8], w0
    974a:	01 08 78    	mov.w     w1, [w0]
    974c:	4e 00 90    	mov.w     [w14+8], w0
    974e:	10 00 90    	mov.w     [w0+2], w0
    9750:	c6 00 dd    	sl.w      w0, #0x6, w1
    9752:	4e 00 90    	mov.w     [w14+8], w0
    9754:	11 00 98    	mov.w     w1, [w0+2]
    9756:	18 00 37    	bra       0x9788 <.L52>

00009758 <.L46>:
    9758:	00 00 eb    	clr.w     w0
    975a:	30 07 98    	mov.w     w0, [w14+6]
    975c:	15 00 37    	bra       0x9788 <.L52>

0000975e <.L53>:
    975e:	2e 40 90    	mov.b     [w14+2], w0
    9760:	10 47 98    	mov.b     w0, [w14+1]
    9762:	4e 00 90    	mov.w     [w14+8], w0
    9764:	10 00 90    	mov.w     [w0+2], w0
    9766:	00 00 e0    	cp0.w     w0
    9768:	03 00 34    	bra       LE, 0x9770 <.L54>
    976a:	1e 40 90    	mov.b     [w14+1], w0
    976c:	00 40 ea    	neg.b     w0, w0
    976e:	10 47 98    	mov.b     w0, [w14+1]

00009770 <.L54>:
    9770:	9e 40 90    	mov.b     [w14+1], w1
    9772:	4e 00 90    	mov.w     [w14+8], w0
    9774:	35 ff 07    	rcall     0x95e0 <_rotate>
    9776:	be 40 90    	mov.b     [w14+3], w1
    9778:	1e 40 90    	mov.b     [w14+1], w0
    977a:	00 c0 40    	add.b     w1, w0, w0
    977c:	30 47 98    	mov.b     w0, [w14+3]
    977e:	2e 40 90    	mov.b     [w14+2], w0
    9780:	00 00 fb    	se        w0, w0
    9782:	00 80 d1    	asr.w     w0, w0
    9784:	20 47 98    	mov.b     w0, [w14+2]
    9786:	1e 4f e9    	dec.b     [w14], [w14]

00009788 <.L52>:
    9788:	1e 04 e0    	cp0.b     [w14]
    978a:	e9 ff 3c    	bra       GT, 0x975e <.L53>
    978c:	3e 40 90    	mov.b     [w14+3], w0
    978e:	00 40 ea    	neg.b     w0, w0
    9790:	30 47 98    	mov.b     w0, [w14+3]
    9792:	3e 40 90    	mov.b     [w14+3], w0
    9794:	00 00 fb    	se        w0, w0
    9796:	48 00 dd    	sl.w      w0, #0x8, w0
    9798:	20 07 98    	mov.w     w0, [w14+4]
    979a:	4e 00 90    	mov.w     [w14+8], w0
    979c:	10 00 78    	mov.w     [w0], w0
    979e:	00 00 e0    	cp0.w     w0
    97a0:	0e 00 34    	bra       LE, 0x97be <.L57>
    97a2:	4e 00 90    	mov.w     [w14+8], w0
    97a4:	10 01 78    	mov.w     [w0], w2
    97a6:	4e 00 90    	mov.w     [w14+8], w0
    97a8:	90 00 90    	mov.w     [w0+2], w1
    97aa:	e0 8b 22    	mov.w     #0x28be, w0
    97ac:	01 80 b9    	mul.ss    w0, w1, w0
    97ae:	80 1f 78    	mov.w     w0, [w15++]
    97b0:	11 00 09    	repeat    #0x11
    97b2:	42 08 d8    	div.sd    w0, w2
    97b4:	80 00 78    	mov.w     w0, w1
    97b6:	4f 00 78    	mov.w     [--w15], w0
    97b8:	2e 00 90    	mov.w     [w14+4], w0
    97ba:	01 00 40    	add.w     w0, w1, w0
    97bc:	20 07 98    	mov.w     w0, [w14+4]

000097be <.L57>:
    97be:	4e 00 90    	mov.w     [w14+8], w0
    97c0:	90 00 78    	mov.w     [w0], w1
    97c2:	3e 00 90    	mov.w     [w14+6], w0
    97c4:	80 88 de    	asr.w     w1, w0, w1
    97c6:	4e 00 90    	mov.w     [w14+8], w0
    97c8:	01 08 78    	mov.w     w1, [w0]
    97ca:	4e 00 90    	mov.w     [w14+8], w0
    97cc:	90 00 90    	mov.w     [w0+2], w1
    97ce:	3e 00 90    	mov.w     [w14+6], w0
    97d0:	80 88 de    	asr.w     w1, w0, w1
    97d2:	4e 00 90    	mov.w     [w14+8], w0
    97d4:	11 00 98    	mov.w     w1, [w0+2]
    97d6:	2e 00 90    	mov.w     [w14+4], w0
    97d8:	00 80 fa    	ulnk      
    97da:	00 00 06    	return    

000097dc <_dcm_init>:
    97dc:	00 00 fa    	lnk       #0x0
    97de:	00 40 eb    	clr.b     w0
    97e0:	c2 eb b7    	mov.b     WREG, 0xbc2
    97e2:	c2 4b a8    	bset.b    0xbc2, #0x2
    97e4:	20 ea 07    	rcall     0x6c26 <_dcm_init_rmat>
    97e6:	00 80 fa    	ulnk      
    97e8:	00 00 06    	return    

000097ea <_udb_servo_callback_prepare_outputs>:
    97ea:	04 00 fa    	lnk       #0x4
    97ec:	50 57 80    	mov.w     0xaea, w0
    97ee:	61 57 80    	mov.w     0xaec, w1
    97f0:	79 00 40    	add.w     w0, #0x19, w0
    97f2:	e0 80 48    	addc.w    w1, #0x0, w1
    97f4:	50 57 88    	mov.w     w0, 0xaea
    97f6:	61 57 88    	mov.w     w1, 0xaec
    97f8:	f4 d6 bf    	mov.b     0x16f4, WREG
    97fa:	00 40 e8    	inc.b     w0, w0
    97fc:	f4 f6 b7    	mov.b     WREG, 0x16f4
    97fe:	f4 d6 bf    	mov.b     0x16f4, WREG
    9800:	e9 4f 50    	sub.b     w0, #0x9, [w15]
    9802:	04 00 34    	bra       LE, 0x980c <.L4>
    9804:	77 db 07    	rcall     0x4ef4 <_rxMagnetometer>
    9806:	28 de 07    	rcall     0x5458 <_rxAccel>
    9808:	00 40 eb    	clr.b     w0
    980a:	f4 f6 b7    	mov.b     WREG, 0x16f4

0000980c <.L4>:
    980c:	31 d4 80    	mov.w     0x1a86, w1
    980e:	f0 03 20    	mov.w     #0x3f, w0
    9810:	00 80 60    	and.w     w1, w0, w0
    9812:	40 d4 88    	mov.w     w0, 0x1a88
    9814:	10 c0 b3    	mov.b     #0x1, w0
    9816:	72 03 07    	rcall     0x9efc <_udb_setDSPLibInUse>
    9818:	40 d4 80    	mov.w     0x1a88, w0
    981a:	ea 0f 50    	sub.w     w0, #0xa, [w15]
    981c:	77 00 34    	bra       LE, 0x990c <.L6>
    981e:	00 00 22    	mov.w     #0x2000, w0
    9820:	00 08 b0    	add.w     #0x80, w0
    9822:	00 01 78    	mov.w     w0, w2
    9824:	01 00 22    	mov.w     #0x2000, w1
    9826:	00 40 20    	mov.w     #0x400, w0
    9828:	00 80 40    	add.w     w1, w0, w0
    982a:	80 00 78    	mov.w     w0, w1
    982c:	40 d4 80    	mov.w     0x1a88, w0
    982e:	63 76 21    	mov.w     #0x1766, w3
    9830:	f5 0a 07    	rcall     0xae1c <_MDSFIR>
    9832:	00 00 22    	mov.w     #0x2000, w0
    9834:	00 10 b0    	add.w     #0x100, w0
    9836:	00 01 78    	mov.w     w0, w2
    9838:	01 00 22    	mov.w     #0x2000, w1
    983a:	00 48 20    	mov.w     #0x480, w0
    983c:	00 80 40    	add.w     w1, w0, w0
    983e:	80 00 78    	mov.w     w0, w1
    9840:	40 d4 80    	mov.w     0x1a88, w0
    9842:	43 77 21    	mov.w     #0x1774, w3
    9844:	eb 0a 07    	rcall     0xae1c <_MDSFIR>
    9846:	00 00 22    	mov.w     #0x2000, w0
    9848:	00 18 b0    	add.w     #0x180, w0
    984a:	00 01 78    	mov.w     w0, w2
    984c:	01 00 22    	mov.w     #0x2000, w1
    984e:	00 50 20    	mov.w     #0x500, w0
    9850:	00 80 40    	add.w     w1, w0, w0
    9852:	80 00 78    	mov.w     w0, w1
    9854:	40 d4 80    	mov.w     0x1a88, w0
    9856:	23 78 21    	mov.w     #0x1782, w3
    9858:	e1 0a 07    	rcall     0xae1c <_MDSFIR>
    985a:	ff 0f fc    	disi      #0xfff
    985c:	31 d4 80    	mov.w     0x1a86, w1
    985e:	40 d4 80    	mov.w     0x1a88, w0
    9860:	00 80 50    	sub.w     w1, w0, w0
    9862:	10 07 98    	mov.w     w0, [w14+2]
    9864:	1e 00 90    	mov.w     [w14+2], w0
    9866:	00 00 e0    	cp0.w     w0
    9868:	37 00 32    	bra       Z, 0x98d8 <.L8>
    986a:	00 00 eb    	clr.w     w0
    986c:	00 0f 78    	mov.w     w0, [w14]
    986e:	2e 00 37    	bra       0x98cc <.L10>

00009870 <.L11>:
    9870:	9e 01 78    	mov.w     [w14], w3
    9872:	40 d4 80    	mov.w     0x1a88, w0
    9874:	1e 00 40    	add.w     w0, [w14], w0
    9876:	00 00 40    	add.w     w0, w0, w0
    9878:	01 08 20    	mov.w     #0x80, w1
    987a:	80 80 40    	add.w     w1, w0, w1
    987c:	00 00 22    	mov.w     #0x2000, w0
    987e:	00 80 40    	add.w     w1, w0, w0
    9880:	10 01 78    	mov.w     [w0], w2
    9882:	03 80 41    	add.w     w3, w3, w0
    9884:	01 08 20    	mov.w     #0x80, w1
    9886:	80 80 40    	add.w     w1, w0, w1
    9888:	00 00 22    	mov.w     #0x2000, w0
    988a:	00 80 40    	add.w     w1, w0, w0
    988c:	02 08 78    	mov.w     w2, [w0]
    988e:	9e 01 78    	mov.w     [w14], w3
    9890:	40 d4 80    	mov.w     0x1a88, w0
    9892:	1e 00 40    	add.w     w0, [w14], w0
    9894:	00 00 40    	add.w     w0, w0, w0
    9896:	01 10 20    	mov.w     #0x100, w1
    9898:	80 80 40    	add.w     w1, w0, w1
    989a:	00 00 22    	mov.w     #0x2000, w0
    989c:	00 80 40    	add.w     w1, w0, w0
    989e:	10 01 78    	mov.w     [w0], w2
    98a0:	03 80 41    	add.w     w3, w3, w0
    98a2:	01 10 20    	mov.w     #0x100, w1
    98a4:	80 80 40    	add.w     w1, w0, w1
    98a6:	00 00 22    	mov.w     #0x2000, w0
    98a8:	00 80 40    	add.w     w1, w0, w0
    98aa:	02 08 78    	mov.w     w2, [w0]
    98ac:	9e 01 78    	mov.w     [w14], w3
    98ae:	40 d4 80    	mov.w     0x1a88, w0
    98b0:	1e 00 40    	add.w     w0, [w14], w0
    98b2:	00 00 40    	add.w     w0, w0, w0
    98b4:	01 18 20    	mov.w     #0x180, w1
    98b6:	80 80 40    	add.w     w1, w0, w1
    98b8:	00 00 22    	mov.w     #0x2000, w0
    98ba:	00 80 40    	add.w     w1, w0, w0
    98bc:	10 01 78    	mov.w     [w0], w2
    98be:	03 80 41    	add.w     w3, w3, w0
    98c0:	01 18 20    	mov.w     #0x180, w1
    98c2:	80 80 40    	add.w     w1, w0, w1
    98c4:	00 00 22    	mov.w     #0x2000, w0
    98c6:	00 80 40    	add.w     w1, w0, w0
    98c8:	02 08 78    	mov.w     w2, [w0]
    98ca:	1e 0f e8    	inc.w     [w14], [w14]

000098cc <.L10>:
    98cc:	1e 00 90    	mov.w     [w14+2], w0
    98ce:	9e 0f 10    	subr.w    w0, [w14], [w15]
    98d0:	cf ff 35    	bra       LT, 0x9870 <.L11>
    98d2:	1e 00 78    	mov.w     [w14], w0
    98d4:	30 d4 88    	mov.w     w0, 0x1a86
    98d6:	02 00 37    	bra       0x98dc <.L13>

000098d8 <.L8>:
    98d8:	00 00 eb    	clr.w     w0
    98da:	30 d4 88    	mov.w     w0, 0x1a86

000098dc <.L13>:
    98dc:	00 00 fc    	disi      #0x0
    98de:	42 d4 80    	mov.w     0x1a88, w2
    98e0:	01 00 22    	mov.w     #0x2000, w1
    98e2:	00 40 20    	mov.w     #0x400, w0
    98e4:	00 80 40    	add.w     w1, w0, w0
    98e6:	82 00 78    	mov.w     w2, w1
    98e8:	6b 0b 07    	rcall     0xafc0 <_averageSample>
    98ea:	80 73 88    	mov.w     w0, 0xe70
    98ec:	42 d4 80    	mov.w     0x1a88, w2
    98ee:	01 00 22    	mov.w     #0x2000, w1
    98f0:	00 48 20    	mov.w     #0x480, w0
    98f2:	00 80 40    	add.w     w1, w0, w0
    98f4:	82 00 78    	mov.w     w2, w1
    98f6:	64 0b 07    	rcall     0xafc0 <_averageSample>
    98f8:	90 73 88    	mov.w     w0, 0xe72
    98fa:	42 d4 80    	mov.w     0x1a88, w2
    98fc:	01 00 22    	mov.w     #0x2000, w1
    98fe:	00 50 20    	mov.w     #0x500, w0
    9900:	00 80 40    	add.w     w1, w0, w0
    9902:	82 00 78    	mov.w     w2, w1
    9904:	5d 0b 07    	rcall     0xafc0 <_averageSample>
    9906:	a0 73 88    	mov.w     w0, 0xe74
    9908:	40 d4 80    	mov.w     0x1a88, w0
    990a:	f0 d5 88    	mov.w     w0, 0x1abe

0000990c <.L6>:
    990c:	51 d4 80    	mov.w     0x1a8a, w1
    990e:	f0 03 20    	mov.w     #0x3f, w0
    9910:	00 80 60    	and.w     w1, w0, w0
    9912:	60 d4 88    	mov.w     w0, 0x1a8c
    9914:	60 d4 80    	mov.w     0x1a8c, w0
    9916:	ea 0f 50    	sub.w     w0, #0xa, [w15]
    9918:	77 00 34    	bra       LE, 0x9a08 <.L14>
    991a:	00 00 22    	mov.w     #0x2000, w0
    991c:	00 20 b0    	add.w     #0x200, w0
    991e:	00 01 78    	mov.w     w0, w2
    9920:	01 00 22    	mov.w     #0x2000, w1
    9922:	00 58 20    	mov.w     #0x580, w0
    9924:	00 80 40    	add.w     w1, w0, w0
    9926:	80 00 78    	mov.w     w0, w1
    9928:	60 d4 80    	mov.w     0x1a8c, w0
    992a:	03 79 21    	mov.w     #0x1790, w3
    992c:	77 0a 07    	rcall     0xae1c <_MDSFIR>
    992e:	00 00 22    	mov.w     #0x2000, w0
    9930:	00 28 b0    	add.w     #0x280, w0
    9932:	00 01 78    	mov.w     w0, w2
    9934:	01 00 22    	mov.w     #0x2000, w1
    9936:	00 60 20    	mov.w     #0x600, w0
    9938:	00 80 40    	add.w     w1, w0, w0
    993a:	80 00 78    	mov.w     w0, w1
    993c:	60 d4 80    	mov.w     0x1a8c, w0
    993e:	e3 79 21    	mov.w     #0x179e, w3
    9940:	6d 0a 07    	rcall     0xae1c <_MDSFIR>
    9942:	00 00 22    	mov.w     #0x2000, w0
    9944:	00 30 b0    	add.w     #0x300, w0
    9946:	00 01 78    	mov.w     w0, w2
    9948:	01 00 22    	mov.w     #0x2000, w1
    994a:	00 68 20    	mov.w     #0x680, w0
    994c:	00 80 40    	add.w     w1, w0, w0
    994e:	80 00 78    	mov.w     w0, w1
    9950:	60 d4 80    	mov.w     0x1a8c, w0
    9952:	c3 7a 21    	mov.w     #0x17ac, w3
    9954:	63 0a 07    	rcall     0xae1c <_MDSFIR>
    9956:	ff 0f fc    	disi      #0xfff
    9958:	51 d4 80    	mov.w     0x1a8a, w1
    995a:	60 d4 80    	mov.w     0x1a8c, w0
    995c:	00 80 50    	sub.w     w1, w0, w0
    995e:	10 07 98    	mov.w     w0, [w14+2]
    9960:	1e 00 90    	mov.w     [w14+2], w0
    9962:	00 00 e0    	cp0.w     w0
    9964:	37 00 32    	bra       Z, 0x99d4 <.L16>
    9966:	00 00 eb    	clr.w     w0
    9968:	00 0f 78    	mov.w     w0, [w14]
    996a:	2e 00 37    	bra       0x99c8 <.L18>

0000996c <.L19>:
    996c:	9e 01 78    	mov.w     [w14], w3
    996e:	60 d4 80    	mov.w     0x1a8c, w0
    9970:	1e 00 40    	add.w     w0, [w14], w0
    9972:	00 00 40    	add.w     w0, w0, w0
    9974:	01 20 20    	mov.w     #0x200, w1
    9976:	80 80 40    	add.w     w1, w0, w1
    9978:	00 00 22    	mov.w     #0x2000, w0
    997a:	00 80 40    	add.w     w1, w0, w0
    997c:	10 01 78    	mov.w     [w0], w2
    997e:	03 80 41    	add.w     w3, w3, w0
    9980:	01 20 20    	mov.w     #0x200, w1
    9982:	80 80 40    	add.w     w1, w0, w1
    9984:	00 00 22    	mov.w     #0x2000, w0
    9986:	00 80 40    	add.w     w1, w0, w0
    9988:	02 08 78    	mov.w     w2, [w0]
    998a:	9e 01 78    	mov.w     [w14], w3
    998c:	60 d4 80    	mov.w     0x1a8c, w0
    998e:	1e 00 40    	add.w     w0, [w14], w0
    9990:	00 00 40    	add.w     w0, w0, w0
    9992:	01 28 20    	mov.w     #0x280, w1
    9994:	80 80 40    	add.w     w1, w0, w1
    9996:	00 00 22    	mov.w     #0x2000, w0
    9998:	00 80 40    	add.w     w1, w0, w0
    999a:	10 01 78    	mov.w     [w0], w2
    999c:	03 80 41    	add.w     w3, w3, w0
    999e:	01 28 20    	mov.w     #0x280, w1
    99a0:	80 80 40    	add.w     w1, w0, w1
    99a2:	00 00 22    	mov.w     #0x2000, w0
    99a4:	00 80 40    	add.w     w1, w0, w0
    99a6:	02 08 78    	mov.w     w2, [w0]
    99a8:	9e 01 78    	mov.w     [w14], w3
    99aa:	60 d4 80    	mov.w     0x1a8c, w0
    99ac:	1e 00 40    	add.w     w0, [w14], w0
    99ae:	00 00 40    	add.w     w0, w0, w0
    99b0:	01 30 20    	mov.w     #0x300, w1
    99b2:	80 80 40    	add.w     w1, w0, w1
    99b4:	00 00 22    	mov.w     #0x2000, w0
    99b6:	00 80 40    	add.w     w1, w0, w0
    99b8:	10 01 78    	mov.w     [w0], w2
    99ba:	03 80 41    	add.w     w3, w3, w0
    99bc:	01 30 20    	mov.w     #0x300, w1
    99be:	80 80 40    	add.w     w1, w0, w1
    99c0:	00 00 22    	mov.w     #0x2000, w0
    99c2:	00 80 40    	add.w     w1, w0, w0
    99c4:	02 08 78    	mov.w     w2, [w0]
    99c6:	1e 0f e8    	inc.w     [w14], [w14]

000099c8 <.L18>:
    99c8:	1e 00 90    	mov.w     [w14+2], w0
    99ca:	9e 0f 10    	subr.w    w0, [w14], [w15]
    99cc:	cf ff 35    	bra       LT, 0x996c <.L19>
    99ce:	1e 00 78    	mov.w     [w14], w0
    99d0:	50 d4 88    	mov.w     w0, 0x1a8a
    99d2:	02 00 37    	bra       0x99d8 <.L21>

000099d4 <.L16>:
    99d4:	00 00 eb    	clr.w     w0
    99d6:	50 d4 88    	mov.w     w0, 0x1a8a

000099d8 <.L21>:
    99d8:	00 00 fc    	disi      #0x0
    99da:	62 d4 80    	mov.w     0x1a8c, w2
    99dc:	01 00 22    	mov.w     #0x2000, w1
    99de:	00 58 20    	mov.w     #0x580, w0
    99e0:	00 80 40    	add.w     w1, w0, w0
    99e2:	82 00 78    	mov.w     w2, w1
    99e4:	ed 0a 07    	rcall     0xafc0 <_averageSample>
    99e6:	b0 73 88    	mov.w     w0, 0xe76
    99e8:	62 d4 80    	mov.w     0x1a8c, w2
    99ea:	01 00 22    	mov.w     #0x2000, w1
    99ec:	00 60 20    	mov.w     #0x600, w0
    99ee:	00 80 40    	add.w     w1, w0, w0
    99f0:	82 00 78    	mov.w     w2, w1
    99f2:	e6 0a 07    	rcall     0xafc0 <_averageSample>
    99f4:	c0 73 88    	mov.w     w0, 0xe78
    99f6:	62 d4 80    	mov.w     0x1a8c, w2
    99f8:	01 00 22    	mov.w     #0x2000, w1
    99fa:	00 68 20    	mov.w     #0x680, w0
    99fc:	00 80 40    	add.w     w1, w0, w0
    99fe:	82 00 78    	mov.w     w2, w1
    9a00:	df 0a 07    	rcall     0xafc0 <_averageSample>
    9a02:	d0 73 88    	mov.w     w0, 0xe7a
    9a04:	60 d4 80    	mov.w     0x1a8c, w0
    9a06:	00 d6 88    	mov.w     w0, 0x1ac0

00009a08 <.L14>:
    9a08:	00 40 eb    	clr.b     w0
    9a0a:	78 02 07    	rcall     0x9efc <_udb_setDSPLibInUse>
    9a0c:	80 73 80    	mov.w     0xe70, w0
    9a0e:	40 71 88    	mov.w     w0, 0xe28
    9a10:	90 73 80    	mov.w     0xe72, w0
    9a12:	70 71 88    	mov.w     w0, 0xe2e
    9a14:	a0 73 80    	mov.w     0xe74, w0
    9a16:	a0 71 88    	mov.w     w0, 0xe34
    9a18:	c0 73 80    	mov.w     0xe78, w0
    9a1a:	00 00 40    	add.w     w0, w0, w0
    9a1c:	b0 70 88    	mov.w     w0, 0xe16
    9a1e:	b0 73 80    	mov.w     0xe76, w0
    9a20:	00 00 40    	add.w     w0, w0, w0
    9a22:	e0 70 88    	mov.w     w0, 0xe1c
    9a24:	d0 73 80    	mov.w     0xe7a, w0
    9a26:	00 00 40    	add.w     w0, w0, w0
    9a28:	10 71 88    	mov.w     w0, 0xe22
    9a2a:	c4 cb bf    	mov.b     0xbc4, WREG
    9a2c:	00 04 e0    	cp0.b     w0
    9a2e:	01 00 32    	bra       Z, 0x9a32 <.L22>
    9a30:	05 ec 07    	rcall     0x723c <_dcm_run_imu_step>

00009a32 <.L22>:
    9a32:	f3 07 07    	rcall     0xaa1a <_dcm_servo_callback_prepare_outputs>
    9a34:	00 80 fa    	ulnk      
    9a36:	00 00 06    	return    

00009a38 <_dcm_calibrate>:
    9a38:	00 00 fa    	lnk       #0x0
    9a3a:	6d 02 07    	rcall     0x9f16 <_udb_a2d_record_offsets>
    9a3c:	10 c0 b3    	mov.b     #0x1, w0
    9a3e:	c4 eb b7    	mov.b     WREG, 0xbc4
    9a40:	00 80 fa    	ulnk      
    9a42:	00 00 06    	return    

00009a44 <_dcm_set_origin_location>:
    9a44:	10 00 fa    	lnk       #0x10
    9a46:	20 07 98    	mov.w     w0, [w14+4]
    9a48:	31 07 98    	mov.w     w1, [w14+6]
    9a4a:	42 07 98    	mov.w     w2, [w14+8]
    9a4c:	53 07 98    	mov.w     w3, [w14+10]
    9a4e:	64 07 98    	mov.w     w4, [w14+12]
    9a50:	75 07 98    	mov.w     w5, [w14+14]
    9a52:	4e 00 90    	mov.w     [w14+8], w0
    9a54:	de 00 90    	mov.w     [w14+10], w1
    9a56:	c0 57 88    	mov.w     w0, 0xaf8
    9a58:	d1 57 88    	mov.w     w1, 0xafa
    9a5a:	2e 00 90    	mov.w     [w14+4], w0
    9a5c:	be 00 90    	mov.w     [w14+6], w1
    9a5e:	e0 57 88    	mov.w     w0, 0xafc
    9a60:	f1 57 88    	mov.w     w1, 0xafe
    9a62:	6e 00 90    	mov.w     [w14+12], w0
    9a64:	fe 00 90    	mov.w     [w14+14], w1
    9a66:	00 58 88    	mov.w     w0, 0xb00
    9a68:	11 58 88    	mov.w     w1, 0xb02
    9a6a:	d1 57 80    	mov.w     0xafa, w1
    9a6c:	10 13 20    	mov.w     #0x131, w0
    9a6e:	01 80 b9    	mul.ss    w0, w1, w0
    9a70:	00 8f be    	mov.d     w0, [w14]
    9a72:	2e 40 90    	mov.b     [w14+2], w0
    9a74:	19 eb b7    	mov.b     WREG, 0xb19
    9a76:	19 cb bf    	mov.b     0xb19, WREG
    9a78:	ac fd 07    	rcall     0x95d2 <_cosine>
    9a7a:	d0 58 88    	mov.w     w0, 0xb1a
    9a7c:	00 80 fa    	ulnk      
    9a7e:	00 00 06    	return    

00009a80 <_dcm_absolute_to_relative>:
    9a80:	14 00 fa    	lnk       #0x14
    9a82:	88 1f 78    	mov.w     w8, [w15++]
    9a84:	00 04 78    	mov.w     w0, w8
    9a86:	6a 00 47    	add.w     w14, #0xa, w0
    9a88:	01 08 78    	mov.w     w1, [w0]
    9a8a:	12 00 98    	mov.w     w2, [w0+2]
    9a8c:	23 00 98    	mov.w     w3, [w0+4]
    9a8e:	34 00 98    	mov.w     w4, [w0+6]
    9a90:	45 00 98    	mov.w     w5, [w0+8]
    9a92:	6a 00 47    	add.w     w14, #0xa, w0
    9a94:	40 00 90    	mov.w     [w0+8], w0
    9a96:	20 07 98    	mov.w     w0, [w14+4]
    9a98:	6a 00 47    	add.w     w14, #0xa, w0
    9a9a:	20 01 90    	mov.w     [w0+4], w2
    9a9c:	b0 01 90    	mov.w     [w0+6], w3
    9a9e:	c0 57 80    	mov.w     0xaf8, w0
    9aa0:	d1 57 80    	mov.w     0xafa, w1
    9aa2:	00 00 51    	sub.w     w2, w0, w0
    9aa4:	81 80 59    	subb.w    w3, w1, w1
    9aa6:	a2 05 20    	mov.w     #0x5a, w2
    9aa8:	03 00 20    	mov.w     #0x0, w3
    9aaa:	c7 b8 07    	rcall     0xc3a <___divsi3>
    9aac:	10 07 98    	mov.w     w0, [w14+2]
    9aae:	6a 00 47    	add.w     w14, #0xa, w0
    9ab0:	10 01 be    	mov.d     [w0], w2
    9ab2:	e0 57 80    	mov.w     0xafc, w0
    9ab4:	f1 57 80    	mov.w     0xafe, w1
    9ab6:	00 00 51    	sub.w     w2, w0, w0
    9ab8:	81 80 59    	subb.w    w3, w1, w1
    9aba:	a2 05 20    	mov.w     #0x5a, w2
    9abc:	03 00 20    	mov.w     #0x0, w3
    9abe:	bd b8 07    	rcall     0xc3a <___divsi3>
    9ac0:	30 07 98    	mov.w     w0, [w14+6]
    9ac2:	41 07 98    	mov.w     w1, [w14+8]
    9ac4:	be 00 90    	mov.w     [w14+6], w1
    9ac6:	d0 58 80    	mov.w     0xb1a, w0
    9ac8:	01 80 b9    	mul.ss    w0, w1, w0
    9aca:	42 09 dd    	sl.w      w1, #0x2, w2
    9acc:	ce 00 de    	lsr.w     w0, #0xe, w1
    9ace:	81 00 71    	ior.w     w2, w1, w1
    9ad0:	42 00 dd    	sl.w      w0, #0x2, w0
    9ad2:	30 07 98    	mov.w     w0, [w14+6]
    9ad4:	41 07 98    	mov.w     w1, [w14+8]
    9ad6:	4e 00 90    	mov.w     [w14+8], w0
    9ad8:	00 0f 78    	mov.w     w0, [w14]
    9ada:	1e 00 be    	mov.d     [w14], w0
    9adc:	00 8c be    	mov.d     w0, [w8]
    9ade:	ae 00 90    	mov.w     [w14+4], w1
    9ae0:	21 04 98    	mov.w     w1, [w8+4]
    9ae2:	08 00 78    	mov.w     w8, w0
    9ae4:	4f 04 78    	mov.w     [--w15], w8
    9ae6:	00 80 fa    	ulnk      
    9ae8:	00 00 06    	return    

00009aea <_estimateWind>:
    9aea:	3e 00 fa    	lnk       #0x3e
    9aec:	10 5e 80    	mov.w     0xbc2, w0
    9aee:	01 02 20    	mov.w     #0x20, w1
    9af0:	01 00 60    	and.w     w0, w1, w0
    9af2:	00 00 e0    	cp0.w     w0
    9af4:	30 01 3a    	bra       NZ, 0x9d56 <.L11>
    9af6:	51 61 80    	mov.w     0xc2a, w1
    9af8:	72 00 47    	add.w     w14, #0x12, w0
    9afa:	01 08 78    	mov.w     w1, [w0]
    9afc:	71 61 80    	mov.w     0xc2e, w1
    9afe:	72 00 47    	add.w     w14, #0x12, w0
    9b00:	11 00 98    	mov.w     w1, [w0+2]
    9b02:	91 61 80    	mov.w     0xc32, w1
    9b04:	72 00 47    	add.w     w14, #0x12, w0
    9b06:	21 00 98    	mov.w     w1, [w0+4]
    9b08:	00 59 80    	mov.w     0xb20, w0
    9b0a:	80 00 ea    	neg.w     w0, w1
    9b0c:	40 02 20    	mov.w     #0x24, w0
    9b0e:	0e 00 40    	add.w     w0, w14, w0
    9b10:	01 08 78    	mov.w     w1, [w0]
    9b12:	31 59 80    	mov.w     0xb26, w1
    9b14:	40 02 20    	mov.w     #0x24, w0
    9b16:	0e 00 40    	add.w     w0, w14, w0
    9b18:	11 00 98    	mov.w     w1, [w0+2]
    9b1a:	60 59 80    	mov.w     0xb2c, w0
    9b1c:	80 00 ea    	neg.w     w0, w1
    9b1e:	40 02 20    	mov.w     #0x24, w0
    9b20:	0e 00 40    	add.w     w0, w14, w0
    9b22:	21 00 98    	mov.w     w1, [w0+4]
    9b24:	00 00 eb    	clr.w     w0
    9b26:	00 0f 98    	mov.w     w0, [w14+16]
    9b28:	53 00 37    	bra       0x9bd0 <.L4>

00009b2a <.L5>:
    9b2a:	8e 09 90    	mov.w     [w14+16], w3
    9b2c:	0e 08 90    	mov.w     [w14+16], w0
    9b2e:	f2 00 47    	add.w     w14, #0x12, w1
    9b30:	00 00 40    	add.w     w0, w0, w0
    9b32:	60 80 78    	mov.w     [w0+w1], w0
    9b34:	00 81 d1    	asr.w     w0, w2
    9b36:	f2 00 47    	add.w     w14, #0x12, w1
    9b38:	03 80 41    	add.w     w3, w3, w0
    9b3a:	02 b0 78    	mov.w     w2, [w0+w1]
    9b3c:	8e 09 90    	mov.w     [w14+16], w3
    9b3e:	0e 08 90    	mov.w     [w14+16], w0
    9b40:	41 02 20    	mov.w     #0x24, w1
    9b42:	8e 80 40    	add.w     w1, w14, w1
    9b44:	00 00 40    	add.w     w0, w0, w0
    9b46:	60 80 78    	mov.w     [w0+w1], w0
    9b48:	00 81 d1    	asr.w     w0, w2
    9b4a:	41 02 20    	mov.w     #0x24, w1
    9b4c:	8e 80 40    	add.w     w1, w14, w1
    9b4e:	03 80 41    	add.w     w3, w3, w0
    9b50:	02 b0 78    	mov.w     w2, [w0+w1]
    9b52:	8e 09 90    	mov.w     [w14+16], w3
    9b54:	0e 08 90    	mov.w     [w14+16], w0
    9b56:	f2 00 47    	add.w     w14, #0x12, w1
    9b58:	00 00 40    	add.w     w0, w0, w0
    9b5a:	60 81 78    	mov.w     [w0+w1], w2
    9b5c:	0e 08 90    	mov.w     [w14+16], w0
    9b5e:	80 00 40    	add.w     w0, w0, w1
    9b60:	a0 aa 20    	mov.w     #0xaaa, w0
    9b62:	00 80 40    	add.w     w1, w0, w0
    9b64:	10 00 78    	mov.w     [w0], w0
    9b66:	00 01 41    	add.w     w2, w0, w2
    9b68:	f8 00 47    	add.w     w14, #0x18, w1
    9b6a:	03 80 41    	add.w     w3, w3, w0
    9b6c:	02 b0 78    	mov.w     w2, [w0+w1]
    9b6e:	8e 09 90    	mov.w     [w14+16], w3
    9b70:	0e 08 90    	mov.w     [w14+16], w0
    9b72:	f2 00 47    	add.w     w14, #0x12, w1
    9b74:	00 00 40    	add.w     w0, w0, w0
    9b76:	60 81 78    	mov.w     [w0+w1], w2
    9b78:	0e 08 90    	mov.w     [w14+16], w0
    9b7a:	80 00 40    	add.w     w0, w0, w1
    9b7c:	a0 aa 20    	mov.w     #0xaaa, w0
    9b7e:	00 80 40    	add.w     w1, w0, w0
    9b80:	10 00 78    	mov.w     [w0], w0
    9b82:	00 01 51    	sub.w     w2, w0, w2
    9b84:	fe 00 47    	add.w     w14, #0x1e, w1
    9b86:	03 80 41    	add.w     w3, w3, w0
    9b88:	02 b0 78    	mov.w     w2, [w0+w1]
    9b8a:	8e 09 90    	mov.w     [w14+16], w3
    9b8c:	0e 08 90    	mov.w     [w14+16], w0
    9b8e:	41 02 20    	mov.w     #0x24, w1
    9b90:	8e 80 40    	add.w     w1, w14, w1
    9b92:	00 00 40    	add.w     w0, w0, w0
    9b94:	60 81 78    	mov.w     [w0+w1], w2
    9b96:	0e 08 90    	mov.w     [w14+16], w0
    9b98:	80 00 40    	add.w     w0, w0, w1
    9b9a:	00 ab 20    	mov.w     #0xab0, w0
    9b9c:	00 80 40    	add.w     w1, w0, w0
    9b9e:	10 00 78    	mov.w     [w0], w0
    9ba0:	00 01 41    	add.w     w2, w0, w2
    9ba2:	a1 02 20    	mov.w     #0x2a, w1
    9ba4:	8e 80 40    	add.w     w1, w14, w1
    9ba6:	03 80 41    	add.w     w3, w3, w0
    9ba8:	02 b0 78    	mov.w     w2, [w0+w1]
    9baa:	8e 09 90    	mov.w     [w14+16], w3
    9bac:	0e 08 90    	mov.w     [w14+16], w0
    9bae:	41 02 20    	mov.w     #0x24, w1
    9bb0:	8e 80 40    	add.w     w1, w14, w1
    9bb2:	00 00 40    	add.w     w0, w0, w0
    9bb4:	60 81 78    	mov.w     [w0+w1], w2
    9bb6:	0e 08 90    	mov.w     [w14+16], w0
    9bb8:	80 00 40    	add.w     w0, w0, w1
    9bba:	00 ab 20    	mov.w     #0xab0, w0
    9bbc:	00 80 40    	add.w     w1, w0, w0
    9bbe:	10 00 78    	mov.w     [w0], w0
    9bc0:	00 01 51    	sub.w     w2, w0, w2
    9bc2:	01 03 20    	mov.w     #0x30, w1
    9bc4:	8e 80 40    	add.w     w1, w14, w1
    9bc6:	03 80 41    	add.w     w3, w3, w0
    9bc8:	02 b0 78    	mov.w     w2, [w0+w1]
    9bca:	0e 08 90    	mov.w     [w14+16], w0
    9bcc:	00 00 e8    	inc.w     w0, w0
    9bce:	00 0f 98    	mov.w     w0, [w14+16]

00009bd0 <.L4>:
    9bd0:	0e 08 90    	mov.w     [w14+16], w0
    9bd2:	e2 0f 50    	sub.w     w0, #0x2, [w15]
    9bd4:	aa ff 34    	bra       LE, 0x9b2a <.L5>
    9bd6:	00 03 20    	mov.w     #0x30, w0
    9bd8:	0e 00 40    	add.w     w0, w14, w0
    9bda:	10 00 78    	mov.w     [w0], w0
    9bdc:	50 1f 98    	mov.w     w0, [w14+58]
    9bde:	00 03 20    	mov.w     #0x30, w0
    9be0:	0e 00 40    	add.w     w0, w14, w0
    9be2:	10 00 90    	mov.w     [w0+2], w0
    9be4:	60 1f 98    	mov.w     w0, [w14+60]
    9be6:	a0 03 20    	mov.w     #0x3a, w0
    9be8:	0e 00 40    	add.w     w0, w14, w0
    9bea:	2f fd 07    	rcall     0x964a <_rect_to_polar>
    9bec:	50 47 98    	mov.b     w0, [w14+5]
    9bee:	5e 18 90    	mov.w     [w14+58], w0
    9bf0:	40 07 98    	mov.w     w0, [w14+8]
    9bf2:	7e 00 47    	add.w     w14, #0x1e, w0
    9bf4:	10 00 78    	mov.w     [w0], w0
    9bf6:	50 1f 98    	mov.w     w0, [w14+58]
    9bf8:	7e 00 47    	add.w     w14, #0x1e, w0
    9bfa:	10 00 90    	mov.w     [w0+2], w0
    9bfc:	60 1f 98    	mov.w     w0, [w14+60]
    9bfe:	a0 03 20    	mov.w     #0x3a, w0
    9c00:	0e 00 40    	add.w     w0, w14, w0
    9c02:	23 fd 07    	rcall     0x964a <_rect_to_polar>
    9c04:	60 47 98    	mov.b     w0, [w14+6]
    9c06:	5e 18 90    	mov.w     [w14+58], w0
    9c08:	50 07 98    	mov.w     w0, [w14+10]
    9c0a:	ee 40 90    	mov.b     [w14+6], w1
    9c0c:	5e 40 90    	mov.b     [w14+5], w0
    9c0e:	00 c0 50    	sub.b     w1, w0, w0
    9c10:	40 47 98    	mov.b     w0, [w14+4]
    9c12:	4e 40 90    	mov.b     [w14+4], w0
    9c14:	de fc 07    	rcall     0x95d2 <_cosine>
    9c16:	10 07 98    	mov.w     w0, [w14+2]
    9c18:	4e 40 90    	mov.b     [w14+4], w0
    9c1a:	57 fc 07    	rcall     0x94ca <_sine>
    9c1c:	00 0f 78    	mov.w     w0, [w14]
    9c1e:	4e 00 90    	mov.w     [w14+8], w0
    9c20:	50 1f 98    	mov.w     w0, [w14+58]
    9c22:	00 03 20    	mov.w     #0x30, w0
    9c24:	0e 00 40    	add.w     w0, w14, w0
    9c26:	20 00 90    	mov.w     [w0+4], w0
    9c28:	60 1f 98    	mov.w     w0, [w14+60]
    9c2a:	a0 03 20    	mov.w     #0x3a, w0
    9c2c:	0e 00 40    	add.w     w0, w14, w0
    9c2e:	0d fd 07    	rcall     0x964a <_rect_to_polar>
    9c30:	5e 18 90    	mov.w     [w14+58], w0
    9c32:	60 07 98    	mov.w     w0, [w14+12]
    9c34:	5e 00 90    	mov.w     [w14+10], w0
    9c36:	50 1f 98    	mov.w     w0, [w14+58]
    9c38:	7e 00 47    	add.w     w14, #0x1e, w0
    9c3a:	20 00 90    	mov.w     [w0+4], w0
    9c3c:	60 1f 98    	mov.w     w0, [w14+60]
    9c3e:	a0 03 20    	mov.w     #0x3a, w0
    9c40:	0e 00 40    	add.w     w0, w14, w0
    9c42:	03 fd 07    	rcall     0x964a <_rect_to_polar>
    9c44:	5e 18 90    	mov.w     [w14+58], w0
    9c46:	70 07 98    	mov.w     w0, [w14+14]
    9c48:	ee 00 90    	mov.w     [w14+12], w1
    9c4a:	c0 cc 20    	mov.w     #0xccc, w0
    9c4c:	80 8f 50    	sub.w     w1, w0, [w15]
    9c4e:	83 00 36    	bra       LEU, 0x9d56 <.L11>
    9c50:	7e 00 90    	mov.w     [w14+14], w0
    9c52:	42 00 de    	lsr.w     w0, #0x2, w0
    9c54:	40 1f 98    	mov.w     w0, [w14+56]
    9c56:	00 00 eb    	clr.w     w0
    9c58:	30 1f 98    	mov.w     w0, [w14+54]
    9c5a:	3e 18 90    	mov.w     [w14+54], w0
    9c5c:	ce 18 90    	mov.w     [w14+56], w1
    9c5e:	6e 01 90    	mov.w     [w14+12], w2
    9c60:	81 1f 78    	mov.w     w1, [w15++]
    9c62:	11 00 09    	repeat    #0x11
    9c64:	42 88 d8    	div.ud    w0, w2
    9c66:	cf 00 78    	mov.w     [--w15], w1
    9c68:	b0 55 88    	mov.w     w0, 0xab6
    9c6a:	a0 02 20    	mov.w     #0x2a, w0
    9c6c:	0e 00 40    	add.w     w0, w14, w0
    9c6e:	90 00 78    	mov.w     [w0], w1
    9c70:	1e 00 90    	mov.w     [w14+2], w0
    9c72:	01 81 b9    	mul.ss    w0, w1, w2
    9c74:	a0 02 20    	mov.w     #0x2a, w0
    9c76:	0e 00 40    	add.w     w0, w14, w0
    9c78:	90 00 90    	mov.w     [w0+2], w1
    9c7a:	1e 00 78    	mov.w     [w14], w0
    9c7c:	01 80 b9    	mul.ss    w0, w1, w0
    9c7e:	00 00 51    	sub.w     w2, w0, w0
    9c80:	81 80 59    	subb.w    w3, w1, w1
    9c82:	42 09 dd    	sl.w      w1, #0x2, w2
    9c84:	ce 00 de    	lsr.w     w0, #0xe, w1
    9c86:	81 00 71    	ior.w     w2, w1, w1
    9c88:	42 00 dd    	sl.w      w0, #0x2, w0
    9c8a:	30 1f 98    	mov.w     w0, [w14+54]
    9c8c:	41 1f 98    	mov.w     w1, [w14+56]
    9c8e:	ce 18 90    	mov.w     [w14+56], w1
    9c90:	b0 55 80    	mov.w     0xab6, w0
    9c92:	01 80 b8    	mul.us    w0, w1, w0
    9c94:	42 09 dd    	sl.w      w1, #0x2, w2
    9c96:	ce 00 de    	lsr.w     w0, #0xe, w1
    9c98:	81 00 71    	ior.w     w2, w1, w1
    9c9a:	42 00 dd    	sl.w      w0, #0x2, w0
    9c9c:	30 1f 98    	mov.w     w0, [w14+54]
    9c9e:	41 1f 98    	mov.w     w1, [w14+56]
    9ca0:	c2 55 80    	mov.w     0xab8, w2
    9ca2:	78 00 47    	add.w     w14, #0x18, w0
    9ca4:	90 00 78    	mov.w     [w0], w1
    9ca6:	4e 18 90    	mov.w     [w14+56], w0
    9ca8:	80 80 50    	sub.w     w1, w0, w1
    9caa:	c0 55 80    	mov.w     0xab8, w0
    9cac:	00 80 50    	sub.w     w1, w0, w0
    9cae:	44 80 de    	asr.w     w0, #0x4, w0
    9cb0:	00 00 41    	add.w     w2, w0, w0
    9cb2:	c0 55 88    	mov.w     w0, 0xab8
    9cb4:	a0 02 20    	mov.w     #0x2a, w0
    9cb6:	0e 00 40    	add.w     w0, w14, w0
    9cb8:	90 00 78    	mov.w     [w0], w1
    9cba:	1e 00 78    	mov.w     [w14], w0
    9cbc:	01 81 b9    	mul.ss    w0, w1, w2
    9cbe:	a0 02 20    	mov.w     #0x2a, w0
    9cc0:	0e 00 40    	add.w     w0, w14, w0
    9cc2:	90 00 90    	mov.w     [w0+2], w1
    9cc4:	1e 00 90    	mov.w     [w14+2], w0
    9cc6:	01 80 b9    	mul.ss    w0, w1, w0
    9cc8:	02 00 40    	add.w     w0, w2, w0
    9cca:	83 80 48    	addc.w    w1, w3, w1
    9ccc:	42 09 dd    	sl.w      w1, #0x2, w2
    9cce:	ce 00 de    	lsr.w     w0, #0xe, w1
    9cd0:	81 00 71    	ior.w     w2, w1, w1
    9cd2:	42 00 dd    	sl.w      w0, #0x2, w0
    9cd4:	30 1f 98    	mov.w     w0, [w14+54]
    9cd6:	41 1f 98    	mov.w     w1, [w14+56]
    9cd8:	ce 18 90    	mov.w     [w14+56], w1
    9cda:	b0 55 80    	mov.w     0xab6, w0
    9cdc:	01 80 b8    	mul.us    w0, w1, w0
    9cde:	42 09 dd    	sl.w      w1, #0x2, w2
    9ce0:	ce 00 de    	lsr.w     w0, #0xe, w1
    9ce2:	81 00 71    	ior.w     w2, w1, w1
    9ce4:	42 00 dd    	sl.w      w0, #0x2, w0
    9ce6:	30 1f 98    	mov.w     w0, [w14+54]
    9ce8:	41 1f 98    	mov.w     w1, [w14+56]
    9cea:	d2 55 80    	mov.w     0xaba, w2
    9cec:	78 00 47    	add.w     w14, #0x18, w0
    9cee:	90 00 90    	mov.w     [w0+2], w1
    9cf0:	4e 18 90    	mov.w     [w14+56], w0
    9cf2:	80 80 50    	sub.w     w1, w0, w1
    9cf4:	d0 55 80    	mov.w     0xaba, w0
    9cf6:	00 80 50    	sub.w     w1, w0, w0
    9cf8:	44 80 de    	asr.w     w0, #0x4, w0
    9cfa:	00 00 41    	add.w     w2, w0, w0
    9cfc:	d0 55 88    	mov.w     w0, 0xaba
    9cfe:	a0 02 20    	mov.w     #0x2a, w0
    9d00:	0e 00 40    	add.w     w0, w14, w0
    9d02:	a0 00 90    	mov.w     [w0+4], w1
    9d04:	b0 55 80    	mov.w     0xab6, w0
    9d06:	01 80 b8    	mul.us    w0, w1, w0
    9d08:	42 09 dd    	sl.w      w1, #0x2, w2
    9d0a:	ce 00 de    	lsr.w     w0, #0xe, w1
    9d0c:	81 00 71    	ior.w     w2, w1, w1
    9d0e:	42 00 dd    	sl.w      w0, #0x2, w0
    9d10:	30 1f 98    	mov.w     w0, [w14+54]
    9d12:	41 1f 98    	mov.w     w1, [w14+56]
    9d14:	78 00 47    	add.w     w14, #0x18, w0
    9d16:	a0 00 90    	mov.w     [w0+4], w1
    9d18:	4e 18 90    	mov.w     [w14+56], w0
    9d1a:	00 80 50    	sub.w     w1, w0, w0
    9d1c:	e0 55 88    	mov.w     w0, 0xabc
    9d1e:	00 00 eb    	clr.w     w0
    9d20:	00 0f 98    	mov.w     w0, [w14+16]
    9d22:	16 00 37    	bra       0x9d50 <.L9>

00009d24 <.L10>:
    9d24:	0e 09 90    	mov.w     [w14+16], w2
    9d26:	0e 08 90    	mov.w     [w14+16], w0
    9d28:	f2 00 47    	add.w     w14, #0x12, w1
    9d2a:	00 00 40    	add.w     w0, w0, w0
    9d2c:	e0 81 78    	mov.w     [w0+w1], w3
    9d2e:	82 00 41    	add.w     w2, w2, w1
    9d30:	a0 aa 20    	mov.w     #0xaaa, w0
    9d32:	00 80 40    	add.w     w1, w0, w0
    9d34:	03 08 78    	mov.w     w3, [w0]
    9d36:	0e 09 90    	mov.w     [w14+16], w2
    9d38:	0e 08 90    	mov.w     [w14+16], w0
    9d3a:	41 02 20    	mov.w     #0x24, w1
    9d3c:	8e 80 40    	add.w     w1, w14, w1
    9d3e:	00 00 40    	add.w     w0, w0, w0
    9d40:	e0 81 78    	mov.w     [w0+w1], w3
    9d42:	82 00 41    	add.w     w2, w2, w1
    9d44:	00 ab 20    	mov.w     #0xab0, w0
    9d46:	00 80 40    	add.w     w1, w0, w0
    9d48:	03 08 78    	mov.w     w3, [w0]
    9d4a:	0e 08 90    	mov.w     [w14+16], w0
    9d4c:	00 00 e8    	inc.w     w0, w0
    9d4e:	00 0f 98    	mov.w     w0, [w14+16]

00009d50 <.L9>:
    9d50:	0e 08 90    	mov.w     [w14+16], w0
    9d52:	e2 0f 50    	sub.w     w0, #0x2, [w15]
    9d54:	e7 ff 34    	bra       LE, 0x9d24 <.L10>

00009d56 <.L11>:
    9d56:	00 80 fa    	ulnk      
    9d58:	00 00 06    	return    

00009d5a <_udb_init>:
    9d5a:	00 00 fa    	lnk       #0x0
    9d5c:	20 02 80    	mov.w     0x44, w0
    9d5e:	40 55 88    	mov.w     w0, 0xaa8
    9d60:	40 a7 a9    	bclr.b    0x740, #0x5
    9d62:	00 60 fe    	clrwdt    
    9d64:	81 74 20    	mov.w     #0x748, w1
    9d66:	91 40 78    	mov.b     [w1], w1
    9d68:	00 cc b3    	mov.b     #0xc0, w0
    9d6a:	00 c0 60    	and.b     w1, w0, w0
    9d6c:	50 41 b3    	ior.b     #0x15, w0
    9d6e:	48 e7 b7    	mov.b     WREG, 0x748
    9d70:	41 74 20    	mov.w     #0x744, w1
    9d72:	91 40 78    	mov.b     [w1], w1
    9d74:	00 ce b3    	mov.b     #0xe0, w0
    9d76:	00 c0 60    	and.b     w1, w0, w0
    9d78:	00 04 a0    	bset.b    w0, #0x0
    9d7a:	44 e7 b7    	mov.b     WREG, 0x744
    9d7c:	31 3a 80    	mov.w     0x746, w1
    9d7e:	00 e0 2f    	mov.w     #0xfe00, w0
    9d80:	00 80 60    	and.w     w1, w0, w0
    9d82:	61 02 20    	mov.w     #0x26, w1
    9d84:	01 00 70    	ior.w     w0, w1, w0
    9d86:	30 3a 88    	mov.w     w0, 0x746
    9d88:	44 c7 bf    	mov.b     0x744, WREG
    9d8a:	f0 43 b2    	and.b     #0x3f, w0
    9d8c:	44 e7 b7    	mov.b     WREG, 0x744
    9d8e:	32 00 20    	mov.w     #0x3, w2
    9d90:	81 07 20    	mov.w     #0x78, w1
    9d92:	a0 09 20    	mov.w     #0x9a, w0
    9d94:	33 74 20    	mov.w     #0x743, w3
    9d96:	81 49 78    	mov.b     w1, [w3]
    9d98:	80 49 78    	mov.b     w0, [w3]
    9d9a:	82 49 78    	mov.b     w2, [w3]
    9d9c:	12 00 20    	mov.w     #0x1, w2
    9d9e:	61 04 20    	mov.w     #0x46, w1
    9da0:	70 05 20    	mov.w     #0x57, w0
    9da2:	23 74 20    	mov.w     #0x742, w3
    9da4:	81 49 78    	mov.b     w1, [w3]
    9da6:	80 49 78    	mov.b     w0, [w3]
    9da8:	82 49 78    	mov.b     w2, [w3]

00009daa <.L2>:
    9daa:	42 c7 bf    	mov.b     0x742, WREG
    9dac:	00 42 b2    	and.b     #0x20, w0
    9dae:	00 04 e0    	cp0.b     w0
    9db0:	fc ff 32    	bra       Z, 0x9daa <.L2>

00009db2 <.L3>:
    9db2:	43 c7 bf    	mov.b     0x743, WREG
    9db4:	02 c7 b3    	mov.b     #0x70, w2
    9db6:	82 40 60    	and.b     w0, w2, w1
    9db8:	00 c3 b3    	mov.b     #0x30, w0
    9dba:	80 cf 50    	sub.b     w1, w0, [w15]
    9dbc:	fa ff 3a    	bra       NZ, 0x9db2 <.L3>
    9dbe:	00 40 eb    	clr.b     w0
    9dc0:	40 fb b7    	mov.b     WREG, 0x1b40
    9dc2:	2d 00 07    	rcall     0x9e1e <_udb_init_leds>
    9dc4:	9b f2 07    	rcall     0x82fc <_udb_init_ADC>
    9dc6:	cd 03 07    	rcall     0xa562 <_udb_init_clock>
    9dc8:	49 e0 07    	rcall     0x5e5c <_udb_init_capture>
    9dca:	a1 dc 07    	rcall     0x570e <_udb_init_I2C2>
    9dcc:	45 db 07    	rcall     0x5458 <_rxAccel>
    9dce:	92 d8 07    	rcall     0x4ef4 <_rxMagnetometer>
    9dd0:	2d f6 07    	rcall     0x8a2c <_udb_init_GPS>
    9dd2:	2b f7 07    	rcall     0x8c2a <_udb_init_USART>
    9dd4:	00 20 2c    	mov.w     #0xc200, w0
    9dd6:	11 00 20    	mov.w     #0x1, w1
    9dd8:	5b f7 07    	rcall     0x8c90 <_udb_serial_set_rate>
    9dda:	ff d2 07    	rcall     0x43da <_udb_init_pwm>
    9ddc:	42 c0 bf    	mov.b     0x42, WREG
    9dde:	7f 40 60    	and.b     w0, #0x1f, w0
    9de0:	42 e0 b7    	mov.b     WREG, 0x42
    9de2:	56 ef 07    	rcall     0x7c90 <_udb_init_EE>
    9de4:	00 00 e0    	cp0.w     w0
    9de6:	07 00 32    	bra       Z, 0x9df6 <.L8>
    9de8:	42 00 20    	mov.w     #0x4, w2
    9dea:	80 00 eb    	clr.w     w1
    9dec:	00 00 eb    	clr.w     w0
    9dee:	c4 ec 07    	rcall     0x7778 <_ReadWaypoint>

00009df0 <.L7>:
    9df0:	f0 a4 80    	mov.w     0x149e, w0
    9df2:	00 00 e0    	cp0.w     w0
    9df4:	fd ff 3a    	bra       NZ, 0x9df0 <.L7>

00009df6 <.L8>:
    9df6:	00 80 fa    	ulnk      
    9df8:	00 00 06    	return    

00009dfa <_udb_run>:
    9dfa:	00 00 fa    	lnk       #0x0
    9dfc:	00 00 37    	bra       0x9dfe <.L10>

00009dfe <.L10>:
    9dfe:	21 e1 a9    	bclr.b    0x121, #0x7
    9e00:	70 d8 80    	mov.w     0x1b0e, w0
    9e02:	70 00 60    	and.w     w0, #0x10, w0
    9e04:	00 00 e0    	cp0.w     w0
    9e06:	03 00 32    	bra       Z, 0x9e0e <.L11>
    9e08:	5a ee 07    	rcall     0x7abe <_ReadParameters>
    9e0a:	0e 9b a9    	bclr.b    0x1b0e, #0x4
    9e0c:	f8 ff 37    	bra       0x9dfe <.L10>

00009e0e <.L11>:
    9e0e:	70 d8 80    	mov.w     0x1b0e, w0
    9e10:	01 02 20    	mov.w     #0x20, w1
    9e12:	01 00 60    	and.w     w0, w1, w0
    9e14:	00 00 e0    	cp0.w     w0
    9e16:	f3 ff 32    	bra       Z, 0x9dfe <.L10>
    9e18:	00 ef 07    	rcall     0x7c1a <_WriteParameters>
    9e1a:	0e bb a9    	bclr.b    0x1b0e, #0x5
    9e1c:	f0 ff 37    	bra       0x9dfe <.L10>

00009e1e <_udb_init_leds>:
    9e1e:	00 00 fa    	lnk       #0x0
    9e20:	c7 62 a9    	bclr.b    0x2c7, #0x3
    9e22:	c7 c2 bf    	mov.b     0x2c7, WREG
    9e24:	00 80 fb    	ze        w0, w0
    9e26:	43 00 de    	lsr.w     w0, #0x3, w0
    9e28:	61 40 60    	and.b     w0, #0x1, w0
    9e2a:	61 40 60    	and.b     w0, #0x1, w0
    9e2c:	42 01 dd    	sl.w      w0, #0x2, w2
    9e2e:	71 2c 20    	mov.w     #0x2c7, w1
    9e30:	91 40 78    	mov.b     [w1], w1
    9e32:	b0 cf b3    	mov.b     #0xfb, w0
    9e34:	00 c0 60    	and.b     w1, w0, w0
    9e36:	02 40 70    	ior.b     w0, w2, w0
    9e38:	c7 e2 b7    	mov.b     WREG, 0x2c7
    9e3a:	c7 c2 bf    	mov.b     0x2c7, WREG
    9e3c:	00 80 fb    	ze        w0, w0
    9e3e:	42 00 de    	lsr.w     w0, #0x2, w0
    9e40:	61 40 60    	and.b     w0, #0x1, w0
    9e42:	61 40 60    	and.b     w0, #0x1, w0
    9e44:	00 41 40    	add.b     w0, w0, w2
    9e46:	71 2c 20    	mov.w     #0x2c7, w1
    9e48:	91 40 78    	mov.b     [w1], w1
    9e4a:	d0 cf b3    	mov.b     #0xfd, w0
    9e4c:	00 c0 60    	and.b     w1, w0, w0
    9e4e:	02 40 70    	ior.b     w0, w2, w0
    9e50:	c7 e2 b7    	mov.b     WREG, 0x2c7
    9e52:	c7 c2 bf    	mov.b     0x2c7, WREG
    9e54:	00 80 fb    	ze        w0, w0
    9e56:	00 00 d1    	lsr.w     w0, w0
    9e58:	61 40 60    	and.b     w0, #0x1, w0
    9e5a:	61 41 60    	and.b     w0, #0x1, w2
    9e5c:	71 2c 20    	mov.w     #0x2c7, w1
    9e5e:	91 40 78    	mov.b     [w1], w1
    9e60:	e0 cf b3    	mov.b     #0xfe, w0
    9e62:	00 c0 60    	and.b     w1, w0, w0
    9e64:	02 40 70    	ior.b     w0, w2, w0
    9e66:	c7 e2 b7    	mov.b     WREG, 0x2c7
    9e68:	cb 62 a8    	bset.b    0x2cb, #0x3
    9e6a:	cb c2 bf    	mov.b     0x2cb, WREG
    9e6c:	00 80 fb    	ze        w0, w0
    9e6e:	43 00 de    	lsr.w     w0, #0x3, w0
    9e70:	61 40 60    	and.b     w0, #0x1, w0
    9e72:	61 40 60    	and.b     w0, #0x1, w0
    9e74:	42 01 dd    	sl.w      w0, #0x2, w2
    9e76:	b1 2c 20    	mov.w     #0x2cb, w1
    9e78:	91 40 78    	mov.b     [w1], w1
    9e7a:	b0 cf b3    	mov.b     #0xfb, w0
    9e7c:	00 c0 60    	and.b     w1, w0, w0
    9e7e:	02 40 70    	ior.b     w0, w2, w0
    9e80:	cb e2 b7    	mov.b     WREG, 0x2cb
    9e82:	cb c2 bf    	mov.b     0x2cb, WREG
    9e84:	00 80 fb    	ze        w0, w0
    9e86:	42 00 de    	lsr.w     w0, #0x2, w0
    9e88:	61 40 60    	and.b     w0, #0x1, w0
    9e8a:	61 40 60    	and.b     w0, #0x1, w0
    9e8c:	00 41 40    	add.b     w0, w0, w2
    9e8e:	b1 2c 20    	mov.w     #0x2cb, w1
    9e90:	91 40 78    	mov.b     [w1], w1
    9e92:	d0 cf b3    	mov.b     #0xfd, w0
    9e94:	00 c0 60    	and.b     w1, w0, w0
    9e96:	02 40 70    	ior.b     w0, w2, w0
    9e98:	cb e2 b7    	mov.b     WREG, 0x2cb
    9e9a:	cb c2 bf    	mov.b     0x2cb, WREG
    9e9c:	00 80 fb    	ze        w0, w0
    9e9e:	00 00 d1    	lsr.w     w0, w0
    9ea0:	61 40 60    	and.b     w0, #0x1, w0
    9ea2:	61 41 60    	and.b     w0, #0x1, w2
    9ea4:	b1 2c 20    	mov.w     #0x2cb, w1
    9ea6:	91 40 78    	mov.b     [w1], w1
    9ea8:	e0 cf b3    	mov.b     #0xfe, w0
    9eaa:	00 c0 60    	and.b     w1, w0, w0
    9eac:	02 40 70    	ior.b     w0, w2, w0
    9eae:	cb e2 b7    	mov.b     WREG, 0x2cb
    9eb0:	cb 62 a8    	bset.b    0x2cb, #0x3
    9eb2:	cb c2 bf    	mov.b     0x2cb, WREG
    9eb4:	00 80 fb    	ze        w0, w0
    9eb6:	43 00 de    	lsr.w     w0, #0x3, w0
    9eb8:	61 40 60    	and.b     w0, #0x1, w0
    9eba:	61 40 60    	and.b     w0, #0x1, w0
    9ebc:	42 01 dd    	sl.w      w0, #0x2, w2
    9ebe:	b1 2c 20    	mov.w     #0x2cb, w1
    9ec0:	91 40 78    	mov.b     [w1], w1
    9ec2:	b0 cf b3    	mov.b     #0xfb, w0
    9ec4:	00 c0 60    	and.b     w1, w0, w0
    9ec6:	02 40 70    	ior.b     w0, w2, w0
    9ec8:	cb e2 b7    	mov.b     WREG, 0x2cb
    9eca:	cb c2 bf    	mov.b     0x2cb, WREG
    9ecc:	00 80 fb    	ze        w0, w0
    9ece:	42 00 de    	lsr.w     w0, #0x2, w0
    9ed0:	61 40 60    	and.b     w0, #0x1, w0
    9ed2:	61 40 60    	and.b     w0, #0x1, w0
    9ed4:	00 41 40    	add.b     w0, w0, w2
    9ed6:	b1 2c 20    	mov.w     #0x2cb, w1
    9ed8:	91 40 78    	mov.b     [w1], w1
    9eda:	d0 cf b3    	mov.b     #0xfd, w0
    9edc:	00 c0 60    	and.b     w1, w0, w0
    9ede:	02 40 70    	ior.b     w0, w2, w0
    9ee0:	cb e2 b7    	mov.b     WREG, 0x2cb
    9ee2:	cb c2 bf    	mov.b     0x2cb, WREG
    9ee4:	00 80 fb    	ze        w0, w0
    9ee6:	00 00 d1    	lsr.w     w0, w0
    9ee8:	61 40 60    	and.b     w0, #0x1, w0
    9eea:	61 41 60    	and.b     w0, #0x1, w2
    9eec:	b1 2c 20    	mov.w     #0x2cb, w1
    9eee:	91 40 78    	mov.b     [w1], w1
    9ef0:	e0 cf b3    	mov.b     #0xfe, w0
    9ef2:	00 c0 60    	and.b     w1, w0, w0
    9ef4:	02 40 70    	ior.b     w0, w2, w0
    9ef6:	cb e2 b7    	mov.b     WREG, 0x2cb
    9ef8:	00 80 fa    	ulnk      
    9efa:	00 00 06    	return    

00009efc <_udb_setDSPLibInUse>:
    9efc:	02 00 fa    	lnk       #0x2
    9efe:	00 4f 78    	mov.b     w0, [w14]
    9f00:	1e 04 e0    	cp0.b     [w14]
    9f02:	04 00 32    	bra       Z, 0x9f0c <.L20>
    9f04:	30 55 80    	mov.w     0xaa6, w0
    9f06:	00 00 e8    	inc.w     w0, w0
    9f08:	30 55 88    	mov.w     w0, 0xaa6
    9f0a:	03 00 37    	bra       0x9f12 <.L23>

00009f0c <.L20>:
    9f0c:	30 55 80    	mov.w     0xaa6, w0
    9f0e:	00 00 e9    	dec.w     w0, w0
    9f10:	30 55 88    	mov.w     w0, 0xaa6

00009f12 <.L23>:
    9f12:	00 80 fa    	ulnk      
    9f14:	00 00 06    	return    

00009f16 <_udb_a2d_record_offsets>:
    9f16:	00 00 fa    	lnk       #0x0
    9f18:	b0 70 80    	mov.w     0xe16, w0
    9f1a:	c0 70 88    	mov.w     w0, 0xe18
    9f1c:	40 71 80    	mov.w     0xe28, w0
    9f1e:	50 71 88    	mov.w     w0, 0xe2a
    9f20:	e0 70 80    	mov.w     0xe1c, w0
    9f22:	f0 70 88    	mov.w     w0, 0xe1e
    9f24:	70 71 80    	mov.w     0xe2e, w0
    9f26:	80 71 88    	mov.w     w0, 0xe30
    9f28:	11 71 80    	mov.w     0xe22, w1
    9f2a:	00 f7 2e    	mov.w     #0xef70, w0
    9f2c:	00 80 40    	add.w     w1, w0, w0
    9f2e:	20 71 88    	mov.w     w0, 0xe24
    9f30:	a0 71 80    	mov.w     0xe34, w0
    9f32:	b0 71 88    	mov.w     w0, 0xe36
    9f34:	00 80 fa    	ulnk      
    9f36:	00 00 06    	return    

00009f38 <_udb_servo_record_trims>:
    9f38:	02 00 fa    	lnk       #0x2
    9f3a:	00 00 eb    	clr.w     w0
    9f3c:	00 0f 78    	mov.w     w0, [w14]
    9f3e:	0b 00 37    	bra       0x9f56 <.L27>

00009f40 <.L28>:
    9f40:	1e 01 78    	mov.w     [w14], w2
    9f42:	1e 00 78    	mov.w     [w14], w0
    9f44:	80 00 40    	add.w     w0, w0, w1
    9f46:	e0 c8 20    	mov.w     #0xc8e, w0
    9f48:	00 80 40    	add.w     w1, w0, w0
    9f4a:	90 01 78    	mov.w     [w0], w3
    9f4c:	82 00 41    	add.w     w2, w2, w1
    9f4e:	00 d1 20    	mov.w     #0xd10, w0
    9f50:	00 80 40    	add.w     w1, w0, w0
    9f52:	03 08 78    	mov.w     w3, [w0]
    9f54:	1e 0f e8    	inc.w     [w14], [w14]

00009f56 <.L27>:
    9f56:	00 04 20    	mov.w     #0x40, w0
    9f58:	9e 0f 10    	subr.w    w0, [w14], [w15]
    9f5a:	f2 ff 34    	bra       LE, 0x9f40 <.L28>
    9f5c:	00 80 fa    	ulnk      
    9f5e:	00 00 06    	return    

00009f60 <_udb_servo_pulsesat>:
    9f60:	04 00 fa    	lnk       #0x4
    9f62:	00 8f be    	mov.d     w0, [w14]
    9f64:	00 71 22    	mov.w     #0x2710, w0
    9f66:	01 00 20    	mov.w     #0x0, w1
    9f68:	be 0f 10    	subr.w    w0, [w14++], [w15]
    9f6a:	ae 8f 18    	subbr.w   w1, [w14--], [w15]
    9f6c:	03 00 34    	bra       LE, 0x9f74 <.L32>
    9f6e:	00 71 22    	mov.w     #0x2710, w0
    9f70:	01 00 20    	mov.w     #0x0, w1
    9f72:	00 8f be    	mov.d     w0, [w14]

00009f74 <.L32>:
    9f74:	70 38 21    	mov.w     #0x1387, w0
    9f76:	01 00 20    	mov.w     #0x0, w1
    9f78:	be 0f 10    	subr.w    w0, [w14++], [w15]
    9f7a:	ae 8f 18    	subbr.w   w1, [w14--], [w15]
    9f7c:	03 00 3c    	bra       GT, 0x9f84 <.L34>
    9f7e:	80 38 21    	mov.w     #0x1388, w0
    9f80:	01 00 20    	mov.w     #0x0, w1
    9f82:	00 8f be    	mov.d     w0, [w14]

00009f84 <.L34>:
    9f84:	1e 00 78    	mov.w     [w14], w0
    9f86:	00 80 fa    	ulnk      
    9f88:	00 00 06    	return    

00009f8a <_gps_nav_valid>:
    9f8a:	02 00 fa    	lnk       #0x2
    9f8c:	c0 d3 80    	mov.w     0x1a78, w0
    9f8e:	80 00 eb    	clr.w     w1
    9f90:	01 0f 78    	mov.w     w1, [w14]
    9f92:	00 00 e0    	cp0.w     w0
    9f94:	02 00 3a    	bra       NZ, 0x9f9a <.L2>
    9f96:	10 00 20    	mov.w     #0x1, w0
    9f98:	00 0f 78    	mov.w     w0, [w14]

00009f9a <.L2>:
    9f9a:	1e 00 78    	mov.w     [w14], w0
    9f9c:	00 80 fa    	ulnk      
    9f9e:	00 00 06    	return    

00009fa0 <_gps_startup_sequence>:
    9fa0:	02 00 fa    	lnk       #0x2
    9fa2:	00 0f 78    	mov.w     w0, [w14]
    9fa4:	e0 00 20    	mov.w     #0xe, w0
    9fa6:	9e 0f 10    	subr.w    w0, [w14], [w15]
    9fa8:	04 00 3a    	bra       NZ, 0x9fb2 <.L5>
    9faa:	00 2c 21    	mov.w     #0x12c0, w0
    9fac:	01 00 20    	mov.w     #0x0, w1
    9fae:	6b f5 07    	rcall     0x8a86 <_udb_gps_set_rate>
    9fb0:	13 00 37    	bra       0x9fd8 <.L13>

00009fb2 <.L5>:
    9fb2:	c0 00 20    	mov.w     #0xc, w0
    9fb4:	9e 0f 10    	subr.w    w0, [w14], [w15]
    9fb6:	03 00 3a    	bra       NZ, 0x9fbe <.L8>
    9fb8:	00 6f 29    	mov.w     #0x96f0, w0
    9fba:	7a 06 07    	rcall     0xacb0 <_gpsoutline>
    9fbc:	0d 00 37    	bra       0x9fd8 <.L13>

00009fbe <.L8>:
    9fbe:	a0 00 20    	mov.w     #0xa, w0
    9fc0:	9e 0f 10    	subr.w    w0, [w14], [w15]
    9fc2:	04 00 3a    	bra       NZ, 0x9fcc <.L10>
    9fc4:	60 b8 84    	mov.w     0x970c, w0
    9fc6:	e1 70 29    	mov.w     #0x970e, w1
    9fc8:	8e 06 07    	rcall     0xace6 <_gpsoutbin>
    9fca:	06 00 37    	bra       0x9fd8 <.L13>

00009fcc <.L10>:
    9fcc:	80 00 20    	mov.w     #0x8, w0
    9fce:	9e 0f 10    	subr.w    w0, [w14], [w15]
    9fd0:	03 00 3a    	bra       NZ, 0x9fd8 <.L13>
    9fd2:	00 b0 24    	mov.w     #0x4b00, w0
    9fd4:	01 00 20    	mov.w     #0x0, w1
    9fd6:	57 f5 07    	rcall     0x8a86 <_udb_gps_set_rate>

00009fd8 <.L13>:
    9fd8:	00 80 fa    	ulnk      
    9fda:	00 00 06    	return    

00009fdc <_msg_B3>:
    9fdc:	02 00 fa    	lnk       #0x2
    9fde:	00 4f 78    	mov.b     w0, [w14]
    9fe0:	00 ca b3    	mov.b     #0xa0, w0
    9fe2:	9e 4f 10    	subr.b    w0, [w14], [w15]
    9fe4:	02 00 3a    	bra       NZ, 0x9fea <.L17>
    9fe6:	e0 fe 29    	mov.w     #0x9fee, w0
    9fe8:	60 b7 88    	mov.w     w0, 0x16ec

00009fea <.L17>:
    9fea:	00 80 fa    	ulnk      
    9fec:	00 00 06    	return    

00009fee <_msg_A0>:
    9fee:	02 00 fa    	lnk       #0x2
    9ff0:	00 4f 78    	mov.b     w0, [w14]
    9ff2:	20 ca b3    	mov.b     #0xa2, w0
    9ff4:	9e 4f 10    	subr.b    w0, [w14], [w15]
    9ff6:	05 00 3a    	bra       NZ, 0xa002 <.L19>
    9ff8:	00 00 eb    	clr.w     w0
    9ffa:	80 b7 88    	mov.w     w0, 0x16f0
    9ffc:	a0 00 2a    	mov.w     #0xa00a, w0
    9ffe:	60 b7 88    	mov.w     w0, 0x16ec
    a000:	02 00 37    	bra       0xa006 <.L22>

0000a002 <.L19>:
    a002:	c0 fd 29    	mov.w     #0x9fdc, w0
    a004:	60 b7 88    	mov.w     w0, 0x16ec

0000a006 <.L22>:
    a006:	00 80 fa    	ulnk      
    a008:	00 00 06    	return    

0000a00a <_msg_A2>:
    a00a:	02 00 fa    	lnk       #0x2
    a00c:	00 4f 78    	mov.b     w0, [w14]
    a00e:	1e 40 78    	mov.b     [w14], w0
    a010:	4f fa b7    	mov.b     WREG, 0x1a4f
    a012:	a0 01 2a    	mov.w     #0xa01a, w0
    a014:	60 b7 88    	mov.w     w0, 0x16ec
    a016:	00 80 fa    	ulnk      
    a018:	00 00 06    	return    

0000a01a <_msg_PL1>:
    a01a:	02 00 fa    	lnk       #0x2
    a01c:	00 4f 78    	mov.b     w0, [w14]
    a01e:	1e 40 78    	mov.b     [w14], w0
    a020:	4e fa b7    	mov.b     WREG, 0x1a4e
    a022:	70 d2 80    	mov.w     0x1a4e, w0
    a024:	00 00 e8    	inc.w     w0, w0
    a026:	70 d2 88    	mov.w     w0, 0x1a4e
    a028:	00 03 2a    	mov.w     #0xa030, w0
    a02a:	60 b7 88    	mov.w     w0, 0x16ec
    a02c:	00 80 fa    	ulnk      
    a02e:	00 00 06    	return    

0000a030 <_msg_PL2>:
    a030:	04 00 fa    	lnk       #0x4
    a032:	00 4f 78    	mov.b     w0, [w14]
    a034:	1e 80 fb    	ze        [w14], w0
    a036:	10 07 98    	mov.w     w0, [w14+2]
    a038:	9e 00 90    	mov.w     [w14+2], w1
    a03a:	e2 8f 50    	sub.w     w1, #0x2, [w15]
    a03c:	05 00 32    	bra       Z, 0xa048 <.L29>
    a03e:	90 02 20    	mov.w     #0x29, w0
    a040:	9e 00 90    	mov.w     [w14+2], w1
    a042:	80 8f 50    	sub.w     w1, w0, [w15]
    a044:	0b 00 32    	bra       Z, 0xa05c <.L30>
    a046:	14 00 37    	bra       0xa070 <.L28>

0000a048 <.L29>:
    a048:	71 d2 80    	mov.w     0x1a4e, w1
    a04a:	a0 02 20    	mov.w     #0x2a, w0
    a04c:	80 8f 50    	sub.w     w1, w0, [w15]
    a04e:	03 00 3a    	bra       NZ, 0xa056 <.L31>
    a050:	80 07 2a    	mov.w     #0xa078, w0
    a052:	60 b7 88    	mov.w     w0, 0x16ec
    a054:	0f 00 37    	bra       0xa074 <.L38>

0000a056 <.L31>:
    a056:	c0 fd 29    	mov.w     #0x9fdc, w0
    a058:	60 b7 88    	mov.w     w0, 0x16ec
    a05a:	0c 00 37    	bra       0xa074 <.L38>

0000a05c <.L30>:
    a05c:	71 d2 80    	mov.w     0x1a4e, w1
    a05e:	c0 05 20    	mov.w     #0x5c, w0
    a060:	80 8f 50    	sub.w     w1, w0, [w15]
    a062:	03 00 3a    	bra       NZ, 0xa06a <.L35>
    a064:	e0 0a 2a    	mov.w     #0xa0ae, w0
    a066:	60 b7 88    	mov.w     w0, 0x16ec
    a068:	05 00 37    	bra       0xa074 <.L38>

0000a06a <.L35>:
    a06a:	c0 fd 29    	mov.w     #0x9fdc, w0
    a06c:	60 b7 88    	mov.w     w0, 0x16ec
    a06e:	02 00 37    	bra       0xa074 <.L38>

0000a070 <.L28>:
    a070:	60 0e 2a    	mov.w     #0xa0e6, w0
    a072:	60 b7 88    	mov.w     w0, 0x16ec

0000a074 <.L38>:
    a074:	00 80 fa    	ulnk      
    a076:	00 00 06    	return    

0000a078 <_msg_MSG2>:
    a078:	02 00 fa    	lnk       #0x2
    a07a:	00 4f 78    	mov.b     w0, [w14]
    a07c:	70 d2 80    	mov.w     0x1a4e, w0
    a07e:	00 00 e0    	cp0.w     w0
    a080:	0c 00 34    	bra       LE, 0xa09a <.L40>
    a082:	81 b7 80    	mov.w     0x16f0, w1
    a084:	01 81 40    	add.w     w1, w1, w2
    a086:	80 71 29    	mov.w     #0x9718, w0
    a088:	00 00 41    	add.w     w2, w0, w0
    a08a:	10 00 78    	mov.w     [w0], w0
    a08c:	1e 48 78    	mov.b     [w14], [w0]
    a08e:	01 00 e8    	inc.w     w1, w0
    a090:	80 b7 88    	mov.w     w0, 0x16f0
    a092:	70 d2 80    	mov.w     0x1a4e, w0
    a094:	00 00 e9    	dec.w     w0, w0
    a096:	70 d2 88    	mov.w     w0, 0x1a4e
    a098:	08 00 37    	bra       0xa0aa <.L45>

0000a09a <.L40>:
    a09a:	00 cb b3    	mov.b     #0xb0, w0
    a09c:	9e 4f 10    	subr.b    w0, [w14], [w15]
    a09e:	03 00 3a    	bra       NZ, 0xa0a6 <.L43>
    a0a0:	c0 10 2a    	mov.w     #0xa10c, w0
    a0a2:	60 b7 88    	mov.w     w0, 0x16ec
    a0a4:	02 00 37    	bra       0xa0aa <.L45>

0000a0a6 <.L43>:
    a0a6:	c0 fd 29    	mov.w     #0x9fdc, w0
    a0a8:	60 b7 88    	mov.w     w0, 0x16ec

0000a0aa <.L45>:
    a0aa:	00 80 fa    	ulnk      
    a0ac:	00 00 06    	return    

0000a0ae <_msg_MSG41>:
    a0ae:	02 00 fa    	lnk       #0x2
    a0b0:	00 4f 78    	mov.b     w0, [w14]
    a0b2:	70 d2 80    	mov.w     0x1a4e, w0
    a0b4:	00 00 e0    	cp0.w     w0
    a0b6:	0c 00 34    	bra       LE, 0xa0d0 <.L47>
    a0b8:	81 b7 80    	mov.w     0x16f0, w1
    a0ba:	01 81 40    	add.w     w1, w1, w2
    a0bc:	c0 76 29    	mov.w     #0x976c, w0
    a0be:	00 00 41    	add.w     w2, w0, w0
    a0c0:	10 00 78    	mov.w     [w0], w0
    a0c2:	1e 48 78    	mov.b     [w14], [w0]
    a0c4:	01 00 e8    	inc.w     w1, w0
    a0c6:	80 b7 88    	mov.w     w0, 0x16f0
    a0c8:	70 d2 80    	mov.w     0x1a4e, w0
    a0ca:	00 00 e9    	dec.w     w0, w0
    a0cc:	70 d2 88    	mov.w     w0, 0x1a4e
    a0ce:	09 00 37    	bra       0xa0e2 <.L52>

0000a0d0 <.L47>:
    a0d0:	f5 02 07    	rcall     0xa6bc <_udb_background_trigger>
    a0d2:	00 cb b3    	mov.b     #0xb0, w0
    a0d4:	9e 4f 10    	subr.b    w0, [w14], [w15]
    a0d6:	03 00 3a    	bra       NZ, 0xa0de <.L50>
    a0d8:	c0 10 2a    	mov.w     #0xa10c, w0
    a0da:	60 b7 88    	mov.w     w0, 0x16ec
    a0dc:	02 00 37    	bra       0xa0e2 <.L52>

0000a0de <.L50>:
    a0de:	c0 fd 29    	mov.w     #0x9fdc, w0
    a0e0:	60 b7 88    	mov.w     w0, 0x16ec

0000a0e2 <.L52>:
    a0e2:	00 80 fa    	ulnk      
    a0e4:	00 00 06    	return    

0000a0e6 <_msg_MSGU>:
    a0e6:	02 00 fa    	lnk       #0x2
    a0e8:	00 4f 78    	mov.b     w0, [w14]
    a0ea:	70 d2 80    	mov.w     0x1a4e, w0
    a0ec:	00 00 e0    	cp0.w     w0
    a0ee:	04 00 34    	bra       LE, 0xa0f8 <.L54>
    a0f0:	70 d2 80    	mov.w     0x1a4e, w0
    a0f2:	00 00 e9    	dec.w     w0, w0
    a0f4:	70 d2 88    	mov.w     w0, 0x1a4e
    a0f6:	08 00 37    	bra       0xa108 <.L59>

0000a0f8 <.L54>:
    a0f8:	00 cb b3    	mov.b     #0xb0, w0
    a0fa:	9e 4f 10    	subr.b    w0, [w14], [w15]
    a0fc:	03 00 3a    	bra       NZ, 0xa104 <.L57>
    a0fe:	c0 10 2a    	mov.w     #0xa10c, w0
    a100:	60 b7 88    	mov.w     w0, 0x16ec
    a102:	02 00 37    	bra       0xa108 <.L59>

0000a104 <.L57>:
    a104:	c0 fd 29    	mov.w     #0x9fdc, w0
    a106:	60 b7 88    	mov.w     w0, 0x16ec

0000a108 <.L59>:
    a108:	00 80 fa    	ulnk      
    a10a:	00 00 06    	return    

0000a10c <_msg_B0>:
    a10c:	02 00 fa    	lnk       #0x2
    a10e:	00 4f 78    	mov.b     w0, [w14]
    a110:	30 cb b3    	mov.b     #0xb3, w0
    a112:	9e 4f 10    	subr.b    w0, [w14], [w15]
    a114:	03 00 3a    	bra       NZ, 0xa11c <.L61>
    a116:	c0 fd 29    	mov.w     #0x9fdc, w0
    a118:	60 b7 88    	mov.w     w0, 0x16ec
    a11a:	02 00 37    	bra       0xa120 <.L64>

0000a11c <.L61>:
    a11c:	c0 fd 29    	mov.w     #0x9fdc, w0
    a11e:	60 b7 88    	mov.w     w0, 0x16ec

0000a120 <.L64>:
    a120:	00 80 fa    	ulnk      
    a122:	00 00 06    	return    

0000a124 <_commit_gps_data>:
    a124:	00 00 fa    	lnk       #0x0
    a126:	10 d4 80    	mov.w     0x1a82, w0
    a128:	a0 57 88    	mov.w     w0, 0xaf4
    a12a:	a0 d3 80    	mov.w     0x1a74, w0
    a12c:	b1 d3 80    	mov.w     0x1a76, w1
    a12e:	50 57 88    	mov.w     w0, 0xaea
    a130:	61 57 88    	mov.w     w1, 0xaec
    a132:	40 d3 80    	mov.w     0x1a68, w0
    a134:	51 d3 80    	mov.w     0x1a6a, w1
    a136:	f0 56 88    	mov.w     w0, 0xade
    a138:	01 57 88    	mov.w     w1, 0xae0
    a13a:	60 d3 80    	mov.w     0x1a6c, w0
    a13c:	71 d3 80    	mov.w     0x1a6e, w1
    a13e:	10 57 88    	mov.w     w0, 0xae2
    a140:	21 57 88    	mov.w     w1, 0xae4
    a142:	80 d3 80    	mov.w     0x1a70, w0
    a144:	91 d3 80    	mov.w     0x1a72, w1
    a146:	30 57 88    	mov.w     w0, 0xae6
    a148:	41 57 88    	mov.w     w1, 0xae8
    a14a:	e1 d3 80    	mov.w     0x1a7c, w1
    a14c:	71 57 88    	mov.w     w1, 0xaee
    a14e:	f0 d3 80    	mov.w     0x1a7e, w0
    a150:	80 57 88    	mov.w     w0, 0xaf0
    a152:	01 d4 80    	mov.w     0x1a80, w1
    a154:	91 57 88    	mov.w     w1, 0xaf2
    a156:	84 da bf    	mov.b     0x1a84, WREG
    a158:	f6 ea b7    	mov.b     WREG, 0xaf6
    a15a:	90 d2 80    	mov.w     0x1a52, w0
    a15c:	a1 d2 80    	mov.w     0x1a54, w1
    a15e:	20 58 88    	mov.w     w0, 0xb04
    a160:	31 58 88    	mov.w     w1, 0xb06
    a162:	b0 d2 80    	mov.w     0x1a56, w0
    a164:	c1 d2 80    	mov.w     0x1a58, w1
    a166:	40 58 88    	mov.w     w0, 0xb08
    a168:	51 58 88    	mov.w     w1, 0xb0a
    a16a:	d0 d2 80    	mov.w     0x1a5a, w0
    a16c:	e1 d2 80    	mov.w     0x1a5c, w1
    a16e:	60 58 88    	mov.w     w0, 0xb0c
    a170:	71 58 88    	mov.w     w1, 0xb0e
    a172:	f1 d2 80    	mov.w     0x1a5e, w1
    a174:	81 58 88    	mov.w     w1, 0xb10
    a176:	00 d3 80    	mov.w     0x1a60, w0
    a178:	90 58 88    	mov.w     w0, 0xb12
    a17a:	11 d3 80    	mov.w     0x1a62, w1
    a17c:	a1 58 88    	mov.w     w1, 0xb14
    a17e:	64 da bf    	mov.b     0x1a64, WREG
    a180:	16 eb b7    	mov.b     WREG, 0xb16
    a182:	65 da bf    	mov.b     0x1a65, WREG
    a184:	17 eb b7    	mov.b     WREG, 0xb17
    a186:	66 da bf    	mov.b     0x1a66, WREG
    a188:	18 eb b7    	mov.b     WREG, 0xb18
    a18a:	00 80 fa    	ulnk      
    a18c:	00 00 06    	return    

0000a18e <_dead_reckon>:
    a18e:	00 00 fa    	lnk       #0x0
    a190:	10 5e 80    	mov.w     0xbc2, w0
    a192:	61 00 60    	and.w     w0, #0x1, w0
    a194:	00 00 e0    	cp0.w     w0
    a196:	e3 00 32    	bra       Z, 0xa35e <.L2>
    a198:	42 61 80    	mov.w     0xc28, w2
    a19a:	53 61 80    	mov.w     0xc2a, w3
    a19c:	d1 5a 80    	mov.w     0xb5a, w1
    a19e:	50 2f 20    	mov.w     #0x2f5, w0
    a1a0:	01 80 b9    	mul.ss    w0, w1, w0
    a1a2:	02 00 40    	add.w     w0, w2, w0
    a1a4:	83 80 48    	addc.w    w1, w3, w1
    a1a6:	40 61 88    	mov.w     w0, 0xc28
    a1a8:	51 61 88    	mov.w     w1, 0xc2a
    a1aa:	62 61 80    	mov.w     0xc2c, w2
    a1ac:	73 61 80    	mov.w     0xc2e, w3
    a1ae:	e1 5a 80    	mov.w     0xb5c, w1
    a1b0:	50 2f 20    	mov.w     #0x2f5, w0
    a1b2:	01 80 b9    	mul.ss    w0, w1, w0
    a1b4:	02 00 40    	add.w     w0, w2, w0
    a1b6:	83 80 48    	addc.w    w1, w3, w1
    a1b8:	60 61 88    	mov.w     w0, 0xc2c
    a1ba:	71 61 88    	mov.w     w1, 0xc2e
    a1bc:	82 61 80    	mov.w     0xc30, w2
    a1be:	93 61 80    	mov.w     0xc32, w3
    a1c0:	f1 5a 80    	mov.w     0xb5e, w1
    a1c2:	50 2f 20    	mov.w     #0x2f5, w0
    a1c4:	01 80 b9    	mul.ss    w0, w1, w0
    a1c6:	02 00 40    	add.w     w0, w2, w0
    a1c8:	83 80 48    	addc.w    w1, w3, w1
    a1ca:	80 61 88    	mov.w     w0, 0xc30
    a1cc:	91 61 88    	mov.w     w1, 0xc32
    a1ce:	a2 61 80    	mov.w     0xc34, w2
    a1d0:	b3 61 80    	mov.w     0xc36, w3
    a1d2:	51 61 80    	mov.w     0xc2a, w1
    a1d4:	60 10 20    	mov.w     #0x106, w0
    a1d6:	01 80 b9    	mul.ss    w0, w1, w0
    a1d8:	4c 0a dd    	sl.w      w1, #0xc, w4
    a1da:	44 00 de    	lsr.w     w0, #0x4, w0
    a1dc:	00 00 72    	ior.w     w4, w0, w0
    a1de:	c4 88 de    	asr.w     w1, #0x4, w1
    a1e0:	02 00 40    	add.w     w0, w2, w0
    a1e2:	83 80 48    	addc.w    w1, w3, w1
    a1e4:	a0 61 88    	mov.w     w0, 0xc34
    a1e6:	b1 61 88    	mov.w     w1, 0xc36
    a1e8:	c2 61 80    	mov.w     0xc38, w2
    a1ea:	d3 61 80    	mov.w     0xc3a, w3
    a1ec:	71 61 80    	mov.w     0xc2e, w1
    a1ee:	60 10 20    	mov.w     #0x106, w0
    a1f0:	01 80 b9    	mul.ss    w0, w1, w0
    a1f2:	4c 0a dd    	sl.w      w1, #0xc, w4
    a1f4:	44 00 de    	lsr.w     w0, #0x4, w0
    a1f6:	00 00 72    	ior.w     w4, w0, w0
    a1f8:	c4 88 de    	asr.w     w1, #0x4, w1
    a1fa:	02 00 40    	add.w     w0, w2, w0
    a1fc:	83 80 48    	addc.w    w1, w3, w1
    a1fe:	c0 61 88    	mov.w     w0, 0xc38
    a200:	d1 61 88    	mov.w     w1, 0xc3a
    a202:	e2 61 80    	mov.w     0xc3c, w2
    a204:	f3 61 80    	mov.w     0xc3e, w3
    a206:	91 61 80    	mov.w     0xc32, w1
    a208:	60 10 20    	mov.w     #0x106, w0
    a20a:	01 80 b9    	mul.ss    w0, w1, w0
    a20c:	4c 0a dd    	sl.w      w1, #0xc, w4
    a20e:	44 00 de    	lsr.w     w0, #0x4, w0
    a210:	00 00 72    	ior.w     w4, w0, w0
    a212:	c4 88 de    	asr.w     w1, #0x4, w1
    a214:	02 00 40    	add.w     w0, w2, w0
    a216:	83 80 48    	addc.w    w1, w3, w1
    a218:	e0 61 88    	mov.w     w0, 0xc3c
    a21a:	f1 61 88    	mov.w     w1, 0xc3e
    a21c:	02 62 80    	mov.w     0xc40, w2
    a21e:	13 62 80    	mov.w     0xc42, w3
    a220:	51 61 80    	mov.w     0xc2a, w1
    a222:	10 62 80    	mov.w     0xc42, w0
    a224:	80 80 50    	sub.w     w1, w0, w1
    a226:	e0 51 20    	mov.w     #0x51e, w0
    a228:	01 80 b9    	mul.ss    w0, w1, w0
    a22a:	02 00 40    	add.w     w0, w2, w0
    a22c:	83 80 48    	addc.w    w1, w3, w1
    a22e:	00 62 88    	mov.w     w0, 0xc40
    a230:	11 62 88    	mov.w     w1, 0xc42
    a232:	22 62 80    	mov.w     0xc44, w2
    a234:	33 62 80    	mov.w     0xc46, w3
    a236:	71 61 80    	mov.w     0xc2e, w1
    a238:	30 62 80    	mov.w     0xc46, w0
    a23a:	80 80 50    	sub.w     w1, w0, w1
    a23c:	e0 51 20    	mov.w     #0x51e, w0
    a23e:	01 80 b9    	mul.ss    w0, w1, w0
    a240:	02 00 40    	add.w     w0, w2, w0
    a242:	83 80 48    	addc.w    w1, w3, w1
    a244:	20 62 88    	mov.w     w0, 0xc44
    a246:	31 62 88    	mov.w     w1, 0xc46
    a248:	42 62 80    	mov.w     0xc48, w2
    a24a:	53 62 80    	mov.w     0xc4a, w3
    a24c:	91 61 80    	mov.w     0xc32, w1
    a24e:	50 62 80    	mov.w     0xc4a, w0
    a250:	80 80 50    	sub.w     w1, w0, w1
    a252:	e0 51 20    	mov.w     #0x51e, w0
    a254:	01 80 b9    	mul.ss    w0, w1, w0
    a256:	02 00 40    	add.w     w0, w2, w0
    a258:	83 80 48    	addc.w    w1, w3, w1
    a25a:	40 62 88    	mov.w     w0, 0xc48
    a25c:	51 62 88    	mov.w     w1, 0xc4a
    a25e:	62 62 80    	mov.w     0xc4c, w2
    a260:	73 62 80    	mov.w     0xc4e, w3
    a262:	b1 61 80    	mov.w     0xc36, w1
    a264:	70 62 80    	mov.w     0xc4e, w0
    a266:	80 80 50    	sub.w     w1, w0, w1
    a268:	e0 51 20    	mov.w     #0x51e, w0
    a26a:	01 80 b9    	mul.ss    w0, w1, w0
    a26c:	02 00 40    	add.w     w0, w2, w0
    a26e:	83 80 48    	addc.w    w1, w3, w1
    a270:	60 62 88    	mov.w     w0, 0xc4c
    a272:	71 62 88    	mov.w     w1, 0xc4e
    a274:	82 62 80    	mov.w     0xc50, w2
    a276:	93 62 80    	mov.w     0xc52, w3
    a278:	d1 61 80    	mov.w     0xc3a, w1
    a27a:	90 62 80    	mov.w     0xc52, w0
    a27c:	80 80 50    	sub.w     w1, w0, w1
    a27e:	e0 51 20    	mov.w     #0x51e, w0
    a280:	01 80 b9    	mul.ss    w0, w1, w0
    a282:	02 00 40    	add.w     w0, w2, w0
    a284:	83 80 48    	addc.w    w1, w3, w1
    a286:	80 62 88    	mov.w     w0, 0xc50
    a288:	91 62 88    	mov.w     w1, 0xc52
    a28a:	a2 62 80    	mov.w     0xc54, w2
    a28c:	b3 62 80    	mov.w     0xc56, w3
    a28e:	f1 61 80    	mov.w     0xc3e, w1
    a290:	b0 62 80    	mov.w     0xc56, w0
    a292:	80 80 50    	sub.w     w1, w0, w1
    a294:	e0 51 20    	mov.w     #0x51e, w0
    a296:	01 80 b9    	mul.ss    w0, w1, w0
    a298:	02 00 40    	add.w     w0, w2, w0
    a29a:	83 80 48    	addc.w    w1, w3, w1
    a29c:	a0 62 88    	mov.w     w0, 0xc54
    a29e:	b1 62 88    	mov.w     w1, 0xc56
    a2a0:	b0 b7 80    	mov.w     0x16f6, w0
    a2a2:	00 00 e0    	cp0.w     w0
    a2a4:	39 00 34    	bra       LE, 0xa318 <.L4>
    a2a6:	b0 b7 80    	mov.w     0x16f6, w0
    a2a8:	00 00 e9    	dec.w     w0, w0
    a2aa:	b0 b7 88    	mov.w     w0, 0x16f6
    a2ac:	42 61 80    	mov.w     0xc28, w2
    a2ae:	53 61 80    	mov.w     0xc2a, w3
    a2b0:	f1 62 80    	mov.w     0xc5e, w1
    a2b2:	60 66 20    	mov.w     #0x666, w0
    a2b4:	01 80 b9    	mul.ss    w0, w1, w0
    a2b6:	02 00 40    	add.w     w0, w2, w0
    a2b8:	83 80 48    	addc.w    w1, w3, w1
    a2ba:	40 61 88    	mov.w     w0, 0xc28
    a2bc:	51 61 88    	mov.w     w1, 0xc2a
    a2be:	62 61 80    	mov.w     0xc2c, w2
    a2c0:	73 61 80    	mov.w     0xc2e, w3
    a2c2:	01 63 80    	mov.w     0xc60, w1
    a2c4:	60 66 20    	mov.w     #0x666, w0
    a2c6:	01 80 b9    	mul.ss    w0, w1, w0
    a2c8:	02 00 40    	add.w     w0, w2, w0
    a2ca:	83 80 48    	addc.w    w1, w3, w1
    a2cc:	60 61 88    	mov.w     w0, 0xc2c
    a2ce:	71 61 88    	mov.w     w1, 0xc2e
    a2d0:	82 61 80    	mov.w     0xc30, w2
    a2d2:	93 61 80    	mov.w     0xc32, w3
    a2d4:	11 63 80    	mov.w     0xc62, w1
    a2d6:	60 66 20    	mov.w     #0x666, w0
    a2d8:	01 80 b9    	mul.ss    w0, w1, w0
    a2da:	02 00 40    	add.w     w0, w2, w0
    a2dc:	83 80 48    	addc.w    w1, w3, w1
    a2de:	80 61 88    	mov.w     w0, 0xc30
    a2e0:	91 61 88    	mov.w     w1, 0xc32
    a2e2:	a2 61 80    	mov.w     0xc34, w2
    a2e4:	b3 61 80    	mov.w     0xc36, w3
    a2e6:	c1 62 80    	mov.w     0xc58, w1
    a2e8:	60 66 20    	mov.w     #0x666, w0
    a2ea:	01 80 b9    	mul.ss    w0, w1, w0
    a2ec:	02 00 40    	add.w     w0, w2, w0
    a2ee:	83 80 48    	addc.w    w1, w3, w1
    a2f0:	a0 61 88    	mov.w     w0, 0xc34
    a2f2:	b1 61 88    	mov.w     w1, 0xc36
    a2f4:	c2 61 80    	mov.w     0xc38, w2
    a2f6:	d3 61 80    	mov.w     0xc3a, w3
    a2f8:	d1 62 80    	mov.w     0xc5a, w1
    a2fa:	60 66 20    	mov.w     #0x666, w0
    a2fc:	01 80 b9    	mul.ss    w0, w1, w0
    a2fe:	02 00 40    	add.w     w0, w2, w0
    a300:	83 80 48    	addc.w    w1, w3, w1
    a302:	c0 61 88    	mov.w     w0, 0xc38
    a304:	d1 61 88    	mov.w     w1, 0xc3a
    a306:	e2 61 80    	mov.w     0xc3c, w2
    a308:	f3 61 80    	mov.w     0xc3e, w3
    a30a:	e1 62 80    	mov.w     0xc5c, w1
    a30c:	60 66 20    	mov.w     #0x666, w0
    a30e:	01 80 b9    	mul.ss    w0, w1, w0
    a310:	02 00 40    	add.w     w0, w2, w0
    a312:	83 80 48    	addc.w    w1, w3, w1
    a314:	e0 61 88    	mov.w     w0, 0xc3c
    a316:	f1 61 88    	mov.w     w1, 0xc3e

0000a318 <.L4>:
    a318:	38 fe 07    	rcall     0x9f8a <_gps_nav_valid>
    a31a:	00 04 e0    	cp0.b     w0
    a31c:	32 00 32    	bra       Z, 0xa382 <.L10>
    a31e:	10 5e 80    	mov.w     0xbc2, w0
    a320:	62 00 60    	and.w     w0, #0x2, w0
    a322:	00 00 e0    	cp0.w     w0
    a324:	2e 00 32    	bra       Z, 0xa382 <.L10>
    a326:	c2 2b a9    	bclr.b    0xbc2, #0x1
    a328:	80 02 20    	mov.w     #0x28, w0
    a32a:	b0 b7 88    	mov.w     w0, 0x16f6
    a32c:	71 56 80    	mov.w     0xace, w1
    a32e:	70 62 80    	mov.w     0xc4e, w0
    a330:	00 80 50    	sub.w     w1, w0, w0
    a332:	c0 62 88    	mov.w     w0, 0xc58
    a334:	81 56 80    	mov.w     0xad0, w1
    a336:	90 62 80    	mov.w     0xc52, w0
    a338:	00 80 50    	sub.w     w1, w0, w0
    a33a:	d0 62 88    	mov.w     w0, 0xc5a
    a33c:	91 56 80    	mov.w     0xad2, w1
    a33e:	b0 62 80    	mov.w     0xc56, w0
    a340:	00 80 50    	sub.w     w1, w0, w0
    a342:	e0 62 88    	mov.w     w0, 0xc5c
    a344:	a1 56 80    	mov.w     0xad4, w1
    a346:	10 62 80    	mov.w     0xc42, w0
    a348:	00 80 50    	sub.w     w1, w0, w0
    a34a:	f0 62 88    	mov.w     w0, 0xc5e
    a34c:	b1 56 80    	mov.w     0xad6, w1
    a34e:	30 62 80    	mov.w     0xc46, w0
    a350:	00 80 50    	sub.w     w1, w0, w0
    a352:	00 63 88    	mov.w     w0, 0xc60
    a354:	c1 56 80    	mov.w     0xad8, w1
    a356:	50 62 80    	mov.w     0xc4a, w0
    a358:	00 80 50    	sub.w     w1, w0, w0
    a35a:	10 63 88    	mov.w     w0, 0xc62
    a35c:	12 00 37    	bra       0xa382 <.L10>

0000a35e <.L2>:
    a35e:	60 00 b8    	mul.uu    w0, #0x0, w0
    a360:	40 61 88    	mov.w     w0, 0xc28
    a362:	51 61 88    	mov.w     w1, 0xc2a
    a364:	60 00 b8    	mul.uu    w0, #0x0, w0
    a366:	60 61 88    	mov.w     w0, 0xc2c
    a368:	71 61 88    	mov.w     w1, 0xc2e
    a36a:	60 00 b8    	mul.uu    w0, #0x0, w0
    a36c:	80 61 88    	mov.w     w0, 0xc30
    a36e:	91 61 88    	mov.w     w1, 0xc32
    a370:	60 00 b8    	mul.uu    w0, #0x0, w0
    a372:	a0 61 88    	mov.w     w0, 0xc34
    a374:	b1 61 88    	mov.w     w1, 0xc36
    a376:	60 00 b8    	mul.uu    w0, #0x0, w0
    a378:	c0 61 88    	mov.w     w0, 0xc38
    a37a:	d1 61 88    	mov.w     w1, 0xc3a
    a37c:	60 00 b8    	mul.uu    w0, #0x0, w0
    a37e:	e0 61 88    	mov.w     w0, 0xc3c
    a380:	f1 61 88    	mov.w     w1, 0xc3e

0000a382 <.L10>:
    a382:	00 80 fa    	ulnk      
    a384:	00 00 06    	return    

0000a386 <_pitchCntrl>:
    a386:	00 00 fa    	lnk       #0x0
    a388:	c7 01 07    	rcall     0xa718 <_canStabilizeHover>
    a38a:	00 04 e0    	cp0.b     w0
    a38c:	06 00 32    	bra       Z, 0xa39a <.L2>
    a38e:	a0 d9 80    	mov.w     0x1b34, w0
    a390:	64 00 60    	and.w     w0, #0x4, w0
    a392:	00 00 e0    	cp0.w     w0
    a394:	02 00 32    	bra       Z, 0xa39a <.L2>
    a396:	89 00 07    	rcall     0xa4aa <_hoverPitchCntrl>
    a398:	01 00 37    	bra       0xa39c <.L6>

0000a39a <.L2>:
    a39a:	02 00 07    	rcall     0xa3a0 <_normalPitchCntrl>

0000a39c <.L6>:
    a39c:	00 80 fa    	ulnk      
    a39e:	00 00 06    	return    

0000a3a0 <_normalPitchCntrl>:
    a3a0:	0c 00 fa    	lnk       #0xc
    a3a2:	b6 01 07    	rcall     0xa710 <_canStabilizeInverted>
    a3a4:	00 04 e0    	cp0.b     w0
    a3a6:	03 00 32    	bra       Z, 0xa3ae <.L8>
    a3a8:	90 d9 80    	mov.w     0x1b32, w0
    a3aa:	e2 0f 50    	sub.w     w0, #0x2, [w15]
    a3ac:	07 00 32    	bra       Z, 0xa3bc <.L10>

0000a3ae <.L8>:
    a3ae:	50 59 80    	mov.w     0xb2a, w0
    a3b0:	20 07 98    	mov.w     w0, [w14+4]
    a3b2:	62 59 80    	mov.w     0xb2c, w2
    a3b4:	12 07 98    	mov.w     w2, [w14+2]
    a3b6:	70 59 80    	mov.w     0xb2e, w0
    a3b8:	00 0f 78    	mov.w     w0, [w14]
    a3ba:	0d 00 37    	bra       0xa3d6 <.L11>

0000a3bc <.L10>:
    a3bc:	50 59 80    	mov.w     0xb2a, w0
    a3be:	00 00 ea    	neg.w     w0, w0
    a3c0:	20 07 98    	mov.w     w0, [w14+4]
    a3c2:	60 59 80    	mov.w     0xb2c, w0
    a3c4:	00 00 ea    	neg.w     w0, w0
    a3c6:	10 07 98    	mov.w     w0, [w14+2]
    a3c8:	70 59 80    	mov.w     0xb2e, w0
    a3ca:	00 0f ea    	neg.w     w0, [w14]
    a3cc:	50 b6 80    	mov.w     0x16ca, w0
    a3ce:	80 00 ea    	neg.w     w0, w1
    a3d0:	10 71 2f    	mov.w     #0xf711, w0
    a3d2:	00 80 40    	add.w     w1, w0, w0
    a3d4:	50 b6 88    	mov.w     w0, 0x16ca

0000a3d6 <.L11>:
    a3d6:	00 00 eb    	clr.w     w0
    a3d8:	40 d9 88    	mov.w     w0, 0x1b28
    a3da:	71 d8 80    	mov.w     0x1b0e, w1
    a3dc:	00 10 20    	mov.w     #0x100, w0
    a3de:	00 80 60    	and.w     w1, w0, w0
    a3e0:	00 00 e0    	cp0.w     w0
    a3e2:	2a 00 32    	bra       Z, 0xa438 <.L12>
    a3e4:	21 43 80    	mov.w     0x864, w1
    a3e6:	2e 00 90    	mov.w     [w14+4], w0
    a3e8:	01 80 b9    	mul.ss    w0, w1, w0
    a3ea:	00 00 40    	add.w     w0, w0, w0
    a3ec:	81 80 48    	addc.w    w1, w1, w1
    a3ee:	40 07 98    	mov.w     w0, [w14+8]
    a3f0:	51 07 98    	mov.w     w1, [w14+10]
    a3f2:	c1 68 80    	mov.w     0xd18, w1
    a3f4:	d0 6c 80    	mov.w     0xd9a, w0
    a3f6:	80 80 50    	sub.w     w1, w0, w1
    a3f8:	5e 00 90    	mov.w     [w14+10], w0
    a3fa:	01 80 b9    	mul.ss    w0, w1, w0
    a3fc:	43 09 dd    	sl.w      w1, #0x3, w2
    a3fe:	cd 00 de    	lsr.w     w0, #0xd, w1
    a400:	81 00 71    	ior.w     w2, w1, w1
    a402:	43 00 dd    	sl.w      w0, #0x3, w0
    a404:	40 07 98    	mov.w     w0, [w14+8]
    a406:	51 07 98    	mov.w     w1, [w14+10]
    a408:	de 00 90    	mov.w     [w14+10], w1
    a40a:	40 d9 80    	mov.w     0x1b28, w0
    a40c:	00 80 40    	add.w     w1, w0, w0
    a40e:	40 d9 88    	mov.w     w0, 0x1b28
    a410:	31 43 80    	mov.w     0x866, w1
    a412:	2e 00 90    	mov.w     [w14+4], w0
    a414:	01 80 b9    	mul.ss    w0, w1, w0
    a416:	00 00 40    	add.w     w0, w0, w0
    a418:	81 80 48    	addc.w    w1, w1, w1
    a41a:	40 07 98    	mov.w     w0, [w14+8]
    a41c:	51 07 98    	mov.w     w1, [w14+10]
    a41e:	51 59 80    	mov.w     0xb2a, w1
    a420:	5e 00 90    	mov.w     [w14+10], w0
    a422:	01 80 b9    	mul.ss    w0, w1, w0
    a424:	4d 09 dd    	sl.w      w1, #0xd, w2
    a426:	43 00 de    	lsr.w     w0, #0x3, w0
    a428:	00 00 71    	ior.w     w2, w0, w0
    a42a:	c3 88 de    	asr.w     w1, #0x3, w1
    a42c:	40 07 98    	mov.w     w0, [w14+8]
    a42e:	51 07 98    	mov.w     w1, [w14+10]
    a430:	de 00 90    	mov.w     [w14+10], w1
    a432:	40 d9 80    	mov.w     0x1b28, w0
    a434:	00 80 40    	add.w     w1, w0, w0
    a436:	40 d9 88    	mov.w     w0, 0x1b28

0000a438 <.L12>:
    a438:	11 5a 80    	mov.w     0xb42, w1
    a43a:	1e 00 78    	mov.w     [w14], w0
    a43c:	01 81 b9    	mul.ss    w0, w1, w2
    a43e:	31 5a 80    	mov.w     0xb46, w1
    a440:	2e 00 90    	mov.w     [w14+4], w0
    a442:	01 80 b9    	mul.ss    w0, w1, w0
    a444:	00 00 51    	sub.w     w2, w0, w0
    a446:	81 80 59    	subb.w    w3, w1, w1
    a448:	00 00 40    	add.w     w0, w0, w0
    a44a:	81 80 48    	addc.w    w1, w1, w1
    a44c:	40 07 98    	mov.w     w0, [w14+8]
    a44e:	51 07 98    	mov.w     w1, [w14+10]
    a450:	5e 00 90    	mov.w     [w14+10], w0
    a452:	30 d9 88    	mov.w     w0, 0x1b26
    a454:	00 da 80    	mov.w     0x1b40, w0
    a456:	70 00 60    	and.w     w0, #0x10, w0
    a458:	00 00 e0    	cp0.w     w0
    a45a:	08 00 3a    	bra       NZ, 0xa46c <.L14>
    a45c:	70 d8 80    	mov.w     0x1b0e, w0
    a45e:	01 08 20    	mov.w     #0x80, w1
    a460:	01 00 60    	and.w     w0, w1, w0
    a462:	00 00 e0    	cp0.w     w0
    a464:	03 00 32    	bra       Z, 0xa46c <.L14>
    a466:	00 00 eb    	clr.w     w0
    a468:	30 07 98    	mov.w     w0, [w14+6]
    a46a:	02 00 37    	bra       0xa470 <.L17>

0000a46c <.L14>:
    a46c:	00 00 eb    	clr.w     w0
    a46e:	30 07 98    	mov.w     w0, [w14+6]

0000a470 <.L17>:
    a470:	70 d8 80    	mov.w     0x1b0e, w0
    a472:	01 10 20    	mov.w     #0x100, w1
    a474:	01 00 60    	and.w     w0, w1, w0
    a476:	00 00 e0    	cp0.w     w0
    a478:	0f 00 32    	bra       Z, 0xa498 <.L18>
    a47a:	e2 42 80    	mov.w     0x85c, w2
    a47c:	9e 00 90    	mov.w     [w14+2], w1
    a47e:	3e 00 90    	mov.w     [w14+6], w0
    a480:	80 80 50    	sub.w     w1, w0, w1
    a482:	50 b6 80    	mov.w     0x16ca, w0
    a484:	00 80 40    	add.w     w1, w0, w0
    a486:	02 81 b9    	mul.ss    w0, w2, w2
    a488:	31 d9 80    	mov.w     0x1b26, w1
    a48a:	f0 42 80    	mov.w     0x85e, w0
    a48c:	01 80 b9    	mul.ss    w0, w1, w0
    a48e:	02 00 40    	add.w     w0, w2, w0
    a490:	83 80 48    	addc.w    w1, w3, w1
    a492:	40 07 98    	mov.w     w0, [w14+8]
    a494:	51 07 98    	mov.w     w1, [w14+10]
    a496:	03 00 37    	bra       0xa49e <.L20>

0000a498 <.L18>:
    a498:	60 00 b8    	mul.uu    w0, #0x0, w0
    a49a:	40 07 98    	mov.w     w0, [w14+8]
    a49c:	51 07 98    	mov.w     w1, [w14+10]

0000a49e <.L20>:
    a49e:	5e 00 90    	mov.w     [w14+10], w0
    a4a0:	41 d9 80    	mov.w     0x1b28, w1
    a4a2:	01 00 40    	add.w     w0, w1, w0
    a4a4:	d0 d8 88    	mov.w     w0, 0x1b1a
    a4a6:	00 80 fa    	ulnk      
    a4a8:	00 00 06    	return    

0000a4aa <_hoverPitchCntrl>:
    a4aa:	12 00 fa    	lnk       #0x12
    a4ac:	70 d8 80    	mov.w     0x1b0e, w0
    a4ae:	01 10 20    	mov.w     #0x100, w1
    a4b0:	01 00 60    	and.w     w0, w1, w0
    a4b2:	00 00 e0    	cp0.w     w0
    a4b4:	4f 00 32    	bra       Z, 0xa554 <.L23>
    a4b6:	11 5a 80    	mov.w     0xb42, w1
    a4b8:	60 59 80    	mov.w     0xb2c, w0
    a4ba:	00 00 ea    	neg.w     w0, w0
    a4bc:	01 81 b9    	mul.ss    w0, w1, w2
    a4be:	21 5a 80    	mov.w     0xb44, w1
    a4c0:	50 59 80    	mov.w     0xb2a, w0
    a4c2:	01 80 b9    	mul.ss    w0, w1, w0
    a4c4:	00 00 51    	sub.w     w2, w0, w0
    a4c6:	81 80 59    	subb.w    w3, w1, w1
    a4c8:	00 00 40    	add.w     w0, w0, w0
    a4ca:	81 80 48    	addc.w    w1, w1, w1
    a4cc:	40 07 98    	mov.w     w0, [w14+8]
    a4ce:	51 07 98    	mov.w     w1, [w14+10]
    a4d0:	5e 00 90    	mov.w     [w14+10], w0
    a4d2:	30 d9 88    	mov.w     w0, 0x1b26
    a4d4:	00 da 80    	mov.w     0x1b40, w0
    a4d6:	70 00 60    	and.w     w0, #0x10, w0
    a4d8:	00 00 e0    	cp0.w     w0
    a4da:	05 00 32    	bra       Z, 0xa4e6 <.L25>
    a4dc:	a1 64 80    	mov.w     0xc94, w1
    a4de:	b0 68 80    	mov.w     0xd16, w0
    a4e0:	80 80 50    	sub.w     w1, w0, w1
    a4e2:	01 0f 98    	mov.w     w1, [w14+16]
    a4e4:	02 00 37    	bra       0xa4ea <.L27>

0000a4e6 <.L25>:
    a4e6:	00 00 eb    	clr.w     w0
    a4e8:	00 0f 98    	mov.w     w0, [w14+16]

0000a4ea <.L27>:
    a4ea:	8e 08 90    	mov.w     [w14+16], w1
    a4ec:	31 07 98    	mov.w     w1, [w14+6]
    a4ee:	3e 00 90    	mov.w     [w14+6], w0
    a4f0:	7b 00 b9    	mul.su    w0, #0x1b, w0
    a4f2:	20 07 98    	mov.w     w0, [w14+4]
    a4f4:	71 d8 80    	mov.w     0x1b0e, w1
    a4f6:	00 08 20    	mov.w     #0x80, w0
    a4f8:	00 80 60    	and.w     w1, w0, w0
    a4fa:	00 00 e0    	cp0.w     w0
    a4fc:	1a 00 32    	bra       Z, 0xa532 <.L28>
    a4fe:	00 55 80    	mov.w     0xaa0, w0
    a500:	f4 0f 50    	sub.w     w0, #0x14, [w15]
    a502:	0f 00 3c    	bra       GT, 0xa522 <.L30>
    a504:	00 55 80    	mov.w     0xaa0, w0
    a506:	61 02 b9    	mul.su    w0, #0x1, w4
    a508:	84 00 78    	mov.w     w4, w1
    a50a:	c0 1a 20    	mov.w     #0x1ac, w0
    a50c:	00 09 b8    	mul.uu    w1, w0, w2
    a50e:	62 07 98    	mov.w     w2, [w14+12]
    a510:	73 07 98    	mov.w     w3, [w14+14]
    a512:	60 20 b9    	mul.su    w4, #0x0, w0
    a514:	7e 01 90    	mov.w     [w14+14], w2
    a516:	00 01 41    	add.w     w2, w0, w2
    a518:	c0 1a 20    	mov.w     #0x1ac, w0
    a51a:	00 a8 b9    	mul.ss    w5, w0, w0
    a51c:	00 01 41    	add.w     w2, w0, w2
    a51e:	72 07 98    	mov.w     w2, [w14+14]
    a520:	04 00 37    	bra       0xa52a <.L32>

0000a522 <.L30>:
    a522:	20 18 22    	mov.w     #0x2182, w0
    a524:	01 00 20    	mov.w     #0x0, w1
    a526:	60 07 98    	mov.w     w0, [w14+12]
    a528:	71 07 98    	mov.w     w1, [w14+14]

0000a52a <.L32>:
    a52a:	6e 01 90    	mov.w     [w14+12], w2
    a52c:	fe 01 90    	mov.w     [w14+14], w3
    a52e:	02 8f be    	mov.d     w2, [w14]
    a530:	02 00 37    	bra       0xa536 <.L33>

0000a532 <.L28>:
    a532:	60 00 b8    	mul.uu    w0, #0x0, w0
    a534:	00 8f be    	mov.d     w0, [w14]

0000a536 <.L33>:
    a536:	02 43 80    	mov.w     0x860, w2
    a538:	71 59 80    	mov.w     0xb2e, w1
    a53a:	1e 00 78    	mov.w     [w14], w0
    a53c:	80 80 50    	sub.w     w1, w0, w1
    a53e:	2e 00 90    	mov.w     [w14+4], w0
    a540:	00 80 40    	add.w     w1, w0, w0
    a542:	02 81 b9    	mul.ss    w0, w2, w2
    a544:	31 d9 80    	mov.w     0x1b26, w1
    a546:	10 43 80    	mov.w     0x862, w0
    a548:	01 80 b9    	mul.ss    w0, w1, w0
    a54a:	02 00 40    	add.w     w0, w2, w0
    a54c:	83 80 48    	addc.w    w1, w3, w1
    a54e:	40 07 98    	mov.w     w0, [w14+8]
    a550:	51 07 98    	mov.w     w1, [w14+10]
    a552:	03 00 37    	bra       0xa55a <.L34>

0000a554 <.L23>:
    a554:	60 00 b8    	mul.uu    w0, #0x0, w0
    a556:	40 07 98    	mov.w     w0, [w14+8]
    a558:	51 07 98    	mov.w     w1, [w14+10]

0000a55a <.L34>:
    a55a:	5e 00 90    	mov.w     [w14+10], w0
    a55c:	d0 d8 88    	mov.w     w0, 0x1b1a
    a55e:	00 80 fa    	ulnk      
    a560:	00 00 06    	return    

0000a562 <_udb_init_clock>:
    a562:	00 00 fa    	lnk       #0x0
    a564:	00 00 eb    	clr.w     w0
    a566:	00 08 88    	mov.w     w0, 0x100
    a568:	90 d0 23    	mov.w     #0x3d09, w0
    a56a:	10 08 88    	mov.w     w0, 0x102
    a56c:	41 10 20    	mov.w     #0x104, w1
    a56e:	91 40 78    	mov.b     [w1], w1
    a570:	00 c3 b3    	mov.b     #0x30, w0
    a572:	00 c0 70    	ior.b     w1, w0, w0
    a574:	04 e1 b7    	mov.b     WREG, 0x104
    a576:	04 21 a9    	bclr.b    0x104, #0x1
    a578:	51 0a 20    	mov.w     #0xa5, w1
    a57a:	91 40 78    	mov.b     [w1], w1
    a57c:	f0 c8 b3    	mov.b     #0x8f, w0
    a57e:	00 c0 60    	and.b     w1, w0, w0
    a580:	01 c3 b3    	mov.b     #0x30, w1
    a582:	01 40 70    	ior.b     w0, w1, w0
    a584:	a5 e0 b7    	mov.b     WREG, 0xa5
    a586:	84 60 a9    	bclr.b    0x84, #0x3
    a588:	94 60 a8    	bset.b    0x94, #0x3
    a58a:	05 e1 a8    	bset.b    0x105, #0x7
    a58c:	00 00 eb    	clr.w     w0
    a58e:	c0 08 88    	mov.w     w0, 0x118
    a590:	00 80 eb    	setm.w    w0
    a592:	e0 08 88    	mov.w     w0, 0x11c
    a594:	01 12 20    	mov.w     #0x120, w1
    a596:	91 40 78    	mov.b     [w1], w1
    a598:	f0 cc b3    	mov.b     #0xcf, w0
    a59a:	00 c0 60    	and.b     w1, w0, w0
    a59c:	20 e1 b7    	mov.b     WREG, 0x120
    a59e:	20 21 a9    	bclr.b    0x120, #0x1
    a5a0:	97 80 a8    	bset.b    0x97, #0x4
    a5a2:	21 e1 a9    	bclr.b    0x121, #0x7
    a5a4:	00 40 eb    	clr.b     w0
    a5a6:	e8 f6 b7    	mov.b     WREG, 0x16e8
    a5a8:	00 00 eb    	clr.w     w0
    a5aa:	a0 08 88    	mov.w     w0, 0x114
    a5ac:	00 c4 29    	mov.w     #0x9c40, w0
    a5ae:	d0 08 88    	mov.w     w0, 0x11a
    a5b0:	e1 11 20    	mov.w     #0x11e, w1
    a5b2:	91 40 78    	mov.b     [w1], w1
    a5b4:	f0 cc b3    	mov.b     #0xcf, w0
    a5b6:	00 c0 60    	and.b     w1, w0, w0
    a5b8:	1e e1 b7    	mov.b     WREG, 0x11e
    a5ba:	1e 21 a9    	bclr.b    0x11e, #0x1
    a5bc:	1f e1 a8    	bset.b    0x11f, #0x7
    a5be:	11 0b 20    	mov.w     #0xb1, w1
    a5c0:	91 40 78    	mov.b     [w1], w1
    a5c2:	f0 c8 b3    	mov.b     #0x8f, w0
    a5c4:	00 c0 60    	and.b     w1, w0, w0
    a5c6:	01 c2 b3    	mov.b     #0x20, w1
    a5c8:	01 40 70    	ior.b     w0, w1, w0
    a5ca:	b1 e0 b7    	mov.b     WREG, 0xb1
    a5cc:	87 60 a9    	bclr.b    0x87, #0x3
    a5ce:	97 60 a8    	bset.b    0x97, #0x3
    a5d0:	00 80 fa    	ulnk      
    a5d2:	00 00 06    	return    

0000a5d4 <__T1Interrupt>:
    a5d4:	36 00 f8    	push      0x36
    a5d6:	80 9f be    	mov.d     w0, [w15++]
    a5d8:	82 9f be    	mov.d     w2, [w15++]
    a5da:	84 9f be    	mov.d     w4, [w15++]
    a5dc:	86 9f be    	mov.d     w6, [w15++]
    a5de:	00 00 fa    	lnk       #0x0
    a5e0:	84 60 a9    	bclr.b    0x84, #0x3
    a5e2:	21 e1 a8    	bset.b    0x121, #0x7
    a5e4:	c0 b7 80    	mov.w     0x16f8, w0
    a5e6:	00 00 e8    	inc.w     w0, w0
    a5e8:	c0 b7 88    	mov.w     w0, 0x16f8
    a5ea:	c0 b7 80    	mov.w     0x16f8, w0
    a5ec:	e4 0f 50    	sub.w     w0, #0x4, [w15]
    a5ee:	28 00 34    	bra       LE, 0xa640 <.L9>
    a5f0:	00 00 eb    	clr.w     w0
    a5f2:	c0 b7 88    	mov.w     w0, 0x16f8
    a5f4:	08 d7 bf    	mov.b     0x1708, WREG
    a5f6:	00 04 e0    	cp0.b     w0
    a5f8:	03 00 32    	bra       Z, 0xa600 <.L6>
    a5fa:	00 40 eb    	clr.b     w0
    a5fc:	08 f7 b7    	mov.b     WREG, 0x1708
    a5fe:	1f 00 37    	bra       0xa63e <.L8>

0000a600 <.L6>:
    a600:	ff 0f fc    	disi      #0xfff
    a602:	c0 08 80    	mov.w     0x118, w0
    a604:	61 01 b8    	mul.uu    w0, #0x1, w2
    a606:	e0 b7 80    	mov.w     0x16fc, w0
    a608:	f1 b7 80    	mov.w     0x16fe, w1
    a60a:	02 00 40    	add.w     w0, w2, w0
    a60c:	83 80 48    	addc.w    w1, w3, w1
    a60e:	e0 b7 88    	mov.w     w0, 0x16fc
    a610:	f1 b7 88    	mov.w     w1, 0x16fe
    a612:	e0 b7 80    	mov.w     0x16fc, w0
    a614:	f1 b7 80    	mov.w     0x16fe, w1
    a616:	02 c4 29    	mov.w     #0x9c40, w2
    a618:	03 00 20    	mov.w     #0x0, w3
    a61a:	9e b3 07    	rcall     0xd58 <___udivsi3>
    a61c:	d0 b7 88    	mov.w     w0, 0x16fa
    a61e:	e0 b7 80    	mov.w     0x16fc, w0
    a620:	f1 b7 80    	mov.w     0x16fe, w1
    a622:	00 b8 88    	mov.w     w0, 0x1700
    a624:	11 b8 88    	mov.w     w1, 0x1702
    a626:	60 00 b8    	mul.uu    w0, #0x0, w0
    a628:	e0 b7 88    	mov.w     w0, 0x16fc
    a62a:	f1 b7 88    	mov.w     w1, 0x16fe
    a62c:	00 00 fc    	disi      #0x0
    a62e:	21 e1 a9    	bclr.b    0x121, #0x7
    a630:	00 00 eb    	clr.w     w0
    a632:	c0 08 88    	mov.w     w0, 0x118
    a634:	21 e1 a8    	bset.b    0x121, #0x7
    a636:	10 c0 b3    	mov.b     #0x1, w0
    a638:	e8 f6 b7    	mov.b     WREG, 0x16e8
    a63a:	10 c0 b3    	mov.b     #0x1, w0
    a63c:	08 f7 b7    	mov.b     WREG, 0x1708

0000a63e <.L8>:
    a63e:	23 f0 07    	rcall     0x8686 <_udb_background_callback_periodic>

0000a640 <.L9>:
    a640:	00 80 fa    	ulnk      
    a642:	4f 03 be    	mov.d     [--w15], w6
    a644:	4f 02 be    	mov.d     [--w15], w4
    a646:	4f 01 be    	mov.d     [--w15], w2
    a648:	4f 00 be    	mov.d     [--w15], w0
    a64a:	36 00 f9    	pop       0x36
    a64c:	00 40 06    	retfie    

0000a64e <__T5Interrupt>:
    a64e:	80 9f be    	mov.d     w0, [w15++]
    a650:	82 9f be    	mov.d     w2, [w15++]
    a652:	00 00 fa    	lnk       #0x0
    a654:	87 80 a9    	bclr.b    0x87, #0x4
    a656:	e0 b7 80    	mov.w     0x16fc, w0
    a658:	f1 b7 80    	mov.w     0x16fe, w1
    a65a:	02 00 20    	mov.w     #0x0, w2
    a65c:	13 00 20    	mov.w     #0x1, w3
    a65e:	00 00 41    	add.w     w2, w0, w0
    a660:	81 80 49    	addc.w    w3, w1, w1
    a662:	e0 b7 88    	mov.w     w0, 0x16fc
    a664:	f1 b7 88    	mov.w     w1, 0x16fe
    a666:	00 80 fa    	ulnk      
    a668:	4f 01 be    	mov.d     [--w15], w2
    a66a:	4f 00 be    	mov.d     [--w15], w0
    a66c:	00 40 06    	retfie    

0000a66e <__T4Interrupt>:
    a66e:	36 00 f8    	push      0x36
    a670:	80 9f be    	mov.d     w0, [w15++]
    a672:	82 9f be    	mov.d     w2, [w15++]
    a674:	84 9f be    	mov.d     w4, [w15++]
    a676:	86 9f be    	mov.d     w6, [w15++]
    a678:	00 00 fa    	lnk       #0x0
    a67a:	21 e1 a8    	bset.b    0x121, #0x7
    a67c:	87 60 a9    	bclr.b    0x87, #0x3
    a67e:	30 b8 80    	mov.w     0x1706, w0
    a680:	00 00 e8    	inc.w     w0, w0
    a682:	30 b8 88    	mov.w     w0, 0x1706
    a684:	31 b8 80    	mov.w     0x1706, w1
    a686:	30 06 20    	mov.w     #0x63, w0
    a688:	80 8f 50    	sub.w     w1, w0, [w15]
    a68a:	02 00 34    	bra       LE, 0xa690 <.L13>
    a68c:	00 00 eb    	clr.w     w0
    a68e:	30 b8 88    	mov.w     w0, 0x1706

0000a690 <.L13>:
    a690:	21 b8 80    	mov.w     0x1704, w1
    a692:	00 71 22    	mov.w     #0x2710, w0
    a694:	80 8f 50    	sub.w     w1, w0, [w15]
    a696:	03 00 3a    	bra       NZ, 0xa69e <.L15>
    a698:	3f 03 07    	rcall     0xad18 <_udb_background_callback_triggered>
    a69a:	00 00 eb    	clr.w     w0
    a69c:	20 b8 88    	mov.w     w0, 0x1704

0000a69e <.L15>:
    a69e:	30 b8 80    	mov.w     0x1706, w0
    a6a0:	92 01 20    	mov.w     #0x19, w2
    a6a2:	11 00 09    	repeat    #0x11
    a6a4:	02 00 d8    	div.sw    w0, w2
    a6a6:	80 00 fd    	exch      w0, w1
    a6a8:	00 00 e0    	cp0.w     w0
    a6aa:	01 00 3a    	bra       NZ, 0xa6ae <.L19>
    a6ac:	9e f8 07    	rcall     0x97ea <_udb_servo_callback_prepare_outputs>

0000a6ae <.L19>:
    a6ae:	00 80 fa    	ulnk      
    a6b0:	4f 03 be    	mov.d     [--w15], w6
    a6b2:	4f 02 be    	mov.d     [--w15], w4
    a6b4:	4f 01 be    	mov.d     [--w15], w2
    a6b6:	4f 00 be    	mov.d     [--w15], w0
    a6b8:	36 00 f9    	pop       0x36
    a6ba:	00 40 06    	retfie    

0000a6bc <_udb_background_trigger>:
    a6bc:	00 00 fa    	lnk       #0x0
    a6be:	00 71 22    	mov.w     #0x2710, w0
    a6c0:	20 b8 88    	mov.w     w0, 0x1704
    a6c2:	00 80 fa    	ulnk      
    a6c4:	00 00 06    	return    

0000a6c6 <_udb_cpu_load>:
    a6c6:	00 00 fa    	lnk       #0x0
    a6c8:	d0 b7 80    	mov.w     0x16fa, w0
    a6ca:	00 80 fb    	ze        w0, w0
    a6cc:	a2 00 20    	mov.w     #0xa, w2
    a6ce:	11 00 09    	repeat    #0x11
    a6d0:	02 80 d8    	div.uw    w0, w2
    a6d2:	00 80 fb    	ze        w0, w0
    a6d4:	00 80 fa    	ulnk      
    a6d6:	00 00 06    	return    

0000a6d8 <_init_behavior>:



void init_behavior( void )
{
    a6d8:	00 00 fa    	lnk       #0x0
	current_orientation = F_NORMAL ;
    a6da:	00 00 eb    	clr.w     w0
    a6dc:	90 d9 88    	mov.w     w0, 0x1b32
	desired_behavior.W = current_orientation ;
    a6de:	90 d9 80    	mov.w     0x1b32, w0
    a6e0:	a0 d9 88    	mov.w     w0, 0x1b34
	
	setBehavior( current_orientation ) ;
    a6e2:	90 d9 80    	mov.w     0x1b32, w0
    a6e4:	02 00 07    	rcall     0xa6ea <_setBehavior>
	
	if ( TRIGGER_TYPE != TRIGGER_TYPE_NONE )
	{
		triggerActionSetValue( TRIGGER_ACTION != TRIGGER_PULSE_HIGH ) ;
	}
	
	return ;
}
    a6e6:	00 80 fa    	ulnk      
    a6e8:	00 00 06    	return    

0000a6ea <_setBehavior>:


void setBehavior(int newBehavior)
{
    a6ea:	02 00 fa    	lnk       #0x2
    a6ec:	00 0f 78    	mov.w     w0, [w14]
	desired_behavior.W = newBehavior ;
    a6ee:	1e 00 78    	mov.w     [w14], w0
    a6f0:	a0 d9 88    	mov.w     w0, 0x1b34
	
	if ( desired_behavior.W & F_TRIGGER )
    a6f2:	a0 d9 80    	mov.w     0x1b34, w0
    a6f4:	45 00 de    	lsr.w     w0, #0x5, w0
    a6f6:	61 00 60    	and.w     w0, #0x1, w0
    a6f8:	00 04 e0    	cp0.b     w0
    a6fa:	06 00 32    	bra       Z, 0xa708 <.L4>
	{
		if ( cyclesUntilStartTriggerAction == 0 )
    a6fc:	70 b6 80    	mov.w     0x16ce, w0
    a6fe:	00 00 e0    	cp0.w     w0
    a700:	05 00 3a    	bra       NZ, 0xa70c <.L9>
		{
			cyclesUntilStartTriggerAction = 1 ;
    a702:	10 00 20    	mov.w     #0x1, w0
    a704:	70 b6 88    	mov.w     w0, 0x16ce
    a706:	02 00 37    	bra       0xa70c <.L9>

0000a708 <.L4>:
		}
	}
	else
	{
		cyclesUntilStartTriggerAction = 0 ;
    a708:	00 00 eb    	clr.w     w0
    a70a:	70 b6 88    	mov.w     w0, 0x16ce

0000a70c <.L9>:
	}
	
	return ;
}
    a70c:	00 80 fa    	ulnk      
    a70e:	00 00 06    	return    

0000a710 <_canStabilizeInverted>:


boolean canStabilizeInverted(void)
{
    a710:	00 00 fa    	lnk       #0x0
	return ( (INVERTED_FLIGHT_STABILIZED_MODE && (flags._.pitch_feedback && !flags._.GPS_steering)) ||
    a712:	00 00 eb    	clr.w     w0
			(INVERTED_FLIGHT_WAYPOINT_MODE && (flags._.pitch_feedback && flags._.GPS_steering)) );
}
    a714:	00 80 fa    	ulnk      
    a716:	00 00 06    	return    

0000a718 <_canStabilizeHover>:


boolean canStabilizeHover(void)
{
    a718:	00 00 fa    	lnk       #0x0
	return ( (HOVERING_STABILIZED_MODE && (flags._.pitch_feedback && !flags._.GPS_steering)) ||
    a71a:	00 00 eb    	clr.w     w0
			(HOVERING_WAYPOINT_MODE && (flags._.pitch_feedback && flags._.GPS_steering)) );
}
    a71c:	00 80 fa    	ulnk      
    a71e:	00 00 06    	return    

0000a720 <_updateBehavior>:


void updateBehavior(void)
{
    a720:	02 00 fa    	lnk       #0x2
	if ( current_orientation == F_INVERTED )
    a722:	90 d9 80    	mov.w     0x1b32, w0
    a724:	e2 0f 50    	sub.w     w0, #0x2, [w15]
    a726:	17 00 3a    	bra       NZ, 0xa756 <.L15>
	{
		if ( canStabilizeHover() && rmat[7] < -14000 )
    a728:	f7 ff 07    	rcall     0xa718 <_canStabilizeHover>
    a72a:	00 04 e0    	cp0.b     w0
    a72c:	07 00 32    	bra       Z, 0xa73c <.L17>
    a72e:	61 59 80    	mov.w     0xb2c, w1
    a730:	00 95 2c    	mov.w     #0xc950, w0
    a732:	80 8f 50    	sub.w     w1, w0, [w15]
    a734:	03 00 3d    	bra       GE, 0xa73c <.L17>
		{
			current_orientation = F_HOVER ;
    a736:	40 00 20    	mov.w     #0x4, w0
    a738:	90 d9 88    	mov.w     w0, 0x1b32
    a73a:	3d 00 37    	bra       0xa7b6 <.L24>

0000a73c <.L17>:
		}
		else if ( canStabilizeInverted() && rmat[8] < 6000 )
    a73c:	e9 ff 07    	rcall     0xa710 <_canStabilizeInverted>
    a73e:	00 04 e0    	cp0.b     w0
    a740:	07 00 32    	bra       Z, 0xa750 <.L21>
    a742:	71 59 80    	mov.w     0xb2e, w1
    a744:	f0 76 21    	mov.w     #0x176f, w0
    a746:	80 8f 50    	sub.w     w1, w0, [w15]
    a748:	03 00 3c    	bra       GT, 0xa750 <.L21>
		{
			current_orientation = F_INVERTED ;
    a74a:	20 00 20    	mov.w     #0x2, w0
    a74c:	90 d9 88    	mov.w     w0, 0x1b32
    a74e:	33 00 37    	bra       0xa7b6 <.L24>

0000a750 <.L21>:
		}
		else
		{
			current_orientation = F_NORMAL ;
    a750:	00 00 eb    	clr.w     w0
    a752:	90 d9 88    	mov.w     w0, 0x1b32
    a754:	30 00 37    	bra       0xa7b6 <.L24>

0000a756 <.L15>:
		}
	}
	else if ( current_orientation == F_HOVER )
    a756:	90 d9 80    	mov.w     0x1b32, w0
    a758:	e4 0f 50    	sub.w     w0, #0x4, [w15]
    a75a:	17 00 3a    	bra       NZ, 0xa78a <.L25>
	{
		if ( canStabilizeHover() && rmat[7] < -8000 )
    a75c:	dd ff 07    	rcall     0xa718 <_canStabilizeHover>
    a75e:	00 04 e0    	cp0.b     w0
    a760:	07 00 32    	bra       Z, 0xa770 <.L27>
    a762:	61 59 80    	mov.w     0xb2c, w1
    a764:	00 0c 2e    	mov.w     #0xe0c0, w0
    a766:	80 8f 50    	sub.w     w1, w0, [w15]
    a768:	03 00 3d    	bra       GE, 0xa770 <.L27>
		{
			current_orientation = F_HOVER ;
    a76a:	40 00 20    	mov.w     #0x4, w0
    a76c:	90 d9 88    	mov.w     w0, 0x1b32
    a76e:	23 00 37    	bra       0xa7b6 <.L24>

0000a770 <.L27>:
		}
		else if ( canStabilizeInverted() && rmat[8] < -6000 )
    a770:	cf ff 07    	rcall     0xa710 <_canStabilizeInverted>
    a772:	00 04 e0    	cp0.b     w0
    a774:	07 00 32    	bra       Z, 0xa784 <.L31>
    a776:	71 59 80    	mov.w     0xb2e, w1
    a778:	00 89 2e    	mov.w     #0xe890, w0
    a77a:	80 8f 50    	sub.w     w1, w0, [w15]
    a77c:	03 00 3d    	bra       GE, 0xa784 <.L31>
		{
			current_orientation = F_INVERTED ;
    a77e:	20 00 20    	mov.w     #0x2, w0
    a780:	90 d9 88    	mov.w     w0, 0x1b32
    a782:	19 00 37    	bra       0xa7b6 <.L24>

0000a784 <.L31>:
		}
		else
		{
			current_orientation = F_NORMAL ;
    a784:	00 00 eb    	clr.w     w0
    a786:	90 d9 88    	mov.w     w0, 0x1b32
    a788:	16 00 37    	bra       0xa7b6 <.L24>

0000a78a <.L25>:
		}
	}
	else
	{
		if ( canStabilizeInverted() && rmat[8] < -6000 )
    a78a:	c2 ff 07    	rcall     0xa710 <_canStabilizeInverted>
    a78c:	00 04 e0    	cp0.b     w0
    a78e:	07 00 32    	bra       Z, 0xa79e <.L34>
    a790:	71 59 80    	mov.w     0xb2e, w1
    a792:	00 89 2e    	mov.w     #0xe890, w0
    a794:	80 8f 50    	sub.w     w1, w0, [w15]
    a796:	03 00 3d    	bra       GE, 0xa79e <.L34>
		{
			current_orientation = F_INVERTED ;
    a798:	20 00 20    	mov.w     #0x2, w0
    a79a:	90 d9 88    	mov.w     w0, 0x1b32
    a79c:	0c 00 37    	bra       0xa7b6 <.L24>

0000a79e <.L34>:
		}
		else if ( canStabilizeHover() && rmat[7] < -14000 )
    a79e:	bc ff 07    	rcall     0xa718 <_canStabilizeHover>
    a7a0:	00 04 e0    	cp0.b     w0
    a7a2:	07 00 32    	bra       Z, 0xa7b2 <.L37>
    a7a4:	61 59 80    	mov.w     0xb2c, w1
    a7a6:	00 95 2c    	mov.w     #0xc950, w0
    a7a8:	80 8f 50    	sub.w     w1, w0, [w15]
    a7aa:	03 00 3d    	bra       GE, 0xa7b2 <.L37>
		{
			current_orientation = F_HOVER ;
    a7ac:	40 00 20    	mov.w     #0x4, w0
    a7ae:	90 d9 88    	mov.w     w0, 0x1b32
    a7b0:	02 00 37    	bra       0xa7b6 <.L24>

0000a7b2 <.L37>:
		}
		else
		{
			current_orientation = F_NORMAL ;
    a7b2:	00 00 eb    	clr.w     w0
    a7b4:	90 d9 88    	mov.w     w0, 0x1b32

0000a7b6 <.L24>:
		}
	}
	
	if (flags._.pitch_feedback && !flags._.GPS_steering)
    a7b6:	70 d8 80    	mov.w     0x1b0e, w0
    a7b8:	01 10 20    	mov.w     #0x100, w1
    a7ba:	01 00 60    	and.w     w0, w1, w0
    a7bc:	00 00 e0    	cp0.w     w0
    a7be:	07 00 32    	bra       Z, 0xa7ce <.L40>
    a7c0:	70 d8 80    	mov.w     0x1b0e, w0
    a7c2:	01 08 20    	mov.w     #0x80, w1
    a7c4:	01 00 60    	and.w     w0, w1, w0
    a7c6:	00 00 e0    	cp0.w     w0
    a7c8:	02 00 3a    	bra       NZ, 0xa7ce <.L40>
	{
		desired_behavior.W = current_orientation ;
    a7ca:	90 d9 80    	mov.w     0x1b32, w0
    a7cc:	a0 d9 88    	mov.w     w0, 0x1b34

0000a7ce <.L40>:
	}
	
	dcm_enable_yaw_drift_correction(current_orientation != F_HOVER) ;
    a7ce:	90 d9 80    	mov.w     0x1b32, w0
    a7d0:	80 40 eb    	clr.b     w1
    a7d2:	01 4f 78    	mov.b     w1, [w14]
    a7d4:	e4 0f 50    	sub.w     w0, #0x4, [w15]
    a7d6:	02 00 32    	bra       Z, 0xa7dc <.L43>
    a7d8:	10 c0 b3    	mov.b     #0x1, w0
    a7da:	00 4f 78    	mov.b     w0, [w14]

0000a7dc <.L43>:
    a7dc:	1e 40 78    	mov.b     [w14], w0
    a7de:	33 00 07    	rcall     0xa846 <_dcm_enable_yaw_drift_correction>
	
	return ;
}
    a7e0:	00 80 fa    	ulnk      
    a7e2:	00 00 06    	return    

0000a7e4 <_updateTriggerAction>:


// This function is called every 25ms
void updateTriggerAction( void )
{
    a7e4:	00 00 fa    	lnk       #0x0
	if ( cyclesUntilStopTriggerAction == 1 )
    a7e6:	80 b6 80    	mov.w     0x16d0, w0
    a7e8:	e1 0f 50    	sub.w     w0, #0x1, [w15]
    a7ea:	05 00 3a    	bra       NZ, 0xa7f6 <.L46>
	{
		triggerActionSetValue( TRIGGER_ACTION != TRIGGER_PULSE_HIGH ) ;
    a7ec:	00 40 eb    	clr.b     w0
    a7ee:	21 00 07    	rcall     0xa832 <_triggerActionSetValue>
		cyclesUntilStopTriggerAction = 0 ;
    a7f0:	00 00 eb    	clr.w     w0
    a7f2:	80 b6 88    	mov.w     w0, 0x16d0
    a7f4:	06 00 37    	bra       0xa802 <.L48>

0000a7f6 <.L46>:
	}
	else if ( cyclesUntilStopTriggerAction > 0 )
    a7f6:	80 b6 80    	mov.w     0x16d0, w0
    a7f8:	00 00 e0    	cp0.w     w0
    a7fa:	03 00 34    	bra       LE, 0xa802 <.L48>
	{
		cyclesUntilStopTriggerAction-- ;
    a7fc:	80 b6 80    	mov.w     0x16d0, w0
    a7fe:	00 00 e9    	dec.w     w0, w0
    a800:	80 b6 88    	mov.w     w0, 0x16d0

0000a802 <.L48>:
	}
	
	if ( cyclesUntilStartTriggerAction == 1 && ( desired_behavior.W & F_TRIGGER ) )
    a802:	70 b6 80    	mov.w     0x16ce, w0
    a804:	e1 0f 50    	sub.w     w0, #0x1, [w15]
    a806:	0d 00 3a    	bra       NZ, 0xa822 <.L50>
    a808:	a0 d9 80    	mov.w     0x1b34, w0
    a80a:	45 00 de    	lsr.w     w0, #0x5, w0
    a80c:	61 00 60    	and.w     w0, #0x1, w0
    a80e:	00 04 a2    	btg.b     w0, #0x0
    a810:	00 04 e0    	cp0.b     w0
    a812:	07 00 3a    	bra       NZ, 0xa822 <.L50>
	{
		if ( TRIGGER_ACTION == TRIGGER_PULSE_HIGH || TRIGGER_ACTION == TRIGGER_PULSE_LOW )
		{
			triggerActionSetValue( TRIGGER_ACTION == TRIGGER_PULSE_HIGH ) ;
    a814:	10 c0 b3    	mov.b     #0x1, w0
    a816:	0d 00 07    	rcall     0xa832 <_triggerActionSetValue>
			
			cyclesUntilStopTriggerAction = TRIGGER_PULSE_DURATION / (long)25 ;
    a818:	a0 00 20    	mov.w     #0xa, w0
    a81a:	80 b6 88    	mov.w     w0, 0x16d0
			cyclesUntilStartTriggerAction = 0 ;
    a81c:	00 00 eb    	clr.w     w0
    a81e:	70 b6 88    	mov.w     w0, 0x16ce
    a820:	06 00 37    	bra       0xa82e <.L55>

0000a822 <.L50>:
		}
		else if ( TRIGGER_ACTION == TRIGGER_TOGGLE )
		{
			triggerActionSetValue( !currentTriggerActionValue ) ;
			
			cyclesUntilStopTriggerAction = 0 ;
			cyclesUntilStartTriggerAction = 0 ;
		}
		else if ( TRIGGER_ACTION == TRIGGER_REPEATING )
		{
			triggerActionSetValue( TRIGGER_ACTION == TRIGGER_PULSE_HIGH ) ;
			
			cyclesUntilStopTriggerAction = TRIGGER_PULSE_DURATION / (long)25 ;
			cyclesUntilStartTriggerAction = TRIGGER_REPEAT_PERIOD / (long)25 ;
		}
	}
	else if ( cyclesUntilStartTriggerAction > 0 )
    a822:	70 b6 80    	mov.w     0x16ce, w0
    a824:	00 00 e0    	cp0.w     w0
    a826:	03 00 34    	bra       LE, 0xa82e <.L55>
	{
		cyclesUntilStartTriggerAction-- ;
    a828:	70 b6 80    	mov.w     0x16ce, w0
    a82a:	00 00 e9    	dec.w     w0, w0
    a82c:	70 b6 88    	mov.w     w0, 0x16ce

0000a82e <.L55>:
	}
	
	return ;
}
    a82e:	00 80 fa    	ulnk      
    a830:	00 00 06    	return    

0000a832 <_triggerActionSetValue>:


void triggerActionSetValue( boolean newValue )
{
    a832:	02 00 fa    	lnk       #0x2
    a834:	00 4f 78    	mov.b     w0, [w14]
	if ( TRIGGER_TYPE == TRIGGER_TYPE_SERVO )
	{
		udb_pwOut[TRIGGER_OUTPUT_CHANNEL] = (newValue) ? TRIGGER_SERVO_HIGH : TRIGGER_SERVO_LOW ;
	}
	else if ( TRIGGER_TYPE == TRIGGER_TYPE_DIGITAL )
	{
		if ( NUM_OUTPUTS < 6 )
		{
			udb_set_action_state(newValue) ;
		}
	}
	
	currentTriggerActionValue = newValue ;
    a836:	1e 40 78    	mov.b     [w14], w0
    a838:	d2 f6 b7    	mov.b     WREG, 0x16d2
	
	return ;
}
    a83a:	00 80 fa    	ulnk      
    a83c:	00 00 06    	return    

0000a83e <_udb_magnetometer_callback_data_available>:
    a83e:	00 00 fa    	lnk       #0x0
    a840:	c2 6b a8    	bset.b    0xbc2, #0x3
    a842:	00 80 fa    	ulnk      
    a844:	00 00 06    	return    

0000a846 <_dcm_enable_yaw_drift_correction>:
    a846:	02 00 fa    	lnk       #0x2
    a848:	00 4f 78    	mov.b     w0, [w14]
    a84a:	00 40 eb    	clr.b     w0
    a84c:	10 47 98    	mov.b     w0, [w14+1]
    a84e:	1e 04 e0    	cp0.b     [w14]
    a850:	02 00 3a    	bra       NZ, 0xa856 <.L4>
    a852:	11 c0 b3    	mov.b     #0x1, w1
    a854:	11 47 98    	mov.b     w1, [w14+1]

0000a856 <.L4>:
    a856:	9e 40 90    	mov.b     [w14+1], w1
    a858:	01 80 fb    	ze        w1, w0
    a85a:	61 00 60    	and.w     w0, #0x1, w0
    a85c:	45 01 dd    	sl.w      w0, #0x5, w2
    a85e:	11 5e 80    	mov.w     0xbc2, w1
    a860:	f0 fd 2f    	mov.w     #0xffdf, w0
    a862:	00 80 60    	and.w     w1, w0, w0
    a864:	02 00 70    	ior.w     w0, w2, w0
    a866:	10 5e 88    	mov.w     w0, 0xbc2
    a868:	00 80 fa    	ulnk      
    a86a:	00 00 06    	return    

0000a86c <_estYawDrift>:
    a86c:	08 00 fa    	lnk       #0x8
    a86e:	88 1f 78    	mov.w     w8, [w15++]
    a870:	8c fb 07    	rcall     0x9f8a <_gps_nav_valid>
    a872:	00 04 e0    	cp0.b     w0
    a874:	46 00 32    	bra       Z, 0xa902 <.L7>
    a876:	56 fc 07    	rcall     0xa124 <_commit_gps_data>
    a878:	80 57 80    	mov.w     0xaf0, w0
    a87a:	80 00 78    	mov.w     w0, w1
    a87c:	20 1d 20    	mov.w     #0x1d2, w0
    a87e:	01 01 b8    	mul.uu    w0, w1, w2
    a880:	00 00 28    	mov.w     #0x8000, w0
    a882:	01 00 20    	mov.w     #0x0, w1
    a884:	02 00 40    	add.w     w0, w2, w0
    a886:	83 80 48    	addc.w    w1, w3, w1
    a888:	00 8f be    	mov.d     w0, [w14]
    a88a:	2e 40 90    	mov.b     [w14+2], w0
    a88c:	80 40 78    	mov.b     w0, w1
    a88e:	00 c4 b3    	mov.b     #0x40, w0
    a890:	01 40 50    	sub.b     w0, w1, w0
    a892:	c2 ea b7    	mov.b     WREG, 0xac2
    a894:	70 57 80    	mov.w     0xaee, w0
    a896:	20 56 88    	mov.w     w0, 0xac4
    a898:	28 56 80    	mov.w     0xac4, w8
    a89a:	c2 ca bf    	mov.b     0xac2, WREG
    a89c:	9a f6 07    	rcall     0x95d2 <_cosine>
    a89e:	08 80 b9    	mul.ss    w0, w8, w0
    a8a0:	42 09 dd    	sl.w      w1, #0x2, w2
    a8a2:	ce 01 de    	lsr.w     w0, #0xe, w3
    a8a4:	83 01 71    	ior.w     w2, w3, w3
    a8a6:	42 01 dd    	sl.w      w0, #0x2, w2
    a8a8:	00 00 28    	mov.w     #0x8000, w0
    a8aa:	01 00 20    	mov.w     #0x0, w1
    a8ac:	02 00 40    	add.w     w0, w2, w0
    a8ae:	83 80 48    	addc.w    w1, w3, w1
    a8b0:	20 07 98    	mov.w     w0, [w14+4]
    a8b2:	31 07 98    	mov.w     w1, [w14+6]
    a8b4:	3e 00 90    	mov.w     [w14+6], w0
    a8b6:	a0 56 88    	mov.w     w0, 0xad4
    a8b8:	28 56 80    	mov.w     0xac4, w8
    a8ba:	c2 ca bf    	mov.b     0xac2, WREG
    a8bc:	06 f6 07    	rcall     0x94ca <_sine>
    a8be:	08 80 b9    	mul.ss    w0, w8, w0
    a8c0:	42 09 dd    	sl.w      w1, #0x2, w2
    a8c2:	ce 01 de    	lsr.w     w0, #0xe, w3
    a8c4:	83 01 71    	ior.w     w2, w3, w3
    a8c6:	42 01 dd    	sl.w      w0, #0x2, w2
    a8c8:	00 00 28    	mov.w     #0x8000, w0
    a8ca:	01 00 20    	mov.w     #0x0, w1
    a8cc:	02 00 40    	add.w     w0, w2, w0
    a8ce:	83 80 48    	addc.w    w1, w3, w1
    a8d0:	20 07 98    	mov.w     w0, [w14+4]
    a8d2:	31 07 98    	mov.w     w1, [w14+6]
    a8d4:	3e 00 90    	mov.w     [w14+6], w0
    a8d6:	b0 56 88    	mov.w     w0, 0xad6
    a8d8:	90 57 80    	mov.w     0xaf2, w0
    a8da:	c0 56 88    	mov.w     w0, 0xad8
    a8dc:	b1 56 80    	mov.w     0xad6, w1
    a8de:	d0 55 80    	mov.w     0xaba, w0
    a8e0:	00 80 50    	sub.w     w1, w0, w0
    a8e2:	e0 56 88    	mov.w     w0, 0xadc
    a8e4:	a1 56 80    	mov.w     0xad4, w1
    a8e6:	c0 55 80    	mov.w     0xab8, w0
    a8e8:	00 80 50    	sub.w     w1, w0, w0
    a8ea:	d0 56 88    	mov.w     w0, 0xada
    a8ec:	a0 ad 20    	mov.w     #0xada, w0
    a8ee:	ad f6 07    	rcall     0x964a <_rect_to_polar>
    a8f0:	cc ea b7    	mov.b     WREG, 0xacc
    a8f2:	d0 56 80    	mov.w     0xada, w0
    a8f4:	50 56 88    	mov.w     w0, 0xaca
    a8f6:	21 56 80    	mov.w     0xac4, w1
    a8f8:	40 56 80    	mov.w     0xac8, w0
    a8fa:	00 80 50    	sub.w     w1, w0, w0
    a8fc:	30 56 88    	mov.w     w0, 0xac6
    a8fe:	20 56 80    	mov.w     0xac4, w0
    a900:	40 56 88    	mov.w     w0, 0xac8

0000a902 <.L7>:
    a902:	01 59 80    	mov.w     0xb20, w1
    a904:	f0 55 80    	mov.w     0xabe, w0
    a906:	80 80 50    	sub.w     w1, w0, w1
    a908:	50 55 25    	mov.w     #0x5555, w0
    a90a:	01 80 b9    	mul.ss    w0, w1, w0
    a90c:	00 8f be    	mov.d     w0, [w14]
    a90e:	9e 00 90    	mov.w     [w14+2], w1
    a910:	f0 55 80    	mov.w     0xabe, w0
    a912:	00 80 40    	add.w     w1, w0, w0
    a914:	f0 55 88    	mov.w     w0, 0xabe
    a916:	31 59 80    	mov.w     0xb26, w1
    a918:	00 56 80    	mov.w     0xac0, w0
    a91a:	80 80 50    	sub.w     w1, w0, w1
    a91c:	50 55 25    	mov.w     #0x5555, w0
    a91e:	01 80 b9    	mul.ss    w0, w1, w0
    a920:	00 8f be    	mov.d     w0, [w14]
    a922:	9e 00 90    	mov.w     [w14+2], w1
    a924:	00 56 80    	mov.w     0xac0, w0
    a926:	00 80 40    	add.w     w1, w0, w0
    a928:	00 56 88    	mov.w     w0, 0xac0
    a92a:	f0 55 80    	mov.w     0xabe, w0
    a92c:	50 5c 88    	mov.w     w0, 0xb8a
    a92e:	00 56 80    	mov.w     0xac0, w0
    a930:	60 5c 88    	mov.w     w0, 0xb8c
    a932:	00 00 eb    	clr.w     w0
    a934:	70 5c 88    	mov.w     w0, 0xb8e
    a936:	29 fb 07    	rcall     0x9f8a <_gps_nav_valid>
    a938:	00 04 e0    	cp0.b     w0
    a93a:	1f 00 32    	bra       Z, 0xa97a <.L9>
    a93c:	10 5e 80    	mov.w     0xbc2, w0
    a93e:	01 02 20    	mov.w     #0x20, w1
    a940:	01 00 60    	and.w     w0, w1, w0
    a942:	00 00 e0    	cp0.w     w0
    a944:	1a 00 3a    	bra       NZ, 0xa97a <.L9>
    a946:	c0 55 80    	mov.w     0xab8, w0
    a948:	00 00 e0    	cp0.w     w0
    a94a:	03 00 3a    	bra       NZ, 0xa952 <.L12>
    a94c:	d0 55 80    	mov.w     0xaba, w0
    a94e:	00 00 e0    	cp0.w     w0
    a950:	04 00 32    	bra       Z, 0xa95a <.L14>

0000a952 <.L12>:
    a952:	51 56 80    	mov.w     0xaca, w1
    a954:	70 0c 20    	mov.w     #0xc7, w0
    a956:	80 8f 50    	sub.w     w1, w0, [w15]
    a958:	08 00 3c    	bra       GT, 0xa96a <.L15>

0000a95a <.L14>:
    a95a:	c2 ca bf    	mov.b     0xac2, WREG
    a95c:	3a f6 07    	rcall     0x95d2 <_cosine>
    a95e:	00 00 ea    	neg.w     w0, w0
    a960:	20 5c 88    	mov.w     w0, 0xb84
    a962:	c2 ca bf    	mov.b     0xac2, WREG
    a964:	b2 f5 07    	rcall     0x94ca <_sine>
    a966:	30 5c 88    	mov.w     w0, 0xb86
    a968:	0c 00 37    	bra       0xa982 <.L17>

0000a96a <.L15>:
    a96a:	cc ca bf    	mov.b     0xacc, WREG
    a96c:	32 f6 07    	rcall     0x95d2 <_cosine>
    a96e:	00 00 ea    	neg.w     w0, w0
    a970:	20 5c 88    	mov.w     w0, 0xb84
    a972:	cc ca bf    	mov.b     0xacc, WREG
    a974:	aa f5 07    	rcall     0x94ca <_sine>
    a976:	30 5c 88    	mov.w     w0, 0xb86
    a978:	04 00 37    	bra       0xa982 <.L17>

0000a97a <.L9>:
    a97a:	50 5c 80    	mov.w     0xb8a, w0
    a97c:	20 5c 88    	mov.w     w0, 0xb84
    a97e:	60 5c 80    	mov.w     0xb8c, w0
    a980:	30 5c 88    	mov.w     w0, 0xb86

0000a982 <.L17>:
    a982:	00 00 eb    	clr.w     w0
    a984:	40 5c 88    	mov.w     w0, 0xb88
    a986:	c2 8b a8    	bset.b    0xbc2, #0x4
    a988:	c2 2b a8    	bset.b    0xbc2, #0x1
    a98a:	4f 04 78    	mov.w     [--w15], w8
    a98c:	00 80 fa    	ulnk      
    a98e:	00 00 06    	return    

0000a990 <_init_servoPrepare>:
    a990:	0c 00 fa    	lnk       #0xc
    a992:	00 19 20    	mov.w     #0x190, w0
    a994:	20 d9 88    	mov.w     w0, 0x1b24
    a996:	80 3e 20    	mov.w     #0x3e8, w0
    a998:	10 d9 88    	mov.w     w0, 0x1b22
    a99a:	10 00 20    	mov.w     #0x1, w0
    a99c:	00 0f 78    	mov.w     w0, [w14]
    a99e:	20 00 37    	bra       0xa9e0 <.L2>

0000a9a0 <.L3>:
    a9a0:	1e 00 78    	mov.w     [w14], w0
    a9a2:	50 07 98    	mov.w     w0, [w14+10]
    a9a4:	9e 00 78    	mov.w     [w14], w1
    a9a6:	41 07 98    	mov.w     w1, [w14+8]
    a9a8:	12 00 20    	mov.w     #0x1, w2
    a9aa:	9e 0f 11    	subr.w    w2, [w14], [w15]
    a9ac:	03 00 3a    	bra       NZ, 0xa9b4 <.L4>
    a9ae:	80 01 eb    	clr.w     w3
    a9b0:	33 07 98    	mov.w     w3, [w14+6]
    a9b2:	02 00 37    	bra       0xa9b8 <.L6>

0000a9b4 <.L4>:
    a9b4:	c0 d4 21    	mov.w     #0x1d4c, w0
    a9b6:	30 07 98    	mov.w     w0, [w14+6]

0000a9b8 <.L6>:
    a9b8:	4e 01 90    	mov.w     [w14+8], w2
    a9ba:	4e 01 90    	mov.w     [w14+8], w2
    a9bc:	82 00 41    	add.w     w2, w2, w1
    a9be:	e0 c8 20    	mov.w     #0xc8e, w0
    a9c0:	00 80 40    	add.w     w1, w0, w0
    a9c2:	be 01 90    	mov.w     [w14+6], w3
    a9c4:	03 08 78    	mov.w     w3, [w0]
    a9c6:	4e 00 90    	mov.w     [w14+8], w0
    a9c8:	4e 00 90    	mov.w     [w14+8], w0
    a9ca:	80 00 40    	add.w     w0, w0, w1
    a9cc:	e0 c8 20    	mov.w     #0xc8e, w0
    a9ce:	00 80 40    	add.w     w1, w0, w0
    a9d0:	10 01 78    	mov.w     [w0], w2
    a9d2:	de 01 90    	mov.w     [w14+10], w3
    a9d4:	de 01 90    	mov.w     [w14+10], w3
    a9d6:	83 80 41    	add.w     w3, w3, w1
    a9d8:	00 d1 20    	mov.w     #0xd10, w0
    a9da:	00 80 40    	add.w     w1, w0, w0
    a9dc:	02 08 78    	mov.w     w2, [w0]
    a9de:	1e 0f e8    	inc.w     [w14], [w14]

0000a9e0 <.L2>:
    a9e0:	80 00 20    	mov.w     #0x8, w0
    a9e2:	9e 0f 10    	subr.w    w0, [w14], [w15]
    a9e4:	dd ff 34    	bra       LE, 0xa9a0 <.L3>
    a9e6:	10 00 20    	mov.w     #0x1, w0
    a9e8:	00 0f 78    	mov.w     w0, [w14]
    a9ea:	12 00 37    	bra       0xaa10 <.L8>

0000a9ec <.L9>:
    a9ec:	9e 00 78    	mov.w     [w14], w1
    a9ee:	21 07 98    	mov.w     w1, [w14+4]
    a9f0:	12 00 20    	mov.w     #0x1, w2
    a9f2:	9e 0f 11    	subr.w    w2, [w14], [w15]
    a9f4:	03 00 3a    	bra       NZ, 0xa9fc <.L10>
    a9f6:	80 01 eb    	clr.w     w3
    a9f8:	13 07 98    	mov.w     w3, [w14+2]
    a9fa:	02 00 37    	bra       0xaa00 <.L12>

0000a9fc <.L10>:
    a9fc:	c0 d4 21    	mov.w     #0x1d4c, w0
    a9fe:	10 07 98    	mov.w     w0, [w14+2]

0000aa00 <.L12>:
    aa00:	ae 00 90    	mov.w     [w14+4], w1
    aa02:	ae 00 90    	mov.w     [w14+4], w1
    aa04:	01 80 40    	add.w     w1, w1, w0
    aa06:	21 d9 20    	mov.w     #0xd92, w1
    aa08:	01 00 40    	add.w     w0, w1, w0
    aa0a:	1e 01 90    	mov.w     [w14+2], w2
    aa0c:	02 08 78    	mov.w     w2, [w0]
    aa0e:	1e 0f e8    	inc.w     [w14], [w14]

0000aa10 <.L8>:
    aa10:	83 00 20    	mov.w     #0x8, w3
    aa12:	9e 8f 11    	subr.w    w3, [w14], [w15]
    aa14:	eb ff 34    	bra       LE, 0xa9ec <.L9>
    aa16:	00 80 fa    	ulnk      
    aa18:	00 00 06    	return    

0000aa1a <_dcm_servo_callback_prepare_outputs>:
    aa1a:	02 00 fa    	lnk       #0x2
    aa1c:	20 d9 80    	mov.w     0x1b24, w0
    aa1e:	00 0f 78    	mov.w     w0, [w14]
    aa20:	9e 00 78    	mov.w     [w14], w1
    aa22:	e1 8f 50    	sub.w     w1, #0x1, [w15]
    aa24:	19 00 32    	bra       Z, 0xaa58 <.L18>
    aa26:	1e 00 78    	mov.w     [w14], w0
    aa28:	e1 0f 50    	sub.w     w0, #0x1, [w15]
    aa2a:	04 00 3c    	bra       GT, 0xaa34 <.L21>
    aa2c:	9e 00 78    	mov.w     [w14], w1
    aa2e:	01 00 e0    	cp0.w     w1
    aa30:	0a 00 32    	bra       Z, 0xaa46 <.L17>
    aa32:	1c 00 37    	bra       0xaa6c <.L16>

0000aa34 <.L21>:
    aa34:	c0 12 20    	mov.w     #0x12c, w0
    aa36:	9e 00 78    	mov.w     [w14], w1
    aa38:	80 8f 50    	sub.w     w1, w0, [w15]
    aa3a:	13 00 32    	bra       Z, 0xaa62 <.L19>
    aa3c:	70 17 20    	mov.w     #0x177, w0
    aa3e:	9e 00 78    	mov.w     [w14], w1
    aa40:	80 8f 50    	sub.w     w1, w0, [w15]
    aa42:	12 00 32    	bra       Z, 0xaa68 <.L20>
    aa44:	13 00 37    	bra       0xaa6c <.L16>

0000aa46 <.L17>:
    aa46:	31 f2 07    	rcall     0x8eaa <_process_flightplan>
    aa48:	6b fe 07    	rcall     0xa720 <_updateBehavior>
    aa4a:	b4 00 07    	rcall     0xabb4 <_rollCntrl>
    aa4c:	2d 00 07    	rcall     0xaaa8 <_yawCntrl>
    aa4e:	aa f3 07    	rcall     0x91a4 <_altitudeCntrl>
    aa50:	9a fc 07    	rcall     0xa386 <_pitchCntrl>
    aa52:	0a e0 07    	rcall     0x6a68 <_servoMix>
    aa54:	c7 fe 07    	rcall     0xa7e4 <_updateTriggerAction>
    aa56:	0b 00 37    	bra       0xaa6e <.L22>

0000aa58 <.L18>:
    aa58:	ef f7 07    	rcall     0x9a38 <_dcm_calibrate>
    aa5a:	1a 00 07    	rcall     0xaa90 <_manualPassthrough>
    aa5c:	10 c0 b3    	mov.b     #0x1, w0
    aa5e:	eb f6 b7    	mov.b     WREG, 0x16eb
    aa60:	06 00 37    	bra       0xaa6e <.L22>

0000aa62 <.L19>:
    aa62:	ea f7 07    	rcall     0x9a38 <_dcm_calibrate>
    aa64:	15 00 07    	rcall     0xaa90 <_manualPassthrough>
    aa66:	03 00 37    	bra       0xaa6e <.L22>

0000aa68 <.L20>:
    aa68:	97 cf 07    	rcall     0x4998 <_udb_gyro_autoZero>
    aa6a:	01 00 37    	bra       0xaa6e <.L22>

0000aa6c <.L16>:
    aa6c:	11 00 07    	rcall     0xaa90 <_manualPassthrough>

0000aa6e <.L22>:
    aa6e:	20 d9 80    	mov.w     0x1b24, w0
    aa70:	00 00 e0    	cp0.w     w0
    aa72:	03 00 34    	bra       LE, 0xaa7a <.L23>
    aa74:	20 d9 80    	mov.w     0x1b24, w0
    aa76:	00 00 e9    	dec.w     w0, w0
    aa78:	20 d9 88    	mov.w     w0, 0x1b24

0000aa7a <.L23>:
    aa7a:	10 d9 80    	mov.w     0x1b22, w0
    aa7c:	00 00 e0    	cp0.w     w0
    aa7e:	05 00 34    	bra       LE, 0xaa8a <.L25>
    aa80:	10 d9 80    	mov.w     0x1b22, w0
    aa82:	8e fa 07    	rcall     0x9fa0 <_gps_startup_sequence>
    aa84:	10 d9 80    	mov.w     0x1b22, w0
    aa86:	00 00 e9    	dec.w     w0, w0
    aa88:	10 d9 88    	mov.w     w0, 0x1b22

0000aa8a <.L25>:
    aa8a:	1d c7 07    	rcall     0x38c6 <_mavlink_output_40hz>
    aa8c:	00 80 fa    	ulnk      
    aa8e:	00 00 06    	return    

0000aa90 <_manualPassthrough>:
    aa90:	00 00 fa    	lnk       #0x0
    aa92:	00 00 eb    	clr.w     w0
    aa94:	00 d9 88    	mov.w     w0, 0x1b20
    aa96:	00 d9 80    	mov.w     0x1b20, w0
    aa98:	f0 d8 88    	mov.w     w0, 0x1b1e
    aa9a:	f0 d8 80    	mov.w     0x1b1e, w0
    aa9c:	d0 d8 88    	mov.w     w0, 0x1b1a
    aa9e:	d0 d8 80    	mov.w     0x1b1a, w0
    aaa0:	e0 d8 88    	mov.w     w0, 0x1b1c
    aaa2:	e2 df 07    	rcall     0x6a68 <_servoMix>
    aaa4:	00 80 fa    	ulnk      
    aaa6:	00 00 06    	return    

0000aaa8 <_yawCntrl>:
    aaa8:	00 00 fa    	lnk       #0x0
    aaaa:	36 fe 07    	rcall     0xa718 <_canStabilizeHover>
    aaac:	00 04 e0    	cp0.b     w0
    aaae:	05 00 32    	bra       Z, 0xaaba <.L2>
    aab0:	90 d9 80    	mov.w     0x1b32, w0
    aab2:	e4 0f 50    	sub.w     w0, #0x4, [w15]
    aab4:	02 00 3a    	bra       NZ, 0xaaba <.L2>
    aab6:	50 00 07    	rcall     0xab58 <_hoverYawCntrl>
    aab8:	01 00 37    	bra       0xaabc <.L6>

0000aaba <.L2>:
    aaba:	02 00 07    	rcall     0xaac0 <_normalYawCntrl>

0000aabc <.L6>:
    aabc:	00 80 fa    	ulnk      
    aabe:	00 00 06    	return    

0000aac0 <_normalYawCntrl>:
    aac0:	0e 00 fa    	lnk       #0xe
    aac2:	70 d8 80    	mov.w     0x1b0e, w0
    aac4:	01 08 20    	mov.w     #0x80, w1
    aac6:	01 00 60    	and.w     w0, w1, w0
    aac8:	00 00 e0    	cp0.w     w0
    aaca:	0d 00 32    	bra       Z, 0xaae6 <.L8>
    aacc:	90 c7 b3    	mov.b     #0x79, w0
    aace:	fc f2 07    	rcall     0x90c8 <_determine_navigation_deflection>
    aad0:	20 07 98    	mov.w     w0, [w14+4]
    aad2:	1e fe 07    	rcall     0xa710 <_canStabilizeInverted>
    aad4:	00 04 e0    	cp0.b     w0
    aad6:	09 00 32    	bra       Z, 0xaaea <.L13>
    aad8:	90 d9 80    	mov.w     0x1b32, w0
    aada:	e2 0f 50    	sub.w     w0, #0x2, [w15]
    aadc:	06 00 3a    	bra       NZ, 0xaaea <.L13>
    aade:	2e 00 90    	mov.w     [w14+4], w0
    aae0:	00 00 ea    	neg.w     w0, w0
    aae2:	20 07 98    	mov.w     w0, [w14+4]
    aae4:	02 00 37    	bra       0xaaea <.L13>

0000aae6 <.L8>:
    aae6:	00 00 eb    	clr.w     w0
    aae8:	20 07 98    	mov.w     w0, [w14+4]

0000aaea <.L13>:
    aaea:	70 d8 80    	mov.w     0x1b0e, w0
    aaec:	01 10 20    	mov.w     #0x100, w1
    aaee:	01 00 60    	and.w     w0, w1, w0
    aaf0:	00 00 e0    	cp0.w     w0
    aaf2:	06 00 32    	bra       Z, 0xab00 <.L14>
    aaf4:	e1 5b 80    	mov.w     0xb7c, w1
    aaf6:	90 53 80    	mov.w     0xa72, w0
    aaf8:	01 80 b9    	mul.ss    w0, w1, w0
    aafa:	50 07 98    	mov.w     w0, [w14+10]
    aafc:	61 07 98    	mov.w     w1, [w14+12]
    aafe:	03 00 37    	bra       0xab06 <.L16>

0000ab00 <.L14>:
    ab00:	60 00 b8    	mul.uu    w0, #0x0, w0
    ab02:	50 07 98    	mov.w     w0, [w14+10]
    ab04:	61 07 98    	mov.w     w1, [w14+12]

0000ab06 <.L16>:
    ab06:	60 00 b8    	mul.uu    w0, #0x0, w0
    ab08:	30 07 98    	mov.w     w0, [w14+6]
    ab0a:	41 07 98    	mov.w     w1, [w14+8]
    ab0c:	71 d8 80    	mov.w     0x1b0e, w1
    ab0e:	00 10 20    	mov.w     #0x100, w0
    ab10:	00 80 60    	and.w     w1, w0, w0
    ab12:	00 00 e0    	cp0.w     w0
    ab14:	15 00 32    	bra       Z, 0xab40 <.L17>
    ab16:	91 64 80    	mov.w     0xc92, w1
    ab18:	a0 68 80    	mov.w     0xd14, w0
    ab1a:	00 8f 50    	sub.w     w1, w0, [w14]
    ab1c:	1e 00 78    	mov.w     [w14], w0
    ab1e:	cf 80 de    	asr.w     w0, #0xf, w1
    ab20:	9b b0 07    	rcall     0xc58 <___floatsisf>
    ab22:	d2 cc 2c    	mov.w     #0xcccd, w2
    ab24:	c3 e4 23    	mov.w     #0x3e4c, w3
    ab26:	c3 b0 07    	rcall     0xcae <___mulsf3>
    ab28:	f6 b0 07    	rcall     0xd16 <___fixsfsi>
    ab2a:	10 07 98    	mov.w     w0, [w14+2]
    ab2c:	f1 fd 07    	rcall     0xa710 <_canStabilizeInverted>
    ab2e:	00 04 e0    	cp0.b     w0
    ab30:	09 00 32    	bra       Z, 0xab44 <.L22>
    ab32:	90 d9 80    	mov.w     0x1b32, w0
    ab34:	e2 0f 50    	sub.w     w0, #0x2, [w15]
    ab36:	06 00 3a    	bra       NZ, 0xab44 <.L22>
    ab38:	1e 00 90    	mov.w     [w14+2], w0
    ab3a:	00 00 ea    	neg.w     w0, w0
    ab3c:	10 07 98    	mov.w     w0, [w14+2]
    ab3e:	02 00 37    	bra       0xab44 <.L22>

0000ab40 <.L17>:
    ab40:	00 00 eb    	clr.w     w0
    ab42:	10 07 98    	mov.w     w0, [w14+2]

0000ab44 <.L22>:
    ab44:	ee 00 90    	mov.w     [w14+12], w1
    ab46:	2e 00 90    	mov.w     [w14+4], w0
    ab48:	81 00 50    	sub.w     w0, w1, w1
    ab4a:	4e 00 90    	mov.w     [w14+8], w0
    ab4c:	80 80 40    	add.w     w1, w0, w1
    ab4e:	1e 00 90    	mov.w     [w14+2], w0
    ab50:	00 80 40    	add.w     w1, w0, w0
    ab52:	f0 d8 88    	mov.w     w0, 0x1b1e
    ab54:	00 80 fa    	ulnk      
    ab56:	00 00 06    	return    

0000ab58 <_hoverYawCntrl>:
    ab58:	0e 00 fa    	lnk       #0xe
    ab5a:	70 d8 80    	mov.w     0x1b0e, w0
    ab5c:	01 10 20    	mov.w     #0x100, w1
    ab5e:	01 00 60    	and.w     w0, w1, w0
    ab60:	00 00 e0    	cp0.w     w0
    ab62:	1c 00 32    	bra       Z, 0xab9c <.L25>
    ab64:	e1 5b 80    	mov.w     0xb7c, w1
    ab66:	c0 53 80    	mov.w     0xa78, w0
    ab68:	01 80 b9    	mul.ss    w0, w1, w0
    ab6a:	40 07 98    	mov.w     w0, [w14+8]
    ab6c:	51 07 98    	mov.w     w1, [w14+10]
    ab6e:	00 da 80    	mov.w     0x1b40, w0
    ab70:	70 00 60    	and.w     w0, #0x10, w0
    ab72:	00 00 e0    	cp0.w     w0
    ab74:	05 00 32    	bra       Z, 0xab80 <.L27>
    ab76:	b1 64 80    	mov.w     0xc96, w1
    ab78:	c0 68 80    	mov.w     0xd18, w0
    ab7a:	80 80 50    	sub.w     w1, w0, w1
    ab7c:	61 07 98    	mov.w     w1, [w14+12]
    ab7e:	02 00 37    	bra       0xab84 <.L29>

0000ab80 <.L27>:
    ab80:	00 00 eb    	clr.w     w0
    ab82:	60 07 98    	mov.w     w0, [w14+12]

0000ab84 <.L29>:
    ab84:	6e 00 90    	mov.w     [w14+12], w0
    ab86:	10 07 98    	mov.w     w0, [w14+2]
    ab88:	1e 00 90    	mov.w     [w14+2], w0
    ab8a:	43 00 dd    	sl.w      w0, #0x3, w0
    ab8c:	00 0f 78    	mov.w     w0, [w14]
    ab8e:	b1 53 80    	mov.w     0xa76, w1
    ab90:	50 59 80    	mov.w     0xb2a, w0
    ab92:	1e 00 40    	add.w     w0, [w14], w0
    ab94:	01 80 b9    	mul.ss    w0, w1, w0
    ab96:	20 07 98    	mov.w     w0, [w14+4]
    ab98:	31 07 98    	mov.w     w1, [w14+6]
    ab9a:	06 00 37    	bra       0xaba8 <.L30>

0000ab9c <.L25>:
    ab9c:	60 00 b8    	mul.uu    w0, #0x0, w0
    ab9e:	40 07 98    	mov.w     w0, [w14+8]
    aba0:	51 07 98    	mov.w     w1, [w14+10]
    aba2:	60 00 b8    	mul.uu    w0, #0x0, w0
    aba4:	20 07 98    	mov.w     w0, [w14+4]
    aba6:	31 07 98    	mov.w     w1, [w14+6]

0000aba8 <.L30>:
    aba8:	3e 00 90    	mov.w     [w14+6], w0
    abaa:	de 00 90    	mov.w     [w14+10], w1
    abac:	01 00 50    	sub.w     w0, w1, w0
    abae:	f0 d8 88    	mov.w     w0, 0x1b1e
    abb0:	00 80 fa    	ulnk      
    abb2:	00 00 06    	return    

0000abb4 <_rollCntrl>:
    abb4:	00 00 fa    	lnk       #0x0
    abb6:	b0 fd 07    	rcall     0xa718 <_canStabilizeHover>
    abb8:	00 04 e0    	cp0.b     w0
    abba:	05 00 32    	bra       Z, 0xabc6 <.L2>
    abbc:	90 d9 80    	mov.w     0x1b32, w0
    abbe:	e4 0f 50    	sub.w     w0, #0x4, [w15]
    abc0:	02 00 3a    	bra       NZ, 0xabc6 <.L2>
    abc2:	4d 00 07    	rcall     0xac5e <_hoverRollCntrl>
    abc4:	01 00 37    	bra       0xabc8 <.L6>

0000abc6 <.L2>:
    abc6:	02 00 07    	rcall     0xabcc <_normalRollCntrl>

0000abc8 <.L6>:
    abc8:	00 80 fa    	ulnk      
    abca:	00 00 06    	return    

0000abcc <_normalRollCntrl>:
    abcc:	10 00 fa    	lnk       #0x10
    abce:	60 00 b8    	mul.uu    w0, #0x0, w0
    abd0:	20 07 98    	mov.w     w0, [w14+4]
    abd2:	31 07 98    	mov.w     w1, [w14+6]
    abd4:	9d fd 07    	rcall     0xa710 <_canStabilizeInverted>
    abd6:	00 04 e0    	cp0.b     w0
    abd8:	04 00 32    	bra       Z, 0xabe2 <.L8>
    abda:	a0 d9 80    	mov.w     0x1b34, w0
    abdc:	62 00 60    	and.w     w0, #0x2, w0
    abde:	00 00 e0    	cp0.w     w0
    abe0:	05 00 3a    	bra       NZ, 0xabec <.L10>

0000abe2 <.L8>:
    abe2:	50 59 80    	mov.w     0xb2a, w0
    abe4:	10 07 98    	mov.w     w0, [w14+2]
    abe6:	e0 5b 80    	mov.w     0xb7c, w0
    abe8:	00 0f 78    	mov.w     w0, [w14]
    abea:	05 00 37    	bra       0xabf6 <.L11>

0000abec <.L10>:
    abec:	50 59 80    	mov.w     0xb2a, w0
    abee:	00 00 ea    	neg.w     w0, w0
    abf0:	10 07 98    	mov.w     w0, [w14+2]
    abf2:	e0 5b 80    	mov.w     0xb7c, w0
    abf4:	00 0f ea    	neg.w     w0, [w14]

0000abf6 <.L11>:
    abf6:	70 d8 80    	mov.w     0x1b0e, w0
    abf8:	01 08 20    	mov.w     #0x80, w1
    abfa:	01 00 60    	and.w     w0, w1, w0
    abfc:	00 00 e0    	cp0.w     w0
    abfe:	03 00 32    	bra       Z, 0xac06 <.L12>
    ac00:	10 c6 b3    	mov.b     #0x61, w0
    ac02:	62 f2 07    	rcall     0x90c8 <_determine_navigation_deflection>
    ac04:	30 07 98    	mov.w     w0, [w14+6]

0000ac06 <.L12>:
    ac06:	70 d8 80    	mov.w     0x1b0e, w0
    ac08:	01 10 20    	mov.w     #0x100, w1
    ac0a:	01 00 60    	and.w     w0, w1, w0
    ac0c:	00 00 e0    	cp0.w     w0
    ac0e:	0f 00 32    	bra       Z, 0xac2e <.L14>
    ac10:	d1 5b 80    	mov.w     0xb7a, w1
    ac12:	60 43 80    	mov.w     0x86c, w0
    ac14:	01 80 b9    	mul.ss    w0, w1, w0
    ac16:	40 07 98    	mov.w     w0, [w14+8]
    ac18:	51 07 98    	mov.w     w1, [w14+10]
    ac1a:	2e 01 90    	mov.w     [w14+4], w2
    ac1c:	be 01 90    	mov.w     [w14+6], w3
    ac1e:	51 43 80    	mov.w     0x86a, w1
    ac20:	1e 00 90    	mov.w     [w14+2], w0
    ac22:	01 80 b9    	mul.ss    w0, w1, w0
    ac24:	02 00 40    	add.w     w0, w2, w0
    ac26:	83 80 48    	addc.w    w1, w3, w1
    ac28:	20 07 98    	mov.w     w0, [w14+4]
    ac2a:	31 07 98    	mov.w     w1, [w14+6]
    ac2c:	03 00 37    	bra       0xac34 <.L16>

0000ac2e <.L14>:
    ac2e:	60 00 b8    	mul.uu    w0, #0x0, w0
    ac30:	40 07 98    	mov.w     w0, [w14+8]
    ac32:	51 07 98    	mov.w     w1, [w14+10]

0000ac34 <.L16>:
    ac34:	70 d8 80    	mov.w     0x1b0e, w0
    ac36:	01 10 20    	mov.w     #0x100, w1
    ac38:	01 00 60    	and.w     w0, w1, w0
    ac3a:	00 00 e0    	cp0.w     w0
    ac3c:	05 00 32    	bra       Z, 0xac48 <.L17>
    ac3e:	40 43 80    	mov.w     0x868, w0
    ac40:	1e 80 b9    	mul.ss    w0, [w14], w0
    ac42:	60 07 98    	mov.w     w0, [w14+12]
    ac44:	71 07 98    	mov.w     w1, [w14+14]
    ac46:	03 00 37    	bra       0xac4e <.L19>

0000ac48 <.L17>:
    ac48:	60 00 b8    	mul.uu    w0, #0x0, w0
    ac4a:	60 07 98    	mov.w     w0, [w14+12]
    ac4c:	71 07 98    	mov.w     w1, [w14+14]

0000ac4e <.L19>:
    ac4e:	be 00 90    	mov.w     [w14+6], w1
    ac50:	5e 00 90    	mov.w     [w14+10], w0
    ac52:	80 80 50    	sub.w     w1, w0, w1
    ac54:	7e 00 90    	mov.w     [w14+14], w0
    ac56:	00 80 50    	sub.w     w1, w0, w0
    ac58:	e0 d8 88    	mov.w     w0, 0x1b1c
    ac5a:	00 80 fa    	ulnk      
    ac5c:	00 00 06    	return    

0000ac5e <_hoverRollCntrl>:
    ac5e:	08 00 fa    	lnk       #0x8
    ac60:	70 d8 80    	mov.w     0x1b0e, w0
    ac62:	01 10 20    	mov.w     #0x100, w1
    ac64:	01 00 60    	and.w     w0, w1, w0
    ac66:	00 00 e0    	cp0.w     w0
    ac68:	19 00 32    	bra       Z, 0xac9c <.L22>
    ac6a:	70 d8 80    	mov.w     0x1b0e, w0
    ac6c:	01 08 20    	mov.w     #0x80, w1
    ac6e:	01 00 60    	and.w     w0, w1, w0
    ac70:	00 00 e0    	cp0.w     w0
    ac72:	0c 00 32    	bra       Z, 0xac8c <.L24>
    ac74:	00 55 80    	mov.w     0xaa0, w0
    ac76:	ea 0f 50    	sub.w     w0, #0xa, [w15]
    ac78:	04 00 34    	bra       LE, 0xac82 <.L26>
    ac7a:	80 c6 b3    	mov.b     #0x68, w0
    ac7c:	25 f2 07    	rcall     0x90c8 <_determine_navigation_deflection>
    ac7e:	30 07 98    	mov.w     w0, [w14+6]
    ac80:	02 00 37    	bra       0xac86 <.L28>

0000ac82 <.L26>:
    ac82:	00 00 eb    	clr.w     w0
    ac84:	30 07 98    	mov.w     w0, [w14+6]

0000ac86 <.L28>:
    ac86:	3e 00 90    	mov.w     [w14+6], w0
    ac88:	00 0f 78    	mov.w     w0, [w14]
    ac8a:	02 00 37    	bra       0xac90 <.L29>

0000ac8c <.L24>:
    ac8c:	00 00 eb    	clr.w     w0
    ac8e:	00 0f 78    	mov.w     w0, [w14]

0000ac90 <.L29>:
    ac90:	d1 5b 80    	mov.w     0xb7a, w1
    ac92:	80 43 80    	mov.w     0x870, w0
    ac94:	01 80 b9    	mul.ss    w0, w1, w0
    ac96:	10 07 98    	mov.w     w0, [w14+2]
    ac98:	21 07 98    	mov.w     w1, [w14+4]
    ac9a:	05 00 37    	bra       0xaca6 <.L30>

0000ac9c <.L22>:
    ac9c:	00 00 eb    	clr.w     w0
    ac9e:	00 0f 78    	mov.w     w0, [w14]
    aca0:	60 00 b8    	mul.uu    w0, #0x0, w0
    aca2:	10 07 98    	mov.w     w0, [w14+2]
    aca4:	21 07 98    	mov.w     w1, [w14+4]

0000aca6 <.L30>:
    aca6:	2e 00 90    	mov.w     [w14+4], w0
    aca8:	1e 00 10    	subr.w    w0, [w14], w0
    acaa:	e0 d8 88    	mov.w     w0, 0x1b1c
    acac:	00 80 fa    	ulnk      
    acae:	00 00 06    	return    

0000acb0 <_gpsoutline>:
    acb0:	08 00 fa    	lnk       #0x8
    acb2:	20 07 98    	mov.w     w0, [w14+4]
    acb4:	00 00 eb    	clr.w     w0
    acb6:	10 07 98    	mov.w     w0, [w14+2]
    acb8:	02 00 37    	bra       0xacbe <.L2>

0000acba <.L3>:
    acba:	1e 40 78    	mov.b     [w14], w0
    acbc:	8f ef 07    	rcall     0x8bdc <_udb_gps_send_char>

0000acbe <.L2>:
    acbe:	1e 00 90    	mov.w     [w14+2], w0
    acc0:	80 00 78    	mov.w     w0, w1
    acc2:	2e 00 90    	mov.w     [w14+4], w0
    acc4:	00 80 40    	add.w     w1, w0, w0
    acc6:	10 4f 78    	mov.b     [w0], [w14]
    acc8:	1e 40 78    	mov.b     [w14], w0
    acca:	60 47 98    	mov.b     w0, [w14+6]
    accc:	6e 40 90    	mov.b     [w14+6], w0
    acce:	00 04 e0    	cp0.b     w0
    acd0:	02 00 32    	bra       Z, 0xacd6 <.L4>
    acd2:	10 c0 b3    	mov.b     #0x1, w0
    acd4:	60 47 98    	mov.b     w0, [w14+6]

0000acd6 <.L4>:
    acd6:	6e 40 90    	mov.b     [w14+6], w0
    acd8:	9e 00 90    	mov.w     [w14+2], w1
    acda:	81 00 e8    	inc.w     w1, w1
    acdc:	11 07 98    	mov.w     w1, [w14+2]
    acde:	00 04 e0    	cp0.b     w0
    ace0:	ec ff 3a    	bra       NZ, 0xacba <.L3>
    ace2:	00 80 fa    	ulnk      
    ace4:	00 00 06    	return    

0000ace6 <_gpsoutbin>:
    ace6:	06 00 fa    	lnk       #0x6
    ace8:	10 07 98    	mov.w     w0, [w14+2]
    acea:	21 07 98    	mov.w     w1, [w14+4]
    acec:	00 00 eb    	clr.w     w0
    acee:	00 0f 78    	mov.w     w0, [w14]
    acf0:	07 00 37    	bra       0xad00 <.L8>

0000acf2 <.L9>:
    acf2:	1e 00 78    	mov.w     [w14], w0
    acf4:	80 00 78    	mov.w     w0, w1
    acf6:	2e 00 90    	mov.w     [w14+4], w0
    acf8:	00 80 40    	add.w     w1, w0, w0
    acfa:	10 40 78    	mov.b     [w0], w0
    acfc:	6f ef 07    	rcall     0x8bdc <_udb_gps_send_char>
    acfe:	1e 0f e8    	inc.w     [w14], [w14]

0000ad00 <.L8>:
    ad00:	1e 00 90    	mov.w     [w14+2], w0
    ad02:	9e 0f 10    	subr.w    w0, [w14], [w15]
    ad04:	f6 ff 35    	bra       LT, 0xacf2 <.L9>
    ad06:	00 80 fa    	ulnk      
    ad08:	00 00 06    	return    

0000ad0a <_udb_gps_callback_received_char>:
    ad0a:	02 00 fa    	lnk       #0x2
    ad0c:	00 4f 78    	mov.b     w0, [w14]
    ad0e:	61 b7 80    	mov.w     0x16ec, w1
    ad10:	1e 40 78    	mov.b     [w14], w0
    ad12:	01 00 01    	call      w1
    ad14:	00 80 fa    	ulnk      
    ad16:	00 00 06    	return    

0000ad18 <_udb_background_callback_triggered>:
    ad18:	04 00 fa    	lnk       #0x4
    ad1a:	a8 fd 07    	rcall     0xa86c <_estYawDrift>
    ad1c:	36 f9 07    	rcall     0x9f8a <_gps_nav_valid>
    ad1e:	00 04 e0    	cp0.b     w0
    ad20:	31 00 32    	bra       Z, 0xad84 <.L15>
    ad22:	00 00 eb    	clr.w     w0
    ad24:	e0 58 88    	mov.w     w0, 0xb1c
    ad26:	f2 56 80    	mov.w     0xade, w2
    ad28:	03 57 80    	mov.w     0xae0, w3
    ad2a:	c0 57 80    	mov.w     0xaf8, w0
    ad2c:	d1 57 80    	mov.w     0xafa, w1
    ad2e:	00 00 51    	sub.w     w2, w0, w0
    ad30:	81 80 59    	subb.w    w3, w1, w1
    ad32:	a2 05 20    	mov.w     #0x5a, w2
    ad34:	03 00 20    	mov.w     #0x0, w3
    ad36:	81 af 07    	rcall     0xc3a <___divsi3>
    ad38:	00 8f be    	mov.d     w0, [w14]
    ad3a:	1e 00 78    	mov.w     [w14], w0
    ad3c:	80 56 88    	mov.w     w0, 0xad0
    ad3e:	12 57 80    	mov.w     0xae2, w2
    ad40:	23 57 80    	mov.w     0xae4, w3
    ad42:	e0 57 80    	mov.w     0xafc, w0
    ad44:	f1 57 80    	mov.w     0xafe, w1
    ad46:	00 00 51    	sub.w     w2, w0, w0
    ad48:	81 80 59    	subb.w    w3, w1, w1
    ad4a:	a2 05 20    	mov.w     #0x5a, w2
    ad4c:	03 00 20    	mov.w     #0x0, w3
    ad4e:	75 af 07    	rcall     0xc3a <___divsi3>
    ad50:	00 8f be    	mov.d     w0, [w14]
    ad52:	9e 00 78    	mov.w     [w14], w1
    ad54:	d0 58 80    	mov.w     0xb1a, w0
    ad56:	01 80 b9    	mul.ss    w0, w1, w0
    ad58:	42 09 dd    	sl.w      w1, #0x2, w2
    ad5a:	ce 00 de    	lsr.w     w0, #0xe, w1
    ad5c:	81 00 71    	ior.w     w2, w1, w1
    ad5e:	42 00 dd    	sl.w      w0, #0x2, w0
    ad60:	00 8f be    	mov.d     w0, [w14]
    ad62:	1e 00 90    	mov.w     [w14+2], w0
    ad64:	70 56 88    	mov.w     w0, 0xace
    ad66:	32 57 80    	mov.w     0xae6, w2
    ad68:	43 57 80    	mov.w     0xae8, w3
    ad6a:	00 58 80    	mov.w     0xb00, w0
    ad6c:	11 58 80    	mov.w     0xb02, w1
    ad6e:	00 00 51    	sub.w     w2, w0, w0
    ad70:	81 80 59    	subb.w    w3, w1, w1
    ad72:	42 06 20    	mov.w     #0x64, w2
    ad74:	03 00 20    	mov.w     #0x0, w3
    ad76:	61 af 07    	rcall     0xc3a <___divsi3>
    ad78:	00 8f be    	mov.d     w0, [w14]
    ad7a:	1e 00 78    	mov.w     [w14], w0
    ad7c:	90 56 88    	mov.w     w0, 0xad2
    ad7e:	5d f0 07    	rcall     0x8e3a <_dcm_callback_gps_location_updated>
    ad80:	b4 f6 07    	rcall     0x9aea <_estimateWind>
    ad82:	02 00 37    	bra       0xad88 <.L18>

0000ad84 <.L15>:
    ad84:	a0 00 20    	mov.w     #0xa, w0
    ad86:	e0 58 88    	mov.w     w0, 0xb1c

0000ad88 <.L18>:
    ad88:	00 80 fa    	ulnk      
    ad8a:	00 00 06    	return    

0000ad8c <_cam_pitchServoLimit>:
unsigned char  counter_slow_down = 40  ;             // 
#endif

long cam_pitchServoLimit(long pwm_pulse)
{
    ad8c:	04 00 fa    	lnk       #0x4
    ad8e:	00 8f be    	mov.d     w0, [w14]
	if ( pwm_pulse > pitch_servo_pwm_max) pwm_pulse = pitch_servo_pwm_max ;
    ad90:	e0 cf 84    	mov.w     0x99fc, w0
    ad92:	cf 80 de    	asr.w     w0, #0xf, w1
    ad94:	be 0f 50    	sub.w     w0, [w14++], [w15]
    ad96:	ae 8f 58    	subb.w    w1, [w14--], [w15]
    ad98:	03 00 3d    	bra       GE, 0xada0 <.L2>
    ad9a:	e0 cf 84    	mov.w     0x99fc, w0
    ad9c:	cf 80 de    	asr.w     w0, #0xf, w1
    ad9e:	00 8f be    	mov.d     w0, [w14]

0000ada0 <.L2>:
	if ( pwm_pulse < pitch_servo_pwm_min) pwm_pulse = pitch_servo_pwm_min ;
    ada0:	f0 cf 84    	mov.w     0x99fe, w0
    ada2:	cf 80 de    	asr.w     w0, #0xf, w1
    ada4:	be 0f 50    	sub.w     w0, [w14++], [w15]
    ada6:	ae 8f 58    	subb.w    w1, [w14--], [w15]
    ada8:	03 00 34    	bra       LE, 0xadb0 <.L4>
    adaa:	f0 cf 84    	mov.w     0x99fe, w0
    adac:	cf 80 de    	asr.w     w0, #0xf, w1
    adae:	00 8f be    	mov.d     w0, [w14]

0000adb0 <.L4>:
	return(pwm_pulse) ;
    adb0:	1e 00 be    	mov.d     [w14], w0
}
    adb2:	00 80 fa    	ulnk      
    adb4:	00 00 06    	return    

0000adb6 <_cam_yawServoLimit>:

long cam_yawServoLimit(long pwm_pulse)
{
    adb6:	04 00 fa    	lnk       #0x4
    adb8:	00 8f be    	mov.d     w0, [w14]
	if ( pwm_pulse > yaw_servo_pwm_max) pwm_pulse = yaw_servo_pwm_max ;
    adba:	00 d0 84    	mov.w     0x9a00, w0
    adbc:	cf 80 de    	asr.w     w0, #0xf, w1
    adbe:	be 0f 50    	sub.w     w0, [w14++], [w15]
    adc0:	ae 8f 58    	subb.w    w1, [w14--], [w15]
    adc2:	03 00 3d    	bra       GE, 0xadca <.L8>
    adc4:	00 d0 84    	mov.w     0x9a00, w0
    adc6:	cf 80 de    	asr.w     w0, #0xf, w1
    adc8:	00 8f be    	mov.d     w0, [w14]

0000adca <.L8>:
	if ( pwm_pulse < yaw_servo_pwm_min) pwm_pulse = yaw_servo_pwm_min ;
    adca:	10 d0 84    	mov.w     0x9a02, w0
    adcc:	cf 80 de    	asr.w     w0, #0xf, w1
    adce:	be 0f 50    	sub.w     w0, [w14++], [w15]
    add0:	ae 8f 58    	subb.w    w1, [w14--], [w15]
    add2:	03 00 34    	bra       LE, 0xadda <.L10>
    add4:	10 d0 84    	mov.w     0x9a02, w0
    add6:	cf 80 de    	asr.w     w0, #0xf, w1
    add8:	00 8f be    	mov.d     w0, [w14]

0000adda <.L10>:
	return(pwm_pulse) ;
    adda:	1e 00 be    	mov.d     [w14], w0
}
    addc:	00 80 fa    	ulnk      
    adde:	00 00 06    	return    

0000ade0 <_set_camera_view>:


void set_camera_view( struct relative3D current_view )
{
    ade0:	06 00 fa    	lnk       #0x6
    ade2:	00 0f 78    	mov.w     w0, [w14]
    ade4:	11 07 98    	mov.w     w1, [w14+2]
    ade6:	22 07 98    	mov.w     w2, [w14+4]
	view_location.x = current_view.x ;
    ade8:	1e 00 78    	mov.w     [w14], w0
    adea:	c0 b6 88    	mov.w     w0, 0x16d8
	view_location.y = current_view.y ;
    adec:	1e 00 90    	mov.w     [w14+2], w0
    adee:	d0 b6 88    	mov.w     w0, 0x16da
	view_location.z = current_view.z ;
    adf0:	2e 00 90    	mov.w     [w14+4], w0
    adf2:	e0 b6 88    	mov.w     w0, 0x16dc
}
    adf4:	00 80 fa    	ulnk      
    adf6:	00 00 06    	return    

0000adf8 <_compute_camera_view>:


void compute_camera_view (void)
{
    adf8:	00 00 fa    	lnk       #0x0
#if ( DEADRECKONING == 1 )
	camera_view.x = view_location.x - IMUlocationx._.W1 ;
    adfa:	c1 b6 80    	mov.w     0x16d8, w1
    adfc:	b0 61 80    	mov.w     0xc36, w0
    adfe:	00 80 50    	sub.w     w1, w0, w0
    ae00:	f0 b6 88    	mov.w     w0, 0x16de
	camera_view.y = view_location.y - IMUlocationy._.W1 ;
    ae02:	d1 b6 80    	mov.w     0x16da, w1
    ae04:	d0 61 80    	mov.w     0xc3a, w0
    ae06:	00 80 50    	sub.w     w1, w0, w0
    ae08:	00 b7 88    	mov.w     w0, 0x16e0
	camera_view.z = view_location.z - IMUlocationz._.W1 ;
    ae0a:	e1 b6 80    	mov.w     0x16dc, w1
    ae0c:	f0 61 80    	mov.w     0xc3e, w0
    ae0e:	00 80 50    	sub.w     w1, w0, w0
    ae10:	10 b7 88    	mov.w     w0, 0x16e2
#else
	camera_view.x = view_location.x - GPSlocation.x ;
	camera_view.y = view_location.y - GPSlocation.y ;
	camera_view.z = view_location.z - GPSlocation.z ;
#endif
}
    ae12:	00 80 fa    	ulnk      
    ae14:	00 00 06    	return    

0000ae16 <_cameraCntrl>:


void cameraCntrl( void )
{
    ae16:	00 00 fa    	lnk       #0x0

#if ( USE_CAMERA_STABILIZATION == 1 )

	union longbbbb cam ;
	int cam_pitch16 = 0;		  // pitch accumalator in 16 bit byte circular.
	int cam_yaw16   = 0;		  // yaw   accumalator in 16 bit byte circular.
	signed char cam_yaw8 = 0;     // An 8 bit version of cam_yaw to use with sine(), cosine()

	struct relative2D matrix_accum  = { 0, 0 }    ;   // Temporary variable to keep intermediate results of functions.
	fractional cam_vector_ground[]  = { 0, 0 ,0 } ;   // Vector to camera target from within ground coordinate reference.
	fractional cam_vector_plane[]   = { 0, 0, 0 } ;	  // Vector to camera target from within plane's coordinate reference
	fractional rmat_transpose[]     = {RMAX, 0, 0, 0, RMAX, 0, 0, 0, RMAX} ;


	// In Manual Mode 
	
	if ( flags._.GPS_steering == 0 && flags._.pitch_feedback == 0 )
	{
		// set camera to default position
		// Pitch Servo
		cam_pitch_servo_pwm_delta =  - pitch_offset_centred_pwm ;		
		// Yaw Servo	
		cam_yaw_servo_pwm_delta = - yaw_offset_centred_pwm  ;
	}
	else
	{
	 	// Stabilised Mode
		if ( flags._.GPS_steering == 0 && flags._.pitch_feedback == 1 )
		{
			// Stabilised mode is actually the most complex translation. It requires a 
			// a mix of settings from the ground reference and the plane's reference.
			// Against the ground reference, the camera has to stay at a constant pitch to the horizontal
			// Against the plane reference, the camera has to keep at a constant yaw. e.g. straight ahead.
			// Maths: 
			// Calculate the Yaw angle of the Plane in the ground reference. 
			// Use the desired pitch of the camera, to create a camera view vector with reference to the ground
			// Convert the camera view vector back to the plane's frame of reference.
			// Calculate pitch and yaw for the camera servos.
			
			// Yaw
			// "Aviation Convention - Ground" frame of reference
			matrix_accum.x =   rmat[4] ;
			matrix_accum.y =   rmat[1] ;
			cam_yaw8 =  rect_to_polar(&matrix_accum); //
			
			// camera_view uses the "UAV Devboard - Earth" reference
			// The next lines overide waypoint camera views for stablized mode.
			//cam_yaw8 = (char) (cam_yaw16 >> 8) ;
			camera_view.x =   - sine(cam_yaw8) ;
			camera_view.y =     cosine(cam_yaw8) ;
			camera_view.z =   - tan_pitch_in_stabilized_mode ;
		}		
		
		// Waypoint Mode and Stabilized Mode (and RTL)
		
		// The maths here is as follows. 
		// Take a vector defined in the earth reference (camera_view),
		// and rotate into the plane's reference. This requires the use of the inverse
		// of rmat which is also the transpose of the rmat matrix.
		// Then calculate each of the angles for yaw and pitch in the plane's reference. (roll not implemented at this time).
		// Finally, convert camera angles in yaw and pitch to servo rotation angles.
		
		// Convert externally requested camera view into a structure of type fractional 
		// Convert from "UAV Devboard - Ground" convention to "Aviation Convention - Ground"
		cam_vector_ground[0] = - camera_view.x ;
		cam_vector_ground[1] =   camera_view.y ;
		cam_vector_ground[2] = - camera_view.z ; 

		// Rotate camera vector from ground reference into plane reference
		udb_setDSPLibInUse(true) ;
		MatrixTranspose(3, 3, rmat_transpose, rmat ) ;	
		// It does not matter that the result of the following operation is not the expected magnitude
		// because the code only uses the ratios of X,Y,Z relative to each other to calculate angles.
		MatrixMultiply( 3 , 3 , 1 , cam_vector_plane , rmat_transpose , cam_vector_ground ) ;
		udb_setDSPLibInUse(false) ;
		
		// Convert camera vector which is now in plane's coordinate reference, to a Yaw angle with respect to front of plane.
		matrix_accum.x =   cam_vector_plane[0]  ;
		matrix_accum.y =   cam_vector_plane[1]  ; 
		cam_yaw16 = rect_to_polar16(&matrix_accum) - 16384 ; // subtract 90 degrees so yaw measured in line with fuselage

#if  (CAM_TESTING_OVERIDE == 1 )
		cam_test_timer-- ;
		if ( cam_test_timer <= 0 )
		{
			cam_test_timer = CAM_TEST_TIMER ;
			cam_test_yaw = cam_test_yaw * -1; // reverse the angle of test
		}
		cam_yaw16 = cam_test_yaw ;
#endif
		
		// Convert camera vector (which is in plane's coordinaet reference) to a pitch angle.
		matrix_accum.y = cam_vector_plane[2] ;
		cam_pitch16 = rect_to_polar16(&matrix_accum) ; // Note matrix_accum.x is the left over result of yaw call to rect_to_polar16

#if  (CAM_TESTING_OVERIDE == 1 )
		cam_pitch16 = cam_testing_pitch_angle ; 
#endif

		// One day, insert special logic for when camera nearly pointing straight down 
		// to prevent large movements of camera on yaw for small changes in roll and pitch.
		// if ( pitch > 15000 || pitch < -15000 ) // 16383 is close to 90 degrees.
		
		// Calculate signal to send to pitch servo
#if  ( CAM_PITCH_TEST_GRANULARITY == 1 )
		// Move camera by smallest pitch granular amount, continuously. (testing for blurring of camera picture)
		if (counter_slow_down-- == 0)
		{
			if (pitch_servo_out-- < -500 ) pitch_servo_out = 500 ;  // A 22.5 degree movement either side of servo centre for a 90 degree servo
			counter_slow_down = 40 ;
		}
		cam_pitch_servo_pwm_delta = pitch_servo_out ;		
#else	
		cam.WW = __builtin_mulss(cam_pitch16, pitch_servo_high_ratio) + 0x8000 ;
		cam_pitch_servo_pwm_delta = cam._.W1 - pitch_offset_centred_pwm ;
#endif		
		// Calculate signal to send to yaw servo
		cam.WW = __builtin_mulss(cam_yaw16 , yaw_servo_high_ratio) + 0x8000 ; 		
		cam_yaw_servo_pwm_delta = cam._.W1 - yaw_offset_centred_pwm ; 	
	}
#endif
}

    ae18:	00 80 fa    	ulnk      
    ae1a:	00 00 06    	return    

0000ae1c <_MDSFIR>:
_MDSFIR:
; ..............................................................................
; Entry context save of selected registers

         PUSH  MODCON            ; save context of MODCON
    ae1c:	46 00 f8    	push      0x46
         PUSH  w8                ; save context of w8
    ae1e:	88 1f 78    	mov.w     w8, [w15++]
         PUSH  w10               ; save context of w10
    ae20:	8a 1f 78    	mov.w     w10, [w15++]
         PUSH  XMODSRT           ; save context of XMODSRT
    ae22:	48 00 f8    	push      0x48
         PUSH  XMODEND           ; save context of XMODEND
    ae24:	4a 00 f8    	push      0x4a
         PUSH  YMODSRT           ; save context of YMODSRT
    ae26:	4c 00 f8    	push      0x4c
         PUSH  YMODEND           ; save context of YMODEND
    ae28:	4e 00 f8    	push      0x4e
         PUSH  CORCON            ; save context of CORCON
    ae2a:	44 00 f8    	push      0x44
         PUSH  PSVPAG            ; save context of PSVPAG
    ae2c:	34 00 f8    	push      0x34
		 push  w1				 ; save return value (pointer to output buffer)
    ae2e:	81 1f 78    	mov.w     w1, [w15++]


; ..............................................................................; 
; Check if filter-taps are stored in Program Space or Data Space and enable
; PSV and set up PSVPAG accordingly

         MOV   [w3+oTapsPage], W10
    ae30:	33 05 90    	mov.w     [w3+6], w10
         MOV   #0xFF00, W8
    ae32:	08 f0 2f    	mov.w     #0xff00, w8
         CP    W8, W10           ; perform w8-w10 (if w10 = FF00 then do not enable PSV)
    ae34:	0a 40 e1    	cp.w      w8, w10
         BRA   Z, no_psv         ; branch if compare true (coefficients are in data space) 
    ae36:	03 00 32    	bra       Z, 0xae3e <no_psv>
         MOV   #0x00B4,W8        ; Enable enable Program Space Visibility, 
    ae38:	48 0b 20    	mov.w     #0xb4, w8
                                 ; Accumulator A Saturation and Data Space write Saturation
                                 ;    as bits 2, 5 and 7 are set in CORCON
                                 ; Also note bits 2, 5 and 7 are in low order byte which is
                                 ;   the first byte of a 2 byte word in a little endian 
                                 ;   processor such as the dsPIC30
                                 ; also, enable unbiased (convergent) rounding mode,
                                 ; 1.39 saturation enabled, fractional mult.
         MOV   w10, PSVPAG       ; PSVPAG = Program Space page containing filter taps
    ae3a:	aa 01 88    	mov.w     w10, 0x34
         BRA   SetupPointers     
    ae3c:	01 00 37    	bra       0xae40 <SetupPointers>

0000ae3e <no_psv>:

no_psv:
         MOV   #0x00B0,w8        ; Enable Accumulator A Saturation and 
    ae3e:	08 0b 20    	mov.w     #0xb0, w8

0000ae40 <SetupPointers>:
                                 ; Data Space write Saturation 
                                 ;    as bits 5 and 7 are set in CORCON
; ..............................................................................;
; Setup pointers and modulo addressing

SetupPointers:
		 MOV   W8, CORCON		; set PSV and saturation options
    ae40:	28 02 88    	mov.w     w8, 0x44

         MOV  [w3+oTapsEnd],w8	
    ae42:	23 04 90    	mov.w     [w3+4], w8
         MOV  w8, XMODEND		; XMODEND = end address of filter coefficients
    ae44:	58 02 88    	mov.w     w8, 0x4a
         MOV  [w3+oTapsBase],w8	; w8 = base address of taps/filter coefficients
    ae46:	13 04 90    	mov.w     [w3+2], w8
         MOV  w8, XMODSRT		; XMODSRT = base address of filter coefficients
    ae48:	48 02 88    	mov.w     w8, 0x48

         MOV  [w3+oDelayEnd],w10	
    ae4a:	53 05 90    	mov.w     [w3+10], w10
         MOV  w10, YMODEND		; YMODEND = end address of delay line
    ae4c:	7a 02 88    	mov.w     w10, 0x4e
         MOV  [w3+oDelayBase],w10	
    ae4e:	43 05 90    	mov.w     [w3+8], w10
         MOV  w10, YMODSRT		; YMODSRT = base address of delay line
    ae50:	6a 02 88    	mov.w     w10, 0x4c

         MOV  [w3+oNumTaps],w4
    ae52:	03 02 90    	mov.w     [w3+0], w4

         SUB  w4,#3, w4			; w4 = numTaps-3 (for do loop control)
    ae54:	63 02 52    	sub.w     w4, #0x3, w4
		 
		 MOV   #0xC0A8, w10		; set XMD = W8 and YMD = W10
    ae56:	8a 0a 2c    	mov.w     #0xc0a8, w10
         MOV   w10, MODCON		; enable X & Y Modulus
    ae58:	3a 02 88    	mov.w     w10, 0x46
         
         DEC  w0,w0				; w3 is do loop counter - set to 1 less than count
    ae5a:	00 00 e9    	dec.w     w0, w0
         MOV  [w3+oDelayPtr],w10 ; w10 = pointer to current delay sample
    ae5c:	63 05 90    	mov.w     [w3+12], w10
         				
;..............................................................................		 
; Perform Block FIR filtering
		 
         
         DO   w0, blockLoop				; loop until all input samples have been processed
    ae5e:	00 80 08    	do        w0, 0xae6e <blockLoop>
    ae60:	06 00 00 
         MOV  [w2++],[w10]				; store new sample into delay line
    ae62:	32 0d 78    	mov.w     [w2++], [w10]

; clear a, prefetch tap and sample pair, update ptrs
         CLR   a, [w8]+=2, w5, [w10]+=2, w6
    ae64:	46 18 c3    	clr       A, [w8]+=2, w5, [w10]+=2, w6

         REPEAT w4						; perform macs (except for last two)
    ae66:	04 80 09    	repeat    w4
         MAC  w5*w6, a, [w8]+=2, w5, [w10]+=2, w6
    ae68:	46 18 c4    	mac       w5 * w6, A, [w8]+=2, w5, [w10]+=2, w6

         MAC  w5*w6, a, [w8]+=2, w5, [w10], w6	; perform second-to-last MAC
    ae6a:	42 18 c4    	mac       w5 * w6, A, [w8]+=2, w5, [w10], w6
         MAC  w5*w6, a					; perform last MAC
    ae6c:	12 01 c4    	mac       w5 * w6, A

0000ae6e <blockLoop>:


		; round and store result in AccA to output buffer
blockLoop:
         SAC.R  a,[w1++]				; this is the last instruction in the loop controlled
    ae6e:	31 00 cd    	sac.r     A, #0x0, [w1++]
										; by W3

         MOV  w10,[w3+oDelayPtr]		; update delay line pointer
    ae70:	ea 01 98    	mov.w     w10, [w3+12]
										; note: that the delay line pointer can have multiple
										; wraps depending on the number of input samples
;---------------------------------------------------------------------------------

; ..............................................................................		 
; Cleanup(Context restore of selected registers)
         CLR MODCON						; disable modulo addressing
    ae72:	46 20 ef    	clr.w     0x46
         NOP
    ae74:	00 00 00    	nop       
	     pop  w0						; restore return value (pointer to output buffer)
    ae76:	4f 00 78    	mov.w     [--w15], w0
         POP  PSVPAG					; restore context of PSVPAG
    ae78:	34 00 f9    	pop       0x34
         POP  CORCON					; restore context of CORCON
    ae7a:	44 00 f9    	pop       0x44
         POP  YMODEND					; restore context of YMODEND
    ae7c:	4e 00 f9    	pop       0x4e
         POP  YMODSRT					; restore context of YMODSRT
    ae7e:	4c 00 f9    	pop       0x4c
         POP  XMODEND					; restore context of XMODEND
    ae80:	4a 00 f9    	pop       0x4a
         POP  XMODSRT					; restore context of XMODSRT
    ae82:	48 00 f9    	pop       0x48
         POP  w10						; restore context of w10
    ae84:	4f 05 78    	mov.w     [--w15], w10
         POP  w8						; restore context of w8
    ae86:	4f 04 78    	mov.w     [--w15], w8
         POP  MODCON					; restore context of MODCON
    ae88:	46 00 f9    	pop       0x46
         NOP
    ae8a:	00 00 00    	nop       
         RETURN							; exit from  _BlockFir
    ae8c:	00 00 06    	return    

0000ae8e <_MDSFIRDelayInit>:
    ae8e:	c0 00 90    	mov.w     [w0+8], w1
    ae90:	00 00 90    	mov.w     [w0+0], w0
    ae92:	00 00 e9    	dec.w     w0, w0
    ae94:	00 80 09    	repeat    w0
    ae96:	80 18 eb    	clr.w     [w1++]
    ae98:	00 00 06    	return    

0000ae9a <_superSample>:
        .global  _superSample

         .text
_superSample:
		push	W8			; save c runtime regs
    ae9a:	88 1f 78    	mov.w     w8, [w15++]
		push	W9			; save c runtime regs
    ae9c:	89 1f 78    	mov.w     w9, [w15++]
;;		push	W10			; save c runtime regs
;;		push	W11			; save c runtime regs
;;		push	W12			; save c runtime regs
		push	W13			; save c runtime regs
    ae9e:	8d 1f 78    	mov.w     w13, [w15++]
		mov		W0, W13		; move source address
    aea0:	80 06 78    	mov.w     w0, w13
		push	W1			; save destination
    aea2:	81 1f 78    	mov.w     w1, [w15++]

		mov		#0, W0		; clear all accumulators
    aea4:	00 00 20    	mov.w     #0x0, w0
		mov		#0, W1		; clear all accumulators
    aea6:	01 00 20    	mov.w     #0x0, w1
		mov		#0, W2		; clear all accumulators
    aea8:	02 00 20    	mov.w     #0x0, w2
		mov		#0, W3		; clear all accumulators
    aeaa:	03 00 20    	mov.w     #0x0, w3
		mov		#0, W4		; clear all accumulators
    aeac:	04 00 20    	mov.w     #0x0, w4
		mov		#0, W5		; clear all accumulators
    aeae:	05 00 20    	mov.w     #0x0, w5
		mov		#0, W6		; clear all accumulators
    aeb0:	06 00 20    	mov.w     #0x0, w6
		mov		#0, W7		; clear all accumulators
    aeb2:	07 00 20    	mov.w     #0x0, w7
		mov		#0, W8		; clear all accumulators
    aeb4:	08 00 20    	mov.w     #0x0, w8
		mov		#0, W9		; clear all accumulators
    aeb6:	09 00 20    	mov.w     #0x0, w9

0000aeb8 <ACC_S>:
;;		mov		#0, W11		; clear all accumulators
;;		mov		#0, W10		; clear all accumulators
;;		mov		#0, W12		; clear all accumulators

ACC_S:	DO		#15, ACC_E	; add em all up
    aeb8:	0f 00 08    	do        #0xf, 0xaece <ACC_E>
    aeba:	09 00 00 
		ADD		W0, [W13++], W0
    aebc:	3d 00 40    	add.w     w0, [w13++], w0
		ADD		W1, [W13++], W1
    aebe:	bd 80 40    	add.w     w1, [w13++], w1
		ADD		W2, [W13++], W2
    aec0:	3d 01 41    	add.w     w2, [w13++], w2
		ADD		W3, [W13++], W3
    aec2:	bd 81 41    	add.w     w3, [w13++], w3
		ADD		W4, [W13++], W4
    aec4:	3d 02 42    	add.w     w4, [w13++], w4
		ADD		W5, [W13++], W5
    aec6:	bd 82 42    	add.w     w5, [w13++], w5
		ADD		W6, [W13++], W6
    aec8:	3d 03 43    	add.w     w6, [w13++], w6
		ADD		W7, [W13++], W7
    aeca:	bd 83 43    	add.w     w7, [w13++], w7
		ADD		W8, [W13++], W8
    aecc:	3d 04 44    	add.w     w8, [w13++], w8

0000aece <ACC_E>:
ACC_E:	ADD		W9, [W13++], W9		;; accululate each value steping pointer
    aece:	bd 84 44    	add.w     w9, [w13++], w9
;;		ADD		W10, [W13++], W10
;;		ADD		W11, [W13++], W11
;;		ADD		W13, [W13++], W12

		POP		W13					;; restore destination
    aed0:	cf 06 78    	mov.w     [--w15], w13
		MOV		W0, [W13++]			;; store each value steping pointer
    aed2:	80 1e 78    	mov.w     w0, [w13++]
		MOV		W1, [W13++]
    aed4:	81 1e 78    	mov.w     w1, [w13++]
		MOV		W2, [W13++]
    aed6:	82 1e 78    	mov.w     w2, [w13++]
		MOV		W3, [W13++]
    aed8:	83 1e 78    	mov.w     w3, [w13++]
		MOV		W4, [W13++]
    aeda:	84 1e 78    	mov.w     w4, [w13++]
		MOV		W5, [W13++]
    aedc:	85 1e 78    	mov.w     w5, [w13++]
		MOV		W6, [W13++]
    aede:	86 1e 78    	mov.w     w6, [w13++]
		MOV		W7, [W13++]
    aee0:	87 1e 78    	mov.w     w7, [w13++]
		MOV		W8, [W13++]
    aee2:	88 1e 78    	mov.w     w8, [w13++]
		MOV		W9, [W13++]
    aee4:	89 1e 78    	mov.w     w9, [w13++]
;;		LSR		W0, [W13++]
;;		LSR		W1, [W13++]
;;		LSR		W2, [W13++]
;;		LSR		W3, [W13++]
;;		LSR		W4, [W13++]
;;		LSR		W5, [W13++]
;;		LSR		W6, [W13++]
;;		LSR		W7, [W13++]
;;		LSR		W8, [W13++]
;;		LSR		W9, [W13++]			;; store each value steping pointer
;;		LSR		W10, [W13++]
;;		LSR		W11, [W13++]
;;		LSR		W13, [W13++]

		pop		W13			; save c runtime regs
    aee6:	cf 06 78    	mov.w     [--w15], w13
;;		pop		W12			; save c runtime regs
;;		pop		W11			; save c runtime regs
;;		pop		W10			; save c runtime regs
		pop		W9			; save c runtime regs
    aee8:	cf 04 78    	mov.w     [--w15], w9
		pop		W8			; save c runtime regs
    aeea:	4f 04 78    	mov.w     [--w15], w8
    aeec:	00 00 06    	return    
Disassembly of section .filter_aspgconst:

0000af00 <filter_aspgTaps>:
    af00:	0b 00 00    	nop       
    af02:	04 00 00    	nop       
    af04:	e6 ff 00    	nop       
    af06:	a4 ff 00    	nop       
    af08:	45 ff 00    	nop       
    af0a:	de fe 00    	nop       
    af0c:	9e fe 00    	nop       
    af0e:	c1 fe 00    	nop       
    af10:	88 ff 00    	nop       
    af12:	21 01 00    	nop       
    af14:	99 03 00    	nop       
    af16:	c5 06 00    	nop       
    af18:	48 0a 00    	nop       
    af1a:	a2 0d 00    	nop       
    af1c:	44 10 00    	nop       
    af1e:	b7 11 00    	nop       
    af20:	b7 11 00    	nop       
    af22:	44 10 00    	nop       
    af24:	a2 0d 00    	nop       
    af26:	48 0a 00    	nop       
    af28:	c5 06 00    	nop       
    af2a:	99 03 00    	nop       
    af2c:	21 01 00    	nop       
    af2e:	88 ff 00    	nop       
    af30:	c1 fe 00    	nop       
    af32:	9e fe 00    	nop       
    af34:	de fe 00    	nop       
    af36:	45 ff 00    	nop       
    af38:	a4 ff 00    	nop       
    af3a:	e6 ff 00    	nop       
    af3c:	04 00 00    	nop       
    af3e:	0b 00 00    	nop       
Disassembly of section .filter_aspg_I2Cconst:

0000af40 <filter_aspg_I2CTaps>:
    af40:	ec ff 00    	nop       
    af42:	e9 ff 00    	nop       
    af44:	0c 00 00    	nop       
    af46:	61 00 00    	nop       
    af48:	c8 00 00    	nop       
    af4a:	ea 00 00    	nop       
    af4c:	64 00 00    	nop       
    af4e:	0e ff 00    	nop       
    af50:	47 fd 00    	nop       
    af52:	13 fc 00    	nop       
    af54:	c4 fc 00    	nop       
    af56:	5d 00 00    	nop       
    af58:	e8 06 00    	nop       
    af5a:	21 0f 00    	nop       
    af5c:	c1 16 00    	nop       
    af5e:	5a 1b 00    	nop       
    af60:	5a 1b 00    	nop       
    af62:	c1 16 00    	nop       
    af64:	21 0f 00    	nop       
    af66:	e8 06 00    	nop       
    af68:	5d 00 00    	nop       
    af6a:	c4 fc 00    	nop       
    af6c:	13 fc 00    	nop       
    af6e:	47 fd 00    	nop       
    af70:	0e ff 00    	nop       
    af72:	64 00 00    	nop       
    af74:	ea 00 00    	nop       
    af76:	c8 00 00    	nop       
    af78:	61 00 00    	nop       
    af7a:	0c 00 00    	nop       
    af7c:	e9 ff 00    	nop       
    af7e:	ec ff 00    	nop       
Disassembly of section .text:

0000af80 <_main>:

//	main program for testing the IMU.

int main (void)
{
    af80:	00 00 fa    	lnk       #0x0
	if ( RCONbits.POR )
    af82:	40 c7 bf    	mov.b     0x740, WREG
    af84:	61 40 60    	and.b     w0, #0x1, w0
    af86:	00 04 e0    	cp0.b     w0
    af88:	02 00 32    	bra       Z, 0xaf8e <.L2>
		RCON = 0;
    af8a:	00 00 eb    	clr.w     w0
    af8c:	00 3a 88    	mov.w     w0, 0x740

0000af8e <.L2>:
	else ; // this would be the place to log it
	udb_init() ;
    af8e:	e5 f6 07    	rcall     0x9d5a <_udb_init>
	dcm_init() ;
    af90:	25 f4 07    	rcall     0x97dc <_dcm_init>
	init_servoPrepare() ;
    af92:	fe fc 07    	rcall     0xa990 <_init_servoPrepare>
	init_states() ;
    af94:	6c eb 07    	rcall     0x866e <_init_states>
	init_behavior() ;
    af96:	a0 fb 07    	rcall     0xa6d8 <_init_behavior>
	init_serial() ;
    af98:	51 c0 07    	rcall     0x303c <_init_serial>
	
	udb_run() ;
    af9a:	2f f7 07    	rcall     0x9dfa <_udb_run>
	// This never returns.
	
	return 0 ;
    af9c:	00 00 eb    	clr.w     w0
}
    af9e:	00 80 fa    	ulnk      
    afa0:	00 00 06    	return    

0000afa2 <__MathError>:
    afa2:	10 00 20    	mov.w     #0x1, w0
    afa4:	07 00 37    	bra       0xafb4 <save_states>

0000afa6 <__StackError>:
    afa6:	20 00 20    	mov.w     #0x2, w0
    afa8:	05 00 37    	bra       0xafb4 <save_states>

0000afaa <__AddressError>:
    afaa:	40 00 20    	mov.w     #0x4, w0
    afac:	03 00 37    	bra       0xafb4 <save_states>

0000afae <__OscillatorFail>:
    afae:	80 00 20    	mov.w     #0x8, w0
    afb0:	01 00 37    	bra       0xafb4 <save_states>

0000afb2 <__DefaultInterrupt>:
    afb2:	00 01 20    	mov.w     #0x10, w0

0000afb4 <save_states>:
    afb4:	10 da 88    	mov.w     w0, 0x1b42
    afb6:	4f 00 be    	mov.d     [--w15], w0
    afb8:	f1 07 b2    	and.w     #0x7f, w1
    afba:	b0 d9 88    	mov.w     w0, 0x1b36
    afbc:	c1 d9 88    	mov.w     w1, 0x1b38
    afbe:	00 00 fe    	reset     

0000afc0 <_averageSample>:
        .global  _averageSample

         .text
_averageSample:
		mov		W0, W4		; move source address
    afc0:	00 02 78    	mov.w     w0, w4
		mov		W1, W5		; save count
    afc2:	81 02 78    	mov.w     w1, w5
		sub		W1, #1, W6	; set REPEAT count
    afc4:	61 83 50    	sub.w     w1, #0x1, w6

;;		mov		#0, W0		; clear all accumulators
;;		mov		#0, W1		; clear all accumulators
;;		mov		#0, W2		; clear all accumulators
;;		mov		#0, W3		; clear all accumulators

		CLR		A			; 0 40 bit Acc
    afc6:	12 01 c3    	clr       A

0000afc8 <ACC_S>:
;;		DSI		W5
ACC_S:	REPEAT	W6			; add em all up
    afc8:	06 80 09    	repeat    w6
		ADD		[W4++], #7, A ; signed 16 add to ACCA
    afca:	b4 03 c9    	add       [w4++], #0x7, A
		SFTAC	A, #9		; get to exact 32bit result
    afcc:	49 00 c8    	sftac     A, #0x9
		MOV		ACCAH, W1	; move for DIV instruction
    afce:	21 01 80    	mov.w     0x24, w1
		MOV		ACCAL, W0
    afd0:	10 01 80    	mov.w     0x22, w0
		REPEAT	#17			; Execute DIV.SD 18 times
    afd2:	11 00 09    	repeat    #0x11
		DIV.SD	W0, W5		; Divide W1:W0 by W5
    afd4:	45 08 d8    	div.sd    w0, w5
							; Store quotient to W0, remainder to W1
		NOP
    afd6:	00 00 00    	nop       
    afd8:	00 00 06    	return    
