
ProPilot.cof:     file format coff-pic30

Disassembly of section .reset:

00000000 <.reset>:
   0:	00 02 04    	goto      0x200 <__reset>
   2:	00 00 00 
Disassembly of section .text:

00000200 <__reset>:
     200:	0f 50 23    	mov.w     #0x3500, w15
     202:	00 5f 27    	mov.w     #0x75f0, w0
     204:	00 01 88    	mov.w     w0, 0x20
     206:	00 00 00    	nop       
     208:	0c 00 07    	rcall     0x222 <__psv_init>
     20a:	40 1c 23    	mov.w     #0x31c4, w0
     20c:	01 00 20    	mov.w     #0x0, w1
     20e:	11 00 07    	rcall     0x232 <__data_init>
     210:	00 00 20    	mov.w     #0x0, w0
     212:	00 00 e0    	cp0.w     w0
     214:	02 00 32    	bra       Z, 0x21a <L11>
     216:	00 00 02    	call      0x0 <__reset-0x200>
     218:	00 00 00 

0000021a <L11>:
     21a:	40 91 02    	call      0x9140 <_main>
     21c:	00 00 00 
     21e:	00 40 da    	.pword 0xda4000
     220:	00 00 fe    	reset     

00000222 <__psv_init>:
     222:	44 40 a9    	bclr.b    0x44, #0x2
     224:	00 64 20    	mov.w     #0x640, w0
     226:	00 00 e0    	cp0.w     w0
     228:	03 00 32    	bra       Z, 0x230 <L12>
     22a:	00 00 20    	mov.w     #0x0, w0
     22c:	a0 01 88    	mov.w     w0, 0x34
     22e:	44 40 a8    	bset.b    0x44, #0x2

00000230 <L12>:
     230:	00 00 06    	return    

00000232 <__data_init>:
     232:	91 01 88    	mov.w     w1, 0x32
     234:	80 00 78    	mov.w     w0, w1
     236:	00 00 eb    	clr.w     w0
     238:	15 00 37    	bra       0x264 <L41>

0000023a <L11>:
     23a:	e2 80 40    	add.w     w1, #0x2, w1
     23c:	32 a0 b4    	addc.w    0x32
     23e:	91 01 ba    	tblrdl.w  [w1], w3
     240:	e2 80 40    	add.w     w1, #0x2, w1
     242:	32 a0 b4    	addc.w    0x32
     244:	91 02 ba    	tblrdl.w  [w1], w5
     246:	e2 80 40    	add.w     w1, #0x2, w1
     248:	32 a0 b4    	addc.w    0x32
     24a:	00 02 eb    	clr.w     w4
     24c:	47 2b de    	lsr.w     w5, #0x7, w6
     24e:	f5 07 b2    	and.w     #0x7f, w5
     250:	60 2c e1    	cp.b      w5, #0x0
     252:	04 00 3a    	bra       NZ, 0x25c <L21>

00000254 <L91>:
     254:	00 59 eb    	clr.b     [w2++]
     256:	83 01 e9    	dec.w     w3, w3
     258:	fd ff 3e    	bra       GTU, 0x254 <L91>
     25a:	04 00 37    	bra       0x264 <L41>

0000025c <L21>:
     25c:	61 28 e1    	cp.w      w5, #0x1
     25e:	01 00 32    	bra       Z, 0x262 <L31>
     260:	00 82 eb    	setm.w    w4

00000262 <L31>:
     262:	04 00 07    	rcall     0x26c <L12>

00000264 <L41>:
     264:	11 01 ba    	tblrdl.w  [w1], w2
     266:	02 00 e0    	cp0.w     w2
     268:	e8 ff 3a    	bra       NZ, 0x23a <L11>
     26a:	00 00 06    	return    

0000026c <L12>:
     26c:	31 59 ba    	tblrdl.b  [w1++], [w2++]
     26e:	83 01 e9    	dec.w     w3, w3
     270:	0c 00 32    	bra       Z, 0x28a <L22>
     272:	21 59 ba    	tblrdl.b  [w1--], [w2++]
     274:	83 01 e9    	dec.w     w3, w3
     276:	08 00 32    	bra       Z, 0x288 <L42>
     278:	04 00 e0    	cp0.w     w4
     27a:	03 00 3a    	bra       NZ, 0x282 <L13>

0000027c <L32>:
     27c:	e2 80 40    	add.w     w1, #0x2, w1
     27e:	32 a0 b4    	addc.w    0x32
     280:	f5 ff 37    	bra       0x26c <L12>

00000282 <L13>:
     282:	11 d9 ba    	tblrdh.b  [w1], [w2++]
     284:	83 01 e9    	dec.w     w3, w3
     286:	fa ff 3a    	bra       NZ, 0x27c <L32>

00000288 <L42>:
     288:	81 00 e8    	inc.w     w1, w1

0000028a <L22>:
     28a:	e1 80 40    	add.w     w1, #0x1, w1
     28c:	32 a0 b4    	addc.w    0x32
     28e:	00 00 06    	return    

00000290 <.handle>:
     290:	b8 6e 04    	goto      0x6eb8 <_startS>
     292:	00 00 00 
     294:	c0 6e 04    	goto      0x6ec0 <_calibrateS>
     296:	00 00 00 
     298:	00 6f 04    	goto      0x6f00 <_acquiringS>
     29a:	00 00 00 
     29c:	66 6f 04    	goto      0x6f66 <_manualS>
     29e:	00 00 00 
     2a0:	ae 6f 04    	goto      0x6fae <_stabilizedS>
     2a2:	00 00 00 
     2a4:	f2 6f 04    	goto      0x6ff2 <_waypointS>
     2a6:	00 00 00 
     2a8:	3e 70 04    	goto      0x703e <_returnS>
     2aa:	00 00 00 
     2ac:	9e 56 04    	goto      0x569e <_sio_voltage_high>
     2ae:	00 00 00 
     2b0:	0a 57 04    	goto      0x570a <_sio_fp_data>
     2b2:	00 00 00 
     2b4:	b2 56 04    	goto      0x56b2 <_sio_voltage_low>
     2b6:	00 00 00 
     2b8:	76 56 04    	goto      0x5676 <_sio_newMsg>
     2ba:	00 00 00 
     2bc:	56 57 04    	goto      0x5756 <_sio_fp_checksum>
     2be:	00 00 00 
     2c0:	bc 81 04    	goto      0x81bc <_msg_A0>
     2c2:	00 00 00 
     2c4:	d8 81 04    	goto      0x81d8 <_msg_A2>
     2c6:	00 00 00 
     2c8:	aa 81 04    	goto      0x81aa <_msg_B3>
     2ca:	00 00 00 
     2cc:	e8 81 04    	goto      0x81e8 <_msg_PL1>
     2ce:	00 00 00 
     2d0:	fe 81 04    	goto      0x81fe <_msg_PL2>
     2d2:	00 00 00 
     2d4:	46 82 04    	goto      0x8246 <_msg_MSG2>
     2d6:	00 00 00 
     2d8:	7c 82 04    	goto      0x827c <_msg_MSG41>
     2da:	00 00 00 
     2dc:	b4 82 04    	goto      0x82b4 <_msg_MSGU>
     2de:	00 00 00 
     2e0:	da 82 04    	goto      0x82da <_msg_B0>
     2e2:	00 00 00 
     2e4:	56 55 04    	goto      0x5556 <_doneReadAccData>
     2e6:	00 00 00 
     2e8:	6e 4a 04    	goto      0x4a6e <_I2C_default>
     2ea:	00 00 00 
     2ec:	f0 02 04    	goto      0x2f0 <_prout>
     2ee:	00 00 00 

000002f0 <_prout>:
     2f0:	88 9f be    	mov.d     w8, [w15++]
     2f2:	00 04 78    	mov.w     w0, w8
     2f4:	90 04 90    	mov.w     [w0+2], w9
     2f6:	82 8f 54    	sub.w     w9, w2, [w15]
     2f8:	01 00 39    	bra       NC, 0x2fc <.L2>
     2fa:	82 04 78    	mov.w     w2, w9

000002fc <.L2>:
     2fc:	18 00 78    	mov.w     [w8], w0
     2fe:	09 01 78    	mov.w     w9, w2
     300:	19 00 07    	rcall     0x334 <_memcpy>
     302:	18 8c 44    	add.w     w9, [w8], [w8]
     304:	18 00 90    	mov.w     [w8+2], w0
     306:	09 00 50    	sub.w     w0, w9, w0
     308:	10 04 98    	mov.w     w0, [w8+2]
     30a:	08 00 78    	mov.w     w8, w0
     30c:	4f 04 be    	mov.d     [--w15], w8
     30e:	00 00 06    	return    

00000310 <_vsnprintf>:
     310:	04 00 fa    	lnk       #0x4
     312:	01 00 e0    	cp0.w     w1
     314:	05 00 3a    	bra       NZ, 0x320 <.L6>
     316:	64 80 57    	sub.w     w15, #0x4, w0
     318:	00 80 e8    	inc2.w    w0, w0
     31a:	e0 bf 9f    	mov.w     w0, [w15-4]
     31c:	f1 bf 9f    	mov.w     w1, [w15-2]
     31e:	03 00 37    	bra       0x326 <.L8>

00000320 <.L6>:
     320:	e0 bf 9f    	mov.w     w0, [w15-4]
     322:	01 00 e9    	dec.w     w1, w0
     324:	f0 bf 9f    	mov.w     w0, [w15-2]

00000326 <.L8>:
     326:	e4 80 57    	sub.w     w15, #0x4, w1
     328:	00 2f 20    	mov.w     #0x2f0, w0
     32a:	0b 00 07    	rcall     0x342 <__Printf>
     32c:	ef b8 97    	mov.w     [w15-4], w1
     32e:	80 48 eb    	clr.b     [w1]
     330:	00 80 fa    	ulnk      
     332:	00 00 06    	return    

00000334 <_memcpy>:
     334:	80 01 eb    	clr.w     w3
     336:	02 00 37    	bra       0x33c <.L2>

00000338 <.L3>:
     338:	61 f0 79    	mov.b     [w1+w3], [w0+w3]
     33a:	83 01 e8    	inc.w     w3, w3

0000033c <.L2>:
     33c:	82 8f 51    	sub.w     w3, w2, [w15]
     33e:	fc ff 3a    	bra       NZ, 0x338 <.L3>
     340:	00 00 06    	return    

00000342 <__Printf>:
     342:	62 00 fa    	lnk       #0x62
     344:	88 9f be    	mov.d     w8, [w15++]
     346:	8a 9f be    	mov.d     w10, [w15++]
     348:	00 04 be    	mov.d     w0, w8
     34a:	02 05 78    	mov.w     w2, w10
     34c:	83 00 78    	mov.w     w3, w1
     34e:	60 f9 2f    	mov.w     #0xff96, w0
     350:	0f 00 40    	add.w     w0, w15, w0
     352:	b0 00 07    	rcall     0x4b4 <__Vacopy>
     354:	88 97 9f    	mov.w     w8, [w15-96]
     356:	99 97 9f    	mov.w     w9, [w15-94]
     358:	00 00 eb    	clr.w     w0
     35a:	a0 9f 9f    	mov.w     w0, [w15-76]

0000035c <.L56>:
     35c:	9a 45 78    	mov.b     [w10], w11
     35e:	0b 80 fb    	ze        w11, w0
     360:	00 00 ea    	neg.w     w0, w0
     362:	cf 04 de    	lsr.w     w0, #0xf, w9
     364:	50 c2 b3    	mov.b     #0x25, w0
     366:	80 cf 55    	sub.b     w11, w0, [w15]
     368:	02 00 32    	bra       Z, 0x36e <.L4>
     36a:	09 04 78    	mov.w     w9, w8
     36c:	01 00 37    	bra       0x370 <.L6>

0000036e <.L4>:
     36e:	09 04 e9    	dec.w     w9, w8

00000370 <.L6>:
     370:	08 00 e0    	cp0.w     w8
     372:	0b 00 34    	bra       LE, 0x38a <.L7>
     374:	1f 90 97    	mov.w     [w15-94], w0
     376:	08 01 78    	mov.w     w8, w2
     378:	8a 00 78    	mov.w     w10, w1
     37a:	8f 91 97    	mov.w     [w15-96], w3
     37c:	03 00 01    	call      w3
     37e:	90 97 9f    	mov.w     w0, [w15-94]
     380:	00 00 e0    	cp0.w     w0
     382:	93 00 32    	bra       Z, 0x4aa <.L9>
     384:	2f 98 97    	mov.w     [w15-76], w0
     386:	00 00 44    	add.w     w8, w0, w0
     388:	a0 9f 9f    	mov.w     w0, [w15-76]

0000038a <.L7>:
     38a:	09 05 45    	add.w     w10, w9, w10
     38c:	50 c2 b3    	mov.b     #0x25, w0
     38e:	80 cf 55    	sub.b     w11, w0, [w15]
     390:	04 00 32    	bra       Z, 0x39a <.L11>
     392:	0b 04 e0    	cp0.b     w11
     394:	e3 ff 3a    	bra       NZ, 0x35c <.L56>
     396:	2f 98 97    	mov.w     [w15-76], w0
     398:	89 00 37    	bra       0x4ac <.L14>

0000039a <.L11>:
     39a:	00 00 eb    	clr.w     w0
     39c:	80 9f 9f    	mov.w     w0, [w15-80]
     39e:	f0 97 9f    	mov.w     w0, [w15-82]
     3a0:	e0 97 9f    	mov.w     w0, [w15-84]
     3a2:	d0 97 9f    	mov.w     w0, [w15-86]
     3a4:	c0 97 9f    	mov.w     w0, [w15-88]
     3a6:	b0 97 9f    	mov.w     w0, [w15-90]
     3a8:	c0 9f 9f    	mov.w     w0, [w15-72]
     3aa:	09 00 37    	bra       0x3be <.L15>

000003ac <.L16>:
     3ac:	60 7f 27    	mov.w     #0x77f6, w0
     3ae:	00 80 50    	sub.w     w1, w0, w0
     3b0:	00 00 40    	add.w     w0, w0, w0
     3b2:	a1 7e 27    	mov.w     #0x77ea, w1
     3b4:	e1 00 78    	mov.w     [w1+w0], w1
     3b6:	4f 98 97    	mov.w     [w15-72], w0
     3b8:	01 00 70    	ior.w     w0, w1, w0
     3ba:	c0 9f 9f    	mov.w     w0, [w15-72]
     3bc:	0a 05 e8    	inc.w     w10, w10

000003be <.L15>:
     3be:	1a 44 78    	mov.b     [w10], w8
     3c0:	88 00 fb    	se        w8, w1
     3c2:	60 7f 27    	mov.w     #0x77f6, w0
     3c4:	7c 00 07    	rcall     0x4be <_strchr>
     3c6:	80 00 78    	mov.w     w0, w1
     3c8:	00 00 e0    	cp0.w     w0
     3ca:	f0 ff 3a    	bra       NZ, 0x3ac <.L16>
     3cc:	a0 c2 b3    	mov.b     #0x2a, w0
     3ce:	80 4f 54    	sub.b     w8, w0, [w15]
     3d0:	0e 00 3a    	bra       NZ, 0x3ee <.L18>
     3d2:	bf 88 97    	mov.w     [w15-106], w1
     3d4:	01 80 e9    	dec2.w    w1, w0
     3d6:	b0 8f 9f    	mov.w     w0, [w15-106]
     3d8:	10 00 78    	mov.w     [w0], w0
     3da:	b0 9f 9f    	mov.w     w0, [w15-74]
     3dc:	00 00 e0    	cp0.w     w0
     3de:	05 00 3d    	bra       GE, 0x3ea <.L20>
     3e0:	00 00 ea    	neg.w     w0, w0
     3e2:	b0 9f 9f    	mov.w     w0, [w15-74]
     3e4:	4f 98 97    	mov.w     [w15-72], w0
     3e6:	00 20 a0    	bset.w    w0, #0x2
     3e8:	c0 9f 9f    	mov.w     w0, [w15-72]

000003ea <.L20>:
     3ea:	0a 05 e8    	inc.w     w10, w10
     3ec:	10 00 37    	bra       0x40e <.L22>

000003ee <.L18>:
     3ee:	b1 9f 9f    	mov.w     w1, [w15-74]
     3f0:	03 fd 2f    	mov.w     #0xffd0, w3
     3f2:	f4 ff 27    	mov.w     #0x7fff, w4
     3f4:	08 00 37    	bra       0x406 <.L23>

000003f6 <.L24>:
     3f6:	3f 98 97    	mov.w     [w15-74], w0
     3f8:	84 0f 50    	sub.w     w0, w4, [w15]
     3fa:	04 00 32    	bra       Z, 0x404 <.L25>
     3fc:	6a 00 b9    	mul.su    w0, #0xa, w0
     3fe:	00 00 41    	add.w     w2, w0, w0
     400:	03 00 40    	add.w     w0, w3, w0
     402:	b0 9f 9f    	mov.w     w0, [w15-74]

00000404 <.L25>:
     404:	0a 05 e8    	inc.w     w10, w10

00000406 <.L23>:
     406:	1a 01 fb    	se        [w10], w2
     408:	03 00 41    	add.w     w2, w3, w0
     40a:	e9 0f 50    	sub.w     w0, #0x9, [w15]
     40c:	f4 ff 36    	bra       LEU, 0x3f6 <.L24>

0000040e <.L22>:
     40e:	e0 c2 b3    	mov.b     #0x2e, w0
     410:	9a 4f 10    	subr.b    w0, [w10], [w15]
     412:	04 00 32    	bra       Z, 0x41c <.L27>
     414:	00 80 eb    	setm.w    w0
     416:	90 9f 9f    	mov.w     w0, [w15-78]
     418:	8a 04 78    	mov.w     w10, w9
     41a:	1c 00 37    	bra       0x454 <.L29>

0000041c <.L27>:
     41c:	8a 04 e8    	inc.w     w10, w9
     41e:	a0 c2 b3    	mov.b     #0x2a, w0
     420:	99 4f 10    	subr.b    w0, [w9], [w15]
     422:	07 00 3a    	bra       NZ, 0x432 <.L30>
     424:	bf 88 97    	mov.w     [w15-106], w1
     426:	01 80 e9    	dec2.w    w1, w0
     428:	b0 8f 9f    	mov.w     w0, [w15-106]
     42a:	10 00 78    	mov.w     [w0], w0
     42c:	90 9f 9f    	mov.w     w0, [w15-78]
     42e:	8a 84 e8    	inc2.w    w10, w9
     430:	11 00 37    	bra       0x454 <.L29>

00000432 <.L30>:
     432:	00 00 eb    	clr.w     w0
     434:	90 9f 9f    	mov.w     w0, [w15-78]
     436:	03 fd 2f    	mov.w     #0xffd0, w3
     438:	f4 ff 27    	mov.w     #0x7fff, w4
     43a:	08 00 37    	bra       0x44c <.L32>

0000043c <.L33>:
     43c:	1f 98 97    	mov.w     [w15-78], w0
     43e:	84 0f 50    	sub.w     w0, w4, [w15]
     440:	04 00 32    	bra       Z, 0x44a <.L34>
     442:	6a 00 b9    	mul.su    w0, #0xa, w0
     444:	00 00 41    	add.w     w2, w0, w0
     446:	03 00 40    	add.w     w0, w3, w0
     448:	90 9f 9f    	mov.w     w0, [w15-78]

0000044a <.L34>:
     44a:	89 04 e8    	inc.w     w9, w9

0000044c <.L32>:
     44c:	19 01 fb    	se        [w9], w2
     44e:	03 00 41    	add.w     w2, w3, w0
     450:	e9 0f 50    	sub.w     w0, #0x9, [w15]
     452:	f4 ff 36    	bra       LEU, 0x43c <.L33>

00000454 <.L29>:
     454:	19 44 78    	mov.b     [w9], w8
     456:	88 00 fb    	se        w8, w1
     458:	80 26 22    	mov.w     #0x2268, w0
     45a:	31 00 07    	rcall     0x4be <_strchr>
     45c:	00 00 e0    	cp0.w     w0
     45e:	02 00 3a    	bra       NZ, 0x464 <.L36>
     460:	00 44 78    	mov.b     w0, w8
     462:	01 00 37    	bra       0x466 <.L38>

00000464 <.L36>:
     464:	89 04 e8    	inc.w     w9, w9

00000466 <.L38>:
     466:	a8 7f 9f    	mov.b     w8, [w15-70]
     468:	80 c6 b3    	mov.b     #0x68, w0
     46a:	80 4f 54    	sub.b     w8, w0, [w15]
     46c:	04 00 3a    	bra       NZ, 0x476 <.L39>
     46e:	99 4f 14    	subr.b    w8, [w9], [w15]
     470:	0a 00 3a    	bra       NZ, 0x486 <.L41>
     472:	66 40 50    	sub.b     w0, #0x6, w0
     474:	06 00 37    	bra       0x482 <.L55>

00000476 <.L39>:
     476:	c0 c6 b3    	mov.b     #0x6c, w0
     478:	80 4f 54    	sub.b     w8, w0, [w15]
     47a:	05 00 3a    	bra       NZ, 0x486 <.L41>
     47c:	99 4f 14    	subr.b    w8, [w9], [w15]
     47e:	03 00 3a    	bra       NZ, 0x486 <.L41>
     480:	65 40 40    	add.b     w0, #0x5, w0

00000482 <.L55>:
     482:	a0 7f 9f    	mov.b     w0, [w15-70]
     484:	89 04 e8    	inc.w     w9, w9

00000486 <.L41>:
     486:	09 05 e8    	inc.w     w9, w10
     488:	c8 fb 2f    	mov.w     #0xffbc, w8
     48a:	0f 04 44    	add.w     w8, w15, w8
     48c:	60 f9 2f    	mov.w     #0xff96, w0
     48e:	0f 00 40    	add.w     w0, w15, w0
     490:	80 85 e8    	inc2.w    w0, w11
     492:	88 01 78    	mov.w     w8, w3
     494:	19 41 78    	mov.b     [w9], w2
     496:	80 00 78    	mov.w     w0, w1
     498:	0b 00 78    	mov.w     w11, w0
     49a:	1a 00 07    	rcall     0x4d0 <__Putfld>
     49c:	00 00 e0    	cp0.w     w0
     49e:	05 00 3a    	bra       NZ, 0x4aa <.L9>
     4a0:	88 00 78    	mov.w     w8, w1
     4a2:	0b 00 78    	mov.w     w11, w0
     4a4:	92 01 07    	rcall     0x7ca <__Puttxt>
     4a6:	00 00 e0    	cp0.w     w0
     4a8:	59 ff 3d    	bra       GE, 0x35c <.L56>

000004aa <.L9>:
     4aa:	00 80 eb    	setm.w    w0

000004ac <.L14>:
     4ac:	4f 05 be    	mov.d     [--w15], w10
     4ae:	4f 04 be    	mov.d     [--w15], w8
     4b0:	00 80 fa    	ulnk      
     4b2:	00 00 06    	return    

000004b4 <__Vacopy>:
     4b4:	02 00 fa    	lnk       #0x2
     4b6:	f1 bf 9f    	mov.w     w1, [w15-2]
     4b8:	01 08 78    	mov.w     w1, [w0]
     4ba:	00 80 fa    	ulnk      
     4bc:	00 00 06    	return    

000004be <_strchr>:
     4be:	04 00 37    	bra       0x4c8 <.L2>

000004c0 <.L3>:
     4c0:	02 04 e0    	cp0.b     w2
     4c2:	01 00 3a    	bra       NZ, 0x4c6 <.L4>
     4c4:	00 00 05    	retlw.w   #0x0, w0

000004c6 <.L4>:
     4c6:	00 00 e8    	inc.w     w0, w0

000004c8 <.L2>:
     4c8:	10 41 78    	mov.b     [w0], w2
     4ca:	81 4f 51    	sub.b     w2, w1, [w15]
     4cc:	f9 ff 3a    	bra       NZ, 0x4c0 <.L3>
     4ce:	00 00 06    	return    

000004d0 <__Putfld>:
     4d0:	88 9f be    	mov.d     w8, [w15++]
     4d2:	8a 1f 78    	mov.w     w10, [w15++]
     4d4:	00 04 78    	mov.w     w0, w8
     4d6:	01 02 78    	mov.w     w1, w4
     4d8:	82 44 78    	mov.b     w2, w9
     4da:	03 05 78    	mov.w     w3, w10
     4dc:	70 c6 b3    	mov.b     #0x67, w0
     4de:	80 4f 51    	sub.b     w2, w0, [w15]
     4e0:	21 00 3c    	bra       GT, 0x524 <.L11>
     4e2:	00 c0 e9    	dec2.b    w0, w0
     4e4:	80 4f 51    	sub.b     w2, w0, [w15]
     4e6:	de 00 3d    	bra       GE, 0x6a4 <.L4>
     4e8:	72 40 50    	sub.b     w0, #0x12, w0
     4ea:	80 4f 51    	sub.b     w2, w0, [w15]
     4ec:	4b 01 32    	bra       Z, 0x784 <.L5>
     4ee:	0d 00 3c    	bra       GT, 0x50a <.L12>
     4f0:	6c 40 50    	sub.b     w0, #0xc, w0
     4f2:	80 4f 51    	sub.b     w2, w0, [w15]
     4f4:	5e 01 3c    	bra       GT, 0x7b2 <.L2>
     4f6:	00 c0 e9    	dec2.b    w0, w0
     4f8:	80 4f 51    	sub.b     w2, w0, [w15]
     4fa:	d4 00 3d    	bra       GE, 0x6a4 <.L4>
     4fc:	50 c2 b3    	mov.b     #0x25, w0
     4fe:	80 4f 51    	sub.b     w2, w0, [w15]
     500:	55 01 32    	bra       Z, 0x7ac <.L3>
     502:	7c 40 40    	add.b     w0, #0x1c, w0
     504:	80 4f 51    	sub.b     w2, w0, [w15]
     506:	55 01 3a    	bra       NZ, 0x7b2 <.L2>
     508:	cd 00 37    	bra       0x6a4 <.L4>

0000050a <.L12>:
     50a:	10 c6 b3    	mov.b     #0x61, w0
     50c:	80 4f 51    	sub.b     w2, w0, [w15]
     50e:	ca 00 32    	bra       Z, 0x6a4 <.L4>
     510:	04 00 3c    	bra       GT, 0x51a <.L13>
     512:	69 40 50    	sub.b     w0, #0x9, w0
     514:	80 4f 51    	sub.b     w2, w0, [w15]
     516:	4d 01 3a    	bra       NZ, 0x7b2 <.L2>
     518:	72 00 37    	bra       0x5fe <.L6>

0000051a <.L13>:
     51a:	30 c6 b3    	mov.b     #0x63, w0
     51c:	80 4f 51    	sub.b     w2, w0, [w15]
     51e:	18 00 32    	bra       Z, 0x550 <.L7>
     520:	00 40 e8    	inc.b     w0, w0
     522:	09 00 37    	bra       0x536 <.L81>

00000524 <.L11>:
     524:	00 c7 b3    	mov.b     #0x70, w0
     526:	80 4f 51    	sub.b     w2, w0, [w15]
     528:	1e 01 32    	bra       Z, 0x766 <.L10>
     52a:	08 00 3c    	bra       GT, 0x53c <.L14>
     52c:	00 c0 e9    	dec2.b    w0, w0
     52e:	80 4f 51    	sub.b     w2, w0, [w15]
     530:	e4 00 32    	bra       Z, 0x6fa <.L9>
     532:	65 00 3c    	bra       GT, 0x5fe <.L6>
     534:	65 40 50    	sub.b     w0, #0x5, w0

00000536 <.L81>:
     536:	80 cf 54    	sub.b     w9, w0, [w15]
     538:	3c 01 3a    	bra       NZ, 0x7b2 <.L2>
     53a:	0f 00 37    	bra       0x55a <.L8>

0000053c <.L14>:
     53c:	50 c7 b3    	mov.b     #0x75, w0
     53e:	80 4f 51    	sub.b     w2, w0, [w15]
     540:	5e 00 32    	bra       Z, 0x5fe <.L6>
     542:	63 40 40    	add.b     w0, #0x3, w0
     544:	80 4f 51    	sub.b     w2, w0, [w15]
     546:	5b 00 32    	bra       Z, 0x5fe <.L6>
     548:	65 40 50    	sub.b     w0, #0x5, w0
     54a:	80 4f 51    	sub.b     w2, w0, [w15]
     54c:	32 01 3a    	bra       NZ, 0x7b2 <.L2>
     54e:	1a 01 37    	bra       0x784 <.L5>

00000550 <.L7>:
     550:	91 80 e9    	dec2.w    [w1], w1
     552:	01 0a 78    	mov.w     w1, [w4]
     554:	78 00 90    	mov.w     [w8+14], w0
     556:	91 71 78    	mov.b     [w1], [w3+w0]
     558:	32 01 37    	bra       0x7be <.L88>

0000055a <.L8>:
     55a:	a8 60 90    	mov.b     [w8+34], w1
     55c:	c0 c6 b3    	mov.b     #0x6c, w0
     55e:	80 cf 50    	sub.b     w1, w0, [w15]
     560:	0a 00 3a    	bra       NZ, 0x576 <.L16>
     562:	94 00 78    	mov.w     [w4], w1
     564:	64 80 50    	sub.w     w1, #0x4, w0
     566:	00 0a 78    	mov.w     w0, [w4]
     568:	10 00 be    	mov.d     [w0], w0
     56a:	4f 89 de    	asr.w     w1, #0xf, w2
     56c:	cf 91 de    	asr.w     w2, #0xf, w3
     56e:	00 02 be    	mov.d     w0, w4
     570:	02 03 78    	mov.w     w2, w6
     572:	82 03 78    	mov.w     w2, w7
     574:	13 00 37    	bra       0x59c <.L18>

00000576 <.L16>:
     576:	10 c7 b3    	mov.b     #0x71, w0
     578:	80 cf 50    	sub.b     w1, w0, [w15]
     57a:	03 00 32    	bra       Z, 0x582 <.L82>
     57c:	a0 c6 b3    	mov.b     #0x6a, w0
     57e:	80 cf 50    	sub.b     w1, w0, [w15]
     580:	06 00 3a    	bra       NZ, 0x58e <.L21>

00000582 <.L82>:
     582:	94 00 78    	mov.w     [w4], w1
     584:	68 80 50    	sub.w     w1, #0x8, w0
     586:	00 0a 78    	mov.w     w0, [w4]
     588:	30 02 be    	mov.d     [w0++], w4
     58a:	20 03 be    	mov.d     [w0--], w6
     58c:	07 00 37    	bra       0x59c <.L18>

0000058e <.L21>:
     58e:	14 80 e9    	dec2.w    [w4], w0
     590:	00 0a 78    	mov.w     w0, [w4]
     592:	10 00 78    	mov.w     [w0], w0
     594:	00 02 78    	mov.w     w0, w4
     596:	cf a2 de    	asr.w     w4, #0xf, w5
     598:	05 03 78    	mov.w     w5, w6
     59a:	86 03 78    	mov.w     w6, w7

0000059c <.L18>:
     59c:	04 9c be    	mov.d     w4, [w8++]
     59e:	06 94 be    	mov.d     w6, [w8--]
     5a0:	a8 60 90    	mov.b     [w8+34], w1
     5a2:	80 c6 b3    	mov.b     #0x68, w0
     5a4:	80 cf 50    	sub.b     w1, w0, [w15]
     5a6:	0e 00 32    	bra       Z, 0x5c4 <.L28>
     5a8:	20 c6 b3    	mov.b     #0x62, w0
     5aa:	80 cf 50    	sub.b     w1, w0, [w15]
     5ac:	05 00 3a    	bra       NZ, 0x5b8 <.L26>
     5ae:	04 00 fb    	se        w4, w0
     5b0:	cf 80 de    	asr.w     w0, #0xf, w1
     5b2:	01 01 78    	mov.w     w1, w2
     5b4:	82 01 78    	mov.w     w2, w3
     5b6:	0a 00 37    	bra       0x5cc <.L83>

000005b8 <.L26>:
     5b8:	40 c7 b3    	mov.b     #0x74, w0
     5ba:	80 cf 50    	sub.b     w1, w0, [w15]
     5bc:	03 00 32    	bra       Z, 0x5c4 <.L28>
     5be:	66 40 40    	add.b     w0, #0x6, w0
     5c0:	80 cf 50    	sub.b     w1, w0, [w15]
     5c2:	06 00 3a    	bra       NZ, 0x5d0 <.L25>

000005c4 <.L28>:
     5c4:	04 00 78    	mov.w     w4, w0
     5c6:	cf 80 de    	asr.w     w0, #0xf, w1
     5c8:	01 01 78    	mov.w     w1, w2
     5ca:	82 01 78    	mov.w     w2, w3

000005cc <.L83>:
     5cc:	00 9c be    	mov.d     w0, [w8++]
     5ce:	02 94 be    	mov.d     w2, [w8--]

000005d0 <.L25>:
     5d0:	38 00 be    	mov.d     [w8++], w0
     5d2:	28 01 be    	mov.d     [w8--], w2
     5d4:	e0 0f 50    	sub.w     w0, #0x0, [w15]
     5d6:	e0 8f 58    	subb.w    w1, #0x0, [w15]
     5d8:	e0 0f 59    	subb.w    w2, #0x0, [w15]
     5da:	e0 8f 59    	subb.w    w3, #0x0, [w15]
     5dc:	03 00 3d    	bra       GE, 0x5e4 <.L30>
     5de:	78 00 90    	mov.w     [w8+14], w0
     5e0:	d1 c2 b3    	mov.b     #0x2d, w1
     5e2:	0a 00 37    	bra       0x5f8 <.L84>

000005e4 <.L30>:
     5e4:	08 10 90    	mov.w     [w8+32], w0
     5e6:	00 18 a3    	btst.z    w0, #0x1
     5e8:	03 00 32    	bra       Z, 0x5f0 <.L33>
     5ea:	78 00 90    	mov.w     [w8+14], w0
     5ec:	b1 c2 b3    	mov.b     #0x2b, w1
     5ee:	04 00 37    	bra       0x5f8 <.L84>

000005f0 <.L33>:
     5f0:	00 08 a3    	btst.z    w0, #0x0
     5f2:	53 00 32    	bra       Z, 0x69a <.L50>
     5f4:	78 00 90    	mov.w     [w8+14], w0
     5f6:	01 c2 b3    	mov.b     #0x20, w1

000005f8 <.L84>:
     5f8:	01 75 78    	mov.b     w1, [w10+w0]
     5fa:	00 00 e8    	inc.w     w0, w0
     5fc:	4d 00 37    	bra       0x698 <.L90>

000005fe <.L6>:
     5fe:	a8 60 90    	mov.b     [w8+34], w1
     600:	c0 c6 b3    	mov.b     #0x6c, w0
     602:	80 cf 50    	sub.b     w1, w0, [w15]
     604:	06 00 3a    	bra       NZ, 0x612 <.L36>
     606:	94 00 78    	mov.w     [w4], w1
     608:	64 80 50    	sub.w     w1, #0x4, w0
     60a:	00 0a 78    	mov.w     w0, [w4]
     60c:	10 02 be    	mov.d     [w0], w4
     60e:	60 33 b8    	mul.uu    w6, #0x0, w6
     610:	13 00 37    	bra       0x638 <.L38>

00000612 <.L36>:
     612:	10 c7 b3    	mov.b     #0x71, w0
     614:	80 cf 50    	sub.b     w1, w0, [w15]
     616:	03 00 32    	bra       Z, 0x61e <.L85>
     618:	a0 c6 b3    	mov.b     #0x6a, w0
     61a:	80 cf 50    	sub.b     w1, w0, [w15]
     61c:	06 00 3a    	bra       NZ, 0x62a <.L41>

0000061e <.L85>:
     61e:	94 00 78    	mov.w     [w4], w1
     620:	68 80 50    	sub.w     w1, #0x8, w0
     622:	00 0a 78    	mov.w     w0, [w4]
     624:	30 02 be    	mov.d     [w0++], w4
     626:	20 03 be    	mov.d     [w0--], w6
     628:	07 00 37    	bra       0x638 <.L38>

0000062a <.L41>:
     62a:	14 80 e9    	dec2.w    [w4], w0
     62c:	00 0a 78    	mov.w     w0, [w4]
     62e:	10 00 78    	mov.w     [w0], w0
     630:	00 02 78    	mov.w     w0, w4
     632:	05 00 20    	mov.w     #0x0, w5
     634:	06 00 20    	mov.w     #0x0, w6
     636:	07 00 20    	mov.w     #0x0, w7

00000638 <.L38>:
     638:	04 9c be    	mov.d     w4, [w8++]
     63a:	06 94 be    	mov.d     w6, [w8--]
     63c:	a8 60 90    	mov.b     [w8+34], w1
     63e:	80 c6 b3    	mov.b     #0x68, w0
     640:	80 cf 50    	sub.b     w1, w0, [w15]
     642:	0e 00 32    	bra       Z, 0x660 <.L48>
     644:	20 c6 b3    	mov.b     #0x62, w0
     646:	80 cf 50    	sub.b     w1, w0, [w15]
     648:	05 00 3a    	bra       NZ, 0x654 <.L46>
     64a:	04 80 fb    	ze        w4, w0
     64c:	01 00 20    	mov.w     #0x0, w1
     64e:	02 00 20    	mov.w     #0x0, w2
     650:	03 00 20    	mov.w     #0x0, w3
     652:	0a 00 37    	bra       0x668 <.L86>

00000654 <.L46>:
     654:	40 c7 b3    	mov.b     #0x74, w0
     656:	80 cf 50    	sub.b     w1, w0, [w15]
     658:	03 00 32    	bra       Z, 0x660 <.L48>
     65a:	66 40 40    	add.b     w0, #0x6, w0
     65c:	80 cf 50    	sub.b     w1, w0, [w15]
     65e:	06 00 3a    	bra       NZ, 0x66c <.L45>

00000660 <.L48>:
     660:	04 00 78    	mov.w     w4, w0
     662:	01 00 20    	mov.w     #0x0, w1
     664:	02 00 20    	mov.w     #0x0, w2
     666:	03 00 20    	mov.w     #0x0, w3

00000668 <.L86>:
     668:	00 9c be    	mov.d     w0, [w8++]
     66a:	02 94 be    	mov.d     w2, [w8--]

0000066c <.L45>:
     66c:	08 10 90    	mov.w     [w8+32], w0
     66e:	00 38 a3    	btst.z    w0, #0x3
     670:	14 00 32    	bra       Z, 0x69a <.L50>
     672:	38 00 be    	mov.d     [w8++], w0
     674:	28 01 be    	mov.d     [w8--], w2
     676:	e0 0f 50    	sub.w     w0, #0x0, [w15]
     678:	e0 8f 58    	subb.w    w1, #0x0, [w15]
     67a:	e0 0f 59    	subb.w    w2, #0x0, [w15]
     67c:	e0 8f 59    	subb.w    w3, #0x0, [w15]
     67e:	0d 00 32    	bra       Z, 0x69a <.L50>
     680:	80 c7 b3    	mov.b     #0x78, w0
     682:	80 cf 54    	sub.b     w9, w0, [w15]
     684:	03 00 32    	bra       Z, 0x68c <.L53>
     686:	80 c5 b3    	mov.b     #0x58, w0
     688:	80 cf 54    	sub.b     w9, w0, [w15]
     68a:	07 00 3a    	bra       NZ, 0x69a <.L50>

0000068c <.L53>:
     68c:	78 00 90    	mov.w     [w8+14], w0
     68e:	01 c3 b3    	mov.b     #0x30, w1
     690:	01 75 78    	mov.b     w1, [w10+w0]
     692:	80 00 e8    	inc.w     w0, w1
     694:	09 f5 78    	mov.b     w9, [w10+w1]
     696:	00 80 e8    	inc2.w    w0, w0

00000698 <.L90>:
     698:	70 04 98    	mov.w     w0, [w8+14]

0000069a <.L50>:
     69a:	78 00 90    	mov.w     [w8+14], w0
     69c:	00 00 45    	add.w     w10, w0, w0
     69e:	60 04 98    	mov.w     w0, [w8+12]
     6a0:	89 40 78    	mov.b     w9, w1
     6a2:	6d 00 37    	bra       0x77e <.L89>

000006a4 <.L4>:
     6a4:	a8 60 90    	mov.b     [w8+34], w1
     6a6:	c0 c4 b3    	mov.b     #0x4c, w0
     6a8:	80 cf 50    	sub.b     w1, w0, [w15]
     6aa:	06 00 3a    	bra       NZ, 0x6b8 <.L55>
     6ac:	94 00 78    	mov.w     [w4], w1
     6ae:	68 80 50    	sub.w     w1, #0x8, w0
     6b0:	00 0a 78    	mov.w     w0, [w4]
     6b2:	50 01 be    	mov.d     [++w0], w2
     6b4:	40 00 be    	mov.d     [--w0], w0
     6b6:	05 00 37    	bra       0x6c2 <.L57>

000006b8 <.L55>:
     6b8:	94 00 78    	mov.w     [w4], w1
     6ba:	64 80 50    	sub.w     w1, #0x4, w0
     6bc:	00 0a 78    	mov.w     w0, [w4]
     6be:	10 00 be    	mov.d     [w0], w0
     6c0:	9a 08 07    	rcall     0x17f6 <___extendsfdf2>

000006c2 <.L57>:
     6c2:	00 9c be    	mov.d     w0, [w8++]
     6c4:	02 94 be    	mov.d     w2, [w8--]
     6c6:	38 00 90    	mov.w     [w8+6], w0
     6c8:	00 00 e0    	cp0.w     w0
     6ca:	03 00 3d    	bra       GE, 0x6d2 <.L58>
     6cc:	78 00 90    	mov.w     [w8+14], w0
     6ce:	d1 c2 b3    	mov.b     #0x2d, w1
     6d0:	0a 00 37    	bra       0x6e6 <.L87>

000006d2 <.L58>:
     6d2:	08 10 90    	mov.w     [w8+32], w0
     6d4:	00 18 a3    	btst.z    w0, #0x1
     6d6:	03 00 32    	bra       Z, 0x6de <.L61>
     6d8:	78 00 90    	mov.w     [w8+14], w0
     6da:	b1 c2 b3    	mov.b     #0x2b, w1
     6dc:	04 00 37    	bra       0x6e6 <.L87>

000006de <.L61>:
     6de:	00 08 a3    	btst.z    w0, #0x0
     6e0:	05 00 32    	bra       Z, 0x6ec <.L60>
     6e2:	78 00 90    	mov.w     [w8+14], w0
     6e4:	01 c2 b3    	mov.b     #0x20, w1

000006e6 <.L87>:
     6e6:	01 75 78    	mov.b     w1, [w10+w0]
     6e8:	00 00 e8    	inc.w     w0, w0
     6ea:	70 04 98    	mov.w     w0, [w8+14]

000006ec <.L60>:
     6ec:	78 00 90    	mov.w     [w8+14], w0
     6ee:	00 00 45    	add.w     w10, w0, w0
     6f0:	60 04 98    	mov.w     w0, [w8+12]
     6f2:	89 40 78    	mov.b     w9, w1
     6f4:	08 00 78    	mov.w     w8, w0
     6f6:	33 01 07    	rcall     0x95e <__Ldtob>
     6f8:	64 00 37    	bra       0x7c2 <.L15>

000006fa <.L9>:
     6fa:	a8 60 90    	mov.b     [w8+34], w1
     6fc:	c0 c6 b3    	mov.b     #0x6c, w0
     6fe:	80 cf 50    	sub.b     w1, w0, [w15]
     700:	25 00 32    	bra       Z, 0x74c <.L68>
     702:	0a 00 3c    	bra       GT, 0x718 <.L72>
     704:	64 40 50    	sub.b     w0, #0x4, w0
     706:	80 cf 50    	sub.b     w1, w0, [w15]
     708:	28 00 32    	bra       Z, 0x75a <.L64>
     70a:	00 c0 e8    	inc2.b    w0, w0
     70c:	80 cf 50    	sub.b     w1, w0, [w15]
     70e:	14 00 32    	bra       Z, 0x738 <.L67>
     710:	68 40 50    	sub.b     w0, #0x8, w0
     712:	80 cf 50    	sub.b     w1, w0, [w15]
     714:	22 00 3a    	bra       NZ, 0x75a <.L64>
     716:	0a 00 37    	bra       0x72c <.L65>

00000718 <.L72>:
     718:	40 c7 b3    	mov.b     #0x74, w0
     71a:	80 cf 50    	sub.b     w1, w0, [w15]
     71c:	1e 00 32    	bra       Z, 0x75a <.L64>
     71e:	66 40 40    	add.b     w0, #0x6, w0
     720:	80 cf 50    	sub.b     w1, w0, [w15]
     722:	1b 00 32    	bra       Z, 0x75a <.L64>
     724:	69 40 50    	sub.b     w0, #0x9, w0
     726:	80 cf 50    	sub.b     w1, w0, [w15]
     728:	18 00 3a    	bra       NZ, 0x75a <.L64>
     72a:	06 00 37    	bra       0x738 <.L67>

0000072c <.L65>:
     72c:	14 80 e9    	dec2.w    [w4], w0
     72e:	00 0a 78    	mov.w     w0, [w4]
     730:	10 00 78    	mov.w     [w0], w0
     732:	48 5c 90    	mov.b     [w8+28], w8
     734:	08 48 78    	mov.b     w8, [w0]
     736:	45 00 37    	bra       0x7c2 <.L15>

00000738 <.L67>:
     738:	14 80 e9    	dec2.w    [w4], w0
     73a:	00 0a 78    	mov.w     w0, [w4]
     73c:	10 02 78    	mov.w     [w0], w4
     73e:	68 08 90    	mov.w     [w8+28], w0
     740:	cf 80 de    	asr.w     w0, #0xf, w1
     742:	01 01 78    	mov.w     w1, w2
     744:	82 01 78    	mov.w     w2, w3
     746:	00 9a be    	mov.d     w0, [w4++]
     748:	02 92 be    	mov.d     w2, [w4--]
     74a:	3b 00 37    	bra       0x7c2 <.L15>

0000074c <.L68>:
     74c:	14 80 e9    	dec2.w    [w4], w0
     74e:	00 0a 78    	mov.w     w0, [w4]
     750:	10 01 78    	mov.w     [w0], w2
     752:	68 08 90    	mov.w     [w8+28], w0
     754:	cf 80 de    	asr.w     w0, #0xf, w1
     756:	00 89 be    	mov.d     w0, [w2]
     758:	34 00 37    	bra       0x7c2 <.L15>

0000075a <.L64>:
     75a:	14 80 e9    	dec2.w    [w4], w0
     75c:	00 0a 78    	mov.w     w0, [w4]
     75e:	10 00 78    	mov.w     [w0], w0
     760:	68 0c 90    	mov.w     [w8+28], w8
     762:	08 08 78    	mov.w     w8, [w0]
     764:	2e 00 37    	bra       0x7c2 <.L15>

00000766 <.L10>:
     766:	11 80 e9    	dec2.w    [w1], w0
     768:	80 08 78    	mov.w     w0, [w1]
     76a:	10 00 78    	mov.w     [w0], w0
     76c:	cf 80 de    	asr.w     w0, #0xf, w1
     76e:	01 01 78    	mov.w     w1, w2
     770:	82 01 78    	mov.w     w2, w3
     772:	00 9c be    	mov.d     w0, [w8++]
     774:	02 94 be    	mov.d     w2, [w8--]
     776:	78 00 90    	mov.w     [w8+14], w0
     778:	00 00 45    	add.w     w10, w0, w0
     77a:	60 04 98    	mov.w     w0, [w8+12]
     77c:	81 c7 b3    	mov.b     #0x78, w1

0000077e <.L89>:
     77e:	08 00 78    	mov.w     w8, w0
     780:	17 03 07    	rcall     0xdb0 <__Litob>
     782:	1f 00 37    	bra       0x7c2 <.L15>

00000784 <.L5>:
     784:	14 80 e9    	dec2.w    [w4], w0
     786:	00 0a 78    	mov.w     w0, [w4]
     788:	10 00 78    	mov.w     [w0], w0
     78a:	60 04 98    	mov.w     w0, [w8+12]
     78c:	58 09 90    	mov.w     [w8+26], w2
     78e:	02 00 e0    	cp0.w     w2
     790:	02 00 3d    	bra       GE, 0x796 <.L73>
     792:	97 04 07    	rcall     0x10c2 <_strlen>
     794:	09 00 37    	bra       0x7a8 <.L75>

00000796 <.L73>:
     796:	80 00 eb    	clr.w     w1
     798:	9b 04 07    	rcall     0x10d0 <_memchr>
     79a:	80 00 78    	mov.w     w0, w1
     79c:	00 00 e0    	cp0.w     w0
     79e:	03 00 32    	bra       Z, 0x7a6 <.L76>
     7a0:	68 00 90    	mov.w     [w8+12], w0
     7a2:	00 80 50    	sub.w     w1, w0, w0
     7a4:	01 00 37    	bra       0x7a8 <.L75>

000007a6 <.L76>:
     7a6:	58 08 90    	mov.w     [w8+26], w0

000007a8 <.L75>:
     7a8:	10 0c 98    	mov.w     w0, [w8+18]
     7aa:	0b 00 37    	bra       0x7c2 <.L15>

000007ac <.L3>:
     7ac:	78 00 90    	mov.w     [w8+14], w0
     7ae:	02 75 78    	mov.b     w2, [w10+w0]
     7b0:	06 00 37    	bra       0x7be <.L88>

000007b2 <.L2>:
     7b2:	78 00 90    	mov.w     [w8+14], w0
     7b4:	80 00 45    	add.w     w10, w0, w1
     7b6:	09 04 e0    	cp0.b     w9
     7b8:	01 00 3a    	bra       NZ, 0x7bc <.L78>
     7ba:	59 c2 b3    	mov.b     #0x25, w9

000007bc <.L78>:
     7bc:	89 48 78    	mov.b     w9, [w1]

000007be <.L88>:
     7be:	00 00 e8    	inc.w     w0, w0
     7c0:	70 04 98    	mov.w     w0, [w8+14]

000007c2 <.L15>:
     7c2:	00 00 eb    	clr.w     w0
     7c4:	4f 05 78    	mov.w     [--w15], w10
     7c6:	4f 04 be    	mov.d     [--w15], w8
     7c8:	00 00 06    	return    

000007ca <__Puttxt>:
     7ca:	04 00 fa    	lnk       #0x4
     7cc:	88 9f be    	mov.d     w8, [w15++]
     7ce:	8a 9f be    	mov.d     w10, [w15++]
     7d0:	8c 1f 78    	mov.w     w12, [w15++]
     7d2:	00 04 78    	mov.w     w0, w8
     7d4:	01 06 78    	mov.w     w1, w12
     7d6:	70 08 90    	mov.w     [w0+30], w0
     7d8:	f8 00 90    	mov.w     [w8+14], w1
     7da:	01 00 50    	sub.w     w0, w1, w0
     7dc:	88 08 90    	mov.w     [w8+16], w1
     7de:	01 00 50    	sub.w     w0, w1, w0
     7e0:	98 08 90    	mov.w     [w8+18], w1
     7e2:	01 00 50    	sub.w     w0, w1, w0
     7e4:	a8 08 90    	mov.w     [w8+20], w1
     7e6:	01 00 50    	sub.w     w0, w1, w0
     7e8:	b8 08 90    	mov.w     [w8+22], w1
     7ea:	01 00 50    	sub.w     w0, w1, w0
     7ec:	c8 08 90    	mov.w     [w8+24], w1
     7ee:	81 05 50    	sub.w     w0, w1, w11
     7f0:	00 02 22    	mov.w     #0x2020, w0
     7f2:	90 bf 9f    	mov.w     w0, [w15-14]
     7f4:	00 03 23    	mov.w     #0x3030, w0
     7f6:	a0 bf 9f    	mov.w     w0, [w15-12]
     7f8:	08 10 90    	mov.w     [w8+32], w0
     7fa:	00 28 a3    	btst.z    w0, #0x2
     7fc:	18 00 3a    	bra       NZ, 0x82e <.L2>
     7fe:	0b 00 e0    	cp0.w     w11
     800:	16 00 34    	bra       LE, 0x82e <.L2>
     802:	8b 04 78    	mov.w     w11, w9

00000804 <.L5>:
     804:	09 05 78    	mov.w     w9, w10
     806:	e2 8f 54    	sub.w     w9, #0x2, [w15]
     808:	02 00 36    	bra       LEU, 0x80e <.L6>
     80a:	2a 00 20    	mov.w     #0x2, w10
     80c:	02 00 37    	bra       0x812 <.L48>

0000080e <.L6>:
     80e:	09 00 e0    	cp0.w     w9
     810:	0b 00 34    	bra       LE, 0x828 <.L7>

00000812 <.L48>:
     812:	58 00 90    	mov.w     [w8+10], w0
     814:	c8 01 90    	mov.w     [w8+8], w3
     816:	0a 01 78    	mov.w     w10, w2
     818:	ee 80 57    	sub.w     w15, #0xe, w1
     81a:	03 00 01    	call      w3
     81c:	50 04 98    	mov.w     w0, [w8+10]
     81e:	00 00 e0    	cp0.w     w0
     820:	96 00 32    	bra       Z, 0x94e <.L9>
     822:	68 08 90    	mov.w     [w8+28], w0
     824:	00 00 45    	add.w     w10, w0, w0
     826:	60 0c 98    	mov.w     w0, [w8+28]

00000828 <.L7>:
     828:	8a 84 54    	sub.w     w9, w10, w9
     82a:	42 40 a9    	bclr.b    0x42, #0x2
     82c:	eb ff 3c    	bra       GT, 0x804 <.L5>

0000082e <.L2>:
     82e:	78 01 90    	mov.w     [w8+14], w2
     830:	02 00 e0    	cp0.w     w2
     832:	0b 00 34    	bra       LE, 0x84a <.L11>
     834:	58 00 90    	mov.w     [w8+10], w0
     836:	c8 01 90    	mov.w     [w8+8], w3
     838:	8c 00 78    	mov.w     w12, w1
     83a:	03 00 01    	call      w3
     83c:	50 04 98    	mov.w     w0, [w8+10]
     83e:	00 00 e0    	cp0.w     w0
     840:	86 00 32    	bra       Z, 0x94e <.L9>
     842:	68 08 90    	mov.w     [w8+28], w0
     844:	f8 00 90    	mov.w     [w8+14], w1
     846:	01 00 40    	add.w     w0, w1, w0
     848:	60 0c 98    	mov.w     w0, [w8+28]

0000084a <.L11>:
     84a:	88 0c 90    	mov.w     [w8+16], w9
     84c:	09 00 e0    	cp0.w     w9
     84e:	15 00 34    	bra       LE, 0x87a <.L14>

00000850 <.L53>:
     850:	09 05 78    	mov.w     w9, w10
     852:	e2 8f 54    	sub.w     w9, #0x2, [w15]
     854:	02 00 36    	bra       LEU, 0x85a <.L16>
     856:	2a 00 20    	mov.w     #0x2, w10
     858:	02 00 37    	bra       0x85e <.L49>

0000085a <.L16>:
     85a:	09 00 e0    	cp0.w     w9
     85c:	0b 00 34    	bra       LE, 0x874 <.L17>

0000085e <.L49>:
     85e:	58 00 90    	mov.w     [w8+10], w0
     860:	c8 01 90    	mov.w     [w8+8], w3
     862:	0a 01 78    	mov.w     w10, w2
     864:	ec 80 57    	sub.w     w15, #0xc, w1
     866:	03 00 01    	call      w3
     868:	50 04 98    	mov.w     w0, [w8+10]
     86a:	00 00 e0    	cp0.w     w0
     86c:	70 00 32    	bra       Z, 0x94e <.L9>
     86e:	68 08 90    	mov.w     [w8+28], w0
     870:	00 00 45    	add.w     w10, w0, w0
     872:	60 0c 98    	mov.w     w0, [w8+28]

00000874 <.L17>:
     874:	8a 84 54    	sub.w     w9, w10, w9
     876:	42 40 a9    	bclr.b    0x42, #0x2
     878:	eb ff 3c    	bra       GT, 0x850 <.L53>

0000087a <.L14>:
     87a:	18 09 90    	mov.w     [w8+18], w2
     87c:	02 00 e0    	cp0.w     w2
     87e:	0b 00 34    	bra       LE, 0x896 <.L20>
     880:	e8 00 90    	mov.w     [w8+12], w1
     882:	58 00 90    	mov.w     [w8+10], w0
     884:	c8 01 90    	mov.w     [w8+8], w3
     886:	03 00 01    	call      w3
     888:	50 04 98    	mov.w     w0, [w8+10]
     88a:	00 00 e0    	cp0.w     w0
     88c:	60 00 32    	bra       Z, 0x94e <.L9>
     88e:	68 08 90    	mov.w     [w8+28], w0
     890:	98 08 90    	mov.w     [w8+18], w1
     892:	01 00 40    	add.w     w0, w1, w0
     894:	60 0c 98    	mov.w     w0, [w8+28]

00000896 <.L20>:
     896:	a8 0c 90    	mov.w     [w8+20], w9
     898:	09 00 e0    	cp0.w     w9
     89a:	15 00 34    	bra       LE, 0x8c6 <.L23>

0000089c <.L54>:
     89c:	09 05 78    	mov.w     w9, w10
     89e:	e2 8f 54    	sub.w     w9, #0x2, [w15]
     8a0:	02 00 36    	bra       LEU, 0x8a6 <.L25>
     8a2:	2a 00 20    	mov.w     #0x2, w10
     8a4:	02 00 37    	bra       0x8aa <.L50>

000008a6 <.L25>:
     8a6:	09 00 e0    	cp0.w     w9
     8a8:	0b 00 34    	bra       LE, 0x8c0 <.L26>

000008aa <.L50>:
     8aa:	58 00 90    	mov.w     [w8+10], w0
     8ac:	c8 01 90    	mov.w     [w8+8], w3
     8ae:	0a 01 78    	mov.w     w10, w2
     8b0:	ec 80 57    	sub.w     w15, #0xc, w1
     8b2:	03 00 01    	call      w3
     8b4:	50 04 98    	mov.w     w0, [w8+10]
     8b6:	00 00 e0    	cp0.w     w0
     8b8:	4a 00 32    	bra       Z, 0x94e <.L9>
     8ba:	68 08 90    	mov.w     [w8+28], w0
     8bc:	00 00 45    	add.w     w10, w0, w0
     8be:	60 0c 98    	mov.w     w0, [w8+28]

000008c0 <.L26>:
     8c0:	8a 84 54    	sub.w     w9, w10, w9
     8c2:	42 40 a9    	bclr.b    0x42, #0x2
     8c4:	eb ff 3c    	bra       GT, 0x89c <.L54>

000008c6 <.L23>:
     8c6:	38 09 90    	mov.w     [w8+22], w2
     8c8:	02 00 e0    	cp0.w     w2
     8ca:	0d 00 34    	bra       LE, 0x8e6 <.L29>
     8cc:	e8 00 90    	mov.w     [w8+12], w1
     8ce:	18 08 90    	mov.w     [w8+18], w0
     8d0:	80 80 40    	add.w     w1, w0, w1
     8d2:	58 00 90    	mov.w     [w8+10], w0
     8d4:	c8 01 90    	mov.w     [w8+8], w3
     8d6:	03 00 01    	call      w3
     8d8:	50 04 98    	mov.w     w0, [w8+10]
     8da:	00 00 e0    	cp0.w     w0
     8dc:	38 00 32    	bra       Z, 0x94e <.L9>
     8de:	68 08 90    	mov.w     [w8+28], w0
     8e0:	b8 08 90    	mov.w     [w8+22], w1
     8e2:	01 00 40    	add.w     w0, w1, w0
     8e4:	60 0c 98    	mov.w     w0, [w8+28]

000008e6 <.L29>:
     8e6:	c8 0c 90    	mov.w     [w8+24], w9
     8e8:	09 00 e0    	cp0.w     w9
     8ea:	15 00 34    	bra       LE, 0x916 <.L32>

000008ec <.L55>:
     8ec:	09 05 78    	mov.w     w9, w10
     8ee:	e2 8f 54    	sub.w     w9, #0x2, [w15]
     8f0:	02 00 36    	bra       LEU, 0x8f6 <.L34>
     8f2:	2a 00 20    	mov.w     #0x2, w10
     8f4:	02 00 37    	bra       0x8fa <.L51>

000008f6 <.L34>:
     8f6:	09 00 e0    	cp0.w     w9
     8f8:	0b 00 34    	bra       LE, 0x910 <.L35>

000008fa <.L51>:
     8fa:	58 00 90    	mov.w     [w8+10], w0
     8fc:	c8 01 90    	mov.w     [w8+8], w3
     8fe:	0a 01 78    	mov.w     w10, w2
     900:	ec 80 57    	sub.w     w15, #0xc, w1
     902:	03 00 01    	call      w3
     904:	50 04 98    	mov.w     w0, [w8+10]
     906:	00 00 e0    	cp0.w     w0
     908:	22 00 32    	bra       Z, 0x94e <.L9>
     90a:	68 08 90    	mov.w     [w8+28], w0
     90c:	00 00 45    	add.w     w10, w0, w0
     90e:	60 0c 98    	mov.w     w0, [w8+28]

00000910 <.L35>:
     910:	8a 84 54    	sub.w     w9, w10, w9
     912:	42 40 a9    	bclr.b    0x42, #0x2
     914:	eb ff 3c    	bra       GT, 0x8ec <.L55>

00000916 <.L32>:
     916:	08 10 90    	mov.w     [w8+32], w0
     918:	00 28 a3    	btst.z    w0, #0x2
     91a:	1b 00 32    	bra       Z, 0x952 <.L38>
     91c:	0b 00 e0    	cp0.w     w11
     91e:	19 00 34    	bra       LE, 0x952 <.L38>
     920:	8b 04 78    	mov.w     w11, w9

00000922 <.L41>:
     922:	09 05 78    	mov.w     w9, w10
     924:	e2 8f 54    	sub.w     w9, #0x2, [w15]
     926:	02 00 36    	bra       LEU, 0x92c <.L42>
     928:	2a 00 20    	mov.w     #0x2, w10
     92a:	02 00 37    	bra       0x930 <.L52>

0000092c <.L42>:
     92c:	09 00 e0    	cp0.w     w9
     92e:	0b 00 34    	bra       LE, 0x946 <.L43>

00000930 <.L52>:
     930:	58 00 90    	mov.w     [w8+10], w0
     932:	c8 01 90    	mov.w     [w8+8], w3
     934:	0a 01 78    	mov.w     w10, w2
     936:	ee 80 57    	sub.w     w15, #0xe, w1
     938:	03 00 01    	call      w3
     93a:	50 04 98    	mov.w     w0, [w8+10]
     93c:	00 00 e0    	cp0.w     w0
     93e:	07 00 32    	bra       Z, 0x94e <.L9>
     940:	68 08 90    	mov.w     [w8+28], w0
     942:	00 00 45    	add.w     w10, w0, w0
     944:	60 0c 98    	mov.w     w0, [w8+28]

00000946 <.L43>:
     946:	8a 84 54    	sub.w     w9, w10, w9
     948:	42 40 a9    	bclr.b    0x42, #0x2
     94a:	03 00 34    	bra       LE, 0x952 <.L38>
     94c:	ea ff 37    	bra       0x922 <.L41>

0000094e <.L9>:
     94e:	00 80 eb    	setm.w    w0
     950:	01 00 37    	bra       0x954 <.L46>

00000952 <.L38>:
     952:	00 00 eb    	clr.w     w0

00000954 <.L46>:
     954:	4f 06 78    	mov.w     [--w15], w12
     956:	4f 05 be    	mov.d     [--w15], w10
     958:	4f 04 be    	mov.d     [--w15], w8
     95a:	00 80 fa    	ulnk      
     95c:	00 00 06    	return    

0000095e <__Ldtob>:
     95e:	8f 04 b0    	add.w     #0x48, w15
     960:	88 9f be    	mov.d     w8, [w15++]
     962:	8a 9f be    	mov.d     w10, [w15++]
     964:	8c 9f be    	mov.d     w12, [w15++]
     966:	8e 1f 78    	mov.w     w14, [w15++]
     968:	f0 b7 9f    	mov.w     w0, [w15-18]
     96a:	81 f7 9f    	mov.b     w1, [w15-16]
     96c:	50 01 be    	mov.d     [++w0], w2
     96e:	40 00 be    	mov.d     [--w0], w0
     970:	f0 97 9f    	mov.w     w0, [w15-82]
     972:	81 9f 9f    	mov.w     w1, [w15-80]
     974:	92 9f 9f    	mov.w     w2, [w15-78]
     976:	a3 9f 9f    	mov.w     w3, [w15-76]
     978:	10 c6 b3    	mov.b     #0x61, w0
     97a:	0f f1 97    	mov.b     [w15-16], w2
     97c:	80 4f 51    	sub.b     w2, w0, [w15]
     97e:	16 00 32    	bra       Z, 0x9ac <.L2>
     980:	10 c4 b3    	mov.b     #0x41, w0
     982:	80 4f 51    	sub.b     w2, w0, [w15]
     984:	13 00 32    	bra       Z, 0x9ac <.L2>
     986:	ff b1 97    	mov.w     [w15-18], w3
     988:	53 08 90    	mov.w     [w3+26], w0
     98a:	00 00 e0    	cp0.w     w0
     98c:	03 00 3d    	bra       GE, 0x994 <.L5>
     98e:	60 00 20    	mov.w     #0x6, w0
     990:	d0 09 98    	mov.w     w0, [w3+26]
     992:	0c 00 37    	bra       0x9ac <.L2>

00000994 <.L5>:
     994:	00 00 e0    	cp0.w     w0
     996:	0a 00 3a    	bra       NZ, 0x9ac <.L2>
     998:	70 c6 b3    	mov.b     #0x67, w0
     99a:	0f f2 97    	mov.b     [w15-16], w4
     99c:	80 4f 52    	sub.b     w4, w0, [w15]
     99e:	03 00 32    	bra       Z, 0x9a6 <.L8>
     9a0:	70 c4 b3    	mov.b     #0x47, w0
     9a2:	80 4f 52    	sub.b     w4, w0, [w15]
     9a4:	03 00 3a    	bra       NZ, 0x9ac <.L2>

000009a6 <.L8>:
     9a6:	10 00 20    	mov.w     #0x1, w0
     9a8:	ff b2 97    	mov.w     [w15-18], w5
     9aa:	d0 0a 98    	mov.w     w0, [w5+26]

000009ac <.L2>:
     9ac:	ff b0 97    	mov.w     [w15-18], w1
     9ae:	c0 fa 2f    	mov.w     #0xffac, w0
     9b0:	0f 00 40    	add.w     w0, w15, w0
     9b2:	98 03 07    	rcall     0x10e4 <__LDunscale>
     9b4:	80 01 78    	mov.w     w0, w3
     9b6:	e2 0f 50    	sub.w     w0, #0x2, [w15]
     9b8:	15 00 3a    	bra       NZ, 0x9e4 <.L10>
     9ba:	30 00 20    	mov.w     #0x3, w0
     9bc:	ff b0 97    	mov.w     [w15-18], w1
     9be:	90 08 98    	mov.w     w0, [w1+18]
     9c0:	10 c6 b3    	mov.b     #0x61, w0
     9c2:	0f f1 97    	mov.b     [w15-16], w2
     9c4:	80 4f 51    	sub.b     w2, w0, [w15]
     9c6:	0a 00 32    	bra       Z, 0x9dc <.L12>
     9c8:	64 40 40    	add.b     w0, #0x4, w0
     9ca:	80 4f 51    	sub.b     w2, w0, [w15]
     9cc:	07 00 32    	bra       Z, 0x9dc <.L12>
     9ce:	00 40 e8    	inc.b     w0, w0
     9d0:	80 4f 51    	sub.b     w2, w0, [w15]
     9d2:	04 00 32    	bra       Z, 0x9dc <.L12>
     9d4:	01 6c 27    	mov.w     #0x76c0, w1
     9d6:	00 40 e8    	inc.b     w0, w0
     9d8:	80 4f 51    	sub.b     w2, w0, [w15]
     9da:	01 00 3a    	bra       NZ, 0x9de <.L17>

000009dc <.L12>:
     9dc:	41 6c 27    	mov.w     #0x76c4, w1

000009de <.L17>:
     9de:	ff b1 97    	mov.w     [w15-18], w3
     9e0:	63 00 90    	mov.w     [w3+12], w0
     9e2:	16 00 37    	bra       0xa10 <.L142>

000009e4 <.L10>:
     9e4:	00 00 e0    	cp0.w     w0
     9e6:	18 00 34    	bra       LE, 0xa18 <.L19>
     9e8:	30 00 20    	mov.w     #0x3, w0
     9ea:	7f b2 97    	mov.w     [w15-18], w4
     9ec:	10 0a 98    	mov.w     w0, [w4+18]
     9ee:	10 c6 b3    	mov.b     #0x61, w0
     9f0:	8f f2 97    	mov.b     [w15-16], w5
     9f2:	80 cf 52    	sub.b     w5, w0, [w15]
     9f4:	0a 00 32    	bra       Z, 0xa0a <.L21>
     9f6:	64 40 40    	add.b     w0, #0x4, w0
     9f8:	80 cf 52    	sub.b     w5, w0, [w15]
     9fa:	07 00 32    	bra       Z, 0xa0a <.L21>
     9fc:	00 40 e8    	inc.b     w0, w0
     9fe:	80 cf 52    	sub.b     w5, w0, [w15]
     a00:	04 00 32    	bra       Z, 0xa0a <.L21>
     a02:	81 6c 27    	mov.w     #0x76c8, w1
     a04:	00 40 e8    	inc.b     w0, w0
     a06:	80 cf 52    	sub.b     w5, w0, [w15]
     a08:	01 00 3a    	bra       NZ, 0xa0c <.L26>

00000a0a <.L21>:
     a0a:	c1 6c 27    	mov.w     #0x76cc, w1

00000a0c <.L26>:
     a0c:	7f b1 97    	mov.w     [w15-18], w2
     a0e:	62 00 90    	mov.w     [w2+12], w0

00000a10 <.L142>:
     a10:	31 58 78    	mov.b     [w1++], [w0++]
     a12:	31 58 78    	mov.b     [w1++], [w0++]
     a14:	11 48 78    	mov.b     [w1], [w0]
     a16:	c6 01 37    	bra       0xda4 <.L138>

00000a18 <.L19>:
     a18:	14 c6 b3    	mov.b     #0x61, w4
     a1a:	8f f2 97    	mov.b     [w15-16], w5
     a1c:	84 cf 52    	sub.b     w5, w4, [w15]
     a1e:	03 00 32    	bra       Z, 0xa26 <.L27>
     a20:	10 c4 b3    	mov.b     #0x41, w0
     a22:	80 cf 52    	sub.b     w5, w0, [w15]
     a24:	13 00 3a    	bra       NZ, 0xa4c <.L29>

00000a26 <.L27>:
     a26:	7f b0 97    	mov.w     [w15-18], w0
     a28:	60 01 90    	mov.w     [w0+12], w2
     a2a:	82 00 78    	mov.w     w2, w1
     a2c:	00 c3 b3    	mov.b     #0x30, w0
     a2e:	80 58 78    	mov.b     w0, [w1++]
     a30:	ff b2 97    	mov.w     [w15-18], w5
     a32:	e1 02 98    	mov.w     w1, [w5+12]
     a34:	80 c7 b3    	mov.b     #0x78, w0
     a36:	8f f2 97    	mov.b     [w15-16], w5
     a38:	84 cf 52    	sub.b     w5, w4, [w15]
     a3a:	01 00 32    	bra       Z, 0xa3e <.L32>
     a3c:	80 c5 b3    	mov.b     #0x58, w0

00000a3e <.L32>:
     a3e:	80 48 78    	mov.b     w0, [w1]
     a40:	02 80 e8    	inc2.w    w2, w0
     a42:	ff b0 97    	mov.w     [w15-18], w1
     a44:	e0 00 98    	mov.w     w0, [w1+12]
     a46:	71 00 90    	mov.w     [w1+14], w0
     a48:	00 80 e8    	inc2.w    w0, w0
     a4a:	f0 00 98    	mov.w     w0, [w1+14]

00000a4c <.L29>:
     a4c:	03 00 e0    	cp0.w     w3
     a4e:	05 00 3a    	bra       NZ, 0xa5a <.L33>
     a50:	e3 97 9f    	mov.w     w3, [w15-84]
     a52:	64 fb 2f    	mov.w     #0xffb6, w4
     a54:	0f 01 42    	add.w     w4, w15, w2
     a56:	03 07 78    	mov.w     w3, w14
     a58:	a0 01 37    	bra       0xd9a <.L35>

00000a5a <.L33>:
     a5a:	05 6d 27    	mov.w     #0x76d0, w5
     a5c:	e5 b7 9f    	mov.w     w5, [w15-20]
     a5e:	10 c6 b3    	mov.b     #0x61, w0
     a60:	8f f0 97    	mov.b     [w15-16], w1
     a62:	80 cf 50    	sub.b     w1, w0, [w15]
     a64:	05 00 32    	bra       Z, 0xa70 <.L38>
     a66:	10 c4 b3    	mov.b     #0x41, w0
     a68:	80 cf 50    	sub.b     w1, w0, [w15]
     a6a:	a7 00 3a    	bra       NZ, 0xbba <.L39>
     a6c:	12 6e 27    	mov.w     #0x76e1, w2
     a6e:	e2 b7 9f    	mov.w     w2, [w15-20]

00000a70 <.L38>:
     a70:	ff b1 97    	mov.w     [w15-18], w3
     a72:	53 08 90    	mov.w     [w3+26], w0
     a74:	1e 02 20    	mov.w     #0x21, w14
     a76:	00 00 e0    	cp0.w     w0
     a78:	01 00 35    	bra       LT, 0xa7c <.L43>
     a7a:	00 07 e8    	inc.w     w0, w14

00000a7c <.L43>:
     a7c:	0e 02 e8    	inc.w     w14, w4
     a7e:	d4 b7 9f    	mov.w     w4, [w15-22]
     a80:	60 22 b8    	mul.uu    w4, #0x0, w4
     a82:	60 33 b8    	mul.uu    w6, #0x0, w6
     a84:	7f 90 97    	mov.w     [w15-82], w0
     a86:	8f 98 97    	mov.w     [w15-80], w1
     a88:	1f 99 97    	mov.w     [w15-78], w2
     a8a:	af 99 97    	mov.w     [w15-76], w3
     a8c:	d3 06 07    	rcall     0x1834 <___eqdf2>
     a8e:	ff b0 97    	mov.w     [w15-18], w1
     a90:	31 02 be    	mov.d     [w1++], w4
     a92:	21 03 be    	mov.d     [w1--], w6
     a94:	00 00 e0    	cp0.w     w0
     a96:	04 00 3d    	bra       GE, 0xaa0 <.L44>
     a98:	04 00 be    	mov.d     w4, w0
     a9a:	06 01 be    	mov.d     w6, w2
     a9c:	03 f0 a2    	btg.w     w3, #0xf
     a9e:	02 00 37    	bra       0xaa4 <.L47>

00000aa0 <.L44>:
     aa0:	04 00 be    	mov.d     w4, w0
     aa2:	06 01 be    	mov.d     w6, w2

00000aa4 <.L47>:
     aa4:	f0 97 9f    	mov.w     w0, [w15-82]
     aa6:	81 9f 9f    	mov.w     w1, [w15-80]
     aa8:	92 9f 9f    	mov.w     w2, [w15-78]
     aaa:	a3 9f 9f    	mov.w     w3, [w15-76]
     aac:	6f 91 97    	mov.w     [w15-84], w2
     aae:	64 01 51    	sub.w     w2, #0x4, w2
     ab0:	e2 97 9f    	mov.w     w2, [w15-84]
     ab2:	c3 fa 2f    	mov.w     #0xffac, w3
     ab4:	8f 81 41    	add.w     w3, w15, w3
     ab6:	6a 80 41    	add.w     w3, #0xa, w0
     ab8:	00 48 eb    	clr.b     [w0]
     aba:	6b 82 41    	add.w     w3, #0xb, w4
     abc:	c4 b7 9f    	mov.w     w4, [w15-24]
     abe:	31 00 37    	bra       0xb22 <.L48>

00000ac0 <.L49>:
     ac0:	c2 01 20    	mov.w     #0x1c, w2
     ac2:	03 00 20    	mov.w     #0x0, w3
     ac4:	e5 fa 2f    	mov.w     #0xffae, w5
     ac6:	0f 80 42    	add.w     w5, w15, w0
     ac8:	39 03 07    	rcall     0x113c <__LDscale>
     aca:	7f 94 97    	mov.w     [w15-82], w8
     acc:	8f 9c 97    	mov.w     [w15-80], w9
     ace:	1f 9d 97    	mov.w     [w15-78], w10
     ad0:	af 9d 97    	mov.w     [w15-76], w11
     ad2:	08 00 be    	mov.d     w8, w0
     ad4:	0a 01 be    	mov.d     w10, w2
     ad6:	b3 06 07    	rcall     0x183e <___fixdfsi>
     ad8:	00 06 be    	mov.d     w0, w12
     ada:	5f b1 97    	mov.w     [w15-22], w2
     adc:	67 01 51    	sub.w     w2, #0x7, w2
     ade:	d2 b7 9f    	mov.w     w2, [w15-22]
     ae0:	42 40 a9    	bclr.b    0x42, #0x2
     ae2:	0a 00 34    	bra       LE, 0xaf8 <.L50>
     ae4:	d8 06 07    	rcall     0x1896 <___floatsidf>
     ae6:	00 02 be    	mov.d     w0, w4
     ae8:	02 03 be    	mov.d     w2, w6
     aea:	08 00 be    	mov.d     w8, w0
     aec:	0a 01 be    	mov.d     w10, w2
     aee:	d6 06 07    	rcall     0x189c <___subdf3>
     af0:	f0 97 9f    	mov.w     w0, [w15-82]
     af2:	81 9f 9f    	mov.w     w1, [w15-80]
     af4:	92 9f 9f    	mov.w     w2, [w15-78]
     af6:	a3 9f 9f    	mov.w     w3, [w15-76]

00000af8 <.L50>:
     af8:	cf b1 97    	mov.w     [w15-24], w3
     afa:	67 80 41    	add.w     w3, #0x7, w0
     afc:	71 00 20    	mov.w     #0x7, w1
     afe:	05 00 37    	bra       0xb0a <.L52>

00000b00 <.L53>:
     b00:	6f 60 66    	and.b     w12, #0xf, [--w0]
     b02:	4c 6a dd    	sl.w      w13, #0xc, w4
     b04:	44 66 de    	lsr.w     w12, #0x4, w12
     b06:	0c 06 72    	ior.w     w4, w12, w12
     b08:	c4 ee de    	asr.w     w13, #0x4, w13

00000b0a <.L52>:
     b0a:	e0 0f 56    	sub.w     w12, #0x0, [w15]
     b0c:	e0 8f 5e    	subb.w    w13, #0x0, [w15]
     b0e:	05 00 34    	bra       LE, 0xb1a <.L139>
     b10:	81 00 e9    	dec.w     w1, w1
     b12:	e1 8f 40    	add.w     w1, #0x1, [w15]
     b14:	f5 ff 3a    	bra       NZ, 0xb00 <.L53>
     b16:	01 00 37    	bra       0xb1a <.L139>

00000b18 <.L56>:
     b18:	00 60 eb    	clr.b     [--w0]

00000b1a <.L139>:
     b1a:	81 00 e9    	dec.w     w1, w1
     b1c:	fd ff 3b    	bra       NN, 0xb18 <.L56>
     b1e:	67 00 40    	add.w     w0, #0x7, w0
     b20:	c0 b7 9f    	mov.w     w0, [w15-24]

00000b22 <.L48>:
     b22:	df b2 97    	mov.w     [w15-22], w5
     b24:	05 00 e0    	cp0.w     w5
     b26:	09 00 34    	bra       LE, 0xb3a <.L58>
     b28:	60 22 b8    	mul.uu    w4, #0x0, w4
     b2a:	60 33 b8    	mul.uu    w6, #0x0, w6
     b2c:	7f 90 97    	mov.w     [w15-82], w0
     b2e:	8f 98 97    	mov.w     [w15-80], w1
     b30:	1f 99 97    	mov.w     [w15-78], w2
     b32:	af 99 97    	mov.w     [w15-76], w3
     b34:	b5 06 07    	rcall     0x18a0 <___gedf2>
     b36:	00 00 e0    	cp0.w     w0
     b38:	c3 ff 3c    	bra       GT, 0xac0 <.L49>

00000b3a <.L58>:
     b3a:	60 fb 2f    	mov.w     #0xffb6, w0
     b3c:	8f 00 40    	add.w     w0, w15, w1
     b3e:	4f b1 97    	mov.w     [w15-24], w2
     b40:	01 00 51    	sub.w     w2, w1, w0
     b42:	00 00 e9    	dec.w     w0, w0
     b44:	8e 0f 50    	sub.w     w0, w14, [w15]
     b46:	01 00 3d    	bra       GE, 0xb4a <.L60>
     b48:	00 07 78    	mov.w     w0, w14

00000b4a <.L60>:
     b4a:	0e 00 e0    	cp0.w     w14
     b4c:	03 00 3d    	bra       GE, 0xb54 <.L62>
     b4e:	73 fb 2f    	mov.w     #0xffb7, w3
     b50:	0f 81 41    	add.w     w3, w15, w2
     b52:	2c 00 37    	bra       0xbac <.L64>

00000b54 <.L62>:
     b54:	80 0f 57    	sub.w     w14, w0, [w15]
     b56:	05 00 3d    	bra       GE, 0xb62 <.L65>
     b58:	0e 80 40    	add.w     w1, w14, w0
     b5a:	10 40 90    	mov.b     [w0+1], w0
     b5c:	f3 c0 b3    	mov.b     #0xf, w3
     b5e:	e7 4f 50    	sub.b     w0, #0x7, [w15]
     b60:	01 00 3c    	bra       GT, 0xb64 <.L68>

00000b62 <.L65>:
     b62:	80 41 eb    	clr.b     w3

00000b64 <.L68>:
     b64:	c4 fa 2f    	mov.w     #0xffac, w4
     b66:	0f 02 42    	add.w     w4, w15, w4
     b68:	0e 00 42    	add.w     w4, w14, w0
     b6a:	6a 00 40    	add.w     w0, #0xa, w0
     b6c:	8e 00 78    	mov.w     w14, w1
     b6e:	01 00 37    	bra       0xb72 <.L69>

00000b70 <.L70>:
     b70:	00 00 e9    	dec.w     w0, w0

00000b72 <.L69>:
     b72:	81 00 e9    	dec.w     w1, w1
     b74:	10 41 78    	mov.b     [w0], w2
     b76:	83 4f 51    	sub.b     w2, w3, [w15]
     b78:	fb ff 32    	bra       Z, 0xb70 <.L70>
     b7a:	01 07 e8    	inc.w     w1, w14
     b7c:	ef cf 51    	sub.b     w3, #0xf, [w15]
     b7e:	01 00 3a    	bra       NZ, 0xb82 <.L72>
     b80:	02 48 e8    	inc.b     w2, [w0]

00000b82 <.L72>:
     b82:	01 00 e0    	cp0.w     w1
     b84:	03 00 35    	bra       LT, 0xb8c <.L74>
     b86:	75 fb 2f    	mov.w     #0xffb7, w5
     b88:	0f 81 42    	add.w     w5, w15, w2
     b8a:	06 00 37    	bra       0xb98 <.L76>

00000b8c <.L74>:
     b8c:	0e 07 e8    	inc.w     w14, w14
     b8e:	6f 90 97    	mov.w     [w15-84], w0
     b90:	64 00 40    	add.w     w0, #0x4, w0
     b92:	e0 97 9f    	mov.w     w0, [w15-84]
     b94:	61 fb 2f    	mov.w     #0xffb6, w1
     b96:	0f 81 40    	add.w     w1, w15, w2

00000b98 <.L76>:
     b98:	8e 00 41    	add.w     w2, w14, w1
     b9a:	8e 01 78    	mov.w     w14, w3
     b9c:	03 00 37    	bra       0xba4 <.L77>

00000b9e <.L78>:
     b9e:	11 00 fb    	se        [w1], w0
     ba0:	6f b2 97    	mov.w     [w15-20], w4
     ba2:	e4 48 78    	mov.b     [w4+w0], [w1]

00000ba4 <.L77>:
     ba4:	83 01 e9    	dec.w     w3, w3
     ba6:	81 00 e9    	dec.w     w1, w1
     ba8:	03 00 e0    	cp0.w     w3
     baa:	f9 ff 3d    	bra       GE, 0xb9e <.L78>

00000bac <.L64>:
     bac:	ff b2 97    	mov.w     [w15-18], w5
     bae:	55 08 90    	mov.w     [w5+26], w0
     bb0:	00 00 e0    	cp0.w     w0
     bb2:	f3 00 3d    	bra       GE, 0xd9a <.L35>
     bb4:	0e 00 e9    	dec.w     w14, w0
     bb6:	d0 0a 98    	mov.w     w0, [w5+26]
     bb8:	f0 00 37    	bra       0xd9a <.L35>

00000bba <.L39>:
     bba:	7f 94 97    	mov.w     [w15-82], w8
     bbc:	8f 9c 97    	mov.w     [w15-80], w9
     bbe:	1f 9d 97    	mov.w     [w15-78], w10
     bc0:	af 9d 97    	mov.w     [w15-76], w11
     bc2:	60 22 b8    	mul.uu    w4, #0x0, w4
     bc4:	60 33 b8    	mul.uu    w6, #0x0, w6
     bc6:	08 00 be    	mov.d     w8, w0
     bc8:	0a 01 be    	mov.d     w10, w2
     bca:	34 06 07    	rcall     0x1834 <___eqdf2>
     bcc:	00 00 e0    	cp0.w     w0
     bce:	05 00 3d    	bra       GE, 0xbda <.L80>
     bd0:	0b f0 a2    	btg.w     w11, #0xf
     bd2:	f8 97 9f    	mov.w     w8, [w15-82]
     bd4:	89 9f 9f    	mov.w     w9, [w15-80]
     bd6:	9a 9f 9f    	mov.w     w10, [w15-78]
     bd8:	ab 9f 9f    	mov.w     w11, [w15-76]

00000bda <.L80>:
     bda:	6f 90 97    	mov.w     [w15-84], w0
     bdc:	72 59 27    	mov.w     #0x7597, w2
     bde:	02 80 b9    	mul.ss    w0, w2, w0
     be0:	02 6a 28    	mov.w     #0x86a0, w2
     be2:	13 00 20    	mov.w     #0x1, w3
     be4:	d4 04 07    	rcall     0x158e <___divsi3>
     be6:	e4 00 50    	sub.w     w0, #0x4, w1
     be8:	e1 97 9f    	mov.w     w1, [w15-84]
     bea:	15 00 3b    	bra       NN, 0xc16 <.L83>
     bec:	e3 80 10    	subr.w    w1, #0x3, w1
     bee:	c0 ff 2f    	mov.w     #0xfffc, w0
     bf0:	00 84 60    	and.w     w1, w0, w8
     bf2:	08 00 ea    	neg.w     w8, w0
     bf4:	e0 97 9f    	mov.w     w0, [w15-84]
     bf6:	7f 90 97    	mov.w     [w15-82], w0
     bf8:	8f 98 97    	mov.w     [w15-80], w1
     bfa:	1f 99 97    	mov.w     [w15-78], w2
     bfc:	af 99 97    	mov.w     [w15-76], w3
     bfe:	09 22 22    	mov.w     #0x2220, w9
     c00:	07 00 37    	bra       0xc10 <.L85>

00000c02 <.L86>:
     c02:	08 08 a3    	btst.z    w8, #0x0
     c04:	03 00 32    	bra       Z, 0xc0c <.L87>
     c06:	39 02 be    	mov.d     [w9++], w4
     c08:	29 03 be    	mov.d     [w9--], w6
     c0a:	4f 06 07    	rcall     0x18aa <___muldf3>

00000c0c <.L87>:
     c0c:	08 84 d1    	asr.w     w8, w8
     c0e:	e8 84 44    	add.w     w9, #0x8, w9

00000c10 <.L85>:
     c10:	08 00 e0    	cp0.w     w8
     c12:	f7 ff 3c    	bra       GT, 0xc02 <.L86>
     c14:	1b 00 37    	bra       0xc4c <.L141>

00000c16 <.L83>:
     c16:	01 00 e0    	cp0.w     w1
     c18:	1d 00 34    	bra       LE, 0xc54 <.L90>
     c1a:	c0 ff 2f    	mov.w     #0xfffc, w0
     c1c:	00 80 60    	and.w     w1, w0, w0
     c1e:	e0 97 9f    	mov.w     w0, [w15-84]
     c20:	00 04 78    	mov.w     w0, w8
     c22:	60 00 b8    	mul.uu    w0, #0x0, w0
     c24:	02 00 20    	mov.w     #0x0, w2
     c26:	03 ff 23    	mov.w     #0x3ff0, w3
     c28:	09 22 22    	mov.w     #0x2220, w9
     c2a:	07 00 37    	bra       0xc3a <.L92>

00000c2c <.L93>:
     c2c:	08 08 a3    	btst.z    w8, #0x0
     c2e:	03 00 32    	bra       Z, 0xc36 <.L94>
     c30:	39 02 be    	mov.d     [w9++], w4
     c32:	29 03 be    	mov.d     [w9--], w6
     c34:	3a 06 07    	rcall     0x18aa <___muldf3>

00000c36 <.L94>:
     c36:	08 84 d1    	asr.w     w8, w8
     c38:	e8 84 44    	add.w     w9, #0x8, w9

00000c3a <.L92>:
     c3a:	08 00 e0    	cp0.w     w8
     c3c:	f7 ff 3c    	bra       GT, 0xc2c <.L93>
     c3e:	00 02 be    	mov.d     w0, w4
     c40:	02 03 be    	mov.d     w2, w6
     c42:	7f 90 97    	mov.w     [w15-82], w0
     c44:	8f 98 97    	mov.w     [w15-80], w1
     c46:	1f 99 97    	mov.w     [w15-78], w2
     c48:	af 99 97    	mov.w     [w15-76], w3
     c4a:	a4 06 07    	rcall     0x1994 <___divdf3>

00000c4c <.L141>:
     c4c:	f0 97 9f    	mov.w     w0, [w15-82]
     c4e:	81 9f 9f    	mov.w     w1, [w15-80]
     c50:	92 9f 9f    	mov.w     w2, [w15-78]
     c52:	a3 9f 9f    	mov.w     w3, [w15-76]

00000c54 <.L90>:
     c54:	ff b0 97    	mov.w     [w15-18], w1
     c56:	51 09 90    	mov.w     [w1+26], w2
     c58:	60 c6 b3    	mov.b     #0x66, w0
     c5a:	8f f1 97    	mov.b     [w15-16], w3
     c5c:	80 cf 51    	sub.b     w3, w0, [w15]
     c5e:	04 00 32    	bra       Z, 0xc68 <.L97>
     c60:	61 00 20    	mov.w     #0x6, w1
     c62:	60 c4 b3    	mov.b     #0x46, w0
     c64:	80 cf 51    	sub.b     w3, w0, [w15]
     c66:	02 00 3a    	bra       NZ, 0xc6c <.L100>

00000c68 <.L97>:
     c68:	6f 92 97    	mov.w     [w15-84], w4
     c6a:	ea 00 42    	add.w     w4, #0xa, w1

00000c6c <.L100>:
     c6c:	01 07 41    	add.w     w2, w1, w14
     c6e:	f3 0f 57    	sub.w     w14, #0x13, [w15]
     c70:	01 00 34    	bra       LE, 0xc74 <.L101>
     c72:	3e 01 20    	mov.w     #0x13, w14

00000c74 <.L101>:
     c74:	00 c3 b3    	mov.b     #0x30, w0
     c76:	e0 77 9f    	mov.b     w0, [w15-74]
     c78:	75 fb 2f    	mov.w     #0xffb7, w5
     c7a:	8f 82 42    	add.w     w5, w15, w5
     c7c:	b5 b7 9f    	mov.w     w5, [w15-26]
     c7e:	33 00 37    	bra       0xce6 <.L103>

00000c80 <.L104>:
     c80:	08 00 be    	mov.d     w8, w0
     c82:	0a 01 be    	mov.d     w10, w2
     c84:	dc 05 07    	rcall     0x183e <___fixdfsi>
     c86:	00 06 be    	mov.d     w0, w12
     c88:	68 07 57    	sub.w     w14, #0x8, w14
     c8a:	42 40 a9    	bclr.b    0x42, #0x2
     c8c:	0e 00 34    	bra       LE, 0xcaa <.L105>
     c8e:	03 06 07    	rcall     0x1896 <___floatsidf>
     c90:	00 02 be    	mov.d     w0, w4
     c92:	02 03 be    	mov.d     w2, w6
     c94:	08 00 be    	mov.d     w8, w0
     c96:	0a 01 be    	mov.d     w10, w2
     c98:	01 06 07    	rcall     0x189c <___subdf3>
     c9a:	60 22 b8    	mul.uu    w4, #0x0, w4
     c9c:	46 78 2d    	mov.w     #0xd784, w6
     c9e:	77 19 24    	mov.w     #0x4197, w7
     ca0:	04 06 07    	rcall     0x18aa <___muldf3>
     ca2:	f0 97 9f    	mov.w     w0, [w15-82]
     ca4:	81 9f 9f    	mov.w     w1, [w15-80]
     ca6:	92 9f 9f    	mov.w     w2, [w15-78]
     ca8:	a3 9f 9f    	mov.w     w3, [w15-76]

00000caa <.L105>:
     caa:	3f b0 97    	mov.w     [w15-26], w0
     cac:	68 04 40    	add.w     w0, #0x8, w8
     cae:	89 00 20    	mov.w     #0x8, w9
     cb0:	0d 00 37    	bra       0xccc <.L107>

00000cb2 <.L108>:
     cb2:	a4 00 20    	mov.w     #0xa, w4
     cb4:	05 00 20    	mov.w     #0x0, w5
     cb6:	0c 01 be    	mov.d     w12, w2
     cb8:	e0 fd 2f    	mov.w     #0xffde, w0
     cba:	0f 00 40    	add.w     w0, w15, w0
     cbc:	ba 02 07    	rcall     0x1232 <_ldiv>
     cbe:	7f a8 97    	mov.w     [w15-34], w0
     cc0:	8f b0 97    	mov.w     [w15-32], w1
     cc2:	1f b1 97    	mov.w     [w15-30], w2
     cc4:	af b1 97    	mov.w     [w15-28], w3
     cc6:	04 c3 b3    	mov.b     #0x30, w4
     cc8:	04 64 41    	add.b     w2, w4, [--w8]
     cca:	00 06 be    	mov.d     w0, w12

00000ccc <.L107>:
     ccc:	e0 0f 56    	sub.w     w12, #0x0, [w15]
     cce:	e0 8f 5e    	subb.w    w13, #0x0, [w15]
     cd0:	06 00 34    	bra       LE, 0xcde <.L140>
     cd2:	89 04 e9    	dec.w     w9, w9
     cd4:	e1 8f 44    	add.w     w9, #0x1, [w15]
     cd6:	ed ff 3a    	bra       NZ, 0xcb2 <.L108>
     cd8:	02 00 37    	bra       0xcde <.L140>

00000cda <.L111>:
     cda:	00 c3 b3    	mov.b     #0x30, w0
     cdc:	00 64 78    	mov.b     w0, [--w8]

00000cde <.L140>:
     cde:	89 04 e9    	dec.w     w9, w9
     ce0:	fc ff 3b    	bra       NN, 0xcda <.L111>
     ce2:	68 04 44    	add.w     w8, #0x8, w8
     ce4:	b8 b7 9f    	mov.w     w8, [w15-26]

00000ce6 <.L103>:
     ce6:	0e 00 e0    	cp0.w     w14
     ce8:	0b 00 34    	bra       LE, 0xd00 <.L113>
     cea:	7f 94 97    	mov.w     [w15-82], w8
     cec:	8f 9c 97    	mov.w     [w15-80], w9
     cee:	1f 9d 97    	mov.w     [w15-78], w10
     cf0:	af 9d 97    	mov.w     [w15-76], w11
     cf2:	60 22 b8    	mul.uu    w4, #0x0, w4
     cf4:	60 33 b8    	mul.uu    w6, #0x0, w6
     cf6:	08 00 be    	mov.d     w8, w0
     cf8:	0a 01 be    	mov.d     w10, w2
     cfa:	d2 05 07    	rcall     0x18a0 <___gedf2>
     cfc:	00 00 e0    	cp0.w     w0
     cfe:	c0 ff 3c    	bra       GT, 0xc80 <.L104>

00000d00 <.L113>:
     d00:	c5 fa 2f    	mov.w     #0xffac, w5
     d02:	8f 82 42    	add.w     w5, w15, w5
     d04:	6a 80 42    	add.w     w5, #0xa, w0
     d06:	bf b0 97    	mov.w     [w15-26], w1
     d08:	00 80 50    	sub.w     w1, w0, w0
     d0a:	80 01 e9    	dec.w     w0, w3
     d0c:	6f 91 97    	mov.w     [w15-84], w2
     d0e:	e7 00 41    	add.w     w2, #0x7, w1
     d10:	6b 81 42    	add.w     w5, #0xb, w2
     d12:	00 c3 b3    	mov.b     #0x30, w0
     d14:	01 00 37    	bra       0xd18 <.L115>

00000d16 <.L116>:
     d16:	02 01 e8    	inc.w     w2, w2

00000d18 <.L115>:
     d18:	92 4f 10    	subr.b    w0, [w2], [w15]
     d1a:	fd ff 32    	bra       Z, 0xd16 <.L116>
     d1c:	74 fb 2f    	mov.w     #0xffb7, w4
     d1e:	0f 00 42    	add.w     w4, w15, w0
     d20:	80 80 40    	add.w     w1, w0, w1
     d22:	82 80 50    	sub.w     w1, w2, w1
     d24:	00 80 41    	add.w     w3, w0, w0
     d26:	02 02 50    	sub.w     w0, w2, w4
     d28:	e1 97 9f    	mov.w     w1, [w15-84]
     d2a:	ff b2 97    	mov.w     [w15-18], w5
     d2c:	d5 09 90    	mov.w     [w5+26], w3
     d2e:	60 c6 b3    	mov.b     #0x66, w0
     d30:	8f f2 97    	mov.b     [w15-16], w5
     d32:	80 cf 52    	sub.b     w5, w0, [w15]
     d34:	03 00 32    	bra       Z, 0xd3c <.L118>
     d36:	60 c4 b3    	mov.b     #0x46, w0
     d38:	80 cf 52    	sub.b     w5, w0, [w15]
     d3a:	02 00 3a    	bra       NZ, 0xd40 <.L120>

00000d3c <.L118>:
     d3c:	81 00 e8    	inc.w     w1, w1
     d3e:	0a 00 37    	bra       0xd54 <.L121>

00000d40 <.L120>:
     d40:	50 c6 b3    	mov.b     #0x65, w0
     d42:	8f f0 97    	mov.b     [w15-16], w1
     d44:	80 cf 50    	sub.b     w1, w0, [w15]
     d46:	05 00 32    	bra       Z, 0xd52 <.L122>
     d48:	80 00 eb    	clr.w     w1
     d4a:	50 c4 b3    	mov.b     #0x45, w0
     d4c:	8f f2 97    	mov.b     [w15-16], w5
     d4e:	80 cf 52    	sub.b     w5, w0, [w15]
     d50:	01 00 3a    	bra       NZ, 0xd54 <.L121>

00000d52 <.L122>:
     d52:	11 00 20    	mov.w     #0x1, w1

00000d54 <.L121>:
     d54:	01 87 41    	add.w     w3, w1, w14
     d56:	8e 0f 52    	sub.w     w4, w14, [w15]
     d58:	01 00 3d    	bra       GE, 0xd5c <.L125>
     d5a:	04 07 78    	mov.w     w4, w14

00000d5c <.L125>:
     d5c:	0e 00 e0    	cp0.w     w14
     d5e:	1d 00 35    	bra       LT, 0xd9a <.L35>
     d60:	84 0f 57    	sub.w     w14, w4, [w15]
     d62:	05 00 3d    	bra       GE, 0xd6e <.L128>
     d64:	e2 40 7f    	mov.b     [w2+w14], w1
     d66:	95 c3 b3    	mov.b     #0x39, w5
     d68:	40 c3 b3    	mov.b     #0x34, w0
     d6a:	80 cf 50    	sub.b     w1, w0, [w15]
     d6c:	01 00 3c    	bra       GT, 0xd70 <.L131>

00000d6e <.L128>:
     d6e:	05 c3 b3    	mov.b     #0x30, w5

00000d70 <.L131>:
     d70:	0e 00 41    	add.w     w2, w14, w0
     d72:	80 00 e9    	dec.w     w0, w1
     d74:	8e 01 78    	mov.w     w14, w3
     d76:	01 00 37    	bra       0xd7a <.L132>

00000d78 <.L133>:
     d78:	81 00 e9    	dec.w     w1, w1

00000d7a <.L132>:
     d7a:	83 01 e9    	dec.w     w3, w3
     d7c:	11 42 78    	mov.b     [w1], w4
     d7e:	85 4f 52    	sub.b     w4, w5, [w15]
     d80:	fb ff 32    	bra       Z, 0xd78 <.L133>
     d82:	03 07 e8    	inc.w     w3, w14
     d84:	90 c3 b3    	mov.b     #0x39, w0
     d86:	80 cf 52    	sub.b     w5, w0, [w15]
     d88:	01 00 3a    	bra       NZ, 0xd8c <.L135>
     d8a:	84 48 e8    	inc.b     w4, [w1]

00000d8c <.L135>:
     d8c:	03 00 e0    	cp0.w     w3
     d8e:	05 00 3d    	bra       GE, 0xd9a <.L35>
     d90:	02 01 e9    	dec.w     w2, w2
     d92:	0e 07 e8    	inc.w     w14, w14
     d94:	6f 90 97    	mov.w     [w15-84], w0
     d96:	00 00 e8    	inc.w     w0, w0
     d98:	e0 97 9f    	mov.w     w0, [w15-84]

00000d9a <.L35>:
     d9a:	6f 92 97    	mov.w     [w15-84], w4
     d9c:	8e 01 78    	mov.w     w14, w3
     d9e:	8f f0 97    	mov.b     [w15-16], w1
     da0:	7f b0 97    	mov.w     [w15-18], w0
     da2:	64 02 07    	rcall     0x126c <__Genld>

00000da4 <.L138>:
     da4:	4f 07 78    	mov.w     [--w15], w14
     da6:	4f 06 be    	mov.d     [--w15], w12
     da8:	4f 05 be    	mov.d     [--w15], w10
     daa:	4f 04 be    	mov.d     [--w15], w8
     dac:	8f 04 b1    	sub.w     #0x48, w15
     dae:	00 00 06    	return    

00000db0 <__Litob>:
     db0:	2f 03 b0    	add.w     #0x32, w15
     db2:	88 9f be    	mov.d     w8, [w15++]
     db4:	8a 9f be    	mov.d     w10, [w15++]
     db6:	8c 9f be    	mov.d     w12, [w15++]
     db8:	8e 1f 78    	mov.w     w14, [w15++]
     dba:	00 07 78    	mov.w     w0, w14
     dbc:	b0 d9 22    	mov.w     #0x2d9b, w0
     dbe:	c0 b7 9f    	mov.w     w0, [w15-24]
     dc0:	80 c5 b3    	mov.b     #0x58, w0
     dc2:	80 cf 50    	sub.b     w1, w0, [w15]
     dc4:	08 00 32    	bra       Z, 0xdd6 <.L4>
     dc6:	a2 d8 22    	mov.w     #0x2d8a, w2
     dc8:	c2 b7 9f    	mov.w     w2, [w15-24]
     dca:	77 40 40    	add.b     w0, #0x17, w0
     dcc:	80 cf 50    	sub.b     w1, w0, [w15]
     dce:	03 00 3a    	bra       NZ, 0xdd6 <.L4>
     dd0:	83 00 20    	mov.w     #0x8, w3
     dd2:	b3 b7 9f    	mov.w     w3, [w15-26]
     dd4:	0a 00 37    	bra       0xdea <.L7>

00000dd6 <.L4>:
     dd6:	80 c7 b3    	mov.b     #0x78, w0
     dd8:	80 cf 50    	sub.b     w1, w0, [w15]
     dda:	05 00 32    	bra       Z, 0xde6 <.L8>
     ddc:	a4 00 20    	mov.w     #0xa, w4
     dde:	b4 b7 9f    	mov.w     w4, [w15-26]
     de0:	80 c5 b3    	mov.b     #0x58, w0
     de2:	80 cf 50    	sub.b     w1, w0, [w15]
     de4:	02 00 3a    	bra       NZ, 0xdea <.L7>

00000de6 <.L8>:
     de6:	05 01 20    	mov.w     #0x10, w5
     de8:	b5 b7 9f    	mov.w     w5, [w15-26]

00000dea <.L7>:
     dea:	3e 04 be    	mov.d     [w14++], w8
     dec:	2e 05 be    	mov.d     [w14--], w10
     dee:	40 c6 b3    	mov.b     #0x64, w0
     df0:	80 cf 50    	sub.b     w1, w0, [w15]
     df2:	03 00 32    	bra       Z, 0xdfa <.L11>
     df4:	65 40 40    	add.b     w0, #0x5, w0
     df6:	80 cf 50    	sub.b     w1, w0, [w15]
     df8:	0b 00 3a    	bra       NZ, 0xe10 <.L13>

00000dfa <.L11>:
     dfa:	e0 0f 54    	sub.w     w8, #0x0, [w15]
     dfc:	e0 8f 5c    	subb.w    w9, #0x0, [w15]
     dfe:	e0 0f 5d    	subb.w    w10, #0x0, [w15]
     e00:	e0 8f 5d    	subb.w    w11, #0x0, [w15]
     e02:	06 00 3d    	bra       GE, 0xe10 <.L13>
     e04:	60 00 b8    	mul.uu    w0, #0x0, w0
     e06:	60 11 b8    	mul.uu    w2, #0x0, w2
     e08:	08 04 50    	sub.w     w0, w8, w8
     e0a:	89 84 58    	subb.w    w1, w9, w9
     e0c:	0a 05 59    	subb.w    w2, w10, w10
     e0e:	8b 85 59    	subb.w    w3, w11, w11

00000e10 <.L13>:
     e10:	bf b3 97    	mov.w     [w15-26], w7
     e12:	e8 8f 53    	sub.w     w7, #0x8, [w15]
     e14:	03 00 32    	bra       Z, 0xe1c <.L16>
     e16:	f0 8f 53    	sub.w     w7, #0x10, [w15]
     e18:	45 00 3a    	bra       NZ, 0xea4 <.L66>
     e1a:	02 00 37    	bra       0xe20 <.L17>

00000e1c <.L16>:
     e1c:	36 00 20    	mov.w     #0x3, w6
     e1e:	01 00 37    	bra       0xe22 <.L18>

00000e20 <.L17>:
     e20:	46 00 20    	mov.w     #0x4, w6

00000e22 <.L18>:
     e22:	e0 0f 54    	sub.w     w8, #0x0, [w15]
     e24:	e0 8f 5c    	subb.w    w9, #0x0, [w15]
     e26:	e0 0f 5d    	subb.w    w10, #0x0, [w15]
     e28:	e0 8f 5d    	subb.w    w11, #0x0, [w15]
     e2a:	05 00 3a    	bra       NZ, 0xe36 <.L19>
     e2c:	5e 08 90    	mov.w     [w14+26], w0
     e2e:	81 01 20    	mov.w     #0x18, w1
     e30:	a1 b7 9f    	mov.w     w1, [w15-28]
     e32:	00 00 e0    	cp0.w     w0
     e34:	08 00 32    	bra       Z, 0xe46 <.L22>

00000e36 <.L19>:
     e36:	3f b1 97    	mov.w     [w15-26], w2
     e38:	02 00 e9    	dec.w     w2, w0
     e3a:	08 00 60    	and.w     w0, w8, w0
     e3c:	cf b1 97    	mov.w     [w15-24], w3
     e3e:	63 40 78    	mov.b     [w3+w0], w0
     e40:	90 df 9f    	mov.b     w0, [w15-39]
     e42:	74 01 20    	mov.w     #0x17, w4
     e44:	a4 b7 9f    	mov.w     w4, [w15-28]

00000e46 <.L22>:
     e46:	86 02 78    	mov.w     w6, w5

00000e48 <.LB102>:
     e48:	85 02 e9    	dec.w     w5, w5
     e4a:	05 00 33    	bra       N, 0xe56 <.LE102>
     e4c:	8b 05 d1    	lsr.w     w11, w11
     e4e:	0a 85 d3    	rrc.w     w10, w10
     e50:	89 84 d3    	rrc.w     w9, w9
     e52:	08 84 d3    	rrc.w     w8, w8
     e54:	f9 ff 37    	bra       0xe48 <.LB102>

00000e56 <.LE102>:
     e56:	08 9f be    	mov.d     w8, [w14++]
     e58:	0a 97 be    	mov.d     w10, [w14--]
     e5a:	af b3 97    	mov.w     [w15-28], w7
     e5c:	07 00 e9    	dec.w     w7, w0
     e5e:	21 fc 2f    	mov.w     #0xffc2, w1
     e60:	8f 80 40    	add.w     w1, w15, w1
     e62:	00 82 40    	add.w     w1, w0, w4
     e64:	3f b1 97    	mov.w     [w15-26], w2
     e66:	82 02 e9    	dec.w     w2, w5
     e68:	12 00 37    	bra       0xe8e <.L23>

00000e6a <.L24>:
     e6a:	af b3 97    	mov.w     [w15-28], w7
     e6c:	87 03 e9    	dec.w     w7, w7
     e6e:	a7 b7 9f    	mov.w     w7, [w15-28]
     e70:	00 80 62    	and.w     w5, w0, w0
     e72:	cf b0 97    	mov.w     [w15-24], w1
     e74:	61 52 78    	mov.b     [w1+w0], [w4--]
     e76:	3e 00 be    	mov.d     [w14++], w0
     e78:	2e 01 be    	mov.d     [w14--], w2
     e7a:	86 03 78    	mov.w     w6, w7

00000e7c <.LB124>:
     e7c:	87 03 e9    	dec.w     w7, w7
     e7e:	05 00 33    	bra       N, 0xe8a <.LE124>
     e80:	83 81 d1    	asr.w     w3, w3
     e82:	02 81 d3    	rrc.w     w2, w2
     e84:	81 80 d3    	rrc.w     w1, w1
     e86:	00 80 d3    	rrc.w     w0, w0
     e88:	f9 ff 37    	bra       0xe7c <.LB124>

00000e8a <.LE124>:
     e8a:	00 9f be    	mov.d     w0, [w14++]
     e8c:	02 97 be    	mov.d     w2, [w14--]

00000e8e <.L23>:
     e8e:	3e 00 be    	mov.d     [w14++], w0
     e90:	2e 01 be    	mov.d     [w14--], w2
     e92:	e0 0f 50    	sub.w     w0, #0x0, [w15]
     e94:	e0 8f 58    	subb.w    w1, #0x0, [w15]
     e96:	e0 0f 59    	subb.w    w2, #0x0, [w15]
     e98:	e0 8f 59    	subb.w    w3, #0x0, [w15]
     e9a:	d6 00 34    	bra       LE, 0x1048 <.L25>
     e9c:	af b3 97    	mov.w     [w15-28], w7
     e9e:	07 00 e0    	cp0.w     w7
     ea0:	e4 ff 3c    	bra       GT, 0xe6a <.L24>
     ea2:	d2 00 37    	bra       0x1048 <.L25>

00000ea4 <.L66>:
     ea4:	ae 60 90    	mov.b     [w14+34], w1
     ea6:	80 c6 b3    	mov.b     #0x68, w0
     ea8:	80 cf 50    	sub.b     w1, w0, [w15]
     eaa:	0b 00 32    	bra       Z, 0xec2 <.L28>
     eac:	06 00 3c    	bra       GT, 0xeba <.L30>
     eae:	01 04 e0    	cp0.b     w1
     eb0:	08 00 32    	bra       Z, 0xec2 <.L28>
     eb2:	66 40 50    	sub.b     w0, #0x6, w0
     eb4:	80 cf 50    	sub.b     w1, w0, [w15]
     eb6:	73 00 3a    	bra       NZ, 0xf9e <.L27>
     eb8:	04 00 37    	bra       0xec2 <.L28>

00000eba <.L30>:
     eba:	c0 c6 b3    	mov.b     #0x6c, w0
     ebc:	80 cf 50    	sub.b     w1, w0, [w15]
     ebe:	6f 00 3a    	bra       NZ, 0xf9e <.L27>
     ec0:	31 00 37    	bra       0xf24 <.L29>

00000ec2 <.L28>:
     ec2:	08 01 78    	mov.w     w8, w2
     ec4:	08 00 e0    	cp0.w     w8
     ec6:	05 00 3a    	bra       NZ, 0xed2 <.L31>
     ec8:	5e 08 90    	mov.w     [w14+26], w0
     eca:	81 01 20    	mov.w     #0x18, w1
     ecc:	a1 b7 9f    	mov.w     w1, [w15-28]
     ece:	00 00 e0    	cp0.w     w0
     ed0:	09 00 32    	bra       Z, 0xee4 <.L34>

00000ed2 <.L31>:
     ed2:	bf b1 97    	mov.w     [w15-26], w3
     ed4:	11 00 09    	repeat    #0x11
     ed6:	03 81 d8    	div.uw    w2, w3
     ed8:	80 00 fd    	exch      w0, w1
     eda:	4f b2 97    	mov.w     [w15-24], w4
     edc:	64 40 78    	mov.b     [w4+w0], w0
     ede:	90 df 9f    	mov.b     w0, [w15-39]
     ee0:	75 01 20    	mov.w     #0x17, w5
     ee2:	a5 b7 9f    	mov.w     w5, [w15-28]

00000ee4 <.L34>:
     ee4:	bf b3 97    	mov.w     [w15-26], w7
     ee6:	11 00 09    	repeat    #0x11
     ee8:	07 81 d8    	div.uw    w2, w7
     eea:	80 01 78    	mov.w     w0, w3
     eec:	af b0 97    	mov.w     [w15-28], w1
     eee:	01 00 e9    	dec.w     w1, w0
     ef0:	22 fc 2f    	mov.w     #0xffc2, w2
     ef2:	0f 01 41    	add.w     w2, w15, w2
     ef4:	00 02 41    	add.w     w2, w0, w4
     ef6:	0c 00 37    	bra       0xf10 <.L35>

00000ef8 <.L36>:
     ef8:	bf b2 97    	mov.w     [w15-26], w5
     efa:	11 00 09    	repeat    #0x11
     efc:	85 01 d8    	div.sw    w3, w5
     efe:	00 01 78    	mov.w     w0, w2
     f00:	af b3 97    	mov.w     [w15-28], w7
     f02:	87 03 e9    	dec.w     w7, w7
     f04:	a7 b7 9f    	mov.w     w7, [w15-28]
     f06:	05 90 b9    	mul.ss    w2, w5, w0
     f08:	00 80 51    	sub.w     w3, w0, w0
     f0a:	cf b0 97    	mov.w     [w15-24], w1
     f0c:	61 52 78    	mov.b     [w1+w0], [w4--]
     f0e:	82 01 78    	mov.w     w2, w3

00000f10 <.L35>:
     f10:	03 00 e0    	cp0.w     w3
     f12:	03 00 34    	bra       LE, 0xf1a <.L37>
     f14:	2f b1 97    	mov.w     [w15-28], w2
     f16:	02 00 e0    	cp0.w     w2
     f18:	ef ff 3c    	bra       GT, 0xef8 <.L36>

00000f1a <.L37>:
     f1a:	03 00 78    	mov.w     w3, w0
     f1c:	cf 80 de    	asr.w     w0, #0xf, w1
     f1e:	01 01 78    	mov.w     w1, w2
     f20:	82 01 78    	mov.w     w2, w3
     f22:	3a 00 37    	bra       0xf98 <.L67>

00000f24 <.L29>:
     f24:	08 06 be    	mov.d     w8, w12
     f26:	e0 0f 54    	sub.w     w8, #0x0, [w15]
     f28:	e0 8f 5c    	subb.w    w9, #0x0, [w15]
     f2a:	05 00 3a    	bra       NZ, 0xf36 <.L39>
     f2c:	5e 08 90    	mov.w     [w14+26], w0
     f2e:	83 01 20    	mov.w     #0x18, w3
     f30:	a3 b7 9f    	mov.w     w3, [w15-28]
     f32:	00 00 e0    	cp0.w     w0
     f34:	09 00 32    	bra       Z, 0xf48 <.L42>

00000f36 <.L39>:
     f36:	3f b2 97    	mov.w     [w15-26], w4
     f38:	61 21 b9    	mul.su    w4, #0x1, w2
     f3a:	0c 00 be    	mov.d     w12, w0
     f3c:	85 05 07    	rcall     0x1a48 <___umodsi3>
     f3e:	cf b2 97    	mov.w     [w15-24], w5
     f40:	65 40 78    	mov.b     [w5+w0], w0
     f42:	90 df 9f    	mov.b     w0, [w15-39]
     f44:	77 01 20    	mov.w     #0x17, w7
     f46:	a7 b7 9f    	mov.w     w7, [w15-28]

00000f48 <.L42>:
     f48:	3f b2 97    	mov.w     [w15-26], w4
     f4a:	61 21 b9    	mul.su    w4, #0x1, w2
     f4c:	0c 00 be    	mov.d     w12, w0
     f4e:	f0 03 07    	rcall     0x1730 <___udivsi3>
     f50:	00 06 be    	mov.d     w0, w12
     f52:	af b2 97    	mov.w     [w15-28], w5
     f54:	05 00 e9    	dec.w     w5, w0
     f56:	27 fc 2f    	mov.w     #0xffc2, w7
     f58:	8f 83 43    	add.w     w7, w15, w7
     f5a:	80 83 43    	add.w     w7, w0, w7
     f5c:	97 b7 9f    	mov.w     w7, [w15-30]
     f5e:	11 00 37    	bra       0xf82 <.L43>

00000f60 <.L44>:
     f60:	3f b1 97    	mov.w     [w15-26], w2
     f62:	61 14 b9    	mul.su    w2, #0x1, w8
     f64:	08 01 be    	mov.d     w8, w2
     f66:	0c 00 be    	mov.d     w12, w0
     f68:	12 03 07    	rcall     0x158e <___divsi3>
     f6a:	00 05 be    	mov.d     w0, w10
     f6c:	af b1 97    	mov.w     [w15-28], w3
     f6e:	83 01 e9    	dec.w     w3, w3
     f70:	a3 b7 9f    	mov.w     w3, [w15-28]
     f72:	08 01 be    	mov.d     w8, w2
     f74:	06 03 07    	rcall     0x1582 <___mulp32eds3>
     f76:	00 00 56    	sub.w     w12, w0, w0
     f78:	1f b2 97    	mov.w     [w15-30], w4
     f7a:	cf b2 97    	mov.w     [w15-24], w5
     f7c:	65 52 78    	mov.b     [w5+w0], [w4--]
     f7e:	94 b7 9f    	mov.w     w4, [w15-30]
     f80:	0a 06 be    	mov.d     w10, w12

00000f82 <.L43>:
     f82:	e0 0f 56    	sub.w     w12, #0x0, [w15]
     f84:	e0 8f 5e    	subb.w    w13, #0x0, [w15]
     f86:	03 00 34    	bra       LE, 0xf8e <.L45>
     f88:	af b3 97    	mov.w     [w15-28], w7
     f8a:	07 00 e0    	cp0.w     w7
     f8c:	e9 ff 3c    	bra       GT, 0xf60 <.L44>

00000f8e <.L45>:
     f8e:	4f ea de    	asr.w     w13, #0xf, w4
     f90:	cf a2 de    	asr.w     w4, #0xf, w5
     f92:	0c 00 be    	mov.d     w12, w0
     f94:	04 01 78    	mov.w     w4, w2
     f96:	84 01 78    	mov.w     w4, w3

00000f98 <.L67>:
     f98:	00 9f be    	mov.d     w0, [w14++]
     f9a:	02 97 be    	mov.d     w2, [w14--]
     f9c:	55 00 37    	bra       0x1048 <.L25>

00000f9e <.L27>:
     f9e:	e0 0f 54    	sub.w     w8, #0x0, [w15]
     fa0:	e0 8f 5c    	subb.w    w9, #0x0, [w15]
     fa2:	e0 0f 5d    	subb.w    w10, #0x0, [w15]
     fa4:	e0 8f 5d    	subb.w    w11, #0x0, [w15]
     fa6:	05 00 3a    	bra       NZ, 0xfb2 <.L47>
     fa8:	5e 08 90    	mov.w     [w14+26], w0
     faa:	81 01 20    	mov.w     #0x18, w1
     fac:	a1 b7 9f    	mov.w     w1, [w15-28]
     fae:	00 00 e0    	cp0.w     w0
     fb0:	0d 00 32    	bra       Z, 0xfcc <.L50>

00000fb2 <.L47>:
     fb2:	3f b1 97    	mov.w     [w15-26], w2
     fb4:	02 02 78    	mov.w     w2, w4
     fb6:	cf a2 de    	asr.w     w4, #0xf, w5
     fb8:	05 03 78    	mov.w     w5, w6
     fba:	86 03 78    	mov.w     w6, w7
     fbc:	08 00 be    	mov.d     w8, w0
     fbe:	0a 01 be    	mov.d     w10, w2
     fc0:	c7 05 07    	rcall     0x1b50 <___umoddi3>
     fc2:	4f b2 97    	mov.w     [w15-24], w4
     fc4:	64 40 78    	mov.b     [w4+w0], w0
     fc6:	90 df 9f    	mov.b     w0, [w15-39]
     fc8:	75 01 20    	mov.w     #0x17, w5
     fca:	a5 b7 9f    	mov.w     w5, [w15-28]

00000fcc <.L50>:
     fcc:	3f b1 97    	mov.w     [w15-26], w2
     fce:	02 02 78    	mov.w     w2, w4
     fd0:	cf a2 de    	asr.w     w4, #0xf, w5
     fd2:	05 03 78    	mov.w     w5, w6
     fd4:	86 03 78    	mov.w     w6, w7
     fd6:	08 00 be    	mov.d     w8, w0
     fd8:	0a 01 be    	mov.d     w10, w2
     fda:	b3 05 07    	rcall     0x1b42 <___udivdi3>
     fdc:	00 9f be    	mov.d     w0, [w14++]
     fde:	02 97 be    	mov.d     w2, [w14--]
     fe0:	af b1 97    	mov.w     [w15-28], w3
     fe2:	03 00 e9    	dec.w     w3, w0
     fe4:	24 fc 2f    	mov.w     #0xffc2, w4
     fe6:	0f 02 42    	add.w     w4, w15, w4
     fe8:	00 06 42    	add.w     w4, w0, w12
     fea:	20 00 37    	bra       0x102c <.L51>

00000fec <.L52>:
     fec:	bf b2 97    	mov.w     [w15-26], w5
     fee:	05 04 78    	mov.w     w5, w8
     ff0:	cf c4 de    	asr.w     w8, #0xf, w9
     ff2:	09 05 78    	mov.w     w9, w10
     ff4:	8a 05 78    	mov.w     w10, w11
     ff6:	08 02 be    	mov.d     w8, w4
     ff8:	0a 03 be    	mov.d     w10, w6
     ffa:	5f a8 97    	mov.w     [w15-38], w0
     ffc:	ef a8 97    	mov.w     [w15-36], w1
     ffe:	7f a9 97    	mov.w     [w15-34], w2
    1000:	8f b1 97    	mov.w     [w15-32], w3
    1002:	aa 05 07    	rcall     0x1b58 <___divdi3>
    1004:	d0 b7 9f    	mov.w     w0, [w15-22]
    1006:	e1 b7 9f    	mov.w     w1, [w15-20]
    1008:	f2 b7 9f    	mov.w     w2, [w15-18]
    100a:	83 bf 9f    	mov.w     w3, [w15-16]
    100c:	af b3 97    	mov.w     [w15-28], w7
    100e:	87 03 e9    	dec.w     w7, w7
    1010:	a7 b7 9f    	mov.w     w7, [w15-28]
    1012:	08 02 be    	mov.d     w8, w4
    1014:	0a 03 be    	mov.d     w10, w6
    1016:	26 06 07    	rcall     0x1c64 <___muldi3>
    1018:	5f aa 97    	mov.w     [w15-38], w4
    101a:	00 00 52    	sub.w     w4, w0, w0
    101c:	cf b2 97    	mov.w     [w15-24], w5
    101e:	65 56 78    	mov.b     [w5+w0], [w12--]
    1020:	5f b0 97    	mov.w     [w15-22], w0
    1022:	ef b0 97    	mov.w     [w15-20], w1
    1024:	7f b1 97    	mov.w     [w15-18], w2
    1026:	8f b9 97    	mov.w     [w15-16], w3
    1028:	00 9f be    	mov.d     w0, [w14++]
    102a:	02 97 be    	mov.d     w2, [w14--]

0000102c <.L51>:
    102c:	3e 00 be    	mov.d     [w14++], w0
    102e:	2e 01 be    	mov.d     [w14--], w2
    1030:	d0 af 9f    	mov.w     w0, [w15-38]
    1032:	e1 af 9f    	mov.w     w1, [w15-36]
    1034:	f2 af 9f    	mov.w     w2, [w15-34]
    1036:	83 b7 9f    	mov.w     w3, [w15-32]
    1038:	e0 0f 50    	sub.w     w0, #0x0, [w15]
    103a:	e0 8f 58    	subb.w    w1, #0x0, [w15]
    103c:	e0 0f 59    	subb.w    w2, #0x0, [w15]
    103e:	e0 8f 59    	subb.w    w3, #0x0, [w15]
    1040:	03 00 34    	bra       LE, 0x1048 <.L25>
    1042:	af b0 97    	mov.w     [w15-28], w1
    1044:	01 00 e0    	cp0.w     w1
    1046:	d2 ff 3c    	bra       GT, 0xfec <.L52>

00001048 <.L25>:
    1048:	3f b1 97    	mov.w     [w15-26], w2
    104a:	e8 0f 51    	sub.w     w2, #0x8, [w15]
    104c:	13 00 3a    	bra       NZ, 0x1074 <.L54>
    104e:	0e 10 90    	mov.w     [w14+32], w0
    1050:	00 38 a3    	btst.z    w0, #0x3
    1052:	10 00 32    	bra       Z, 0x1074 <.L54>
    1054:	af b1 97    	mov.w     [w15-28], w3
    1056:	f7 8f 51    	sub.w     w3, #0x17, [w15]
    1058:	06 00 3e    	bra       GTU, 0x1066 <.L57>
    105a:	24 fc 2f    	mov.w     #0xffc2, w4
    105c:	0f 02 42    	add.w     w4, w15, w4
    105e:	83 00 42    	add.w     w4, w3, w1
    1060:	00 c3 b3    	mov.b     #0x30, w0
    1062:	91 4f 10    	subr.b    w0, [w1], [w15]
    1064:	07 00 32    	bra       Z, 0x1074 <.L54>

00001066 <.L57>:
    1066:	af b2 97    	mov.w     [w15-28], w5
    1068:	85 02 e9    	dec.w     w5, w5
    106a:	a5 b7 9f    	mov.w     w5, [w15-28]
    106c:	00 c3 b3    	mov.b     #0x30, w0
    106e:	27 fc 2f    	mov.w     #0xffc2, w7
    1070:	8f 83 43    	add.w     w7, w15, w7
    1072:	80 f3 7a    	mov.b     w0, [w7+w5]

00001074 <.L54>:
    1074:	af b1 97    	mov.w     [w15-28], w3
    1076:	78 81 11    	subr.w    w3, #0x18, w2
    1078:	12 0f 98    	mov.w     w2, [w14+18]
    107a:	6e 00 90    	mov.w     [w14+12], w0
    107c:	24 fc 2f    	mov.w     #0xffc2, w4
    107e:	0f 02 42    	add.w     w4, w15, w4
    1080:	83 00 42    	add.w     w4, w3, w1
    1082:	58 f9 07    	rcall     0x334 <_memcpy>
    1084:	1e 09 90    	mov.w     [w14+18], w2
    1086:	5e 08 90    	mov.w     [w14+26], w0
    1088:	80 0f 51    	sub.w     w2, w0, [w15]
    108a:	06 00 3d    	bra       GE, 0x1098 <.L59>
    108c:	02 00 50    	sub.w     w0, w2, w0
    108e:	00 0f 98    	mov.w     w0, [w14+16]
    1090:	0e 10 90    	mov.w     [w14+32], w0
    1092:	00 40 a1    	bclr.w    w0, #0x4
    1094:	00 17 98    	mov.w     w0, [w14+32]
    1096:	0f 00 37    	bra       0x10b6 <.L65>

00001098 <.L59>:
    1098:	00 00 e0    	cp0.w     w0
    109a:	0d 00 3d    	bra       GE, 0x10b6 <.L65>
    109c:	0e 10 90    	mov.w     [w14+32], w0
    109e:	74 00 60    	and.w     w0, #0x14, w0
    10a0:	f0 0f 50    	sub.w     w0, #0x10, [w15]
    10a2:	09 00 3a    	bra       NZ, 0x10b6 <.L65>
    10a4:	7e 08 90    	mov.w     [w14+30], w0
    10a6:	fe 00 90    	mov.w     [w14+14], w1
    10a8:	01 00 50    	sub.w     w0, w1, w0
    10aa:	8e 08 90    	mov.w     [w14+16], w1
    10ac:	01 00 50    	sub.w     w0, w1, w0
    10ae:	02 00 50    	sub.w     w0, w2, w0
    10b0:	42 40 a9    	bclr.b    0x42, #0x2
    10b2:	01 00 34    	bra       LE, 0x10b6 <.L65>
    10b4:	00 0f 98    	mov.w     w0, [w14+16]

000010b6 <.L65>:
    10b6:	4f 07 78    	mov.w     [--w15], w14
    10b8:	4f 06 be    	mov.d     [--w15], w12
    10ba:	4f 05 be    	mov.d     [--w15], w10
    10bc:	4f 04 be    	mov.d     [--w15], w8
    10be:	2f 03 b1    	sub.w     #0x32, w15
    10c0:	00 00 06    	return    

000010c2 <_strlen>:
    10c2:	80 00 78    	mov.w     w0, w1
    10c4:	01 00 37    	bra       0x10c8 <.L2>

000010c6 <.L3>:
    10c6:	00 00 e8    	inc.w     w0, w0

000010c8 <.L2>:
    10c8:	10 04 e0    	cp0.b     [w0]
    10ca:	fd ff 3a    	bra       NZ, 0x10c6 <.L3>
    10cc:	01 00 50    	sub.w     w0, w1, w0
    10ce:	00 00 06    	return    

000010d0 <_memchr>:
    10d0:	80 01 eb    	clr.w     w3
    10d2:	04 00 37    	bra       0x10dc <.L2>

000010d4 <.L3>:
    10d4:	83 01 e8    	inc.w     w3, w3
    10d6:	90 cf 10    	subr.b    w1, [w0], [w15]
    10d8:	04 00 32    	bra       Z, 0x10e2 <.L6>
    10da:	00 00 e8    	inc.w     w0, w0

000010dc <.L2>:
    10dc:	82 8f 51    	sub.w     w3, w2, [w15]
    10de:	fa ff 3a    	bra       NZ, 0x10d4 <.L3>
    10e0:	00 00 eb    	clr.w     w0

000010e2 <.L6>:
    10e2:	00 00 06    	return    

000010e4 <__LDunscale>:
    10e4:	88 9f be    	mov.d     w8, [w15++]
    10e6:	80 04 78    	mov.w     w0, w9
    10e8:	66 84 40    	add.w     w1, #0x6, w8
    10ea:	00 ff 27    	mov.w     #0x7ff0, w0
    10ec:	18 00 60    	and.w     w0, [w8], w0
    10ee:	44 01 de    	lsr.w     w0, #0x4, w2
    10f0:	f0 7f 20    	mov.w     #0x7ff, w0
    10f2:	80 0f 51    	sub.w     w2, w0, [w15]
    10f4:	0e 00 3a    	bra       NZ, 0x1112 <.L2>
    10f6:	80 0c eb    	clr.w     [w9]
    10f8:	18 04 78    	mov.w     [w8], w8
    10fa:	6f 00 64    	and.w     w8, #0xf, w0
    10fc:	1c 00 3a    	bra       NZ, 0x1136 <.L4>
    10fe:	21 00 90    	mov.w     [w1+4], w0
    1100:	00 00 e0    	cp0.w     w0
    1102:	19 00 3a    	bra       NZ, 0x1136 <.L4>
    1104:	11 00 90    	mov.w     [w1+2], w0
    1106:	00 00 e0    	cp0.w     w0
    1108:	16 00 3a    	bra       NZ, 0x1136 <.L4>
    110a:	10 00 20    	mov.w     #0x1, w0
    110c:	11 00 e0    	cp0.w     [w1]
    110e:	14 00 32    	bra       Z, 0x1138 <.L9>
    1110:	12 00 37    	bra       0x1136 <.L4>

00001112 <.L2>:
    1112:	02 00 e0    	cp0.w     w2
    1114:	05 00 3c    	bra       GT, 0x1120 <.L10>
    1116:	01 00 78    	mov.w     w1, w0
    1118:	dd 01 07    	rcall     0x14d4 <__Dnorm>
    111a:	00 01 78    	mov.w     w0, w2
    111c:	00 00 e0    	cp0.w     w0
    111e:	08 00 3c    	bra       GT, 0x1130 <.L12>

00001120 <.L10>:
    1120:	f0 00 28    	mov.w     #0x800f, w0
    1122:	18 00 60    	and.w     w0, [w8], w0
    1124:	01 fe 23    	mov.w     #0x3fe0, w1
    1126:	01 0c 70    	ior.w     w0, w1, [w8]
    1128:	20 c0 2f    	mov.w     #0xfc02, w0
    112a:	80 0c 41    	add.w     w2, w0, [w9]
    112c:	00 80 eb    	setm.w    w0
    112e:	04 00 37    	bra       0x1138 <.L9>

00001130 <.L12>:
    1130:	80 0c eb    	clr.w     [w9]
    1132:	00 00 eb    	clr.w     w0
    1134:	01 00 37    	bra       0x1138 <.L9>

00001136 <.L4>:
    1136:	20 00 20    	mov.w     #0x2, w0

00001138 <.L9>:
    1138:	4f 04 be    	mov.d     [--w15], w8
    113a:	00 00 06    	return    

0000113c <__LDscale>:
    113c:	88 9f be    	mov.d     w8, [w15++]
    113e:	8a 1f 78    	mov.w     w10, [w15++]
    1140:	8c 9f be    	mov.d     w12, [w15++]
    1142:	00 04 78    	mov.w     w0, w8
    1144:	02 06 be    	mov.d     w2, w12
    1146:	e6 04 40    	add.w     w0, #0x6, w9
    1148:	19 01 78    	mov.w     [w9], w2
    114a:	02 00 d0    	sl.w      w2, w0
    114c:	45 05 de    	lsr.w     w0, #0x5, w10
    114e:	8a 00 78    	mov.w     w10, w1
    1150:	f0 7f 20    	mov.w     #0x7ff, w0
    1152:	80 0f 55    	sub.w     w10, w0, [w15]
    1154:	0c 00 3a    	bra       NZ, 0x116e <.L2>
    1156:	6f 00 61    	and.w     w2, #0xf, w0
    1158:	67 00 3a    	bra       NZ, 0x1228 <.L4>
    115a:	28 00 90    	mov.w     [w8+4], w0
    115c:	00 00 e0    	cp0.w     w0
    115e:	64 00 3a    	bra       NZ, 0x1228 <.L4>
    1160:	18 00 90    	mov.w     [w8+2], w0
    1162:	00 00 e0    	cp0.w     w0
    1164:	61 00 3a    	bra       NZ, 0x1228 <.L4>
    1166:	10 00 20    	mov.w     #0x1, w0
    1168:	18 00 e0    	cp0.w     [w8]
    116a:	5f 00 32    	bra       Z, 0x122a <.L9>
    116c:	5d 00 37    	bra       0x1228 <.L4>

0000116e <.L2>:
    116e:	0a 00 e0    	cp0.w     w10
    1170:	07 00 3a    	bra       NZ, 0x1180 <.L10>
    1172:	08 00 78    	mov.w     w8, w0
    1174:	af 01 07    	rcall     0x14d4 <__Dnorm>
    1176:	80 00 78    	mov.w     w0, w1
    1178:	00 00 e0    	cp0.w     w0
    117a:	02 00 34    	bra       LE, 0x1180 <.L10>
    117c:	0a 00 78    	mov.w     w10, w0
    117e:	55 00 37    	bra       0x122a <.L9>

00001180 <.L10>:
    1180:	61 08 b9    	mul.su    w1, #0x1, w0
    1182:	0c 01 40    	add.w     w0, w12, w2
    1184:	8d 81 48    	addc.w    w1, w13, w3
    1186:	e0 7f 20    	mov.w     #0x7fe, w0
    1188:	80 0f 51    	sub.w     w2, w0, [w15]
    118a:	e0 8f 59    	subb.w    w3, #0x0, [w15]
    118c:	0d 00 34    	bra       LE, 0x11a8 <.L13>
    118e:	19 00 e0    	cp0.w     [w9]
    1190:	04 00 3d    	bra       GE, 0x119a <.L15>
    1192:	60 00 b8    	mul.uu    w0, #0x0, w0
    1194:	02 00 20    	mov.w     #0x0, w2
    1196:	03 ff 2f    	mov.w     #0xfff0, w3
    1198:	03 00 37    	bra       0x11a0 <.L17>

0000119a <.L15>:
    119a:	60 00 b8    	mul.uu    w0, #0x0, w0
    119c:	02 00 20    	mov.w     #0x0, w2
    119e:	03 ff 27    	mov.w     #0x7ff0, w3

000011a0 <.L17>:
    11a0:	00 9c be    	mov.d     w0, [w8++]
    11a2:	02 94 be    	mov.d     w2, [w8--]
    11a4:	10 00 20    	mov.w     #0x1, w0
    11a6:	41 00 37    	bra       0x122a <.L9>

000011a8 <.L13>:
    11a8:	e0 0f 51    	sub.w     w2, #0x0, [w15]
    11aa:	e0 8f 59    	subb.w    w3, #0x0, [w15]
    11ac:	05 00 34    	bra       LE, 0x11b8 <.L18>
    11ae:	f0 00 28    	mov.w     #0x800f, w0
    11b0:	19 00 60    	and.w     w0, [w9], w0
    11b2:	c4 10 dd    	sl.w      w2, #0x4, w1
    11b4:	81 0c 70    	ior.w     w0, w1, [w9]
    11b6:	36 00 37    	bra       0x1224 <.L28>

000011b8 <.L18>:
    11b8:	19 00 78    	mov.w     [w9], w0
    11ba:	01 00 28    	mov.w     #0x8000, w1
    11bc:	01 03 60    	and.w     w0, w1, w6
    11be:	6f 00 60    	and.w     w0, #0xf, w0
    11c0:	00 40 a0    	bset.w    w0, #0x4
    11c2:	80 0c 78    	mov.w     w0, [w9]
    11c4:	61 01 51    	sub.w     w2, #0x1, w2
    11c6:	e0 81 59    	subb.w    w3, #0x0, w3
    11c8:	c0 fc 2f    	mov.w     #0xffcc, w0
    11ca:	f1 ff 2f    	mov.w     #0xffff, w1
    11cc:	80 0f 51    	sub.w     w2, w0, [w15]
    11ce:	81 8f 59    	subb.w    w3, w1, [w15]
    11d0:	06 00 3d    	bra       GE, 0x11de <.L20>
    11d2:	86 0c 78    	mov.w     w6, [w9]
    11d4:	00 00 eb    	clr.w     w0
    11d6:	20 04 98    	mov.w     w0, [w8+4]
    11d8:	10 04 98    	mov.w     w0, [w8+2]
    11da:	00 0c 78    	mov.w     w0, [w8]
    11dc:	26 00 37    	bra       0x122a <.L9>

000011de <.L20>:
    11de:	02 00 78    	mov.w     w2, w0
    11e0:	08 81 e8    	inc2.w    w8, w2
    11e2:	e4 00 44    	add.w     w8, #0x4, w1
    11e4:	05 00 37    	bra       0x11f0 <.L22>

000011e6 <.L23>:
    11e6:	12 0c 78    	mov.w     [w2], [w8]
    11e8:	11 09 78    	mov.w     [w1], [w2]
    11ea:	99 08 78    	mov.w     [w9], [w1]
    11ec:	80 0c eb    	clr.w     [w9]
    11ee:	70 00 40    	add.w     w0, #0x10, w0

000011f0 <.L22>:
    11f0:	f0 0f 40    	add.w     w0, #0x10, [w15]
    11f2:	f9 ff 34    	bra       LE, 0x11e6 <.L23>
    11f4:	80 02 ea    	neg.w     w0, w5
    11f6:	15 00 32    	bra       Z, 0x1222 <.L25>
    11f8:	88 81 e8    	inc2.w    w8, w3
    11fa:	70 82 12    	subr.w    w5, #0x10, w4
    11fc:	98 00 78    	mov.w     [w8], w1
    11fe:	85 08 de    	lsr.w     w1, w5, w1
    1200:	13 00 78    	mov.w     [w3], w0
    1202:	04 00 dd    	sl.w      w0, w4, w0
    1204:	00 8c 70    	ior.w     w1, w0, [w8]
    1206:	64 01 44    	add.w     w8, #0x4, w2
    1208:	93 00 78    	mov.w     [w3], w1
    120a:	85 08 de    	lsr.w     w1, w5, w1
    120c:	12 00 78    	mov.w     [w2], w0
    120e:	04 00 dd    	sl.w      w0, w4, w0
    1210:	80 89 70    	ior.w     w1, w0, [w3]
    1212:	92 00 78    	mov.w     [w2], w1
    1214:	85 08 de    	lsr.w     w1, w5, w1
    1216:	19 00 78    	mov.w     [w9], w0
    1218:	04 00 dd    	sl.w      w0, w4, w0
    121a:	00 89 70    	ior.w     w1, w0, [w2]
    121c:	19 00 78    	mov.w     [w9], w0
    121e:	05 00 de    	lsr.w     w0, w5, w0
    1220:	80 0c 78    	mov.w     w0, [w9]

00001222 <.L25>:
    1222:	99 0c 73    	ior.w     w6, [w9], [w9]

00001224 <.L28>:
    1224:	00 80 eb    	setm.w    w0
    1226:	01 00 37    	bra       0x122a <.L9>

00001228 <.L4>:
    1228:	20 00 20    	mov.w     #0x2, w0

0000122a <.L9>:
    122a:	4f 06 be    	mov.d     [--w15], w12
    122c:	4f 05 78    	mov.w     [--w15], w10
    122e:	4f 04 be    	mov.d     [--w15], w8
    1230:	00 00 06    	return    

00001232 <_ldiv>:
    1232:	04 00 fa    	lnk       #0x4
    1234:	88 9f be    	mov.d     w8, [w15++]
    1236:	8a 9f be    	mov.d     w10, [w15++]
    1238:	8c 1f 78    	mov.w     w12, [w15++]
    123a:	00 06 78    	mov.w     w0, w12
    123c:	92 bf 9f    	mov.w     w2, [w15-14]
    123e:	a3 bf 9f    	mov.w     w3, [w15-12]
    1240:	04 04 be    	mov.d     w4, w8
    1242:	04 01 be    	mov.d     w4, w2
    1244:	1f b8 97    	mov.w     [w15-14], w0
    1246:	af b8 97    	mov.w     [w15-12], w1
    1248:	a2 01 07    	rcall     0x158e <___divsi3>
    124a:	00 05 be    	mov.d     w0, w10
    124c:	00 01 be    	mov.d     w0, w2
    124e:	08 00 be    	mov.d     w8, w0
    1250:	98 01 07    	rcall     0x1582 <___mulp32eds3>
    1252:	1f b9 97    	mov.w     [w15-14], w2
    1254:	af b9 97    	mov.w     [w15-12], w3
    1256:	00 00 51    	sub.w     w2, w0, w0
    1258:	81 80 59    	subb.w    w3, w1, w1
    125a:	20 06 98    	mov.w     w0, [w12+4]
    125c:	31 06 98    	mov.w     w1, [w12+6]
    125e:	0a 8e be    	mov.d     w10, [w12]
    1260:	0c 00 78    	mov.w     w12, w0
    1262:	4f 06 78    	mov.w     [--w15], w12
    1264:	4f 05 be    	mov.d     [--w15], w10
    1266:	4f 04 be    	mov.d     [--w15], w8
    1268:	00 80 fa    	ulnk      
    126a:	00 00 06    	return    

0000126c <__Genld>:
    126c:	0e 00 fa    	lnk       #0xe
    126e:	88 9f be    	mov.d     w8, [w15++]
    1270:	8a 9f be    	mov.d     w10, [w15++]
    1272:	8c 9f be    	mov.d     w12, [w15++]
    1274:	00 04 78    	mov.w     w0, w8
    1276:	01 45 78    	mov.b     w1, w10
    1278:	02 06 78    	mov.w     w2, w12
    127a:	83 04 78    	mov.w     w3, w9
    127c:	84 06 78    	mov.w     w4, w13
    127e:	03 00 e0    	cp0.w     w3
    1280:	02 00 3c    	bra       GT, 0x1286 <.L2>
    1282:	19 00 20    	mov.w     #0x1, w9
    1284:	ec 7f 27    	mov.w     #0x77fe, w12

00001286 <.L2>:
    1286:	60 c6 b3    	mov.b     #0x66, w0
    1288:	80 4f 55    	sub.b     w10, w0, [w15]
    128a:	0e 00 32    	bra       Z, 0x12a8 <.L4>
    128c:	60 c4 b3    	mov.b     #0x46, w0
    128e:	80 4f 55    	sub.b     w10, w0, [w15]
    1290:	0b 00 32    	bra       Z, 0x12a8 <.L4>
    1292:	70 c6 b3    	mov.b     #0x67, w0
    1294:	80 4f 55    	sub.b     w10, w0, [w15]
    1296:	03 00 32    	bra       Z, 0x129e <.L7>
    1298:	70 c4 b3    	mov.b     #0x47, w0
    129a:	80 4f 55    	sub.b     w10, w0, [w15]
    129c:	9c 00 3a    	bra       NZ, 0x13d6 <.L9>

0000129e <.L7>:
    129e:	e4 8f 46    	add.w     w13, #0x4, [w15]
    12a0:	80 00 35    	bra       LT, 0x13a2 <.L10>
    12a2:	58 08 90    	mov.w     [w8+26], w0
    12a4:	80 8f 56    	sub.w     w13, w0, [w15]
    12a6:	7d 00 3d    	bra       GE, 0x13a2 <.L10>

000012a8 <.L4>:
    12a8:	8d 05 e8    	inc.w     w13, w11
    12aa:	60 c6 b3    	mov.b     #0x66, w0
    12ac:	80 4f 55    	sub.b     w10, w0, [w15]
    12ae:	10 00 32    	bra       Z, 0x12d0 <.L12>
    12b0:	60 c4 b3    	mov.b     #0x46, w0
    12b2:	80 4f 55    	sub.b     w10, w0, [w15]
    12b4:	0d 00 32    	bra       Z, 0x12d0 <.L12>
    12b6:	08 10 90    	mov.w     [w8+32], w0
    12b8:	00 38 a3    	btst.z    w0, #0x3
    12ba:	04 00 3a    	bra       NZ, 0x12c4 <.L15>
    12bc:	58 08 90    	mov.w     [w8+26], w0
    12be:	80 8f 54    	sub.w     w9, w0, [w15]
    12c0:	01 00 3d    	bra       GE, 0x12c4 <.L15>
    12c2:	59 0c 98    	mov.w     w9, [w8+26]

000012c4 <.L15>:
    12c4:	58 08 90    	mov.w     [w8+26], w0
    12c6:	0b 00 50    	sub.w     w0, w11, w0
    12c8:	50 0c 98    	mov.w     w0, [w8+26]
    12ca:	02 00 3b    	bra       NN, 0x12d0 <.L12>
    12cc:	00 00 eb    	clr.w     w0
    12ce:	50 0c 98    	mov.w     w0, [w8+26]

000012d0 <.L12>:
    12d0:	0b 00 e0    	cp0.w     w11
    12d2:	27 00 3c    	bra       GT, 0x1322 <.L19>
    12d4:	18 09 90    	mov.w     [w8+18], w2
    12d6:	68 00 90    	mov.w     [w8+12], w0
    12d8:	01 c3 b3    	mov.b     #0x30, w1
    12da:	01 70 79    	mov.b     w1, [w0+w2]
    12dc:	82 01 e8    	inc.w     w2, w3
    12de:	13 0c 98    	mov.w     w3, [w8+18]
    12e0:	58 08 90    	mov.w     [w8+26], w0
    12e2:	00 00 e0    	cp0.w     w0
    12e4:	03 00 3c    	bra       GT, 0x12ec <.L21>
    12e6:	08 10 90    	mov.w     [w8+32], w0
    12e8:	00 38 a3    	btst.z    w0, #0x3
    12ea:	05 00 32    	bra       Z, 0x12f6 <.L23>

000012ec <.L21>:
    12ec:	68 00 90    	mov.w     [w8+12], w0
    12ee:	e1 c2 b3    	mov.b     #0x2e, w1
    12f0:	01 f0 79    	mov.b     w1, [w0+w3]
    12f2:	02 80 e8    	inc2.w    w2, w0
    12f4:	10 0c 98    	mov.w     w0, [w8+18]

000012f6 <.L23>:
    12f6:	d8 08 90    	mov.w     [w8+26], w1
    12f8:	0b 00 ea    	neg.w     w11, w0
    12fa:	80 8f 50    	sub.w     w1, w0, [w15]
    12fc:	01 00 3d    	bra       GE, 0x1300 <.L24>
    12fe:	81 05 ea    	neg.w     w1, w11

00001300 <.L24>:
    1300:	0b 00 ea    	neg.w     w11, w0
    1302:	20 0c 98    	mov.w     w0, [w8+20]
    1304:	01 80 45    	add.w     w11, w1, w0
    1306:	50 0c 98    	mov.w     w0, [w8+26]
    1308:	89 0f 50    	sub.w     w0, w9, [w15]
    130a:	01 00 3d    	bra       GE, 0x130e <.L26>
    130c:	80 04 78    	mov.w     w0, w9

0000130e <.L26>:
    130e:	39 0c 98    	mov.w     w9, [w8+22]
    1310:	68 00 90    	mov.w     [w8+12], w0
    1312:	98 08 90    	mov.w     [w8+18], w1
    1314:	01 00 40    	add.w     w0, w1, w0
    1316:	09 01 78    	mov.w     w9, w2
    1318:	8c 00 78    	mov.w     w12, w1
    131a:	0c f8 07    	rcall     0x334 <_memcpy>
    131c:	58 08 90    	mov.w     [w8+26], w0
    131e:	09 00 50    	sub.w     w0, w9, w0
    1320:	1a 00 37    	bra       0x1356 <.L77>

00001322 <.L19>:
    1322:	98 08 90    	mov.w     [w8+18], w1
    1324:	68 00 90    	mov.w     [w8+12], w0
    1326:	8b 8f 54    	sub.w     w9, w11, [w15]
    1328:	18 00 3d    	bra       GE, 0x135a <.L29>
    132a:	01 00 40    	add.w     w0, w1, w0
    132c:	09 01 78    	mov.w     w9, w2
    132e:	8c 00 78    	mov.w     w12, w1
    1330:	01 f8 07    	rcall     0x334 <_memcpy>
    1332:	18 08 90    	mov.w     [w8+18], w0
    1334:	00 81 44    	add.w     w9, w0, w2
    1336:	12 0c 98    	mov.w     w2, [w8+18]
    1338:	09 80 55    	sub.w     w11, w9, w0
    133a:	20 0c 98    	mov.w     w0, [w8+20]
    133c:	58 08 90    	mov.w     [w8+26], w0
    133e:	00 00 e0    	cp0.w     w0
    1340:	03 00 3c    	bra       GT, 0x1348 <.L31>
    1342:	08 10 90    	mov.w     [w8+32], w0
    1344:	00 38 a3    	btst.z    w0, #0x3
    1346:	06 00 32    	bra       Z, 0x1354 <.L33>

00001348 <.L31>:
    1348:	e8 00 90    	mov.w     [w8+12], w1
    134a:	e0 c2 b3    	mov.b     #0x2e, w0
    134c:	80 70 79    	mov.b     w0, [w1+w2]
    134e:	38 08 90    	mov.w     [w8+22], w0
    1350:	00 00 e8    	inc.w     w0, w0
    1352:	30 0c 98    	mov.w     w0, [w8+22]

00001354 <.L33>:
    1354:	58 08 90    	mov.w     [w8+26], w0

00001356 <.L77>:
    1356:	40 0c 98    	mov.w     w0, [w8+24]
    1358:	a6 00 37    	bra       0x14a6 <.L28>

0000135a <.L29>:
    135a:	01 00 40    	add.w     w0, w1, w0
    135c:	0b 01 78    	mov.w     w11, w2
    135e:	8c 00 78    	mov.w     w12, w1
    1360:	e9 f7 07    	rcall     0x334 <_memcpy>
    1362:	18 08 90    	mov.w     [w8+18], w0
    1364:	00 81 45    	add.w     w11, w0, w2
    1366:	12 0c 98    	mov.w     w2, [w8+18]
    1368:	8b 84 54    	sub.w     w9, w11, w9
    136a:	58 08 90    	mov.w     [w8+26], w0
    136c:	00 00 e0    	cp0.w     w0
    136e:	03 00 3c    	bra       GT, 0x1376 <.L34>
    1370:	08 10 90    	mov.w     [w8+32], w0
    1372:	00 38 a3    	btst.z    w0, #0x3
    1374:	05 00 32    	bra       Z, 0x1380 <.L36>

00001376 <.L34>:
    1376:	68 00 90    	mov.w     [w8+12], w0
    1378:	e1 c2 b3    	mov.b     #0x2e, w1
    137a:	01 70 79    	mov.b     w1, [w0+w2]
    137c:	02 00 e8    	inc.w     w2, w0
    137e:	10 0c 98    	mov.w     w0, [w8+18]

00001380 <.L36>:
    1380:	58 08 90    	mov.w     [w8+26], w0
    1382:	89 0f 50    	sub.w     w0, w9, [w15]
    1384:	01 00 3d    	bra       GE, 0x1388 <.L37>
    1386:	80 04 78    	mov.w     w0, w9

00001388 <.L37>:
    1388:	68 00 90    	mov.w     [w8+12], w0
    138a:	98 08 90    	mov.w     [w8+18], w1
    138c:	01 00 40    	add.w     w0, w1, w0
    138e:	8b 00 46    	add.w     w12, w11, w1
    1390:	09 01 78    	mov.w     w9, w2
    1392:	d0 f7 07    	rcall     0x334 <_memcpy>
    1394:	18 08 90    	mov.w     [w8+18], w0
    1396:	00 80 44    	add.w     w9, w0, w0
    1398:	10 0c 98    	mov.w     w0, [w8+18]
    139a:	58 08 90    	mov.w     [w8+26], w0
    139c:	09 00 50    	sub.w     w0, w9, w0
    139e:	20 0c 98    	mov.w     w0, [w8+20]
    13a0:	82 00 37    	bra       0x14a6 <.L28>

000013a2 <.L10>:
    13a2:	70 c6 b3    	mov.b     #0x67, w0
    13a4:	80 4f 55    	sub.b     w10, w0, [w15]
    13a6:	03 00 32    	bra       Z, 0x13ae <.L39>
    13a8:	70 c4 b3    	mov.b     #0x47, w0
    13aa:	80 4f 55    	sub.b     w10, w0, [w15]
    13ac:	14 00 3a    	bra       NZ, 0x13d6 <.L9>

000013ae <.L39>:
    13ae:	58 08 90    	mov.w     [w8+26], w0
    13b0:	80 8f 54    	sub.w     w9, w0, [w15]
    13b2:	04 00 3d    	bra       GE, 0x13bc <.L41>
    13b4:	08 10 90    	mov.w     [w8+32], w0
    13b6:	00 38 a3    	btst.z    w0, #0x3
    13b8:	01 00 3a    	bra       NZ, 0x13bc <.L41>
    13ba:	59 0c 98    	mov.w     w9, [w8+26]

000013bc <.L41>:
    13bc:	58 08 90    	mov.w     [w8+26], w0
    13be:	00 00 e9    	dec.w     w0, w0
    13c0:	50 0c 98    	mov.w     w0, [w8+26]
    13c2:	02 00 3b    	bra       NN, 0x13c8 <.L44>
    13c4:	00 00 eb    	clr.w     w0
    13c6:	50 0c 98    	mov.w     w0, [w8+26]

000013c8 <.L44>:
    13c8:	70 c6 b3    	mov.b     #0x67, w0
    13ca:	80 4f 55    	sub.b     w10, w0, [w15]
    13cc:	02 00 3a    	bra       NZ, 0x13d2 <.L46>
    13ce:	5a c6 b3    	mov.b     #0x65, w10
    13d0:	0b 00 37    	bra       0x13e8 <.L48>

000013d2 <.L46>:
    13d2:	5a c4 b3    	mov.b     #0x45, w10
    13d4:	09 00 37    	bra       0x13e8 <.L48>

000013d6 <.L9>:
    13d6:	10 c6 b3    	mov.b     #0x61, w0
    13d8:	80 4f 55    	sub.b     w10, w0, [w15]
    13da:	02 00 3a    	bra       NZ, 0x13e0 <.L49>
    13dc:	0a c7 b3    	mov.b     #0x70, w10
    13de:	04 00 37    	bra       0x13e8 <.L48>

000013e0 <.L49>:
    13e0:	10 c4 b3    	mov.b     #0x41, w0
    13e2:	80 4f 55    	sub.b     w10, w0, [w15]
    13e4:	01 00 3a    	bra       NZ, 0x13e8 <.L48>
    13e6:	0a c5 b3    	mov.b     #0x50, w10

000013e8 <.L48>:
    13e8:	18 09 90    	mov.w     [w8+18], w2
    13ea:	68 00 90    	mov.w     [w8+12], w0
    13ec:	3c 70 79    	mov.b     [w12++], [w0+w2]
    13ee:	82 01 e8    	inc.w     w2, w3
    13f0:	13 0c 98    	mov.w     w3, [w8+18]
    13f2:	0c 02 78    	mov.w     w12, w4
    13f4:	58 08 90    	mov.w     [w8+26], w0
    13f6:	00 00 e0    	cp0.w     w0
    13f8:	03 00 3c    	bra       GT, 0x1400 <.L52>
    13fa:	08 10 90    	mov.w     [w8+32], w0
    13fc:	00 38 a3    	btst.z    w0, #0x3
    13fe:	17 00 32    	bra       Z, 0x142e <.L54>

00001400 <.L52>:
    1400:	e8 00 90    	mov.w     [w8+12], w1
    1402:	e0 c2 b3    	mov.b     #0x2e, w0
    1404:	80 f0 79    	mov.b     w0, [w1+w3]
    1406:	82 80 e8    	inc2.w    w2, w1
    1408:	11 0c 98    	mov.w     w1, [w8+18]
    140a:	58 08 90    	mov.w     [w8+26], w0
    140c:	00 00 e0    	cp0.w     w0
    140e:	0f 00 34    	bra       LE, 0x142e <.L54>
    1410:	89 04 e9    	dec.w     w9, w9
    1412:	89 0f 50    	sub.w     w0, w9, [w15]
    1414:	01 00 3d    	bra       GE, 0x1418 <.L56>
    1416:	80 04 78    	mov.w     w0, w9

00001418 <.L56>:
    1418:	68 00 90    	mov.w     [w8+12], w0
    141a:	00 80 40    	add.w     w1, w0, w0
    141c:	09 01 78    	mov.w     w9, w2
    141e:	84 00 78    	mov.w     w4, w1
    1420:	89 f7 07    	rcall     0x334 <_memcpy>
    1422:	18 08 90    	mov.w     [w8+18], w0
    1424:	00 80 44    	add.w     w9, w0, w0
    1426:	10 0c 98    	mov.w     w0, [w8+18]
    1428:	58 08 90    	mov.w     [w8+26], w0
    142a:	09 00 50    	sub.w     w0, w9, w0
    142c:	20 0c 98    	mov.w     w0, [w8+20]

0000142e <.L54>:
    142e:	68 00 90    	mov.w     [w8+12], w0
    1430:	98 08 90    	mov.w     [w8+18], w1
    1432:	01 00 40    	add.w     w0, w1, w0
    1434:	00 86 e8    	inc2.w    w0, w12
    1436:	0a 58 78    	mov.b     w10, [w0++]
    1438:	80 00 78    	mov.w     w0, w1
    143a:	0d 00 e0    	cp0.w     w13
    143c:	04 00 35    	bra       LT, 0x1446 <.L58>
    143e:	b0 c2 b3    	mov.b     #0x2b, w0
    1440:	80 48 78    	mov.b     w0, [w1]
    1442:	8c 04 78    	mov.w     w12, w9
    1444:	04 00 37    	bra       0x144e <.L60>

00001446 <.L58>:
    1446:	d0 c2 b3    	mov.b     #0x2d, w0
    1448:	80 48 78    	mov.b     w0, [w1]
    144a:	8c 04 78    	mov.w     w12, w9
    144c:	8d 06 ea    	neg.w     w13, w13

0000144e <.L60>:
    144e:	80 05 eb    	clr.w     w11
    1450:	0a 00 37    	bra       0x1466 <.L61>

00001452 <.L62>:
    1452:	a2 00 20    	mov.w     #0xa, w2
    1454:	8d 00 78    	mov.w     w13, w1
    1456:	70 80 57    	sub.w     w15, #0x10, w0
    1458:	89 00 07    	rcall     0x156c <_div>
    145a:	0f b8 97    	mov.w     [w15-16], w0
    145c:	9f b8 97    	mov.w     [w15-14], w1
    145e:	7a 81 55    	sub.w     w11, #0x1a, w2
    1460:	01 f1 7f    	mov.b     w1, [w2+w15]
    1462:	8b 05 e8    	inc.w     w11, w11
    1464:	80 06 78    	mov.w     w0, w13

00001466 <.L61>:
    1466:	0d 00 e0    	cp0.w     w13
    1468:	f4 ff 3c    	bra       GT, 0x1452 <.L62>
    146a:	e1 8f 55    	sub.w     w11, #0x1, [w15]
    146c:	09 00 3c    	bra       GT, 0x1480 <.L64>
    146e:	50 c6 b3    	mov.b     #0x65, w0
    1470:	80 4f 55    	sub.b     w10, w0, [w15]
    1472:	03 00 32    	bra       Z, 0x147a <.L66>
    1474:	50 c4 b3    	mov.b     #0x45, w0
    1476:	80 4f 55    	sub.b     w10, w0, [w15]
    1478:	03 00 3a    	bra       NZ, 0x1480 <.L64>

0000147a <.L66>:
    147a:	00 c3 b3    	mov.b     #0x30, w0
    147c:	00 5e 78    	mov.b     w0, [w12++]
    147e:	8c 04 78    	mov.w     w12, w9

00001480 <.L64>:
    1480:	0b 00 e0    	cp0.w     w11
    1482:	04 00 32    	bra       Z, 0x148c <.L68>
    1484:	0b 00 e9    	dec.w     w11, w0
    1486:	fa 80 57    	sub.w     w15, #0x1a, w1
    1488:	00 80 40    	add.w     w1, w0, w0
    148a:	06 00 37    	bra       0x1498 <.L70>

0000148c <.L68>:
    148c:	00 c3 b3    	mov.b     #0x30, w0
    148e:	80 5c 78    	mov.b     w0, [w9++]
    1490:	05 00 37    	bra       0x149c <.L71>

00001492 <.L72>:
    1492:	8b 05 e9    	dec.w     w11, w11
    1494:	02 c3 b3    	mov.b     #0x30, w2
    1496:	a0 5c 41    	add.b     w2, [w0--], [w9++]

00001498 <.L70>:
    1498:	0b 00 e0    	cp0.w     w11
    149a:	fb ff 3c    	bra       GT, 0x1492 <.L72>

0000149c <.L71>:
    149c:	68 00 90    	mov.w     [w8+12], w0
    149e:	98 08 90    	mov.w     [w8+18], w1
    14a0:	01 00 40    	add.w     w0, w1, w0
    14a2:	00 80 54    	sub.w     w9, w0, w0
    14a4:	30 0c 98    	mov.w     w0, [w8+22]

000014a6 <.L28>:
    14a6:	08 10 90    	mov.w     [w8+32], w0
    14a8:	74 00 60    	and.w     w0, #0x14, w0
    14aa:	f0 0f 50    	sub.w     w0, #0x10, [w15]
    14ac:	0e 00 3a    	bra       NZ, 0x14ca <.L76>
    14ae:	78 00 90    	mov.w     [w8+14], w0
    14b0:	98 08 90    	mov.w     [w8+18], w1
    14b2:	01 00 40    	add.w     w0, w1, w0
    14b4:	a8 08 90    	mov.w     [w8+20], w1
    14b6:	01 00 40    	add.w     w0, w1, w0
    14b8:	b8 08 90    	mov.w     [w8+22], w1
    14ba:	01 00 40    	add.w     w0, w1, w0
    14bc:	c8 08 90    	mov.w     [w8+24], w1
    14be:	81 00 40    	add.w     w0, w1, w1
    14c0:	78 08 90    	mov.w     [w8+30], w0
    14c2:	80 8f 50    	sub.w     w1, w0, [w15]
    14c4:	02 00 3d    	bra       GE, 0x14ca <.L76>
    14c6:	01 00 50    	sub.w     w0, w1, w0
    14c8:	00 0c 98    	mov.w     w0, [w8+16]

000014ca <.L76>:
    14ca:	4f 06 be    	mov.d     [--w15], w12
    14cc:	4f 05 be    	mov.d     [--w15], w10
    14ce:	4f 04 be    	mov.d     [--w15], w8
    14d0:	00 80 fa    	ulnk      
    14d2:	00 00 06    	return    

000014d4 <__Dnorm>:
    14d4:	00 01 78    	mov.w     w0, w2
    14d6:	e6 01 40    	add.w     w0, #0x6, w3
    14d8:	13 00 78    	mov.w     [w3], w0
    14da:	01 00 28    	mov.w     #0x8000, w1
    14dc:	81 03 60    	and.w     w0, w1, w7
    14de:	6f 00 60    	and.w     w0, #0xf, w0
    14e0:	80 09 78    	mov.w     w0, [w3]
    14e2:	12 00 3a    	bra       NZ, 0x1508 <.L2>
    14e4:	22 00 90    	mov.w     [w2+4], w0
    14e6:	00 00 e0    	cp0.w     w0
    14e8:	0f 00 3a    	bra       NZ, 0x1508 <.L2>
    14ea:	12 00 90    	mov.w     [w2+2], w0
    14ec:	00 00 e0    	cp0.w     w0
    14ee:	0c 00 3a    	bra       NZ, 0x1508 <.L2>
    14f0:	16 00 20    	mov.w     #0x1, w6
    14f2:	12 00 e0    	cp0.w     [w2]
    14f4:	38 00 32    	bra       Z, 0x1566 <.L7>
    14f6:	08 00 37    	bra       0x1508 <.L2>

000014f8 <.L8>:
    14f8:	e4 00 41    	add.w     w2, #0x4, w1
    14fa:	91 09 78    	mov.w     [w1], [w3]
    14fc:	02 80 e8    	inc2.w    w2, w0
    14fe:	90 08 78    	mov.w     [w0], [w1]
    1500:	12 08 78    	mov.w     [w2], [w0]
    1502:	00 09 eb    	clr.w     [w2]
    1504:	70 03 53    	sub.w     w6, #0x10, w6
    1506:	01 00 37    	bra       0x150a <.L9>

00001508 <.L2>:
    1508:	16 00 20    	mov.w     #0x1, w6

0000150a <.L9>:
    150a:	13 00 e0    	cp0.w     [w3]
    150c:	f5 ff 32    	bra       Z, 0x14f8 <.L8>
    150e:	e4 02 41    	add.w     w2, #0x4, w5
    1510:	02 82 e8    	inc2.w    w2, w4
    1512:	11 00 37    	bra       0x1536 <.L10>

00001514 <.L11>:
    1514:	80 00 40    	add.w     w0, w0, w1
    1516:	15 00 78    	mov.w     [w5], w0
    1518:	4f 00 de    	lsr.w     w0, #0xf, w0
    151a:	80 89 70    	ior.w     w1, w0, [w3]
    151c:	95 00 78    	mov.w     [w5], w1
    151e:	81 80 40    	add.w     w1, w1, w1
    1520:	14 00 78    	mov.w     [w4], w0
    1522:	4f 00 de    	lsr.w     w0, #0xf, w0
    1524:	80 8a 70    	ior.w     w1, w0, [w5]
    1526:	94 00 78    	mov.w     [w4], w1
    1528:	81 80 40    	add.w     w1, w1, w1
    152a:	12 00 78    	mov.w     [w2], w0
    152c:	4f 00 de    	lsr.w     w0, #0xf, w0
    152e:	00 8a 70    	ior.w     w1, w0, [w4]
    1530:	12 00 78    	mov.w     [w2], w0
    1532:	00 09 40    	add.w     w0, w0, [w2]
    1534:	06 03 e9    	dec.w     w6, w6

00001536 <.L10>:
    1536:	13 00 78    	mov.w     [w3], w0
    1538:	ef 0f 50    	sub.w     w0, #0xf, [w15]
    153a:	ec ff 36    	bra       LEU, 0x1514 <.L11>
    153c:	82 82 e8    	inc2.w    w2, w5
    153e:	64 02 41    	add.w     w2, #0x4, w4
    1540:	0e 00 37    	bra       0x155e <.L12>

00001542 <.L13>:
    1542:	92 00 d1    	lsr.w     [w2], w1
    1544:	15 00 78    	mov.w     [w5], w0
    1546:	4f 00 dd    	sl.w      w0, #0xf, w0
    1548:	00 89 70    	ior.w     w1, w0, [w2]
    154a:	95 00 d1    	lsr.w     [w5], w1
    154c:	14 00 78    	mov.w     [w4], w0
    154e:	4f 00 dd    	sl.w      w0, #0xf, w0
    1550:	80 8a 70    	ior.w     w1, w0, [w5]
    1552:	94 00 d1    	lsr.w     [w4], w1
    1554:	13 00 78    	mov.w     [w3], w0
    1556:	4f 00 dd    	sl.w      w0, #0xf, w0
    1558:	00 8a 70    	ior.w     w1, w0, [w4]
    155a:	93 09 d1    	lsr.w     [w3], [w3]
    155c:	06 03 e8    	inc.w     w6, w6

0000155e <.L12>:
    155e:	13 00 78    	mov.w     [w3], w0
    1560:	ff 0f 50    	sub.w     w0, #0x1f, [w15]
    1562:	ef ff 3e    	bra       GTU, 0x1542 <.L13>
    1564:	ef 09 60    	and.w     w0, #0xf, [w3]

00001566 <.L7>:
    1566:	93 89 73    	ior.w     w7, [w3], [w3]
    1568:	06 00 78    	mov.w     w6, w0
    156a:	00 00 06    	return    

0000156c <_div>:
    156c:	02 02 78    	mov.w     w2, w4
    156e:	80 9f be    	mov.d     w0, [w15++]
    1570:	11 00 09    	repeat    #0x11
    1572:	82 00 d8    	div.sw    w1, w2
    1574:	00 01 78    	mov.w     w0, w2
    1576:	4f 00 be    	mov.d     [--w15], w0
    1578:	02 a2 b9    	mul.ss    w4, w2, w4
    157a:	84 80 50    	sub.w     w1, w4, w1
    157c:	11 00 98    	mov.w     w1, [w0+2]
    157e:	02 08 78    	mov.w     w2, [w0]
    1580:	00 00 06    	return    

00001582 <___mulp32eds3>:
    1582:	02 0a b9    	mul.su    w1, w2, w4
    1584:	00 1b b9    	mul.su    w3, w0, w6
    1586:	02 00 b8    	mul.uu    w0, w2, w0
    1588:	81 00 42    	add.w     w4, w1, w1
    158a:	81 00 43    	add.w     w6, w1, w1
    158c:	00 00 06    	return    

0000158e <___divsi3>:
    158e:	83 9f 68    	xor.w     w1, w3, [w15++]
    1590:	01 00 e0    	cp0.w     w1
    1592:	02 00 3d    	bra       GE, 0x1598 <divtestb>
    1594:	60 00 10    	subr.w    w0, #0x0, w0
    1596:	e0 80 18    	subbr.w   w1, #0x0, w1

00001598 <divtestb>:
    1598:	03 00 e0    	cp0.w     w3
    159a:	02 00 3d    	bra       GE, 0x15a0 <calcquot>
    159c:	60 01 11    	subr.w    w2, #0x0, w2
    159e:	e0 81 19    	subbr.w   w3, #0x0, w3

000015a0 <calcquot>:
    15a0:	c7 00 07    	rcall     0x1730 <___udivsi3>
    15a2:	4f 00 e0    	cp0.w     [--w15]
    15a4:	02 00 3b    	bra       NN, 0x15aa <returnq>
    15a6:	60 00 10    	subr.w    w0, #0x0, w0
    15a8:	e0 80 18    	subbr.w   w1, #0x0, w1

000015aa <returnq>:
    15aa:	00 00 06    	return    

000015ac <___floatsisf>:
    15ac:	88 9f be    	mov.d     w8, [w15++]
    15ae:	8a 9f be    	mov.d     w10, [w15++]
    15b0:	01 05 78    	mov.w     w1, w10
    15b2:	01 00 e0    	cp0.w     w1
    15b4:	04 00 35    	bra       LT, 0x15be <negative>
    15b6:	08 00 3c    	bra       GT, 0x15c8 <notspecial>
    15b8:	00 00 e0    	cp0.w     w0
    15ba:	20 00 32    	bra       Z, 0x15fc <return0>
    15bc:	05 00 37    	bra       0x15c8 <notspecial>

000015be <negative>:
    15be:	60 00 10    	subr.w    w0, #0x0, w0
    15c0:	e0 80 18    	subbr.w   w1, #0x0, w1
    15c2:	02 00 3b    	bra       NN, 0x15c8 <notspecial>
    15c4:	01 f0 2c    	mov.w     #0xcf00, w1
    15c6:	1a 00 37    	bra       0x15fc <return0>

000015c8 <notspecial>:
    15c8:	00 04 be    	mov.d     w0, w8
    15ca:	60 11 b8    	mul.uu    w2, #0x0, w2
    15cc:	6b 09 20    	mov.w     #0x96, w11
    15ce:	09 82 cf    	ff1l      w9, w4
    15d0:	02 00 39    	bra       NC, 0x15d6 <fixshift>
    15d2:	08 82 cf    	ff1l      w8, w4
    15d4:	04 41 b0    	add.b     #0x10, w4

000015d6 <fixshift>:
    15d6:	69 42 52    	sub.b     w4, #0x9, w4
    15d8:	0e 00 32    	bra       Z, 0x15f6 <round>
    15da:	08 00 3b    	bra       NN, 0x15ec <shiftleft>

000015dc <shiftright>:
    15dc:	82 81 71    	ior.w     w3, w2, w3
    15de:	61 01 64    	and.w     w8, #0x1, w2
    15e0:	89 04 d1    	lsr.w     w9, w9
    15e2:	08 84 d3    	rrc.w     w8, w8
    15e4:	8b 05 e8    	inc.w     w11, w11
    15e6:	04 42 e8    	inc.b     w4, w4
    15e8:	f9 ff 3a    	bra       NZ, 0x15dc <shiftright>
    15ea:	05 00 37    	bra       0x15f6 <round>

000015ec <shiftleft>:
    15ec:	08 04 44    	add.w     w8, w8, w8
    15ee:	89 84 4c    	addc.w    w9, w9, w9
    15f0:	8b 05 e9    	dec.w     w11, w11
    15f2:	04 42 e9    	dec.b     w4, w4
    15f4:	fb ff 3a    	bra       NZ, 0x15ec <shiftleft>

000015f6 <round>:
    15f6:	ac 00 07    	rcall     0x1750 <__fpack>
    15f8:	0a f0 a7    	btsc.w    w10, #0xf
    15fa:	01 f0 a0    	bset.w    w1, #0xf

000015fc <return0>:
    15fc:	4f 05 be    	mov.d     [--w15], w10
    15fe:	4f 04 be    	mov.d     [--w15], w8
    1600:	00 00 06    	return    

00001602 <___mulsf3>:
    1602:	88 9f be    	mov.d     w8, [w15++]
    1604:	8a 9f be    	mov.d     w10, [w15++]
    1606:	8c 1f 78    	mov.w     w12, [w15++]
    1608:	c9 00 07    	rcall     0x179c <__funpack2>
    160a:	d0 00 33    	bra       N, 0x17ac <__fPropagateNaN>
    160c:	03 86 6c    	xor.w     w9, w3, w12
    160e:	64 50 e1    	cp.w      w10, #0x4
    1610:	24 00 32    	bra       Z, 0x165a <aisinfinite>
    1612:	64 20 e1    	cp.w      w4, #0x4
    1614:	27 00 32    	bra       Z, 0x1664 <bisinfinite>
    1616:	61 50 e1    	cp.w      w10, #0x1
    1618:	22 00 32    	bra       Z, 0x165e <return8>
    161a:	61 20 e1    	cp.w      w4, #0x1
    161c:	21 00 32    	bra       Z, 0x1660 <return2>
    161e:	8b 85 42    	add.w     w5, w11, w11
    1620:	eb 07 b1    	sub.w     #0x7e, w11
    1622:	01 34 b8    	mul.uu    w6, w1, w8
    1624:	00 3a b8    	mul.uu    w7, w0, w4
    1626:	08 04 42    	add.w     w4, w8, w8
    1628:	89 84 4a    	addc.w    w5, w9, w9
    162a:	01 3a b8    	mul.uu    w7, w1, w4
    162c:	00 30 b8    	mul.uu    w6, w0, w0
    162e:	88 80 40    	add.w     w1, w8, w1
    1630:	09 01 4a    	addc.w    w4, w9, w2
    1632:	04 00 33    	bra       N, 0x163c <formsticky>
    1634:	00 00 40    	add.w     w0, w0, w0
    1636:	81 80 48    	addc.w    w1, w1, w1
    1638:	02 01 49    	addc.w    w2, w2, w2
    163a:	8b 05 e9    	dec.w     w11, w11

0000163c <formsticky>:
    163c:	c9 09 dd    	sl.w      w1, #0x9, w3
    163e:	83 01 70    	ior.w     w0, w3, w3
    1640:	01 00 32    	bra       Z, 0x1644 <formRandSig>
    1642:	13 00 20    	mov.w     #0x1, w3

00001644 <formRandSig>:
    1644:	c8 14 de    	lsr.w     w2, #0x8, w9
    1646:	48 14 dd    	sl.w      w2, #0x8, w8
    1648:	47 09 de    	lsr.w     w1, #0x7, w2
    164a:	12 00 b2    	and.w     #0x1, w2
    164c:	c8 08 de    	lsr.w     w1, #0x8, w1
    164e:	08 84 70    	ior.w     w1, w8, w8
    1650:	7f 00 07    	rcall     0x1750 <__fpack>

00001652 <return0>:
    1652:	01 f0 a1    	bclr.w    w1, #0xf
    1654:	0c f0 a7    	btsc.w    w12, #0xf
    1656:	01 f0 a0    	bset.w    w1, #0xf
    1658:	b2 00 37    	bra       0x17be <__fbopExit>

0000165a <aisinfinite>:
    165a:	61 20 e1    	cp.w      w4, #0x1
    165c:	b4 00 32    	bra       Z, 0x17c6 <__fbopReturnNaN>

0000165e <return8>:
    165e:	08 01 be    	mov.d     w8, w2

00001660 <return2>:
    1660:	02 00 be    	mov.d     w2, w0
    1662:	f7 ff 37    	bra       0x1652 <return0>

00001664 <bisinfinite>:
    1664:	61 50 e1    	cp.w      w10, #0x1
    1666:	fc ff 3a    	bra       NZ, 0x1660 <return2>
    1668:	ae 00 37    	bra       0x17c6 <__fbopReturnNaN>

0000166a <___fixsfsi>:
    166a:	00 01 be    	mov.d     w0, w2
    166c:	af 00 07    	rcall     0x17cc <__funpack>
    166e:	04 70 a7    	btsc.w    w4, #0x7
    1670:	03 f0 a1    	bclr.w    w3, #0xf
    1672:	65 09 b1    	sub.w     #0x96, w5
    1674:	16 00 32    	bra       Z, 0x16a2 <setsign>
    1676:	0d 00 35    	bra       LT, 0x1692 <shiftright>
    1678:	68 28 e1    	cp.w      w5, #0x8
    167a:	06 00 35    	bra       LT, 0x1688 <shiftleft>
    167c:	f0 ff 2f    	mov.w     #0xffff, w0
    167e:	f1 ff 27    	mov.w     #0x7fff, w1
    1680:	03 00 e0    	cp0.w     w3
    1682:	13 00 3b    	bra       NN, 0x16aa <exit>
    1684:	01 00 28    	mov.w     #0x8000, w1
    1686:	00 00 05    	retlw.w   #0x0, w0

00001688 <shiftleft>:
    1688:	00 00 40    	add.w     w0, w0, w0
    168a:	81 80 48    	addc.w    w1, w1, w1
    168c:	85 02 e9    	dec.w     w5, w5
    168e:	fc ff 3a    	bra       NZ, 0x1688 <shiftleft>
    1690:	08 00 37    	bra       0x16a2 <setsign>

00001692 <shiftright>:
    1692:	f8 8f 42    	add.w     w5, #0x18, [w15]
    1694:	02 00 3c    	bra       GT, 0x169a <shiftrightloop>
    1696:	80 00 eb    	clr.w     w1
    1698:	00 00 05    	retlw.w   #0x0, w0

0000169a <shiftrightloop>:
    169a:	81 00 d1    	lsr.w     w1, w1
    169c:	00 80 d3    	rrc.w     w0, w0
    169e:	85 02 e8    	inc.w     w5, w5
    16a0:	fc ff 3a    	bra       NZ, 0x169a <shiftrightloop>

000016a2 <setsign>:
    16a2:	03 00 e0    	cp0.w     w3
    16a4:	02 00 3b    	bra       NN, 0x16aa <exit>
    16a6:	60 00 10    	subr.w    w0, #0x0, w0
    16a8:	e0 80 18    	subbr.w   w1, #0x0, w1

000016aa <exit>:
    16aa:	00 00 06    	return    

000016ac <___divsf3>:
    16ac:	88 9f be    	mov.d     w8, [w15++]
    16ae:	8a 9f be    	mov.d     w10, [w15++]
    16b0:	8c 1f 78    	mov.w     w12, [w15++]
    16b2:	74 00 07    	rcall     0x179c <__funpack2>
    16b4:	7b 00 33    	bra       N, 0x17ac <__fPropagateNaN>
    16b6:	03 86 6c    	xor.w     w9, w3, w12
    16b8:	64 50 e1    	cp.w      w10, #0x4
    16ba:	2e 00 32    	bra       Z, 0x1718 <aisinfinite>
    16bc:	64 20 e1    	cp.w      w4, #0x4
    16be:	33 00 32    	bra       Z, 0x1726 <returnZero>
    16c0:	61 50 e1    	cp.w      w10, #0x1
    16c2:	2f 00 32    	bra       Z, 0x1722 <aiszero>
    16c4:	61 20 e1    	cp.w      w4, #0x1
    16c6:	31 00 32    	bra       Z, 0x172a <returnInf>

000016c8 <finitenonzero>:
    16c8:	85 85 55    	sub.w     w11, w5, w11
    16ca:	eb 07 b0    	add.w     #0x7e, w11
    16cc:	09 00 20    	mov.w     #0x0, w9
    16ce:	08 04 20    	mov.w     #0x40, w8
    16d0:	05 00 37    	bra       0x16dc <diventry>

000016d2 <divnext>:
    16d2:	08 04 44    	add.w     w8, w8, w8
    16d4:	89 84 4c    	addc.w    w9, w9, w9
    16d6:	0a 00 31    	bra       C, 0x16ec <divdone>

000016d8 <divloop>:
    16d8:	06 03 43    	add.w     w6, w6, w6
    16da:	87 83 4b    	addc.w    w7, w7, w7

000016dc <diventry>:
    16dc:	00 01 53    	sub.w     w6, w0, w2
    16de:	81 81 5b    	subb.w    w7, w1, w3
    16e0:	f8 ff 33    	bra       N, 0x16d2 <divnext>
    16e2:	02 03 be    	mov.d     w2, w6
    16e4:	08 00 a0    	bset.w    w8, #0x0
    16e6:	08 04 44    	add.w     w8, w8, w8
    16e8:	89 84 4c    	addc.w    w9, w9, w9
    16ea:	f6 ff 39    	bra       NC, 0x16d8 <divloop>

000016ec <divdone>:
    16ec:	c6 39 dd    	sl.w      w7, #0x6, w3
    16ee:	83 01 73    	ior.w     w6, w3, w3
    16f0:	01 00 32    	bra       Z, 0x16f4 <stickyok>
    16f2:	13 00 20    	mov.w     #0x1, w3

000016f4 <stickyok>:
    16f4:	89 04 d1    	lsr.w     w9, w9
    16f6:	08 84 d3    	rrc.w     w8, w8
    16f8:	09 98 a3    	btst.z    w9, #0x9
    16fa:	05 00 32    	bra       Z, 0x1706 <guardused>
    16fc:	08 00 a7    	btsc.w    w8, #0x0
    16fe:	03 00 a0    	bset.w    w3, #0x0
    1700:	89 04 d1    	lsr.w     w9, w9
    1702:	08 84 d3    	rrc.w     w8, w8
    1704:	8b 05 e8    	inc.w     w11, w11

00001706 <guardused>:
    1706:	89 04 d1    	lsr.w     w9, w9
    1708:	08 84 d3    	rrc.w     w8, w8
    170a:	00 01 eb    	clr.w     w2
    170c:	02 81 d2    	rlc.w     w2, w2
    170e:	20 00 07    	rcall     0x1750 <__fpack>

00001710 <return0>:
    1710:	01 f0 a1    	bclr.w    w1, #0xf
    1712:	0c f0 a7    	btsc.w    w12, #0xf
    1714:	01 f0 a0    	bset.w    w1, #0xf
    1716:	53 00 37    	bra       0x17be <__fbopExit>

00001718 <aisinfinite>:
    1718:	64 20 e1    	cp.w      w4, #0x4
    171a:	55 00 32    	bra       Z, 0x17c6 <__fbopReturnNaN>

0000171c <return8>:
    171c:	08 01 be    	mov.d     w8, w2

0000171e <return2>:
    171e:	02 00 be    	mov.d     w2, w0
    1720:	f7 ff 37    	bra       0x1710 <return0>

00001722 <aiszero>:
    1722:	61 20 e1    	cp.w      w4, #0x1
    1724:	50 00 32    	bra       Z, 0x17c6 <__fbopReturnNaN>

00001726 <returnZero>:
    1726:	60 00 b8    	mul.uu    w0, #0x0, w0
    1728:	f3 ff 37    	bra       0x1710 <return0>

0000172a <returnInf>:
    172a:	00 00 20    	mov.w     #0x0, w0
    172c:	01 f8 27    	mov.w     #0x7f80, w1
    172e:	f0 ff 37    	bra       0x1710 <return0>

00001730 <___udivsi3>:
    1730:	60 22 b8    	mul.uu    w4, #0x0, w4
    1732:	06 02 20    	mov.w     #0x20, w6

00001734 <nextbit>:
    1734:	00 00 d0    	sl.w      w0, w0
    1736:	81 80 d2    	rlc.w     w1, w1
    1738:	04 82 d2    	rlc.w     w4, w4
    173a:	85 82 d2    	rlc.w     w5, w5
    173c:	00 00 a0    	bset.w    w0, #0x0
    173e:	02 02 52    	sub.w     w4, w2, w4
    1740:	83 82 5a    	subb.w    w5, w3, w5
    1742:	03 00 31    	bra       C, 0x174a <iterate>
    1744:	02 02 42    	add.w     w4, w2, w4
    1746:	83 82 4a    	addc.w    w5, w3, w5
    1748:	00 00 a1    	bclr.w    w0, #0x0

0000174a <iterate>:
    174a:	06 03 e9    	dec.w     w6, w6
    174c:	f3 ff 3a    	bra       NZ, 0x1734 <nextbit>
    174e:	00 00 06    	return    

00001750 <__fpack>:
    1750:	81 00 20    	mov.w     #0x8, w1
    1752:	61 80 55    	sub.w     w11, #0x1, w0
    1754:	0b 00 3d    	bra       GE, 0x176c <notsubnormal>
    1756:	0b 00 20    	mov.w     #0x0, w11
    1758:	61 fe 2f    	mov.w     #0xffe6, w1
    175a:	01 00 e1    	cp.w      w0, w1
    175c:	1d 00 34    	bra       LE, 0x1798 <zerosig>

0000175e <subnormal>:
    175e:	82 81 71    	ior.w     w3, w2, w3
    1760:	61 01 64    	and.w     w8, #0x1, w2
    1762:	89 04 d1    	lsr.w     w9, w9
    1764:	08 84 d3    	rrc.w     w8, w8
    1766:	00 00 e8    	inc.w     w0, w0
    1768:	fa ff 3a    	bra       NZ, 0x175e <subnormal>
    176a:	71 00 20    	mov.w     #0x7, w1

0000176c <notsubnormal>:
    176c:	61 00 64    	and.w     w8, #0x1, w0
    176e:	03 00 70    	ior.w     w0, w3, w0
    1770:	02 00 60    	and.w     w0, w2, w0
    1772:	09 00 32    	bra       Z, 0x1786 <packupandgo>
    1774:	61 04 44    	add.w     w8, #0x1, w8
    1776:	e0 84 4c    	addc.w    w9, #0x0, w9
    1778:	09 88 a5    	btst.z    w9, w1
    177a:	05 00 32    	bra       Z, 0x1786 <packupandgo>
    177c:	8b 05 e8    	inc.w     w11, w11
    177e:	68 08 e1    	cp.w      w1, #0x8
    1780:	02 00 3a    	bra       NZ, 0x1786 <packupandgo>
    1782:	89 04 d1    	lsr.w     w9, w9
    1784:	08 84 d3    	rrc.w     w8, w8

00001786 <packupandgo>:
    1786:	f2 0f 20    	mov.w     #0xff, w2
    1788:	02 58 e1    	cp.w      w11, w2
    178a:	05 00 3d    	bra       GE, 0x1796 <overflow>
    178c:	c7 5d dd    	sl.w      w11, #0x7, w11
    178e:	f9 07 b2    	and.w     #0x7f, w9
    1790:	89 80 75    	ior.w     w11, w9, w1
    1792:	08 00 78    	mov.w     w8, w0
    1794:	00 00 06    	return    

00001796 <overflow>:
    1796:	0b f8 27    	mov.w     #0x7f80, w11

00001798 <zerosig>:
    1798:	8b 00 78    	mov.w     w11, w1
    179a:	00 00 05    	retlw.w   #0x0, w0

0000179c <__funpack2>:
    179c:	00 04 be    	mov.d     w0, w8
    179e:	16 00 07    	rcall     0x17cc <__funpack>
    17a0:	00 03 be    	mov.d     w0, w6
    17a2:	04 05 be    	mov.d     w4, w10
    17a4:	02 00 be    	mov.d     w2, w0
    17a6:	12 00 07    	rcall     0x17cc <__funpack>
    17a8:	84 4f 75    	ior.b     w10, w4, [w15]
    17aa:	00 00 06    	return    

000017ac <__fPropagateNaN>:
    17ac:	02 00 be    	mov.d     w2, w0
    17ae:	64 50 e1    	cp.w      w10, #0x4
    17b0:	05 00 36    	bra       LEU, 0x17bc <return0>
    17b2:	64 20 e1    	cp.w      w4, #0x4
    17b4:	02 00 36    	bra       LEU, 0x17ba <return8>
    17b6:	09 68 a3    	btst.z    w9, #0x6
    17b8:	01 00 3a    	bra       NZ, 0x17bc <return0>

000017ba <return8>:
    17ba:	08 00 be    	mov.d     w8, w0

000017bc <return0>:
    17bc:	01 60 a0    	bset.w    w1, #0x6

000017be <__fbopExit>:
    17be:	4f 06 78    	mov.w     [--w15], w12
    17c0:	4f 05 be    	mov.d     [--w15], w10
    17c2:	4f 04 be    	mov.d     [--w15], w8
    17c4:	00 00 06    	return    

000017c6 <__fbopReturnNaN>:
    17c6:	f0 ff 2f    	mov.w     #0xffff, w0
    17c8:	f1 ff 27    	mov.w     #0x7fff, w1
    17ca:	f9 ff 37    	bra       0x17be <__fbopExit>

000017cc <__funpack>:
    17cc:	c7 0a de    	lsr.w     w1, #0x7, w5
    17ce:	f1 07 b2    	and.w     #0x7f, w1
    17d0:	f5 0f b2    	and.w     #0xff, w5
    17d2:	08 00 32    	bra       Z, 0x17e4 <zeroorsub>
    17d4:	e1 cf 42    	add.b     w5, #0x1, [w15]
    17d6:	02 00 32    	bra       Z, 0x17dc <nanorinf>

000017d8 <finitereturn>:
    17d8:	01 70 a0    	bset.w    w1, #0x7
    17da:	24 00 05    	retlw.w   #0x2, w4

000017dc <nanorinf>:
    17dc:	81 0f 70    	ior.w     w0, w1, [w15]
    17de:	01 00 32    	bra       Z, 0x17e2 <infinite>
    17e0:	04 08 05    	retlw.w   #0x80, w4

000017e2 <infinite>:
    17e2:	44 00 05    	retlw.w   #0x4, w4

000017e4 <zeroorsub>:
    17e4:	81 0f 70    	ior.w     w0, w1, [w15]
    17e6:	02 00 3a    	bra       NZ, 0x17ec <subnormal>
    17e8:	14 00 05    	retlw.w   #0x1, w4

000017ea <normalize>:
    17ea:	85 02 e9    	dec.w     w5, w5

000017ec <subnormal>:
    17ec:	00 00 40    	add.w     w0, w0, w0
    17ee:	81 c0 48    	addc.b    w1, w1, w1
    17f0:	fc ff 3b    	bra       NN, 0x17ea <normalize>
    17f2:	01 70 a0    	bset.w    w1, #0x7
    17f4:	24 00 05    	retlw.w   #0x2, w4

000017f6 <___extendsfdf2>:
    17f6:	81 03 78    	mov.w     w1, w7
    17f8:	e9 ff 07    	rcall     0x17cc <__funpack>
    17fa:	00 01 be    	mov.d     w0, w2
    17fc:	60 00 b8    	mul.uu    w0, #0x0, w0
    17fe:	04 78 a3    	btst.z    w4, #0x7
    1800:	13 00 3a    	bra       NZ, 0x1828 <xIsNaN>
    1802:	62 20 e1    	cp.w      w4, #0x2
    1804:	15 00 3e    	bra       GTU, 0x1830 <xIsInf>
    1806:	0d 00 39    	bra       NC, 0x1822 <signoff>
    1808:	83 01 d1    	lsr.w     w3, w3
    180a:	02 81 d3    	rrc.w     w2, w2
    180c:	81 80 d3    	rrc.w     w1, w1
    180e:	83 01 d1    	lsr.w     w3, w3
    1810:	02 81 d3    	rrc.w     w2, w2
    1812:	81 80 d3    	rrc.w     w1, w1
    1814:	83 01 d1    	lsr.w     w3, w3
    1816:	02 81 d3    	rrc.w     w2, w2
    1818:	81 80 d3    	rrc.w     w1, w1
    181a:	05 38 b0    	add.w     #0x380, w5
    181c:	c4 2a dd    	sl.w      w5, #0x4, w5
    181e:	f3 00 b2    	and.w     #0xf, w3
    1820:	83 81 72    	ior.w     w5, w3, w3

00001822 <signoff>:
    1822:	07 f0 a7    	btsc.w    w7, #0xf
    1824:	03 f0 a0    	bset.w    w3, #0xf

00001826 <exit>:
    1826:	00 00 06    	return    

00001828 <xIsNaN>:
    1828:	f3 ff 27    	mov.w     #0x7fff, w3
    182a:	f2 ff 2f    	mov.w     #0xffff, w2
    182c:	61 10 b9    	mul.su    w2, #0x1, w0
    182e:	fb ff 37    	bra       0x1826 <exit>

00001830 <xIsInf>:
    1830:	03 ff 27    	mov.w     #0x7ff0, w3
    1832:	f7 ff 37    	bra       0x1822 <signoff>

00001834 <___eqdf2>:
    1834:	8f 1f d1    	lsr.w     w15, [w15++]
    1836:	44 02 07    	rcall     0x1cc0 <__dcompare>
    1838:	8f 87 e9    	dec2.w    w15, w15
    183a:	00 00 e0    	cp0.w     w0
    183c:	00 00 06    	return    

0000183e <___fixdfsi>:
    183e:	14 00 fa    	lnk       #0x14
    1840:	88 9f be    	mov.d     w8, [w15++]
    1842:	8a 9f be    	mov.d     w10, [w15++]
    1844:	8c 9f be    	mov.d     w12, [w15++]
    1846:	00 04 be    	mov.d     w0, w8
    1848:	02 05 be    	mov.d     w2, w10
    184a:	68 00 47    	add.w     w14, #0x8, w0
    184c:	0a 90 be    	mov.d     w10, [w0--]
    184e:	08 90 be    	mov.d     w8, [w0--]
    1850:	60 02 07    	rcall     0x1d12 <__dunpack>
    1852:	00 70 a7    	btsc.w    w0, #0x7
    1854:	0b f0 a1    	bclr.w    w11, #0xf
    1856:	30 43 20    	mov.w     #0x433, w0
    1858:	9e 02 90    	mov.w     [w14+2], w5
    185a:	80 82 52    	sub.w     w5, w0, w5
    185c:	b0 fe 2f    	mov.w     #0xffeb, w0
    185e:	00 28 e1    	cp.w      w5, w0
    1860:	11 00 3d    	bra       GE, 0x1884 <overflow>
    1862:	b0 fc 2f    	mov.w     #0xffcb, w0
    1864:	00 28 e1    	cp.w      w5, w0
    1866:	15 00 34    	bra       LE, 0x1892 <underflow>
    1868:	1e 09 90    	mov.w     [w14+18], w2
    186a:	8e 08 90    	mov.w     [w14+16], w1
    186c:	7e 00 90    	mov.w     [w14+14], w0
    186e:	05 01 b0    	add.w     #0x10, w5

00001870 <shiftrightloop>:
    1870:	02 01 d1    	lsr.w     w2, w2
    1872:	81 80 d3    	rrc.w     w1, w1
    1874:	00 80 d3    	rrc.w     w0, w0
    1876:	85 02 e8    	inc.w     w5, w5
    1878:	fb ff 3a    	bra       NZ, 0x1870 <shiftrightloop>

0000187a <setsign>:
    187a:	0b 00 e0    	cp0.w     w11
    187c:	85 02 3b    	bra       NN, 0x1d88 <__dunpack2exit>
    187e:	60 00 10    	subr.w    w0, #0x0, w0
    1880:	e0 80 18    	subbr.w   w1, #0x0, w1
    1882:	82 02 37    	bra       0x1d88 <__dunpack2exit>

00001884 <overflow>:
    1884:	f0 ff 2f    	mov.w     #0xffff, w0
    1886:	f1 ff 27    	mov.w     #0x7fff, w1
    1888:	0b 00 e0    	cp0.w     w11
    188a:	7e 02 3b    	bra       NN, 0x1d88 <__dunpack2exit>
    188c:	01 00 28    	mov.w     #0x8000, w1
    188e:	00 00 20    	mov.w     #0x0, w0
    1890:	7b 02 37    	bra       0x1d88 <__dunpack2exit>

00001892 <underflow>:
    1892:	60 00 b8    	mul.uu    w0, #0x0, w0
    1894:	79 02 37    	bra       0x1d88 <__dunpack2exit>

00001896 <___floatsidf>:
    1896:	4f 89 de    	asr.w     w1, #0xf, w2
    1898:	82 01 78    	mov.w     w2, w3
    189a:	7b 02 37    	bra       0x1d92 <___floatdidf>

0000189c <___subdf3>:
    189c:	07 f0 a2    	btg.w     w7, #0xf
    189e:	b0 02 37    	bra       0x1e00 <___adddf3>

000018a0 <___gedf2>:
    18a0:	80 9f eb    	setm.w    [w15++]
    18a2:	0e 02 07    	rcall     0x1cc0 <__dcompare>
    18a4:	8f 87 e9    	dec2.w    w15, w15
    18a6:	00 00 e0    	cp0.w     w0
    18a8:	00 00 06    	return    

000018aa <___muldf3>:
    18aa:	28 00 fa    	lnk       #0x28
    18ac:	88 9f be    	mov.d     w8, [w15++]
    18ae:	8a 9f be    	mov.d     w10, [w15++]
    18b0:	8c 9f be    	mov.d     w12, [w15++]
    18b2:	03 86 6b    	xor.w     w7, w3, w12
    18b4:	55 02 07    	rcall     0x1d60 <__dunpack2>
    18b6:	00 28 a3    	btst.z    w0, #0x2
    18b8:	64 00 3a    	bra       NZ, 0x1982 <aisinfinite>
    18ba:	01 28 a3    	btst.z    w1, #0x2
    18bc:	67 00 3a    	bra       NZ, 0x198c <bisinfinite>
    18be:	00 08 a3    	btst.z    w0, #0x0
    18c0:	62 00 3a    	bra       NZ, 0x1986 <returna>
    18c2:	01 08 a3    	btst.z    w1, #0x0
    18c4:	65 00 3a    	bra       NZ, 0x1990 <returnb>
    18c6:	1e 00 90    	mov.w     [w14+2], w0
    18c8:	be 08 90    	mov.w     [w14+22], w1
    18ca:	81 06 40    	add.w     w0, w1, w13
    18cc:	ed 3f b1    	sub.w     #0x3fe, w13
    18ce:	f4 80 57    	sub.w     w15, #0x14, w1
    18d0:	ee 01 90    	mov.w     [w14+12], w3
    18d2:	11 1a b8    	mul.uu    w3, [w1], w4
    18d4:	8e 09 90    	mov.w     [w14+16], w3
    18d6:	31 1b b8    	mul.uu    w3, [w1++], w6
    18d8:	9e 09 90    	mov.w     [w14+18], w3
    18da:	31 1c b8    	mul.uu    w3, [w1++], w8
    18dc:	51 1d b8    	mul.uu    w3, [++w1], w10
    18de:	f4 85 57    	sub.w     w15, #0x14, w11
    18e0:	46 00 07    	rcall     0x196e <muladd7>
    18e2:	fe 01 90    	mov.w     [w14+14], w3
    18e4:	3a 00 07    	rcall     0x195a <muladd5>
    18e6:	8b 85 e8    	inc2.w    w11, w11
    18e8:	3e 00 07    	rcall     0x1966 <muladd6>
    18ea:	8e 09 90    	mov.w     [w14+16], w3
    18ec:	40 00 07    	rcall     0x196e <muladd7>
    18ee:	ee 01 90    	mov.w     [w14+12], w3
    18f0:	34 00 07    	rcall     0x195a <muladd5>
    18f2:	8b 85 e8    	inc2.w    w11, w11
    18f4:	38 00 07    	rcall     0x1966 <muladd6>
    18f6:	8e 09 90    	mov.w     [w14+16], w3
    18f8:	40 00 07    	rcall     0x197a <muladd8>
    18fa:	9e 09 90    	mov.w     [w14+18], w3
    18fc:	1b 18 b8    	mul.uu    w3, [w11], w0
    18fe:	89 04 40    	add.w     w0, w9, w9
    1900:	0a 85 48    	addc.w    w1, w10, w10
    1902:	fe 01 90    	mov.w     [w14+14], w3
    1904:	34 00 07    	rcall     0x196e <muladd7>
    1906:	8b 85 e8    	inc2.w    w11, w11
    1908:	38 00 07    	rcall     0x197a <muladd8>
    190a:	ee 01 90    	mov.w     [w14+12], w3
    190c:	30 00 07    	rcall     0x196e <muladd7>
    190e:	8e 09 90    	mov.w     [w14+16], w3
    1910:	1b 18 b8    	mul.uu    w3, [w11], w0
    1912:	89 04 40    	add.w     w0, w9, w9
    1914:	0a 85 48    	addc.w    w1, w10, w10
    1916:	0a 98 a3    	btst.z    w10, #0x9
    1918:	08 00 3a    	bra       NZ, 0x192a <formsticky>
    191a:	04 02 42    	add.w     w4, w4, w4
    191c:	85 82 4a    	addc.w    w5, w5, w5
    191e:	06 03 4b    	addc.w    w6, w6, w6
    1920:	87 83 4b    	addc.w    w7, w7, w7
    1922:	08 04 4c    	addc.w    w8, w8, w8
    1924:	89 84 4c    	addc.w    w9, w9, w9
    1926:	0a 05 4d    	addc.w    w10, w10, w10
    1928:	8d 06 e9    	dec.w     w13, w13

0000192a <formsticky>:
    192a:	84 82 72    	ior.w     w5, w4, w5
    192c:	85 02 73    	ior.w     w6, w5, w5
    192e:	4c 3a dd    	sl.w      w7, #0xc, w4
    1930:	85 02 72    	ior.w     w4, w5, w5
    1932:	01 00 32    	bra       Z, 0x1936 <formRandSig>
    1934:	15 00 20    	mov.w     #0x1, w5

00001936 <formRandSig>:
    1936:	44 3a de    	lsr.w     w7, #0x4, w4
    1938:	14 00 b2    	and.w     #0x1, w4
    193a:	45 38 de    	lsr.w     w7, #0x5, w0
    193c:	cb 45 dd    	sl.w      w8, #0xb, w11
    193e:	0b 00 70    	ior.w     w0, w11, w0
    1940:	c5 40 de    	lsr.w     w8, #0x5, w1
    1942:	cb 4d dd    	sl.w      w9, #0xb, w11
    1944:	8b 80 70    	ior.w     w1, w11, w1
    1946:	45 49 de    	lsr.w     w9, #0x5, w2
    1948:	cb 55 dd    	sl.w      w10, #0xb, w11
    194a:	0b 01 71    	ior.w     w2, w11, w2
    194c:	c5 51 de    	lsr.w     w10, #0x5, w3
    194e:	0d 03 78    	mov.w     w13, w6
    1950:	d4 02 07    	rcall     0x1efa <__dpack>

00001952 <signoff>:
    1952:	03 f0 a1    	bclr.w    w3, #0xf
    1954:	0c f0 a7    	btsc.w    w12, #0xf
    1956:	03 f0 a0    	bset.w    w3, #0xf
    1958:	17 02 37    	bra       0x1d88 <__dunpack2exit>

0000195a <muladd5>:
    195a:	1b 18 b8    	mul.uu    w3, [w11], w0
    195c:	85 02 40    	add.w     w0, w5, w5
    195e:	06 83 48    	addc.w    w1, w6, w6
    1960:	e0 83 4b    	addc.w    w7, #0x0, w7

00001962 <carry8>:
    1962:	60 04 4c    	addc.w    w8, #0x0, w8
    1964:	07 00 37    	bra       0x1974 <carry9>

00001966 <muladd6>:
    1966:	1b 18 b8    	mul.uu    w3, [w11], w0
    1968:	06 03 40    	add.w     w0, w6, w6
    196a:	87 83 48    	addc.w    w1, w7, w7
    196c:	fa ff 37    	bra       0x1962 <carry8>

0000196e <muladd7>:
    196e:	1b 18 b8    	mul.uu    w3, [w11], w0
    1970:	87 03 40    	add.w     w0, w7, w7
    1972:	08 84 48    	addc.w    w1, w8, w8

00001974 <carry9>:
    1974:	e0 84 4c    	addc.w    w9, #0x0, w9

00001976 <carrya>:
    1976:	60 05 4d    	addc.w    w10, #0x0, w10
    1978:	00 00 06    	return    

0000197a <muladd8>:
    197a:	1b 18 b8    	mul.uu    w3, [w11], w0
    197c:	08 04 40    	add.w     w0, w8, w8
    197e:	89 84 48    	addc.w    w1, w9, w9
    1980:	fa ff 37    	bra       0x1976 <carrya>

00001982 <aisinfinite>:
    1982:	01 08 a3    	btst.z    w1, #0x0
    1984:	fe 01 3a    	bra       NZ, 0x1d82 <__dreturnNaN>

00001986 <returna>:
    1986:	58 00 be    	mov.d     [++w8], w0
    1988:	58 01 be    	mov.d     [++w8], w2
    198a:	e3 ff 37    	bra       0x1952 <signoff>

0000198c <bisinfinite>:
    198c:	00 08 a3    	btst.z    w0, #0x0
    198e:	f9 01 3a    	bra       NZ, 0x1d82 <__dreturnNaN>

00001990 <returnb>:
    1990:	09 04 78    	mov.w     w9, w8
    1992:	f9 ff 37    	bra       0x1986 <returna>

00001994 <___divdf3>:
    1994:	28 00 fa    	lnk       #0x28
    1996:	88 9f be    	mov.d     w8, [w15++]
    1998:	8a 9f be    	mov.d     w10, [w15++]
    199a:	8c 9f be    	mov.d     w12, [w15++]
    199c:	03 86 6b    	xor.w     w7, w3, w12
    199e:	e0 01 07    	rcall     0x1d60 <__dunpack2>
    19a0:	64 00 e1    	cp.w      w0, #0x4
    19a2:	44 00 32    	bra       Z, 0x1a2c <aisinfinite>
    19a4:	64 08 e1    	cp.w      w1, #0x4
    19a6:	4a 00 32    	bra       Z, 0x1a3c <returnZero>
    19a8:	61 00 e1    	cp.w      w0, #0x1
    19aa:	46 00 32    	bra       Z, 0x1a38 <aiszero>
    19ac:	61 08 e1    	cp.w      w1, #0x1
    19ae:	49 00 32    	bra       Z, 0x1a42 <returnInf>

000019b0 <finitenonzero>:
    19b0:	ec 06 47    	add.w     w14, #0xc, w13
    19b2:	60 00 b8    	mul.uu    w0, #0x0, w0
    19b4:	3d 02 be    	mov.d     [w13++], w4
    19b6:	3d 03 be    	mov.d     [w13++], w6
    19b8:	f4 86 57    	sub.w     w15, #0x14, w13
    19ba:	60 11 b8    	mul.uu    w2, #0x0, w2
    19bc:	3d 04 be    	mov.d     [w13++], w8
    19be:	3d 05 be    	mov.d     [w13++], w10
    19c0:	7d 03 20    	mov.w     #0x37, w13
    19c2:	0b 00 37    	bra       0x19da <diventry>

000019c4 <divnext>:
    19c4:	00 00 a0    	bset.w    w0, #0x0
    19c6:	8d 06 e9    	dec.w     w13, w13
    19c8:	13 00 32    	bra       Z, 0x19f0 <divdone>

000019ca <divloop>:
    19ca:	04 02 42    	add.w     w4, w4, w4
    19cc:	85 82 4a    	addc.w    w5, w5, w5
    19ce:	06 03 4b    	addc.w    w6, w6, w6
    19d0:	87 83 4b    	addc.w    w7, w7, w7
    19d2:	00 00 40    	add.w     w0, w0, w0
    19d4:	81 80 48    	addc.w    w1, w1, w1
    19d6:	02 01 49    	addc.w    w2, w2, w2
    19d8:	83 81 49    	addc.w    w3, w3, w3

000019da <diventry>:
    19da:	08 02 52    	sub.w     w4, w8, w4
    19dc:	89 82 5a    	subb.w    w5, w9, w5
    19de:	0a 03 5b    	subb.w    w6, w10, w6
    19e0:	8b 83 5b    	subb.w    w7, w11, w7
    19e2:	f0 ff 3b    	bra       NN, 0x19c4 <divnext>
    19e4:	08 02 42    	add.w     w4, w8, w4
    19e6:	89 82 4a    	addc.w    w5, w9, w5
    19e8:	0a 03 4b    	addc.w    w6, w10, w6
    19ea:	8b 83 4b    	addc.w    w7, w11, w7
    19ec:	8d 06 e9    	dec.w     w13, w13
    19ee:	ed ff 3a    	bra       NZ, 0x19ca <divloop>

000019f0 <divdone>:
    19f0:	84 82 72    	ior.w     w5, w4, w5
    19f2:	86 82 72    	ior.w     w5, w6, w5
    19f4:	f7 07 b2    	and.w     #0x7f, w7
    19f6:	87 82 72    	ior.w     w5, w7, w5
    19f8:	01 00 32    	bra       Z, 0x19fc <stickyformed>
    19fa:	15 00 20    	mov.w     #0x1, w5

000019fc <stickyformed>:
    19fc:	1e 04 90    	mov.w     [w14+2], w8
    19fe:	3e 0b 90    	mov.w     [w14+22], w6
    1a00:	06 03 54    	sub.w     w8, w6, w6
    1a02:	e6 3f b0    	add.w     #0x3fe, w6
    1a04:	03 68 a3    	btst.z    w3, #0x6
    1a06:	07 00 32    	bra       Z, 0x1a16 <guardused>
    1a08:	00 00 a7    	btsc.w    w0, #0x0
    1a0a:	05 00 a0    	bset.w    w5, #0x0
    1a0c:	83 01 d1    	lsr.w     w3, w3
    1a0e:	02 81 d3    	rrc.w     w2, w2
    1a10:	81 80 d3    	rrc.w     w1, w1
    1a12:	00 80 d3    	rrc.w     w0, w0
    1a14:	06 03 e8    	inc.w     w6, w6

00001a16 <guardused>:
    1a16:	83 01 d1    	lsr.w     w3, w3
    1a18:	02 81 d3    	rrc.w     w2, w2
    1a1a:	81 80 d3    	rrc.w     w1, w1
    1a1c:	00 80 d3    	rrc.w     w0, w0
    1a1e:	00 02 eb    	clr.w     w4
    1a20:	04 82 d2    	rlc.w     w4, w4
    1a22:	6b 02 07    	rcall     0x1efa <__dpack>

00001a24 <signoff>:
    1a24:	03 f0 a1    	bclr.w    w3, #0xf
    1a26:	0c f0 a7    	btsc.w    w12, #0xf
    1a28:	03 f0 a0    	bset.w    w3, #0xf
    1a2a:	ae 01 37    	bra       0x1d88 <__dunpack2exit>

00001a2c <aisinfinite>:
    1a2c:	64 02 47    	add.w     w14, #0x4, w4
    1a2e:	64 08 e1    	cp.w      w1, #0x4
    1a30:	a8 01 32    	bra       Z, 0x1d82 <__dreturnNaN>
    1a32:	34 00 be    	mov.d     [w4++], w0
    1a34:	34 01 be    	mov.d     [w4++], w2
    1a36:	f6 ff 37    	bra       0x1a24 <signoff>

00001a38 <aiszero>:
    1a38:	61 08 e1    	cp.w      w1, #0x1
    1a3a:	a3 01 32    	bra       Z, 0x1d82 <__dreturnNaN>

00001a3c <returnZero>:
    1a3c:	60 11 b8    	mul.uu    w2, #0x0, w2

00001a3e <returnZeroLo>:
    1a3e:	60 00 b8    	mul.uu    w0, #0x0, w0
    1a40:	f1 ff 37    	bra       0x1a24 <signoff>

00001a42 <returnInf>:
    1a42:	03 ff 27    	mov.w     #0x7ff0, w3
    1a44:	02 00 20    	mov.w     #0x0, w2
    1a46:	fb ff 37    	bra       0x1a3e <returnZeroLo>

00001a48 <___umodsi3>:
    1a48:	73 fe 07    	rcall     0x1730 <___udivsi3>
    1a4a:	04 00 be    	mov.d     w4, w0
    1a4c:	00 00 06    	return    

00001a4e <___PplusBdi>:
    1a4e:	88 1f 78    	mov.w     w8, [w15++]
    1a50:	00 04 78    	mov.w     w0, w8
    1a52:	50 01 be    	mov.d     [++w0], w2
    1a54:	40 00 be    	mov.d     [--w0], w0
    1a56:	04 00 40    	add.w     w0, w4, w0
    1a58:	85 80 48    	addc.w    w1, w5, w1
    1a5a:	06 01 49    	addc.w    w2, w6, w2
    1a5c:	87 81 49    	addc.w    w3, w7, w3
    1a5e:	00 9c be    	mov.d     w0, [w8++]
    1a60:	02 94 be    	mov.d     w2, [w8--]
    1a62:	04 00 e1    	cp.w      w0, w4
    1a64:	05 88 e1    	cpb.w     w1, w5
    1a66:	06 90 e1    	cpb.w     w2, w6
    1a68:	07 98 e1    	cpb.w     w3, w7
    1a6a:	02 00 31    	bra       C, 0x1a70 <.L4>
    1a6c:	68 00 44    	add.w     w8, #0x8, w0
    1a6e:	10 08 e8    	inc.w     [w0], [w0]

00001a70 <.L4>:
    1a70:	4f 04 78    	mov.w     [--w15], w8
    1a72:	00 00 06    	return    

00001a74 <___udivmoddi3>:
    1a74:	f4 87 47    	add.w     w15, #0x14, w15
    1a76:	88 9f be    	mov.d     w8, [w15++]
    1a78:	8a 9f be    	mov.d     w10, [w15++]
    1a7a:	8c 9f be    	mov.d     w12, [w15++]
    1a7c:	8e 1f 78    	mov.w     w14, [w15++]
    1a7e:	02 05 be    	mov.d     w2, w10
    1a80:	00 04 be    	mov.d     w0, w8
    1a82:	d4 b7 9f    	mov.w     w4, [w15-22]
    1a84:	e5 b7 9f    	mov.w     w5, [w15-20]
    1a86:	f6 b7 9f    	mov.w     w6, [w15-18]
    1a88:	87 bf 9f    	mov.w     w7, [w15-16]
    1a8a:	00 00 eb    	clr.w     w0
    1a8c:	c0 b7 9f    	mov.w     w0, [w15-24]
    1a8e:	b0 b7 9f    	mov.w     w0, [w15-26]
    1a90:	a0 b7 9f    	mov.w     w0, [w15-28]
    1a92:	90 b7 9f    	mov.w     w0, [w15-30]
    1a94:	80 b7 9f    	mov.w     w0, [w15-32]
    1a96:	0d 04 20    	mov.w     #0x40, w13

00001a98 <.L6>:
    1a98:	bf b0 97    	mov.w     [w15-26], w1
    1a9a:	4f b0 97    	mov.w     [w15-24], w0
    1a9c:	00 01 40    	add.w     w0, w0, w2
    1a9e:	00 00 e0    	cp0.w     w0
    1aa0:	0f 00 3d    	bra       GE, 0x1ac0 <.L7>
    1aa2:	4f 08 de    	lsr.w     w1, #0xf, w0
    1aa4:	00 00 71    	ior.w     w2, w0, w0
    1aa6:	c0 b7 9f    	mov.w     w0, [w15-24]
    1aa8:	9e 00 07    	rcall     0x1be6 <.LPA5>
    1aaa:	01 00 3d    	bra       GE, 0x1aae <.L10>
    1aac:	12 00 20    	mov.w     #0x1, w2

00001aae <.L10>:
    1aae:	a1 00 07    	rcall     0x1bf2 <.LPA2>
    1ab0:	01 00 3d    	bra       GE, 0x1ab4 <.L11>
    1ab2:	12 00 20    	mov.w     #0x1, w2

00001ab4 <.L11>:
    1ab4:	a6 00 07    	rcall     0x1c02 <.LPA0>
    1ab6:	b1 00 07    	rcall     0x1c1a <.LPA6>
    1ab8:	b6 00 07    	rcall     0x1c26 <.LPA7>
    1aba:	0f 00 40    	add.w     w0, w15, w0
    1abc:	c8 ff 07    	rcall     0x1a4e <___PplusBdi>
    1abe:	22 00 37    	bra       0x1b04 <.L14>

00001ac0 <.L7>:
    1ac0:	4f 08 de    	lsr.w     w1, #0xf, w0
    1ac2:	00 06 71    	ior.w     w2, w0, w12
    1ac4:	cc b7 9f    	mov.w     w12, [w15-24]
    1ac6:	8f 00 07    	rcall     0x1be6 <.LPA5>
    1ac8:	01 00 3d    	bra       GE, 0x1acc <.L16>
    1aca:	12 00 20    	mov.w     #0x1, w2

00001acc <.L16>:
    1acc:	92 00 07    	rcall     0x1bf2 <.LPA2>
    1ace:	01 00 3d    	bra       GE, 0x1ad2 <.L17>
    1ad0:	12 00 20    	mov.w     #0x1, w2

00001ad2 <.L17>:
    1ad2:	97 00 07    	rcall     0x1c02 <.LPA0>
    1ad4:	a2 00 07    	rcall     0x1c1a <.LPA6>
    1ad6:	0f b2 97    	mov.w     [w15-32], w4
    1ad8:	9f b2 97    	mov.w     [w15-30], w5
    1ada:	2f b3 97    	mov.w     [w15-28], w6
    1adc:	bf b3 97    	mov.w     [w15-26], w7
    1ade:	a9 00 07    	rcall     0x1c32 <.LPA9>
    1ae0:	00 00 52    	sub.w     w4, w0, w0
    1ae2:	81 80 5a    	subb.w    w5, w1, w1
    1ae4:	02 01 5b    	subb.w    w6, w2, w2
    1ae6:	83 81 5b    	subb.w    w7, w3, w3
    1ae8:	80 b7 9f    	mov.w     w0, [w15-32]
    1aea:	91 b7 9f    	mov.w     w1, [w15-30]
    1aec:	a2 b7 9f    	mov.w     w2, [w15-28]
    1aee:	b3 b7 9f    	mov.w     w3, [w15-26]
    1af0:	00 07 eb    	clr.w     w14
    1af2:	9f 00 07    	rcall     0x1c32 <.LPA9>
    1af4:	00 20 e1    	cp.w      w4, w0
    1af6:	01 a8 e1    	cpb.w     w5, w1
    1af8:	02 b0 e1    	cpb.w     w6, w2
    1afa:	03 b8 e1    	cpb.w     w7, w3
    1afc:	01 00 31    	bra       C, 0x1b00 <.L20>
    1afe:	1e 00 20    	mov.w     #0x1, w14

00001b00 <.L20>:
    1b00:	0e 00 56    	sub.w     w12, w14, w0
    1b02:	c0 b7 9f    	mov.w     w0, [w15-24]

00001b04 <.L14>:
    1b04:	4f b2 97    	mov.w     [w15-24], w4
    1b06:	04 00 e0    	cp0.w     w4
    1b08:	07 00 35    	bra       LT, 0x1b18 <.L21>
    1b0a:	10 00 20    	mov.w     #0x1, w0
    1b0c:	01 00 20    	mov.w     #0x0, w1
    1b0e:	60 11 b8    	mul.uu    w2, #0x0, w2
    1b10:	08 04 70    	ior.w     w0, w8, w8
    1b12:	89 84 70    	ior.w     w1, w9, w9
    1b14:	0a 05 71    	ior.w     w2, w10, w10
    1b16:	8b 85 71    	ior.w     w3, w11, w11

00001b18 <.L21>:
    1b18:	8d 06 e9    	dec.w     w13, w13
    1b1a:	be ff 3a    	bra       NZ, 0x1a98 <.L6>
    1b1c:	04 00 e0    	cp0.w     w4
    1b1e:	03 00 3d    	bra       GE, 0x1b26 <.L24>
    1b20:	82 00 07    	rcall     0x1c26 <.LPA7>
    1b22:	0f 00 40    	add.w     w0, w15, w0
    1b24:	94 ff 07    	rcall     0x1a4e <___PplusBdi>

00001b26 <.L24>:
    1b26:	4f a8 97    	mov.w     [w15-40], w0
    1b28:	00 00 e0    	cp0.w     w0
    1b2a:	04 00 3a    	bra       NZ, 0x1b34 <.L26>
    1b2c:	0f b4 97    	mov.w     [w15-32], w8
    1b2e:	9f b4 97    	mov.w     [w15-30], w9
    1b30:	2f b5 97    	mov.w     [w15-28], w10
    1b32:	bf b5 97    	mov.w     [w15-26], w11

00001b34 <.L26>:
    1b34:	94 00 07    	rcall     0x1c5e <.LPA11>
    1b36:	4f 07 78    	mov.w     [--w15], w14
    1b38:	4f 06 be    	mov.d     [--w15], w12
    1b3a:	4f 05 be    	mov.d     [--w15], w10
    1b3c:	4f 04 be    	mov.d     [--w15], w8
    1b3e:	4f 01 b1    	sub.w     #0x14, w15
    1b40:	00 00 06    	return    

00001b42 <___udivdi3>:
    1b42:	88 1f 78    	mov.w     w8, [w15++]
    1b44:	18 00 20    	mov.w     #0x1, w8
    1b46:	88 1f 78    	mov.w     w8, [w15++]
    1b48:	95 ff 07    	rcall     0x1a74 <___udivmoddi3>
    1b4a:	8f 87 e9    	dec2.w    w15, w15
    1b4c:	4f 04 78    	mov.w     [--w15], w8
    1b4e:	00 00 06    	return    

00001b50 <___umoddi3>:
    1b50:	80 1f eb    	clr.w     [w15++]
    1b52:	90 ff 07    	rcall     0x1a74 <___udivmoddi3>
    1b54:	8f 87 e9    	dec2.w    w15, w15
    1b56:	00 00 06    	return    

00001b58 <___divdi3>:
    1b58:	88 9f be    	mov.d     w8, [w15++]
    1b5a:	8a 9f be    	mov.d     w10, [w15++]
    1b5c:	8c 1f 78    	mov.w     w12, [w15++]
    1b5e:	6e 00 07    	rcall     0x1c3c <.LPA3>
    1b60:	07 00 3d    	bra       GE, 0x1b70 <.L36>
    1b62:	73 00 07    	rcall     0x1c4a <.LPA1>
    1b64:	e0 0f 5b    	subb.w    w6, #0x0, [w15]
    1b66:	e0 8f 5b    	subb.w    w7, #0x0, [w15]
    1b68:	07 00 3d    	bra       GE, 0x1b78 <.L40>
    1b6a:	32 00 07    	rcall     0x1bd0 <.LPA10>
    1b6c:	00 06 eb    	clr.w     w12
    1b6e:	04 00 37    	bra       0x1b78 <.L40>

00001b70 <.L36>:
    1b70:	34 00 07    	rcall     0x1bda <.LPA8>
    1b72:	02 00 3d    	bra       GE, 0x1b78 <.L40>
    1b74:	2a 00 07    	rcall     0x1bca <.LPA4>
    1b76:	1c 00 20    	mov.w     #0x1, w12

00001b78 <.L40>:
    1b78:	72 00 07    	rcall     0x1c5e <.LPA11>
    1b7a:	e3 ff 07    	rcall     0x1b42 <___udivdi3>
    1b7c:	02 03 be    	mov.d     w2, w6
    1b7e:	00 02 be    	mov.d     w0, w4
    1b80:	0c 00 e0    	cp0.w     w12
    1b82:	01 00 32    	bra       Z, 0x1b86 <.L43>
    1b84:	22 00 07    	rcall     0x1bca <.LPA4>

00001b86 <.L43>:
    1b86:	04 00 be    	mov.d     w4, w0
    1b88:	06 01 be    	mov.d     w6, w2
    1b8a:	4f 06 78    	mov.w     [--w15], w12
    1b8c:	4f 05 be    	mov.d     [--w15], w10
    1b8e:	4f 04 be    	mov.d     [--w15], w8
    1b90:	00 00 06    	return    

00001b92 <___moddi3>:
    1b92:	88 9f be    	mov.d     w8, [w15++]
    1b94:	8a 9f be    	mov.d     w10, [w15++]
    1b96:	8c 1f 78    	mov.w     w12, [w15++]
    1b98:	51 00 07    	rcall     0x1c3c <.LPA3>
    1b9a:	05 00 3d    	bra       GE, 0x1ba6 <.L47>
    1b9c:	56 00 07    	rcall     0x1c4a <.LPA1>
    1b9e:	e0 0f 5b    	subb.w    w6, #0x0, [w15]
    1ba0:	e0 8f 5b    	subb.w    w7, #0x0, [w15]
    1ba2:	06 00 3d    	bra       GE, 0x1bb0 <.L51>
    1ba4:	04 00 37    	bra       0x1bae <.L57>

00001ba6 <.L47>:
    1ba6:	19 00 07    	rcall     0x1bda <.LPA8>
    1ba8:	03 00 3d    	bra       GE, 0x1bb0 <.L51>
    1baa:	60 00 b8    	mul.uu    w0, #0x0, w0
    1bac:	60 11 b8    	mul.uu    w2, #0x0, w2

00001bae <.L57>:
    1bae:	10 00 07    	rcall     0x1bd0 <.LPA10>

00001bb0 <.L51>:
    1bb0:	56 00 07    	rcall     0x1c5e <.LPA11>
    1bb2:	ce ff 07    	rcall     0x1b50 <___umoddi3>
    1bb4:	02 03 be    	mov.d     w2, w6
    1bb6:	00 02 be    	mov.d     w0, w4
    1bb8:	0c 00 e0    	cp0.w     w12
    1bba:	01 00 32    	bra       Z, 0x1bbe <.L54>
    1bbc:	06 00 07    	rcall     0x1bca <.LPA4>

00001bbe <.L54>:
    1bbe:	04 00 be    	mov.d     w4, w0
    1bc0:	06 01 be    	mov.d     w6, w2
    1bc2:	4f 06 78    	mov.w     [--w15], w12
    1bc4:	4f 05 be    	mov.d     [--w15], w10
    1bc6:	4f 04 be    	mov.d     [--w15], w8
    1bc8:	00 00 06    	return    

00001bca <.LPA4>:
    1bca:	60 00 b8    	mul.uu    w0, #0x0, w0
    1bcc:	60 11 b8    	mul.uu    w2, #0x0, w2
    1bce:	00 00 37    	bra       0x1bd0 <.LPA10>

00001bd0 <.LPA10>:
    1bd0:	04 02 50    	sub.w     w0, w4, w4
    1bd2:	85 82 58    	subb.w    w1, w5, w5
    1bd4:	06 03 59    	subb.w    w2, w6, w6
    1bd6:	87 83 59    	subb.w    w3, w7, w7
    1bd8:	00 00 06    	return    

00001bda <.LPA8>:
    1bda:	00 06 eb    	clr.w     w12
    1bdc:	e0 0f 52    	sub.w     w4, #0x0, [w15]
    1bde:	e0 8f 5a    	subb.w    w5, #0x0, [w15]
    1be0:	e0 0f 5b    	subb.w    w6, #0x0, [w15]
    1be2:	e0 8f 5b    	subb.w    w7, #0x0, [w15]
    1be4:	00 00 06    	return    

00001be6 <.LPA5>:
    1be6:	01 80 40    	add.w     w1, w1, w0
    1be8:	90 b7 9f    	mov.w     w0, [w15-30]
    1bea:	00 01 eb    	clr.w     w2
    1bec:	8f b0 97    	mov.w     [w15-32], w1
    1bee:	01 00 e0    	cp0.w     w1
    1bf0:	00 00 06    	return    

00001bf2 <.LPA2>:
    1bf2:	02 00 70    	ior.w     w0, w2, w0
    1bf4:	90 b7 9f    	mov.w     w0, [w15-30]
    1bf6:	01 80 40    	add.w     w1, w1, w0
    1bf8:	80 b7 9f    	mov.w     w0, [w15-32]
    1bfa:	00 01 eb    	clr.w     w2
    1bfc:	ff a8 97    	mov.w     [w15-34], w1
    1bfe:	01 00 e0    	cp0.w     w1
    1c00:	00 00 06    	return    

00001c02 <.LPA0>:
    1c02:	02 00 70    	ior.w     w0, w2, w0
    1c04:	80 b7 9f    	mov.w     w0, [w15-32]
    1c06:	01 80 40    	add.w     w1, w1, w0
    1c08:	6f aa 97    	mov.w     [w15-36], w4
    1c0a:	cf 20 de    	lsr.w     w4, #0xf, w1
    1c0c:	01 00 70    	ior.w     w0, w1, w0
    1c0e:	f0 af 9f    	mov.w     w0, [w15-34]
    1c10:	04 02 42    	add.w     w4, w4, w4
    1c12:	25 00 07    	rcall     0x1c5e <.LPA11>
    1c14:	4f 18 de    	lsr.w     w3, #0xf, w0
    1c16:	00 02 72    	ior.w     w4, w0, w4
    1c18:	00 00 06    	return    

00001c1a <.LPA6>:
    1c1a:	e4 af 9f    	mov.w     w4, [w15-36]
    1c1c:	08 04 44    	add.w     w8, w8, w8
    1c1e:	89 84 4c    	addc.w    w9, w9, w9
    1c20:	0a 05 4d    	addc.w    w10, w10, w10
    1c22:	8b 85 4d    	addc.w    w11, w11, w11
    1c24:	00 00 06    	return    

00001c26 <.LPA7>:
    1c26:	3f b2 97    	mov.w     [w15-26], w4
    1c28:	cf b2 97    	mov.w     [w15-24], w5
    1c2a:	5f b3 97    	mov.w     [w15-22], w6
    1c2c:	ef b3 97    	mov.w     [w15-20], w7
    1c2e:	00 fe 2f    	mov.w     #0xffe0, w0
    1c30:	00 00 06    	return    

00001c32 <.LPA9>:
    1c32:	3f b0 97    	mov.w     [w15-26], w0
    1c34:	cf b0 97    	mov.w     [w15-24], w1
    1c36:	5f b1 97    	mov.w     [w15-22], w2
    1c38:	ef b1 97    	mov.w     [w15-20], w3
    1c3a:	00 00 06    	return    

00001c3c <.LPA3>:
    1c3c:	02 05 be    	mov.d     w2, w10
    1c3e:	00 04 be    	mov.d     w0, w8
    1c40:	e0 0f 50    	sub.w     w0, #0x0, [w15]
    1c42:	e0 8f 58    	subb.w    w1, #0x0, [w15]
    1c44:	e0 0f 59    	subb.w    w2, #0x0, [w15]
    1c46:	e0 8f 59    	subb.w    w3, #0x0, [w15]
    1c48:	00 00 06    	return    

00001c4a <.LPA1>:
    1c4a:	60 00 b8    	mul.uu    w0, #0x0, w0
    1c4c:	60 11 b8    	mul.uu    w2, #0x0, w2
    1c4e:	08 04 50    	sub.w     w0, w8, w8
    1c50:	89 84 58    	subb.w    w1, w9, w9
    1c52:	0a 05 59    	subb.w    w2, w10, w10
    1c54:	8b 85 59    	subb.w    w3, w11, w11
    1c56:	1c 00 20    	mov.w     #0x1, w12
    1c58:	e0 0f 52    	sub.w     w4, #0x0, [w15]
    1c5a:	e0 8f 5a    	subb.w    w5, #0x0, [w15]
    1c5c:	00 00 06    	return    

00001c5e <.LPA11>:
    1c5e:	08 00 be    	mov.d     w8, w0
    1c60:	0a 01 be    	mov.d     w10, w2
    1c62:	00 00 06    	return    

00001c64 <___muldi3>:
    1c64:	88 9f be    	mov.d     w8, [w15++]
    1c66:	8a 9f be    	mov.d     w10, [w15++]
    1c68:	8c 1f 78    	mov.w     w12, [w15++]
    1c6a:	02 05 be    	mov.d     w2, w10
    1c6c:	00 04 be    	mov.d     w0, w8
    1c6e:	00 06 eb    	clr.w     w12
    1c70:	e0 0f 50    	sub.w     w0, #0x0, [w15]
    1c72:	e0 8f 58    	subb.w    w1, #0x0, [w15]
    1c74:	e0 0f 59    	subb.w    w2, #0x0, [w15]
    1c76:	e0 8f 59    	subb.w    w3, #0x0, [w15]
    1c78:	07 00 3d    	bra       GE, 0x1c88 <.L4>
    1c7a:	60 00 b8    	mul.uu    w0, #0x0, w0
    1c7c:	60 11 b8    	mul.uu    w2, #0x0, w2
    1c7e:	08 04 50    	sub.w     w0, w8, w8
    1c80:	89 84 58    	subb.w    w1, w9, w9
    1c82:	0a 05 59    	subb.w    w2, w10, w10
    1c84:	8b 85 59    	subb.w    w3, w11, w11
    1c86:	1c 00 20    	mov.w     #0x1, w12

00001c88 <.L4>:
    1c88:	e0 0f 52    	sub.w     w4, #0x0, [w15]
    1c8a:	e0 8f 5a    	subb.w    w5, #0x0, [w15]
    1c8c:	e0 0f 5b    	subb.w    w6, #0x0, [w15]
    1c8e:	e0 8f 5b    	subb.w    w7, #0x0, [w15]
    1c90:	02 00 3d    	bra       GE, 0x1c96 <.L5>
    1c92:	0f 00 07    	rcall     0x1cb2 <.LPA0>
    1c94:	0c 00 a2    	btg.w     w12, #0x0

00001c96 <.L5>:
    1c96:	08 00 be    	mov.d     w8, w0
    1c98:	0a 01 be    	mov.d     w10, w2
    1c9a:	5b 01 07    	rcall     0x1f52 <___umuldi3>
    1c9c:	02 03 be    	mov.d     w2, w6
    1c9e:	00 02 be    	mov.d     w0, w4
    1ca0:	0c 00 e0    	cp0.w     w12
    1ca2:	01 00 32    	bra       Z, 0x1ca6 <.L7>
    1ca4:	06 00 07    	rcall     0x1cb2 <.LPA0>

00001ca6 <.L7>:
    1ca6:	04 00 be    	mov.d     w4, w0
    1ca8:	06 01 be    	mov.d     w6, w2
    1caa:	4f 06 78    	mov.w     [--w15], w12
    1cac:	4f 05 be    	mov.d     [--w15], w10
    1cae:	4f 04 be    	mov.d     [--w15], w8
    1cb0:	00 00 06    	return    

00001cb2 <.LPA0>:
    1cb2:	60 00 b8    	mul.uu    w0, #0x0, w0
    1cb4:	60 11 b8    	mul.uu    w2, #0x0, w2
    1cb6:	04 02 50    	sub.w     w0, w4, w4
    1cb8:	85 82 58    	subb.w    w1, w5, w5
    1cba:	06 03 59    	subb.w    w2, w6, w6
    1cbc:	87 83 59    	subb.w    w3, w7, w7
    1cbe:	00 00 06    	return    

00001cc0 <__dcompare>:
    1cc0:	88 9f be    	mov.d     w8, [w15++]
    1cc2:	8a 9f be    	mov.d     w10, [w15++]
    1cc4:	8c 9f be    	mov.d     w12, [w15++]
    1cc6:	04 04 be    	mov.d     w4, w8
    1cc8:	06 05 be    	mov.d     w6, w10
    1cca:	80 9f be    	mov.d     w0, [w15++]
    1ccc:	82 9f be    	mov.d     w2, [w15++]
    1cce:	63 01 07    	rcall     0x1f96 <__dtype>
    1cd0:	04 06 78    	mov.w     w4, w12
    1cd2:	08 00 be    	mov.d     w8, w0
    1cd4:	0a 01 be    	mov.d     w10, w2
    1cd6:	5f 01 07    	rcall     0x1f96 <__dtype>
    1cd8:	84 06 78    	mov.w     w4, w13
    1cda:	4f 03 be    	mov.d     [--w15], w6
    1cdc:	4f 02 be    	mov.d     [--w15], w4
    1cde:	8d 4f 76    	ior.b     w12, w13, [w15]
    1ce0:	7f b0 97    	mov.w     [w15-18], w0
    1ce2:	13 00 33    	bra       N, 0x1d0a <exit>
    1ce4:	f0 ff 2f    	mov.w     #0xffff, w0
    1ce6:	8b 8f 6b    	xor.w     w7, w11, [w15]
    1ce8:	06 00 3b    	bra       NN, 0x1cf6 <comparemag>
    1cea:	0d 06 66    	and.w     w12, w13, w12
    1cec:	0c 00 a7    	btsc.w    w12, #0x0
    1cee:	0a 00 37    	bra       0x1d04 <returnEqual>
    1cf0:	07 f0 a6    	btss.w    w7, #0xf
    1cf2:	10 00 20    	mov.w     #0x1, w0
    1cf4:	0a 00 37    	bra       0x1d0a <exit>

00001cf6 <comparemag>:
    1cf6:	88 0f 52    	sub.w     w4, w8, [w15]
    1cf8:	89 8f 5a    	subb.w    w5, w9, [w15]
    1cfa:	8a 0f 5b    	subb.w    w6, w10, [w15]
    1cfc:	8b 8f 5b    	subb.w    w7, w11, [w15]
    1cfe:	03 00 39    	bra       NC, 0x1d06 <adjust>
    1d00:	10 00 20    	mov.w     #0x1, w0
    1d02:	01 00 3e    	bra       GTU, 0x1d06 <adjust>

00001d04 <returnEqual>:
    1d04:	00 00 20    	mov.w     #0x0, w0

00001d06 <adjust>:
    1d06:	07 f0 a7    	btsc.w    w7, #0xf
    1d08:	00 00 ea    	neg.w     w0, w0

00001d0a <exit>:
    1d0a:	4f 06 be    	mov.d     [--w15], w12
    1d0c:	4f 05 be    	mov.d     [--w15], w10
    1d0e:	4f 04 be    	mov.d     [--w15], w8
    1d10:	00 00 06    	return    

00001d12 <__dunpack>:
    1d12:	80 00 78    	mov.w     w0, w1
    1d14:	50 02 be    	mov.d     [++w0], w4
    1d16:	50 03 be    	mov.d     [++w0], w6
    1d18:	44 39 de    	lsr.w     w7, #0x4, w2
    1d1a:	f7 00 b2    	and.w     #0xf, w7
    1d1c:	f3 7f 20    	mov.w     #0x7ff, w3
    1d1e:	03 01 61    	and.w     w2, w3, w2
    1d20:	09 00 32    	bra       Z, 0x1d34 <zeroorsub>
    1d22:	02 18 e1    	cp.w      w3, w2
    1d24:	16 00 3a    	bra       NZ, 0x1d52 <finitereturn>
    1d26:	85 01 72    	ior.w     w4, w5, w3
    1d28:	83 01 73    	ior.w     w6, w3, w3
    1d2a:	83 81 73    	ior.w     w7, w3, w3
    1d2c:	00 08 20    	mov.w     #0x80, w0
    1d2e:	15 00 3a    	bra       NZ, 0x1d5a <exit>
    1d30:	40 00 20    	mov.w     #0x4, w0
    1d32:	13 00 37    	bra       0x1d5a <exit>

00001d34 <zeroorsub>:
    1d34:	85 01 72    	ior.w     w4, w5, w3
    1d36:	83 01 73    	ior.w     w6, w3, w3
    1d38:	83 81 73    	ior.w     w7, w3, w3
    1d3a:	05 00 3a    	bra       NZ, 0x1d46 <subnormal>
    1d3c:	04 a8 be    	mov.d     w4, [++w0]
    1d3e:	06 a8 be    	mov.d     w6, [++w0]
    1d40:	10 00 20    	mov.w     #0x1, w0
    1d42:	0b 00 37    	bra       0x1d5a <exit>

00001d44 <normalize>:
    1d44:	02 01 e9    	dec.w     w2, w2

00001d46 <subnormal>:
    1d46:	04 02 42    	add.w     w4, w4, w4
    1d48:	85 82 4a    	addc.w    w5, w5, w5
    1d4a:	06 03 4b    	addc.w    w6, w6, w6
    1d4c:	87 83 4b    	addc.w    w7, w7, w7
    1d4e:	07 48 a3    	btst.z    w7, #0x4
    1d50:	f9 ff 32    	bra       Z, 0x1d44 <normalize>

00001d52 <finitereturn>:
    1d52:	07 40 a0    	bset.w    w7, #0x4
    1d54:	04 a8 be    	mov.d     w4, [++w0]
    1d56:	06 a8 be    	mov.d     w6, [++w0]
    1d58:	20 00 20    	mov.w     #0x2, w0

00001d5a <exit>:
    1d5a:	80 00 98    	mov.w     w0, [w1+0]
    1d5c:	92 00 98    	mov.w     w2, [w1+2]
    1d5e:	00 00 06    	return    

00001d60 <__dunpack2>:
    1d60:	68 04 47    	add.w     w14, #0x8, w8
    1d62:	02 94 be    	mov.d     w2, [w8--]
    1d64:	00 94 be    	mov.d     w0, [w8--]
    1d66:	fc 04 47    	add.w     w14, #0x1c, w9
    1d68:	86 94 be    	mov.d     w6, [w9--]
    1d6a:	84 94 be    	mov.d     w4, [w9--]
    1d6c:	09 00 78    	mov.w     w9, w0
    1d6e:	d1 ff 07    	rcall     0x1d12 <__dunpack>
    1d70:	08 00 78    	mov.w     w8, w0
    1d72:	cf ff 07    	rcall     0x1d12 <__dunpack>
    1d74:	99 00 78    	mov.w     [w9], w1
    1d76:	81 4f 70    	ior.b     w0, w1, [w15]
    1d78:	0b 00 3b    	bra       NN, 0x1d90 <exit>

00001d7a <aorbIsNaN>:
    1d7a:	08 00 be    	mov.d     w8, w0
    1d7c:	1e 01 07    	rcall     0x1fba <__dPropagateNaN>
    1d7e:	4f 00 b1    	sub.w     #0x4, w15
    1d80:	03 00 37    	bra       0x1d88 <__dunpack2exit>

00001d82 <__dreturnNaN>:
    1d82:	f3 ff 27    	mov.w     #0x7fff, w3
    1d84:	f2 ff 2f    	mov.w     #0xffff, w2
    1d86:	61 10 b9    	mul.su    w2, #0x1, w0

00001d88 <__dunpack2exit>:
    1d88:	4f 06 be    	mov.d     [--w15], w12
    1d8a:	4f 05 be    	mov.d     [--w15], w10
    1d8c:	4f 04 be    	mov.d     [--w15], w8
    1d8e:	00 80 fa    	ulnk      

00001d90 <exit>:
    1d90:	00 00 06    	return    

00001d92 <___floatdidf>:
    1d92:	88 9f be    	mov.d     w8, [w15++]
    1d94:	83 04 78    	mov.w     w3, w9
    1d96:	03 00 e0    	cp0.w     w3
    1d98:	2c 00 35    	bra       LT, 0x1df2 <negative>
    1d9a:	03 00 3c    	bra       GT, 0x1da2 <notspecial>
    1d9c:	00 82 70    	ior.w     w1, w0, w4
    1d9e:	04 02 71    	ior.w     w2, w4, w4
    1da0:	26 00 32    	bra       Z, 0x1dee <return0>

00001da2 <notspecial>:
    1da2:	36 43 20    	mov.w     #0x433, w6
    1da4:	c5 00 20    	mov.w     #0xc, w5
    1da6:	83 83 cf    	ff1l      w3, w7
    1da8:	0a 00 39    	bra       NC, 0x1dbe <fixshift>
    1daa:	05 41 b1    	sub.b     #0x10, w5
    1dac:	82 83 cf    	ff1l      w2, w7
    1dae:	07 00 39    	bra       NC, 0x1dbe <fixshift>
    1db0:	05 41 b1    	sub.b     #0x10, w5
    1db2:	81 83 cf    	ff1l      w1, w7
    1db4:	04 00 39    	bra       NC, 0x1dbe <fixshift>
    1db6:	05 41 b1    	sub.b     #0x10, w5
    1db8:	80 83 cf    	ff1l      w0, w7
    1dba:	01 00 39    	bra       NC, 0x1dbe <fixshift>
    1dbc:	05 41 b1    	sub.b     #0x10, w5

00001dbe <fixshift>:
    1dbe:	85 c3 53    	sub.b     w7, w5, w7
    1dc0:	60 22 b8    	mul.uu    w4, #0x0, w4
    1dc2:	12 00 32    	bra       Z, 0x1de8 <round>
    1dc4:	0a 00 3b    	bra       NN, 0x1dda <shiftleft>

00001dc6 <shiftright>:
    1dc6:	84 82 72    	ior.w     w5, w4, w5
    1dc8:	61 02 60    	and.w     w0, #0x1, w4
    1dca:	83 01 d1    	lsr.w     w3, w3
    1dcc:	02 81 d3    	rrc.w     w2, w2
    1dce:	81 80 d3    	rrc.w     w1, w1
    1dd0:	00 80 d3    	rrc.w     w0, w0
    1dd2:	06 03 e8    	inc.w     w6, w6
    1dd4:	87 43 e8    	inc.b     w7, w7
    1dd6:	f7 ff 3a    	bra       NZ, 0x1dc6 <shiftright>
    1dd8:	07 00 37    	bra       0x1de8 <round>

00001dda <shiftleft>:
    1dda:	00 00 40    	add.w     w0, w0, w0
    1ddc:	81 80 48    	addc.w    w1, w1, w1
    1dde:	02 01 49    	addc.w    w2, w2, w2
    1de0:	83 81 49    	addc.w    w3, w3, w3
    1de2:	06 03 e9    	dec.w     w6, w6
    1de4:	87 43 e9    	dec.b     w7, w7
    1de6:	f9 ff 3a    	bra       NZ, 0x1dda <shiftleft>

00001de8 <round>:
    1de8:	88 00 07    	rcall     0x1efa <__dpack>
    1dea:	09 f0 a7    	btsc.w    w9, #0xf
    1dec:	03 f0 a0    	bset.w    w3, #0xf

00001dee <return0>:
    1dee:	4f 04 be    	mov.d     [--w15], w8
    1df0:	00 00 06    	return    

00001df2 <negative>:
    1df2:	60 00 10    	subr.w    w0, #0x0, w0
    1df4:	e0 80 18    	subbr.w   w1, #0x0, w1
    1df6:	60 01 19    	subbr.w   w2, #0x0, w2
    1df8:	e0 81 19    	subbr.w   w3, #0x0, w3
    1dfa:	d3 ff 3b    	bra       NN, 0x1da2 <notspecial>
    1dfc:	03 3e 2c    	mov.w     #0xc3e0, w3
    1dfe:	f7 ff 37    	bra       0x1dee <return0>

00001e00 <___adddf3>:
    1e00:	28 00 fa    	lnk       #0x28
    1e02:	88 9f be    	mov.d     w8, [w15++]
    1e04:	8a 9f be    	mov.d     w10, [w15++]
    1e06:	8c 9f be    	mov.d     w12, [w15++]
    1e08:	07 06 78    	mov.w     w7, w12
    1e0a:	87 86 69    	xor.w     w3, w7, w13
    1e0c:	0c 00 3b    	bra       NN, 0x1e26 <gotsign>
    1e0e:	03 04 78    	mov.w     w3, w8
    1e10:	87 04 78    	mov.w     w7, w9
    1e12:	08 f0 a1    	bclr.w    w8, #0xf
    1e14:	09 f0 a1    	bclr.w    w9, #0xf
    1e16:	84 0f 50    	sub.w     w0, w4, [w15]
    1e18:	85 8f 58    	subb.w    w1, w5, [w15]
    1e1a:	86 0f 59    	subb.w    w2, w6, [w15]
    1e1c:	89 0f 5c    	subb.w    w8, w9, [w15]
    1e1e:	03 00 33    	bra       N, 0x1e26 <gotsign>
    1e20:	0c f0 a2    	btg.w     w12, #0xf
    1e22:	01 00 3a    	bra       NZ, 0x1e26 <gotsign>
    1e24:	0c f0 a1    	bclr.w    w12, #0xf

00001e26 <gotsign>:
    1e26:	9c ff 07    	rcall     0x1d60 <__dunpack2>
    1e28:	64 00 e1    	cp.w      w0, #0x4
    1e2a:	5f 00 32    	bra       Z, 0x1eea <aisinfinite>
    1e2c:	78 01 47    	add.w     w14, #0x18, w2
    1e2e:	64 08 e1    	cp.w      w1, #0x4
    1e30:	61 00 32    	bra       Z, 0x1ef4 <returnab>
    1e32:	6c 01 47    	add.w     w14, #0xc, w2
    1e34:	74 85 57    	sub.w     w15, #0x14, w10
    1e36:	32 00 be    	mov.d     [w2++], w0
    1e38:	12 01 be    	mov.d     [w2], w2
    1e3a:	3a 04 be    	mov.d     [w10++], w8
    1e3c:	1a 05 be    	mov.d     [w10], w10
    1e3e:	1e 03 90    	mov.w     [w14+2], w6
    1e40:	be 0a 90    	mov.w     [w14+22], w5
    1e42:	85 03 53    	sub.w     w6, w5, w7
    1e44:	06 00 3d    	bra       GE, 0x1e52 <expcanonical>
    1e46:	00 04 fd    	exch      w0, w8
    1e48:	81 04 fd    	exch      w1, w9
    1e4a:	02 05 fd    	exch      w2, w10
    1e4c:	83 05 fd    	exch      w3, w11
    1e4e:	87 03 ea    	neg.w     w7, w7
    1e50:	05 03 78    	mov.w     w5, w6

00001e52 <expcanonical>:
    1e52:	0d f8 a3    	btst.z    w13, #0xf
    1e54:	04 00 32    	bra       Z, 0x1e5e <bcanonical>
    1e56:	60 04 14    	subr.w    w8, #0x0, w8
    1e58:	e0 84 1c    	subbr.w   w9, #0x0, w9
    1e5a:	60 05 1d    	subbr.w   w10, #0x0, w10
    1e5c:	e0 85 1d    	subbr.w   w11, #0x0, w11

00001e5e <bcanonical>:
    1e5e:	60 22 b8    	mul.uu    w4, #0x0, w4
    1e60:	7d 03 20    	mov.w     #0x37, w13
    1e62:	0d 38 e1    	cp.w      w7, w13
    1e64:	80 06 eb    	clr.w     w13
    1e66:	0b 00 39    	bra       NC, 0x1e7e <aligniter>
    1e68:	44 33 dd    	sl.w      w6, #0x4, w6
    1e6a:	f3 00 b2    	and.w     #0xf, w3
    1e6c:	83 01 73    	ior.w     w6, w3, w3
    1e6e:	39 00 37    	bra       0x1ee2 <signoff>

00001e70 <align>:
    1e70:	84 82 72    	ior.w     w5, w4, w5
    1e72:	0d 02 78    	mov.w     w13, w4
    1e74:	e1 06 64    	and.w     w8, #0x1, w13
    1e76:	8b 85 d1    	asr.w     w11, w11
    1e78:	0a 85 d3    	rrc.w     w10, w10
    1e7a:	89 84 d3    	rrc.w     w9, w9
    1e7c:	08 84 d3    	rrc.w     w8, w8

00001e7e <aligniter>:
    1e7e:	87 03 e9    	dec.w     w7, w7
    1e80:	f7 ff 3b    	bra       NN, 0x1e70 <align>

00001e82 <aligned>:
    1e82:	08 00 40    	add.w     w0, w8, w0
    1e84:	89 80 48    	addc.w    w1, w9, w1
    1e86:	0a 01 49    	addc.w    w2, w10, w2
    1e88:	8b 81 49    	addc.w    w3, w11, w3
    1e8a:	04 00 3b    	bra       NN, 0x1e94 <normalizesum>
    1e8c:	60 00 10    	subr.w    w0, #0x0, w0
    1e8e:	e0 80 18    	subbr.w   w1, #0x0, w1
    1e90:	60 01 19    	subbr.w   w2, #0x0, w2
    1e92:	e0 81 19    	subbr.w   w3, #0x0, w3

00001e94 <normalizesum>:
    1e94:	03 58 a3    	btst.z    w3, #0x5
    1e96:	09 00 32    	bra       Z, 0x1eaa <checknormal>
    1e98:	8d 82 72    	ior.w     w5, w13, w5
    1e9a:	84 82 72    	ior.w     w5, w4, w5
    1e9c:	61 02 60    	and.w     w0, #0x1, w4
    1e9e:	83 01 d1    	lsr.w     w3, w3
    1ea0:	02 81 d3    	rrc.w     w2, w2
    1ea2:	81 80 d3    	rrc.w     w1, w1
    1ea4:	00 80 d3    	rrc.w     w0, w0
    1ea6:	06 03 e8    	inc.w     w6, w6
    1ea8:	1b 00 37    	bra       0x1ee0 <round>

00001eaa <checknormal>:
    1eaa:	03 48 a3    	btst.z    w3, #0x4
    1eac:	17 00 3a    	bra       NZ, 0x1edc <discardguard>

00001eae <underflow>:
    1eae:	06 00 e0    	cp0.w     w6
    1eb0:	17 00 34    	bra       LE, 0x1ee0 <round>
    1eb2:	06 03 e9    	dec.w     w6, w6
    1eb4:	0d 00 a3    	btst.c    w13, #0x0
    1eb6:	00 00 48    	addc.w    w0, w0, w0
    1eb8:	81 80 48    	addc.w    w1, w1, w1
    1eba:	02 01 49    	addc.w    w2, w2, w2
    1ebc:	83 81 49    	addc.w    w3, w3, w3
    1ebe:	03 48 a3    	btst.z    w3, #0x4
    1ec0:	0f 00 3a    	bra       NZ, 0x1ee0 <round>

00001ec2 <normalizeloop>:
    1ec2:	06 00 e0    	cp0.w     w6
    1ec4:	09 00 34    	bra       LE, 0x1ed8 <normalizeexit>
    1ec6:	06 03 e9    	dec.w     w6, w6
    1ec8:	00 00 40    	add.w     w0, w0, w0
    1eca:	81 80 48    	addc.w    w1, w1, w1
    1ecc:	02 01 49    	addc.w    w2, w2, w2
    1ece:	83 81 49    	addc.w    w3, w3, w3
    1ed0:	01 00 3a    	bra       NZ, 0x1ed4 <normalizeexpok>
    1ed2:	00 03 eb    	clr.w     w6

00001ed4 <normalizeexpok>:
    1ed4:	03 48 a3    	btst.z    w3, #0x4
    1ed6:	f5 ff 32    	bra       Z, 0x1ec2 <normalizeloop>

00001ed8 <normalizeexit>:
    1ed8:	60 22 b8    	mul.uu    w4, #0x0, w4
    1eda:	02 00 37    	bra       0x1ee0 <round>

00001edc <discardguard>:
    1edc:	84 82 72    	ior.w     w5, w4, w5
    1ede:	61 82 66    	and.w     w13, #0x1, w4

00001ee0 <round>:
    1ee0:	0c 00 07    	rcall     0x1efa <__dpack>

00001ee2 <signoff>:
    1ee2:	03 f0 a1    	bclr.w    w3, #0xf
    1ee4:	0c f0 a7    	btsc.w    w12, #0xf
    1ee6:	03 f0 a0    	bset.w    w3, #0xf
    1ee8:	4f ff 37    	bra       0x1d88 <__dunpack2exit>

00001eea <aisinfinite>:
    1eea:	64 01 47    	add.w     w14, #0x4, w2
    1eec:	64 08 e1    	cp.w      w1, #0x4
    1eee:	02 00 3a    	bra       NZ, 0x1ef4 <returnab>
    1ef0:	0d f8 a3    	btst.z    w13, #0xf
    1ef2:	47 ff 3a    	bra       NZ, 0x1d82 <__dreturnNaN>

00001ef4 <returnab>:
    1ef4:	32 00 be    	mov.d     [w2++], w0
    1ef6:	12 01 be    	mov.d     [w2], w2
    1ef8:	47 ff 37    	bra       0x1d88 <__dunpack2exit>

00001efa <__dpack>:
    1efa:	18 00 20    	mov.w     #0x1, w8
    1efc:	57 00 20    	mov.w     #0x5, w7
    1efe:	08 04 53    	sub.w     w6, w8, w8
    1f00:	0d 00 3d    	bra       GE, 0x1f1c <notsubnormal>
    1f02:	06 00 20    	mov.w     #0x0, w6
    1f04:	97 fc 2f    	mov.w     #0xffc9, w7
    1f06:	07 40 e1    	cp.w      w8, w7
    1f08:	1e 00 34    	bra       LE, 0x1f46 <zerosig>

00001f0a <subnormal>:
    1f0a:	84 82 72    	ior.w     w5, w4, w5
    1f0c:	61 02 60    	and.w     w0, #0x1, w4
    1f0e:	83 01 d1    	lsr.w     w3, w3
    1f10:	02 81 d3    	rrc.w     w2, w2
    1f12:	81 80 d3    	rrc.w     w1, w1
    1f14:	00 80 d3    	rrc.w     w0, w0
    1f16:	08 04 e8    	inc.w     w8, w8
    1f18:	f8 ff 3a    	bra       NZ, 0x1f0a <subnormal>
    1f1a:	47 00 20    	mov.w     #0x4, w7

00001f1c <notsubnormal>:
    1f1c:	61 04 60    	and.w     w0, #0x1, w8
    1f1e:	05 04 74    	ior.w     w8, w5, w8
    1f20:	04 04 64    	and.w     w8, w4, w8
    1f22:	0d 00 32    	bra       Z, 0x1f3e <packupandgo>
    1f24:	61 00 40    	add.w     w0, #0x1, w0
    1f26:	e0 80 48    	addc.w    w1, #0x0, w1
    1f28:	60 01 49    	addc.w    w2, #0x0, w2
    1f2a:	e0 81 49    	addc.w    w3, #0x0, w3
    1f2c:	03 b8 a5    	btst.z    w3, w7
    1f2e:	07 00 32    	bra       Z, 0x1f3e <packupandgo>
    1f30:	06 03 e8    	inc.w     w6, w6
    1f32:	65 38 e1    	cp.w      w7, #0x5
    1f34:	04 00 3a    	bra       NZ, 0x1f3e <packupandgo>
    1f36:	83 01 d1    	lsr.w     w3, w3
    1f38:	02 81 d3    	rrc.w     w2, w2
    1f3a:	81 80 d3    	rrc.w     w1, w1
    1f3c:	00 80 d3    	rrc.w     w0, w0

00001f3e <packupandgo>:
    1f3e:	f8 7f 20    	mov.w     #0x7ff, w8
    1f40:	08 30 e1    	cp.w      w6, w8
    1f42:	03 00 35    	bra       LT, 0x1f4a <nooverflow>
    1f44:	08 03 78    	mov.w     w8, w6

00001f46 <zerosig>:
    1f46:	60 00 b8    	mul.uu    w0, #0x0, w0
    1f48:	60 11 b8    	mul.uu    w2, #0x0, w2

00001f4a <nooverflow>:
    1f4a:	44 33 dd    	sl.w      w6, #0x4, w6
    1f4c:	f3 00 b2    	and.w     #0xf, w3
    1f4e:	83 01 73    	ior.w     w6, w3, w3
    1f50:	00 00 06    	return    

00001f52 <___umuldi3>:
    1f52:	88 9f be    	mov.d     w8, [w15++]
    1f54:	8a 9f be    	mov.d     w10, [w15++]
    1f56:	8c 9f be    	mov.d     w12, [w15++]
    1f58:	04 04 b8    	mul.uu    w0, w4, w8
    1f5a:	05 06 b8    	mul.uu    w0, w5, w12
    1f5c:	89 04 46    	add.w     w12, w9, w9
    1f5e:	60 85 4e    	addc.w    w13, #0x0, w10
    1f60:	06 06 b8    	mul.uu    w0, w6, w12
    1f62:	0a 05 46    	add.w     w12, w10, w10
    1f64:	e0 85 4e    	addc.w    w13, #0x0, w11
    1f66:	07 06 b8    	mul.uu    w0, w7, w12
    1f68:	8b 05 46    	add.w     w12, w11, w11
    1f6a:	04 0e b8    	mul.uu    w1, w4, w12
    1f6c:	89 04 46    	add.w     w12, w9, w9
    1f6e:	0a 85 4e    	addc.w    w13, w10, w10
    1f70:	e0 85 4d    	addc.w    w11, #0x0, w11
    1f72:	05 0e b8    	mul.uu    w1, w5, w12
    1f74:	0a 05 46    	add.w     w12, w10, w10
    1f76:	8b 85 4e    	addc.w    w13, w11, w11
    1f78:	06 0e b8    	mul.uu    w1, w6, w12
    1f7a:	8b 05 46    	add.w     w12, w11, w11
    1f7c:	04 16 b8    	mul.uu    w2, w4, w12
    1f7e:	0a 05 46    	add.w     w12, w10, w10
    1f80:	8b 85 4e    	addc.w    w13, w11, w11
    1f82:	05 16 b8    	mul.uu    w2, w5, w12
    1f84:	8b 05 46    	add.w     w12, w11, w11
    1f86:	04 1e b8    	mul.uu    w3, w4, w12
    1f88:	8b 05 46    	add.w     w12, w11, w11
    1f8a:	08 00 be    	mov.d     w8, w0
    1f8c:	0a 01 be    	mov.d     w10, w2
    1f8e:	4f 06 be    	mov.d     [--w15], w12
    1f90:	4f 05 be    	mov.d     [--w15], w10
    1f92:	4f 04 be    	mov.d     [--w15], w8
    1f94:	00 00 06    	return    

00001f96 <__dtype>:
    1f96:	05 ff 27    	mov.w     #0x7ff0, w5
    1f98:	05 82 61    	and.w     w3, w5, w4
    1f9a:	07 00 32    	bra       Z, 0x1faa <zeroorsub>
    1f9c:	04 28 e1    	cp.w      w5, w4
    1f9e:	01 00 32    	bra       Z, 0x1fa2 <NaNorInf>

00001fa0 <isFinite>:
    1fa0:	24 00 05    	retlw.w   #0x2, w4

00001fa2 <NaNorInf>:
    1fa2:	06 00 07    	rcall     0x1fb0 <checkfrac>
    1fa4:	01 00 3a    	bra       NZ, 0x1fa8 <isNaN>
    1fa6:	44 00 05    	retlw.w   #0x4, w4

00001fa8 <isNaN>:
    1fa8:	04 08 05    	retlw.w   #0x80, w4

00001faa <zeroorsub>:
    1faa:	02 00 07    	rcall     0x1fb0 <checkfrac>
    1fac:	f9 ff 3a    	bra       NZ, 0x1fa0 <isFinite>
    1fae:	14 00 05    	retlw.w   #0x1, w4

00001fb0 <checkfrac>:
    1fb0:	6f 82 61    	and.w     w3, #0xf, w4
    1fb2:	81 02 70    	ior.w     w0, w1, w5
    1fb4:	85 02 71    	ior.w     w2, w5, w5
    1fb6:	85 02 72    	ior.w     w4, w5, w5
    1fb8:	00 00 06    	return    

00001fba <__dPropagateNaN>:
    1fba:	e4 82 40    	add.w     w1, #0x4, w5
    1fbc:	10 78 a3    	btst.z    [w0], #0x7
    1fbe:	07 00 32    	bra       Z, 0x1fce <returnb>
    1fc0:	64 02 40    	add.w     w0, #0x4, w4
    1fc2:	11 78 a3    	btst.z    [w1], #0x7
    1fc4:	34 00 be    	mov.d     [w4++], w0
    1fc6:	14 01 be    	mov.d     [w4], w2
    1fc8:	04 00 32    	bra       Z, 0x1fd2 <returnab>
    1fca:	03 30 a7    	btsc.w    w3, #0x3
    1fcc:	00 00 06    	return    

00001fce <returnb>:
    1fce:	35 00 be    	mov.d     [w5++], w0
    1fd0:	15 01 be    	mov.d     [w5], w2

00001fd2 <returnab>:
    1fd2:	03 30 a0    	bset.w    w3, #0x3
    1fd4:	00 00 06    	return    

00001fd6 <_VectorDotProduct>:
    1fd6:	44 00 f8    	push      0x44
    1fd8:	04 0f 20    	mov.w     #0xf0, w4
    1fda:	24 02 88    	mov.w     w4, 0x44
    1fdc:	00 00 e9    	dec.w     w0, w0
    1fde:	12 01 c3    	clr       A
    1fe0:	00 80 08    	do        w0, 0x1fe8 <_endDot>
    1fe2:	02 00 00 
    1fe4:	31 02 78    	mov.w     [w1++], w4
    1fe6:	b2 02 78    	mov.w     [w2++], w5

00001fe8 <_endDot>:
    1fe8:	12 01 c0    	mac       w4 * w5, A
    1fea:	00 00 cd    	sac.r     A, #0x0, w0
    1fec:	44 00 f9    	pop       0x44
    1fee:	00 00 06    	return    

00001ff0 <_VectorAdd>:
    1ff0:	44 00 f8    	push      0x44
    1ff2:	04 0f 20    	mov.w     #0xf0, w4
    1ff4:	24 02 88    	mov.w     w4, 0x44
    1ff6:	01 02 78    	mov.w     w1, w4
    1ff8:	00 00 e9    	dec.w     w0, w0
    1ffa:	00 80 08    	do        w0, 0x2006 <_endAdd>
    1ffc:	04 00 00 
    1ffe:	b2 02 78    	mov.w     [w2++], w5
    2000:	05 00 ca    	lac       w5, #0x0, A
    2002:	b3 02 78    	mov.w     [w3++], w5
    2004:	05 00 c9    	add       w5, #0x0, A

00002006 <_endAdd>:
    2006:	31 00 cc    	sac       A, #0x0, [w1++]
    2008:	04 00 78    	mov.w     w4, w0
    200a:	44 00 f9    	pop       0x44
    200c:	00 00 06    	return    

0000200e <_VectorScale>:
    200e:	44 00 f8    	push      0x44
    2010:	04 0f 20    	mov.w     #0xf0, w4
    2012:	24 02 88    	mov.w     w4, 0x44
    2014:	81 1f 78    	mov.w     w1, [w15++]
    2016:	00 00 e9    	dec.w     w0, w0
    2018:	03 02 78    	mov.w     w3, w4
    201a:	00 80 08    	do        w0, 0x2022 <_endScl>
    201c:	02 00 00 
    201e:	b2 02 78    	mov.w     [w2++], w5
    2020:	13 01 c0    	mpy       w4 * w5, A

00002022 <_endScl>:
    2022:	31 00 cd    	sac.r     A, #0x0, [w1++]
    2024:	4f 00 78    	mov.w     [--w15], w0
    2026:	44 00 f9    	pop       0x44
    2028:	00 00 06    	return    

0000202a <_MatrixMultiply>:
    202a:	88 9f be    	mov.d     w8, [w15++]
    202c:	8a 9f be    	mov.d     w10, [w15++]
    202e:	8c 9f be    	mov.d     w12, [w15++]
    2030:	44 00 f8    	push      0x44
    2032:	0d 0f 20    	mov.w     #0xf0, w13
    2034:	2d 02 88    	mov.w     w13, 0x44
    2036:	83 06 78    	mov.w     w3, w13
    2038:	01 06 e9    	dec.w     w1, w12
    203a:	82 05 e9    	dec.w     w2, w11
    203c:	81 80 40    	add.w     w1, w1, w1
    203e:	02 01 41    	add.w     w2, w2, w2

00002040 <_doRows1>:
    2040:	00 00 e9    	dec.w     w0, w0
    2042:	10 00 35    	bra       LT, 0x2064 <_doneRows1>
    2044:	05 05 78    	mov.w     w5, w10
    2046:	0b 80 08    	do        w11, 0x205e <_endCols2>
    2048:	0a 00 00 
    204a:	04 04 78    	mov.w     w4, w8
    204c:	8a 04 78    	mov.w     w10, w9
    204e:	12 01 c3    	clr       A
    2050:	0c 80 08    	do        w12, 0x205a <_endCols1Rows2>
    2052:	03 00 00 
    2054:	38 03 78    	mov.w     [w8++], w6
    2056:	99 03 78    	mov.w     [w9], w7
    2058:	12 01 c6    	mac       w6 * w7, A

0000205a <_endCols1Rows2>:
    205a:	82 84 44    	add.w     w9, w2, w9
    205c:	33 00 cd    	sac.r     A, #0x0, [w3++]

0000205e <_endCols2>:
    205e:	0a 85 e8    	inc2.w    w10, w10
    2060:	01 02 42    	add.w     w4, w1, w4
    2062:	ee ff 37    	bra       0x2040 <_doRows1>

00002064 <_doneRows1>:
    2064:	0d 00 78    	mov.w     w13, w0
    2066:	44 00 f9    	pop       0x44
    2068:	4f 06 be    	mov.d     [--w15], w12
    206a:	4f 05 be    	mov.d     [--w15], w10
    206c:	4f 04 be    	mov.d     [--w15], w8
    206e:	00 00 06    	return    

00002070 <_MatrixAdd>:
    2070:	01 00 b8    	mul.uu    w0, w1, w0
    2072:	00 00 e9    	dec.w     w0, w0
    2074:	44 00 f8    	push      0x44
    2076:	01 0f 20    	mov.w     #0xf0, w1
    2078:	21 02 88    	mov.w     w1, 0x44
    207a:	82 00 78    	mov.w     w2, w1
    207c:	00 80 08    	do        w0, 0x2088 <_endAdd>
    207e:	04 00 00 
    2080:	b3 02 78    	mov.w     [w3++], w5
    2082:	05 00 ca    	lac       w5, #0x0, A
    2084:	b4 02 78    	mov.w     [w4++], w5
    2086:	05 00 c9    	add       w5, #0x0, A

00002088 <_endAdd>:
    2088:	32 00 cc    	sac       A, #0x0, [w2++]
    208a:	01 00 78    	mov.w     w1, w0
    208c:	44 00 f9    	pop       0x44
    208e:	00 00 06    	return    

00002090 <_VectorPower>:
    2090:	44 00 f8    	push      0x44
    2092:	02 0f 20    	mov.w     #0xf0, w2
    2094:	22 02 88    	mov.w     w2, 0x44
    2096:	00 00 e9    	dec.w     w0, w0
    2098:	12 01 c3    	clr       A
    209a:	00 80 08    	do        w0, 0x20a0 <_endPow>
    209c:	01 00 00 
    209e:	31 02 78    	mov.w     [w1++], w4

000020a0 <_endPow>:
    20a0:	10 01 f0    	mac       w4 * w4, A
    20a2:	00 00 cd    	sac.r     A, #0x0, w0
    20a4:	44 00 f9    	pop       0x44
    20a6:	00 00 06    	return    
Disassembly of section __FBS:

00f80000 <__FBS.sec>:
  f80000:	ff ff 00    	nop       
Disassembly of section __FSS:

00f80002 <__FSS.sec>:
  f80002:	ff ff 00    	nop       
Disassembly of section __FGS:

00f80004 <__FGS.sec>:
  f80004:	ff ff 00    	nop       
Disassembly of section __FOSCSEL:

00f80006 <__FOSCSEL.sec>:
  f80006:	78 ff 00    	nop       
Disassembly of section __FOSC:

00f80008 <__FOSC.sec>:
  f80008:	7c ff 00    	nop       
Disassembly of section __FWDT:

00f8000a <__FWDT.sec>:
  f8000a:	7f ff 00    	nop       
Disassembly of section __FPOR:

00f8000c <__FPOR.sec>:
  f8000c:	fd ff 00    	nop       
Disassembly of section __FICD:

00f8000e <__FICD.sec>:
  f8000e:	de ff 00    	nop       
Disassembly of section __FUID0:

00f80010 <__FUID0.sec>:
  f80010:	ff ff 00    	nop       
Disassembly of section __FUID1:

00f80012 <__FUID1.sec>:
  f80012:	ff ff 00    	nop       
Disassembly of section __FUID2:

00f80014 <__FUID2.sec>:
  f80014:	ff ff 00    	nop       
Disassembly of section __FUID3:

00f80016 <__FUID3.sec>:
  f80016:	ff ff 00    	nop       
Disassembly of section .ivt:

00000004 <.ivt>:
   4:	74 7a 00    	nop       
   6:	74 7a 00    	nop       
   8:	74 7a 00    	nop       
   a:	74 7a 00    	nop       
   c:	74 7a 00    	nop       
   e:	74 7a 00    	nop       
  10:	74 7a 00    	nop       
  12:	74 7a 00    	nop       
  14:	74 7a 00    	nop       
  16:	80 41 00    	nop       
  18:	2a 2f 00    	nop       
  1a:	aa 87 00    	nop       
  1c:	d6 61 00    	nop       
  1e:	b4 41 00    	nop       
  20:	58 2f 00    	nop       
  22:	6e 41 00    	nop       
  24:	c6 2c 00    	nop       
  26:	74 7a 00    	nop       
  28:	74 7a 00    	nop       
  2a:	9a 69 00    	nop       
  2c:	b4 6a 00    	nop       
  2e:	74 7a 00    	nop       
  30:	74 7a 00    	nop       
  32:	74 7a 00    	nop       
  34:	74 7a 00    	nop       
  36:	74 7a 00    	nop       
  38:	74 7a 00    	nop       
  3a:	74 7a 00    	nop       
  3c:	48 53 00    	nop       
  3e:	d6 62 00    	nop       
  40:	cc 42 00    	nop       
  42:	04 43 00    	nop       
  44:	74 7a 00    	nop       
  46:	86 2f 00    	nop       
  48:	b4 2f 00    	nop       
  4a:	44 88 00    	nop       
  4c:	24 88 00    	nop       
  4e:	32 56 00    	nop       
  50:	82 6b 00    	nop       
  52:	82 6c 00    	nop       
  54:	74 7a 00    	nop       
  56:	74 7a 00    	nop       
  58:	74 7a 00    	nop       
  5a:	74 7a 00    	nop       
  5c:	74 7a 00    	nop       
  5e:	ec 41 00    	nop       
  60:	24 42 00    	nop       
  62:	5c 42 00    	nop       
  64:	94 42 00    	nop       
  66:	e2 2f 00    	nop       
  68:	10 30 00    	nop       
  6a:	3e 30 00    	nop       
  6c:	6c 30 00    	nop       
  6e:	74 7a 00    	nop       
  70:	74 7a 00    	nop       
  72:	74 7a 00    	nop       
  74:	74 7a 00    	nop       
  76:	74 7a 00    	nop       
  78:	3a 44 00    	nop       
  7a:	74 7a 00    	nop       
  7c:	74 7a 00    	nop       
  7e:	74 7a 00    	nop       
  80:	74 7a 00    	nop       
  82:	74 7a 00    	nop       
  84:	74 7a 00    	nop       
  86:	74 7a 00    	nop       
  88:	74 7a 00    	nop       
  8a:	74 7a 00    	nop       
  8c:	74 7a 00    	nop       
  8e:	74 7a 00    	nop       
  90:	74 7a 00    	nop       
  92:	74 7a 00    	nop       
  94:	74 7a 00    	nop       
  96:	74 7a 00    	nop       
  98:	74 7a 00    	nop       
  9a:	74 7a 00    	nop       
  9c:	74 7a 00    	nop       
  9e:	74 7a 00    	nop       
  a0:	74 7a 00    	nop       
  a2:	74 7a 00    	nop       
  a4:	74 7a 00    	nop       
  a6:	74 7a 00    	nop       
  a8:	74 7a 00    	nop       
  aa:	74 7a 00    	nop       
  ac:	74 7a 00    	nop       
  ae:	74 7a 00    	nop       
  b0:	74 7a 00    	nop       
  b2:	74 7a 00    	nop       
  b4:	74 7a 00    	nop       
  b6:	74 7a 00    	nop       
  b8:	74 7a 00    	nop       
  ba:	74 7a 00    	nop       
  bc:	74 7a 00    	nop       
  be:	74 7a 00    	nop       
  c0:	74 7a 00    	nop       
  c2:	74 7a 00    	nop       
  c4:	74 7a 00    	nop       
  c6:	74 7a 00    	nop       
  c8:	74 7a 00    	nop       
  ca:	74 7a 00    	nop       
  cc:	74 7a 00    	nop       
  ce:	74 7a 00    	nop       
  d0:	74 7a 00    	nop       
  d2:	74 7a 00    	nop       
  d4:	74 7a 00    	nop       
  d6:	74 7a 00    	nop       
  d8:	74 7a 00    	nop       
  da:	74 7a 00    	nop       
  dc:	74 7a 00    	nop       
  de:	74 7a 00    	nop       
  e0:	74 7a 00    	nop       
  e2:	74 7a 00    	nop       
  e4:	74 7a 00    	nop       
  e6:	74 7a 00    	nop       
  e8:	74 7a 00    	nop       
  ea:	74 7a 00    	nop       
  ec:	74 7a 00    	nop       
  ee:	74 7a 00    	nop       
  f0:	74 7a 00    	nop       
  f2:	74 7a 00    	nop       
  f4:	74 7a 00    	nop       
  f6:	74 7a 00    	nop       
  f8:	74 7a 00    	nop       
  fa:	74 7a 00    	nop       
  fc:	74 7a 00    	nop       
  fe:	74 7a 00    	nop       
Disassembly of section .aivt:

00000104 <.aivt>:
 104:	74 7a 00    	nop       
 106:	74 7a 00    	nop       
 108:	74 7a 00    	nop       
 10a:	74 7a 00    	nop       
 10c:	74 7a 00    	nop       
 10e:	74 7a 00    	nop       
 110:	74 7a 00    	nop       
 112:	74 7a 00    	nop       
 114:	74 7a 00    	nop       
 116:	80 41 00    	nop       
 118:	2a 2f 00    	nop       
 11a:	aa 87 00    	nop       
 11c:	d6 61 00    	nop       
 11e:	b4 41 00    	nop       
 120:	58 2f 00    	nop       
 122:	6e 41 00    	nop       
 124:	c6 2c 00    	nop       
 126:	74 7a 00    	nop       
 128:	74 7a 00    	nop       
 12a:	9a 69 00    	nop       
 12c:	b4 6a 00    	nop       
 12e:	74 7a 00    	nop       
 130:	74 7a 00    	nop       
 132:	74 7a 00    	nop       
 134:	74 7a 00    	nop       
 136:	74 7a 00    	nop       
 138:	74 7a 00    	nop       
 13a:	74 7a 00    	nop       
 13c:	48 53 00    	nop       
 13e:	d6 62 00    	nop       
 140:	cc 42 00    	nop       
 142:	04 43 00    	nop       
 144:	74 7a 00    	nop       
 146:	86 2f 00    	nop       
 148:	b4 2f 00    	nop       
 14a:	44 88 00    	nop       
 14c:	24 88 00    	nop       
 14e:	32 56 00    	nop       
 150:	82 6b 00    	nop       
 152:	82 6c 00    	nop       
 154:	74 7a 00    	nop       
 156:	74 7a 00    	nop       
 158:	74 7a 00    	nop       
 15a:	74 7a 00    	nop       
 15c:	74 7a 00    	nop       
 15e:	ec 41 00    	nop       
 160:	24 42 00    	nop       
 162:	5c 42 00    	nop       
 164:	94 42 00    	nop       
 166:	e2 2f 00    	nop       
 168:	10 30 00    	nop       
 16a:	3e 30 00    	nop       
 16c:	6c 30 00    	nop       
 16e:	74 7a 00    	nop       
 170:	74 7a 00    	nop       
 172:	74 7a 00    	nop       
 174:	74 7a 00    	nop       
 176:	74 7a 00    	nop       
 178:	3a 44 00    	nop       
 17a:	74 7a 00    	nop       
 17c:	74 7a 00    	nop       
 17e:	74 7a 00    	nop       
 180:	74 7a 00    	nop       
 182:	74 7a 00    	nop       
 184:	74 7a 00    	nop       
 186:	74 7a 00    	nop       
 188:	74 7a 00    	nop       
 18a:	74 7a 00    	nop       
 18c:	74 7a 00    	nop       
 18e:	74 7a 00    	nop       
 190:	74 7a 00    	nop       
 192:	74 7a 00    	nop       
 194:	74 7a 00    	nop       
 196:	74 7a 00    	nop       
 198:	74 7a 00    	nop       
 19a:	74 7a 00    	nop       
 19c:	74 7a 00    	nop       
 19e:	74 7a 00    	nop       
 1a0:	74 7a 00    	nop       
 1a2:	74 7a 00    	nop       
 1a4:	74 7a 00    	nop       
 1a6:	74 7a 00    	nop       
 1a8:	74 7a 00    	nop       
 1aa:	74 7a 00    	nop       
 1ac:	74 7a 00    	nop       
 1ae:	74 7a 00    	nop       
 1b0:	74 7a 00    	nop       
 1b2:	74 7a 00    	nop       
 1b4:	74 7a 00    	nop       
 1b6:	74 7a 00    	nop       
 1b8:	74 7a 00    	nop       
 1ba:	74 7a 00    	nop       
 1bc:	74 7a 00    	nop       
 1be:	74 7a 00    	nop       
 1c0:	74 7a 00    	nop       
 1c2:	74 7a 00    	nop       
 1c4:	74 7a 00    	nop       
 1c6:	74 7a 00    	nop       
 1c8:	74 7a 00    	nop       
 1ca:	74 7a 00    	nop       
 1cc:	74 7a 00    	nop       
 1ce:	74 7a 00    	nop       
 1d0:	74 7a 00    	nop       
 1d2:	74 7a 00    	nop       
 1d4:	74 7a 00    	nop       
 1d6:	74 7a 00    	nop       
 1d8:	74 7a 00    	nop       
 1da:	74 7a 00    	nop       
 1dc:	74 7a 00    	nop       
 1de:	74 7a 00    	nop       
 1e0:	74 7a 00    	nop       
 1e2:	74 7a 00    	nop       
 1e4:	74 7a 00    	nop       
 1e6:	74 7a 00    	nop       
 1e8:	74 7a 00    	nop       
 1ea:	74 7a 00    	nop       
 1ec:	74 7a 00    	nop       
 1ee:	74 7a 00    	nop       
 1f0:	74 7a 00    	nop       
 1f2:	74 7a 00    	nop       
 1f4:	74 7a 00    	nop       
 1f6:	74 7a 00    	nop       
 1f8:	74 7a 00    	nop       
 1fa:	74 7a 00    	nop       
 1fc:	74 7a 00    	nop       
 1fe:	74 7a 00    	nop       
Disassembly of section .text:

000026e8 <_udb_init_pwm>:
extern LEDCTRL GreenLED;
int LED_Update(LPLEDCTRL, int);

void udb_init_pwm(void) // initialize the PWM
{
    26e8:	02 00 fa    	lnk       #0x2
	int i;
	for (i = 1; i < 65; i++)
    26ea:	10 00 20    	mov.w     #0x1, w0
    26ec:	00 0f 78    	mov.w     w0, [w14]
    26ee:	07 00 37    	bra       0x26fe <.L2>

000026f0 <.L3>:
		udb_pwOut[i] = 0;
    26f0:	1e 00 78    	mov.w     [w14], w0
    26f2:	80 00 40    	add.w     w0, w0, w1
    26f4:	20 ba 20    	mov.w     #0xba2, w0
    26f6:	80 80 40    	add.w     w1, w0, w1
    26f8:	00 00 eb    	clr.w     w0
    26fa:	80 08 78    	mov.w     w0, [w1]
    26fc:	1e 0f e8    	inc.w     [w14], [w14]

000026fe <.L2>:
    26fe:	00 04 20    	mov.w     #0x40, w0
    2700:	9e 0f 10    	subr.w    w0, [w14], [w15]
    2702:	f6 ff 34    	bra       LE, 0x26f0 <.L3>

	for (i = 9; i <= 16; i++)
    2704:	90 00 20    	mov.w     #0x9, w0
    2706:	00 0f 78    	mov.w     w0, [w14]
    2708:	08 00 37    	bra       0x271a <.L5>

0000270a <.L6>:
		udb_pwOut[i] = 7700 + i;
    270a:	9e 00 78    	mov.w     [w14], w1
    270c:	40 e1 21    	mov.w     #0x1e14, w0
    270e:	1e 01 40    	add.w     w0, [w14], w2
    2710:	81 80 40    	add.w     w1, w1, w1
    2712:	20 ba 20    	mov.w     #0xba2, w0
    2714:	00 80 40    	add.w     w1, w0, w0
    2716:	02 08 78    	mov.w     w2, [w0]
    2718:	1e 0f e8    	inc.w     [w14], [w14]

0000271a <.L5>:
    271a:	00 01 20    	mov.w     #0x10, w0
    271c:	9e 0f 10    	subr.w    w0, [w14], [w15]
    271e:	f5 ff 34    	bra       LE, 0x270a <.L6>

#if (NORADIO == 1)
	udb_flags._.radio_on = 1;
#endif

	// does not use PWM module, uses the output compare module instead
	// control enabled else were - just config to T2, no fault, disable in idle mode
	OC1CON = 0, OC2CON = 0, OC3CON = 0, OC4CON = 0;
    2720:	00 00 eb    	clr.w     w0
    2722:	20 0c 88    	mov.w     w0, 0x184
    2724:	00 00 eb    	clr.w     w0
    2726:	50 0c 88    	mov.w     w0, 0x18a
    2728:	00 00 eb    	clr.w     w0
    272a:	80 0c 88    	mov.w     w0, 0x190
    272c:	00 00 eb    	clr.w     w0
    272e:	b0 0c 88    	mov.w     w0, 0x196
	OC5CON = 0, OC6CON = 0, OC7CON = 0, OC8CON = 0; // disable
    2730:	00 00 eb    	clr.w     w0
    2732:	e0 0c 88    	mov.w     w0, 0x19c
    2734:	00 00 eb    	clr.w     w0
    2736:	10 0d 88    	mov.w     w0, 0x1a2
    2738:	00 00 eb    	clr.w     w0
    273a:	40 0d 88    	mov.w     w0, 0x1a8
    273c:	00 00 eb    	clr.w     w0
    273e:	70 0d 88    	mov.w     w0, 0x1ae

	OC1R = OC2R = OC3R = OC4R = OC5R = OC6R = OC7R = OC8R = 0; // no first pulse
    2740:	00 00 eb    	clr.w     w0
    2742:	60 0d 88    	mov.w     w0, 0x1ac
    2744:	60 0d 80    	mov.w     0x1ac, w0
    2746:	30 0d 88    	mov.w     w0, 0x1a6
    2748:	30 0d 80    	mov.w     0x1a6, w0
    274a:	00 0d 88    	mov.w     w0, 0x1a0
    274c:	00 0d 80    	mov.w     0x1a0, w0
    274e:	d0 0c 88    	mov.w     w0, 0x19a
    2750:	d0 0c 80    	mov.w     0x19a, w0
    2752:	a0 0c 88    	mov.w     w0, 0x194
    2754:	a0 0c 80    	mov.w     0x194, w0
    2756:	70 0c 88    	mov.w     w0, 0x18e
    2758:	70 0c 80    	mov.w     0x18e, w0
    275a:	40 0c 88    	mov.w     w0, 0x188
    275c:	40 0c 80    	mov.w     0x188, w0
    275e:	10 0c 88    	mov.w     w0, 0x182
	OC1RS = OC2RS = OC3RS = OC4RS = OC5RS = OC6RS = OC7RS = OC8RS = 0; // initial pulse
    2760:	00 00 eb    	clr.w     w0
    2762:	50 0d 88    	mov.w     w0, 0x1aa
    2764:	50 0d 80    	mov.w     0x1aa, w0
    2766:	20 0d 88    	mov.w     w0, 0x1a4
    2768:	20 0d 80    	mov.w     0x1a4, w0
    276a:	f0 0c 88    	mov.w     w0, 0x19e
    276c:	f0 0c 80    	mov.w     0x19e, w0
    276e:	c0 0c 88    	mov.w     w0, 0x198
    2770:	c0 0c 80    	mov.w     0x198, w0
    2772:	90 0c 88    	mov.w     w0, 0x192
    2774:	90 0c 80    	mov.w     0x192, w0
    2776:	60 0c 88    	mov.w     w0, 0x18c
    2778:	60 0c 80    	mov.w     0x18c, w0
    277a:	30 0c 88    	mov.w     w0, 0x186
    277c:	30 0c 80    	mov.w     0x186, w0
    277e:	00 0c 88    	mov.w     w0, 0x180

	IPC0bits.OC1IP = DO_INT_PRI; // Set Output Compare 1 Interrupt Priority Level
    2780:	51 0a 20    	mov.w     #0xa5, w1
    2782:	91 40 78    	mov.b     [w1], w1
    2784:	80 cf b3    	mov.b     #0xf8, w0
    2786:	00 c0 60    	and.b     w1, w0, w0
    2788:	50 40 b3    	ior.b     #0x5, w0
    278a:	a5 e0 b7    	mov.b     WREG, 0xa5
	IFS0bits.OC1IF = 0; // Clear Output Compare 1 Interrupt Flag
    278c:	84 40 a9    	bclr.b    0x84, #0x2
	IEC0bits.OC1IE = 1; // Enable Output Compare 1 interrupt
    278e:	94 40 a8    	bset.b    0x94, #0x2

	IPC1bits.OC2IP = DO_INT_PRI; // Set Output Compare 2 Interrupt Priority Level
    2790:	71 0a 20    	mov.w     #0xa7, w1
    2792:	91 40 78    	mov.b     [w1], w1
    2794:	80 cf b3    	mov.b     #0xf8, w0
    2796:	00 c0 60    	and.b     w1, w0, w0
    2798:	50 40 b3    	ior.b     #0x5, w0
    279a:	a7 e0 b7    	mov.b     WREG, 0xa7
	IFS0bits.OC2IF = 0; // Clear Output Compare 2 Interrupt Flag
    279c:	84 c0 a9    	bclr.b    0x84, #0x6
	IEC0bits.OC2IE = 1; // Enable Output Compare 2 interrupt
    279e:	94 c0 a8    	bset.b    0x94, #0x6

	IPC6bits.OC3IP = DO_INT_PRI; // Set Output Compare 3 Interrupt Priority Level
    27a0:	01 0b 20    	mov.w     #0xb0, w1
    27a2:	91 40 78    	mov.b     [w1], w1
    27a4:	f0 c8 b3    	mov.b     #0x8f, w0
    27a6:	00 c0 60    	and.b     w1, w0, w0
    27a8:	01 c5 b3    	mov.b     #0x50, w1
    27aa:	01 40 70    	ior.b     w0, w1, w0
    27ac:	b0 e0 b7    	mov.b     WREG, 0xb0
	IFS1bits.OC3IF = 0; // Clear Output Compare 3 Interrupt Flag
    27ae:	87 20 a9    	bclr.b    0x87, #0x1
	IEC1bits.OC3IE = 1; // Enable Output Compare 3 interrupt
    27b0:	97 20 a8    	bset.b    0x97, #0x1

	IPC6bits.OC4IP = DO_INT_PRI; // Set Output Compare 4 Interrupt Priority Level
    27b2:	11 0b 20    	mov.w     #0xb1, w1
    27b4:	91 40 78    	mov.b     [w1], w1
    27b6:	80 cf b3    	mov.b     #0xf8, w0
    27b8:	00 c0 60    	and.b     w1, w0, w0
    27ba:	50 40 b3    	ior.b     #0x5, w0
    27bc:	b1 e0 b7    	mov.b     WREG, 0xb1
	IFS1bits.OC4IF = 0; // Clear Output Compare 4 Interrupt Flag
    27be:	87 40 a9    	bclr.b    0x87, #0x2
	IEC1bits.OC4IE = 1; // Enable Output Compare 4 interrupt
    27c0:	97 40 a8    	bset.b    0x97, #0x2

	IPC10bits.OC5IP = DO_INT_PRI; // Set Output Compare 5 Interrupt Priority Level
    27c2:	81 0b 20    	mov.w     #0xb8, w1
    27c4:	91 40 78    	mov.b     [w1], w1
    27c6:	f0 c8 b3    	mov.b     #0x8f, w0
    27c8:	00 c0 60    	and.b     w1, w0, w0
    27ca:	01 c5 b3    	mov.b     #0x50, w1
    27cc:	01 40 70    	ior.b     w0, w1, w0
    27ce:	b8 e0 b7    	mov.b     WREG, 0xb8
	IFS2bits.OC5IF = 0; // Clear Output Compare 5 Interrupt Flag
    27d0:	89 20 a9    	bclr.b    0x89, #0x1
	IEC2bits.OC5IE = 1; // Enable Output Compare 5 interrupt
    27d2:	99 20 a8    	bset.b    0x99, #0x1

	IPC10bits.OC6IP = DO_INT_PRI; // Set Output Compare 6 Interrupt Priority Level
    27d4:	91 0b 20    	mov.w     #0xb9, w1
    27d6:	91 40 78    	mov.b     [w1], w1
    27d8:	80 cf b3    	mov.b     #0xf8, w0
    27da:	00 c0 60    	and.b     w1, w0, w0
    27dc:	50 40 b3    	ior.b     #0x5, w0
    27de:	b9 e0 b7    	mov.b     WREG, 0xb9
	IFS2bits.OC6IF = 0; // Clear Output Compare 6 Interrupt Flag
    27e0:	89 40 a9    	bclr.b    0x89, #0x2
	IEC2bits.OC6IE = 1; // Enable Output Compare 6 interrupt
    27e2:	99 40 a8    	bset.b    0x99, #0x2

	IPC10bits.OC7IP = DO_INT_PRI; // Set Output Compare 7 Interrupt Priority Level
    27e4:	91 0b 20    	mov.w     #0xb9, w1
    27e6:	91 40 78    	mov.b     [w1], w1
    27e8:	f0 c8 b3    	mov.b     #0x8f, w0
    27ea:	00 c0 60    	and.b     w1, w0, w0
    27ec:	01 c5 b3    	mov.b     #0x50, w1
    27ee:	01 40 70    	ior.b     w0, w1, w0
    27f0:	b9 e0 b7    	mov.b     WREG, 0xb9
	IFS2bits.OC7IF = 0; // Clear Output Compare 7 Interrupt Flag
    27f2:	89 60 a9    	bclr.b    0x89, #0x3
	IEC2bits.OC7IE = 1; // Enable Output Compare 7 interrupt
    27f4:	99 60 a8    	bset.b    0x99, #0x3

	IPC11bits.OC8IP = DO_INT_PRI; // Set Output Compare 8 Interrupt Priority Level
    27f6:	a1 0b 20    	mov.w     #0xba, w1
    27f8:	91 40 78    	mov.b     [w1], w1
    27fa:	80 cf b3    	mov.b     #0xf8, w0
    27fc:	00 c0 60    	and.b     w1, w0, w0
    27fe:	50 40 b3    	ior.b     #0x5, w0
    2800:	ba e0 b7    	mov.b     WREG, 0xba
	IFS2bits.OC8IF = 0; // Clear Output Compare 8 Interrupt Flag
    2802:	89 80 a9    	bclr.b    0x89, #0x4
	IEC2bits.OC8IE = 1; // Enable Output Compare 8 interrupt
    2804:	99 80 a8    	bset.b    0x99, #0x4

	TMR3 = 0; // initialize timer
    2806:	00 00 eb    	clr.w     w0
    2808:	50 08 88    	mov.w     w0, 0x10a
	PR3 = TMR3_PERIOD; // set period register
    280a:	00 c4 29    	mov.w     #0x9c40, w0
    280c:	70 08 88    	mov.w     w0, 0x10e
	T3CONbits.TCKPS = 0; // prescaler = 0 option, counts at Tcy
    280e:	21 11 20    	mov.w     #0x112, w1
    2810:	91 40 78    	mov.b     [w1], w1
    2812:	f0 cc b3    	mov.b     #0xcf, w0
    2814:	00 c0 60    	and.b     w1, w0, w0
    2816:	12 e1 b7    	mov.b     WREG, 0x112
	T3CONbits.TCS = 0; // use the internal clock
    2818:	12 21 a9    	bclr.b    0x112, #0x1
	_T3IP = DO_INT_PRI; // Interrupt Priority Level
    281a:	81 0a 20    	mov.w     #0xa8, w1
    281c:	91 40 78    	mov.b     [w1], w1
    281e:	80 cf b3    	mov.b     #0xf8, w0
    2820:	00 c0 60    	and.b     w1, w0, w0
    2822:	50 40 b3    	ior.b     #0x5, w0
    2824:	a8 e0 b7    	mov.b     WREG, 0xa8
	_T3IF = 0; // clear the interrupt
    2826:	85 00 a9    	bclr.b    0x85, #0x0
	_T3IE = 1; // enable the interrupt
    2828:	95 00 a8    	bset.b    0x95, #0x0
	T3CONbits.TON = 1; // turn on timer 3
    282a:	13 e1 a8    	bset.b    0x113, #0x7

	return;
}
    282c:	00 80 fa    	ulnk      
    282e:	00 00 06    	return    

00002830 <_udb_set_action_state>:

void udb_set_action_state(boolean newValue) {
    2830:	02 00 fa    	lnk       #0x2
    2832:	00 4f 78    	mov.b     w0, [w14]
	_LATE4 = newValue;
    2834:	1e 40 78    	mov.b     [w14], w0
    2836:	61 40 60    	and.b     w0, #0x1, w0
    2838:	61 40 60    	and.b     w0, #0x1, w0
    283a:	44 01 dd    	sl.w      w0, #0x4, w2
    283c:	c1 2d 20    	mov.w     #0x2dc, w1
    283e:	91 40 78    	mov.b     [w1], w1
    2840:	f0 ce b3    	mov.b     #0xef, w0
    2842:	00 c0 60    	and.b     w1, w0, w0
    2844:	02 40 70    	ior.b     w0, w2, w0
    2846:	dc e2 b7    	mov.b     WREG, 0x2dc
}
    2848:	00 80 fa    	ulnk      
    284a:	00 00 06    	return    

0000284c <_do_pin>:

// Output type digital pins - see radioIn for digital input pin handler
// 6	Single channel 50Hz PWM output, open drain disabled
// 7	Single channel 50Hz PWM output, open drain enabled (normally use this if you can)
// 8	Single channel 450Hz PWM output, open drain disabled
// 9	Single channel 450Hz PWM output, open drain enabled (normally use this)
// 10	Multi channel 50Hz PWM output, open drain disabled (4017's)
// 11	Multi channel 50Hz PWM output, open drain enabled (4017's normally use this)
//
// iState <= zero if called from OC interrupt, > zero called from T3 interrupt
//			T3 interrupt call used to re-start the sequence for multi-channel outputs
//			OR make sure 450Hz single channel is running (OCxCON != zero)
//			OR start the single pulse output for single channel 50Hz output
// iState = 1 for no assigned reset pin, supply exactly 10 pulses with last >3.5 mSec
//				this also means iGlen MUST be 10 and last length will be calculated
// iSpare contains the key for reset pin, = 1 for no reset pin
//			2 or -2 = IT1 (RCx) reset, 3 or -3 = IT2 (RCx) for reset,
//			4 or -4 = IT4 (RC1) reset, 5 or -5 = IT3 (RC2) for reset, 
//			6 or -6 = Digital9 (RA14), 7 or -7 = Digital10 (RA15) for reset, 
//			8 or -8 = OUT1 (RG15)    , 9 or -9 = BUZZER (RB5) for reset, 
//

void do_pin(int iState, LPPIN lpTag, LPOCM lpOCModule) {
    284c:	16 00 fa    	lnk       #0x16
    284e:	40 07 98    	mov.w     w0, [w14+8]
    2850:	51 07 98    	mov.w     w1, [w14+10]
    2852:	62 07 98    	mov.w     w2, [w14+12]
	DWORD dwTemp;
	WORD wTemp, wTemp2;
	indicate_loading_inter;
    2854:	21 e1 a8    	bset.b    0x121, #0x7

	wTemp2 = udb_pwOut[lpTag->iGlobal]; // get PWM on time
    2856:	5e 00 90    	mov.w     [w14+10], w0
    2858:	30 00 90    	mov.w     [w0+6], w0
    285a:	f0 43 b2    	and.b     #0x3f, w0
    285c:	00 80 fb    	ze        w0, w0
    285e:	80 00 40    	add.w     w0, w0, w1
    2860:	20 ba 20    	mov.w     #0xba2, w0
    2862:	00 80 40    	add.w     w1, w0, w0
    2864:	10 00 78    	mov.w     [w0], w0
    2866:	00 0f 78    	mov.w     w0, [w14]
	if (wTemp2 == 0) // input invalid so don't do anything
    2868:	1e 00 e0    	cp0.w     [w14]
    286a:	1b 02 32    	bra       Z, 0x2ca2 <.L58>
		return;
	else;

	switch (lpTag->iType) {
    286c:	5e 00 90    	mov.w     [w14+10], w0
    286e:	20 00 90    	mov.w     [w0+4], w0
    2870:	44 00 de    	lsr.w     w0, #0x4, w0
    2872:	7f 40 60    	and.b     w0, #0x1f, w0
    2874:	00 80 fb    	ze        w0, w0
    2876:	70 07 98    	mov.w     w0, [w14+14]
    2878:	7e 00 90    	mov.w     [w14+14], w0
    287a:	eb 0f 50    	sub.w     w0, #0xb, [w15]
    287c:	12 02 3e    	bra       GTU, 0x2ca2 <.L58>
    287e:	10 00 20    	mov.w     #0x1, w0
    2880:	fe 00 90    	mov.w     [w14+14], w1
    2882:	01 00 dd    	sl.w      w0, w1, w0
    2884:	00 0f 98    	mov.w     w0, [w14+16]
    2886:	00 30 20    	mov.w     #0x300, w0
    2888:	0e 09 90    	mov.w     [w14+16], w2
    288a:	00 00 61    	and.w     w2, w0, w0
    288c:	00 00 e0    	cp0.w     w0
    288e:	23 00 3a    	bra       NZ, 0x28d6 <.L15>
    2890:	00 c0 20    	mov.w     #0xc00, w0
    2892:	8e 09 90    	mov.w     [w14+16], w3
    2894:	00 80 61    	and.w     w3, w0, w0
    2896:	00 00 e0    	cp0.w     w0
    2898:	43 00 3a    	bra       NZ, 0x2920 <.L16>
    289a:	00 0c 20    	mov.w     #0xc0, w0
    289c:	8e 08 90    	mov.w     [w14+16], w1
    289e:	00 80 60    	and.w     w1, w0, w0
    28a0:	00 00 e0    	cp0.w     w0
    28a2:	01 00 3a    	bra       NZ, 0x28a6 <.L14>
    28a4:	fe 01 37    	bra       0x2ca2 <.L58>

000028a6 <.L14>:
		case 6: // 6	Single channel 50Hz PWM output, open drain disabled
		case 7: // 7	Single channel 50Hz PWM output, open drain enabled (normally use this if you can)
			lpOCModule->OCCON = 0; // turn off
    28a6:	6e 00 90    	mov.w     [w14+12], w0
    28a8:	80 00 eb    	clr.w     w1
    28aa:	21 00 98    	mov.w     w1, [w0+4]
			if (iState > 0) // only do it when called from t3 interrupt
    28ac:	4e 00 90    	mov.w     [w14+8], w0
    28ae:	00 00 e0    	cp0.w     w0
    28b0:	f8 01 34    	bra       LE, 0x2ca2 <.L58>
			{
				_DI();
    28b2:	ff 0f fc    	disi      #0xfff
				wTemp = TMR2 + 5;
    28b4:	30 08 80    	mov.w     0x106, w0
    28b6:	65 00 40    	add.w     w0, #0x5, w0
    28b8:	10 07 98    	mov.w     w0, [w14+2]
				lpOCModule->OCR = wTemp; // turn on 15 x 8 Tcy from now
    28ba:	6e 00 90    	mov.w     [w14+12], w0
    28bc:	1e 01 90    	mov.w     [w14+2], w2
    28be:	12 00 98    	mov.w     w2, [w0+2]
				wTemp += wTemp2;
    28c0:	1e 00 90    	mov.w     [w14+2], w0
    28c2:	1e 00 40    	add.w     w0, [w14], w0
    28c4:	10 07 98    	mov.w     w0, [w14+2]
				lpOCModule->OCRS = wTemp; // turn off time
    28c6:	6e 00 90    	mov.w     [w14+12], w0
    28c8:	9e 01 90    	mov.w     [w14+2], w3
    28ca:	03 08 78    	mov.w     w3, [w0]
				lpOCModule->OCCON = 4; // delayed one shot mode
    28cc:	ee 00 90    	mov.w     [w14+12], w1
    28ce:	40 00 20    	mov.w     #0x4, w0
    28d0:	a0 00 98    	mov.w     w0, [w1+4]
				_EI();
    28d2:	00 00 fc    	disi      #0x0
			};
			break; // end case 6 + 7
    28d4:	e6 01 37    	bra       0x2ca2 <.L58>

000028d6 <.L15>:
		case 8: // 8	Single channel 450Hz PWM output, open drain disabled
		case 9: // 9	Single channel 450Hz PWM output, open drain enabled (normally use this)
			// module not running or called from OC interrupt - ignore calls from T3 once started
			if ((lpOCModule->OCCON == 0) || (iState < 0)) { // delay calculated to make total PWM period at least 2222 uSec (450Hz)
    28d6:	6e 00 90    	mov.w     [w14+12], w0
    28d8:	20 00 90    	mov.w     [w0+4], w0
    28da:	00 00 e0    	cp0.w     w0
    28dc:	03 00 32    	bra       Z, 0x28e4 <.L19>
    28de:	4e 00 90    	mov.w     [w14+8], w0
    28e0:	00 00 e0    	cp0.w     w0
    28e2:	df 01 3d    	bra       GE, 0x2ca2 <.L58>

000028e4 <.L19>:
				// that works out to 11111 T2 counts - just over the 2.2 mSec servo out max
				// techically it will always be a little slower because of interrupt latency
				lpOCModule->OCCON = 0; // turn off
    28e4:	ee 00 90    	mov.w     [w14+12], w1
    28e6:	00 00 eb    	clr.w     w0
    28e8:	a0 00 98    	mov.w     w0, [w1+4]
				wTemp = 11111 - wTemp2; // total length, adjust this constant
    28ea:	70 b6 22    	mov.w     #0x2b67, w0
    28ec:	1e 00 50    	sub.w     w0, [w14], w0
    28ee:	10 07 98    	mov.w     w0, [w14+2]
				if (wTemp < 5) // to allow for interrupt latency
    28f0:	1e 00 90    	mov.w     [w14+2], w0
    28f2:	e4 0f 50    	sub.w     w0, #0x4, [w15]
    28f4:	02 00 3e    	bra       GTU, 0x28fa <.L22>
					wTemp = 5; // min delay time
    28f6:	50 00 20    	mov.w     #0x5, w0
    28f8:	10 07 98    	mov.w     w0, [w14+2]

000028fa <.L22>:
				else;
				_DI(); // disable interrupts while
    28fa:	ff 0f fc    	disi      #0xfff
				wTemp += TMR2; // actually setting these registers
    28fc:	31 08 80    	mov.w     0x106, w1
    28fe:	1e 00 90    	mov.w     [w14+2], w0
    2900:	01 00 40    	add.w     w0, w1, w0
    2902:	10 07 98    	mov.w     w0, [w14+2]
				lpOCModule->OCR = wTemp; // turn on time
    2904:	6e 00 90    	mov.w     [w14+12], w0
    2906:	9e 00 90    	mov.w     [w14+2], w1
    2908:	11 00 98    	mov.w     w1, [w0+2]
				wTemp += wTemp2;
    290a:	1e 00 90    	mov.w     [w14+2], w0
    290c:	1e 00 40    	add.w     w0, [w14], w0
    290e:	10 07 98    	mov.w     w0, [w14+2]
				lpOCModule->OCRS = wTemp; // turn off time
    2910:	6e 00 90    	mov.w     [w14+12], w0
    2912:	1e 01 90    	mov.w     [w14+2], w2
    2914:	02 08 78    	mov.w     w2, [w0]
				lpOCModule->OCCON = 4; // delayed one shot mode
    2916:	ee 00 90    	mov.w     [w14+12], w1
    2918:	40 00 20    	mov.w     #0x4, w0
    291a:	a0 00 98    	mov.w     w0, [w1+4]
				_EI(); // re-enable
    291c:	00 00 fc    	disi      #0x0
			};
			break; // end case 8 + 9
    291e:	c1 01 37    	bra       0x2ca2 <.L58>

00002920 <.L16>:
		case 10: // 10	Multi channel 50Hz PWM output, open drain disabled (4017's)
		case 11: // 11	Multi channel 50Hz PWM output, open drain enabled (4017's normally use this)
			switch (iState) { // depends on reset pin what we do
    2920:	4e 00 90    	mov.w     [w14+8], w0
    2922:	61 01 b9    	mul.su    w0, #0x1, w2
    2924:	90 00 20    	mov.w     #0x9, w0
    2926:	01 00 20    	mov.w     #0x0, w1
    2928:	02 01 40    	add.w     w0, w2, w2
    292a:	83 81 48    	addc.w    w1, w3, w3
    292c:	12 0f 98    	mov.w     w2, [w14+18]
    292e:	23 0f 98    	mov.w     w3, [w14+20]
    2930:	20 01 20    	mov.w     #0x12, w0
    2932:	01 00 20    	mov.w     #0x0, w1
    2934:	1e 09 90    	mov.w     [w14+18], w2
    2936:	ae 09 90    	mov.w     [w14+20], w3
    2938:	80 0f 51    	sub.w     w2, w0, [w15]
    293a:	81 8f 59    	subb.w    w3, w1, [w15]
    293c:	b2 01 3e    	bra       GTU, 0x2ca2 <.L58>
    293e:	1e 08 90    	mov.w     [w14+18], w0
    2940:	ae 08 90    	mov.w     [w14+20], w1
    2942:	00 60 01    	bra       w0
    2944:	48 01 37    	bra       0x2bd6 <_PPM_WITH_RESET>
    2946:	47 01 37    	bra       0x2bd6 <_PPM_WITH_RESET>
    2948:	46 01 37    	bra       0x2bd6 <_PPM_WITH_RESET>
    294a:	45 01 37    	bra       0x2bd6 <_PPM_WITH_RESET>
    294c:	44 01 37    	bra       0x2bd6 <_PPM_WITH_RESET>
    294e:	43 01 37    	bra       0x2bd6 <_PPM_WITH_RESET>
    2950:	42 01 37    	bra       0x2bd6 <_PPM_WITH_RESET>
    2952:	41 01 37    	bra       0x2bd6 <_PPM_WITH_RESET>
    2954:	0e 00 37    	bra       0x2972 <.L32>
    2956:	09 00 37    	bra       0x296a <.L33>
    2958:	08 00 37    	bra       0x296a <.L33>
    295a:	f6 00 37    	bra       0x2b48 <.L34>
    295c:	fe 00 37    	bra       0x2b5a <.L35>
    295e:	06 01 37    	bra       0x2b6c <.L36>
    2960:	0e 01 37    	bra       0x2b7e <.L37>
    2962:	16 01 37    	bra       0x2b90 <.L38>
    2964:	1e 01 37    	bra       0x2ba2 <.L39>
    2966:	26 01 37    	bra       0x2bb4 <.L40>
    2968:	2e 01 37    	bra       0x2bc6 <.L41>

0000296a <.L33>:
				case 0:
				case 1: // ppm output with no reset signal, once started keeps going
					if (lpOCModule->OCCON != 0) // module is running - so ignore's call from T3 once started
    296a:	6e 00 90    	mov.w     [w14+12], w0
    296c:	20 00 90    	mov.w     [w0+4], w0
    296e:	00 00 e0    	cp0.w     w0
    2970:	98 01 3a    	bra       NZ, 0x2ca2 <.L58>

00002972 <.L32>:
						break;
					else;
				case -1: // restart sequence at begining
					lpOCModule->OCCON = 0; // turn off
    2972:	ee 00 90    	mov.w     [w14+12], w1
    2974:	00 00 eb    	clr.w     w0
    2976:	a0 00 98    	mov.w     w0, [w1+4]
					if (lpTag->iIndex == 0) { // soft resync - as there is no reset pin this only happens one time
    2978:	5e 00 90    	mov.w     [w14+10], w0
    297a:	20 00 90    	mov.w     [w0+4], w0
    297c:	6f 00 60    	and.w     w0, #0xf, w0
    297e:	00 00 e0    	cp0.w     w0
    2980:	23 00 3a    	bra       NZ, 0x29c8 <.L43>
						wTemp2 = PPM_SYNC_COUNTS; // do a sync pulse
    2982:	00 65 24    	mov.w     #0x4650, w0
    2984:	00 0f 78    	mov.w     w0, [w14]
						wTemp = TMR2 + 20; // R - when we actually start pulse
    2986:	30 08 80    	mov.w     0x106, w0
    2988:	74 00 40    	add.w     w0, #0x14, w0
    298a:	10 07 98    	mov.w     w0, [w14+2]
						lpTag->wPrivate[0] = wTemp; // save absolute start time
    298c:	5e 00 90    	mov.w     [w14+10], w0
    298e:	9e 00 90    	mov.w     [w14+2], w1
    2990:	41 00 98    	mov.w     w1, [w0+8]
						lpTag->wPrivate[1] = T2_OF; // save absolute start time
    2992:	e1 52 80    	mov.w     0xa5c, w1
    2994:	5e 00 90    	mov.w     [w14+10], w0
    2996:	51 00 98    	mov.w     w1, [w0+10]
						lpTag->dwPrivate[1] = lpTag->dwPrivate[0] + wTemp2; // store absolute start time
    2998:	5e 00 90    	mov.w     [w14+10], w0
    299a:	40 01 90    	mov.w     [w0+8], w2
    299c:	d0 01 90    	mov.w     [w0+10], w3
    299e:	1e 00 78    	mov.w     [w14], w0
    29a0:	01 00 20    	mov.w     #0x0, w1
    29a2:	02 00 40    	add.w     w0, w2, w0
    29a4:	83 80 48    	addc.w    w1, w3, w1
    29a6:	5e 01 90    	mov.w     [w14+10], w2
    29a8:	60 01 98    	mov.w     w0, [w2+12]
    29aa:	71 01 98    	mov.w     w1, [w2+14]
						lpTag->dwPrivate[1] -= 100000L; // store absolute start time
    29ac:	5e 00 90    	mov.w     [w14+10], w0
    29ae:	60 01 90    	mov.w     [w0+12], w2
    29b0:	f0 01 90    	mov.w     [w0+14], w3
    29b2:	00 96 27    	mov.w     #0x7960, w0
    29b4:	e1 ff 2f    	mov.w     #0xfffe, w1
    29b6:	02 00 40    	add.w     w0, w2, w0
    29b8:	83 80 48    	addc.w    w1, w3, w1
    29ba:	5e 01 90    	mov.w     [w14+10], w2
    29bc:	60 01 98    	mov.w     w0, [w2+12]
    29be:	71 01 98    	mov.w     w1, [w2+14]
						lpTag->wBuffer[0] = wTemp; // start time of next pulse = len this one
    29c0:	5e 00 90    	mov.w     [w14+10], w0
    29c2:	1e 01 90    	mov.w     [w14+2], w2
    29c4:	02 08 98    	mov.w     w2, [w0+16]
						goto PPM_NO_RESET; // start it up
    29c6:	48 00 37    	bra       0x2a58 <_PPM_NO_RESET>

000029c8 <.L43>:
					} else
						if (lpTag->iIndex == 9) { // variable length pulse to get us up to 20ms - sync pulse length
    29c8:	5e 00 90    	mov.w     [w14+10], w0
    29ca:	20 00 90    	mov.w     [w0+4], w0
    29cc:	6f 00 60    	and.w     w0, #0xf, w0
    29ce:	e9 0f 50    	sub.w     w0, #0x9, [w15]
    29d0:	3e 00 3a    	bra       NZ, 0x2a4e <.L46>
						lpTag->iIndex = 10;
    29d2:	5e 01 90    	mov.w     [w14+10], w2
    29d4:	a2 00 90    	mov.w     [w2+4], w1
    29d6:	00 ff 2f    	mov.w     #0xfff0, w0
    29d8:	00 80 60    	and.w     w1, w0, w0
    29da:	a0 00 b3    	ior.w     #0xa, w0
    29dc:	20 01 98    	mov.w     w0, [w2+4]
						dwTemp = 100000L - (lpTag->dwPrivate[0] - lpTag->dwPrivate[1]);
    29de:	5e 00 90    	mov.w     [w14+10], w0
    29e0:	40 01 90    	mov.w     [w0+8], w2
    29e2:	d0 01 90    	mov.w     [w0+10], w3
    29e4:	5e 00 90    	mov.w     [w14+10], w0
    29e6:	f0 00 90    	mov.w     [w0+14], w1
    29e8:	60 00 90    	mov.w     [w0+12], w0
    29ea:	00 01 51    	sub.w     w2, w0, w2
    29ec:	81 81 59    	subb.w    w3, w1, w3
    29ee:	00 6a 28    	mov.w     #0x86a0, w0
    29f0:	11 00 20    	mov.w     #0x1, w1
    29f2:	02 00 50    	sub.w     w0, w2, w0
    29f4:	83 80 58    	subb.w    w1, w3, w1
    29f6:	20 07 98    	mov.w     w0, [w14+4]
    29f8:	31 07 98    	mov.w     w1, [w14+6]
						if (dwTemp < (PPM_SYNC_COUNTS + PPM_LATENCY)) // going to be a problem, not enough counts for delay
    29fa:	2e 01 90    	mov.w     [w14+4], w2
    29fc:	be 01 90    	mov.w     [w14+6], w3
    29fe:	70 71 24    	mov.w     #0x4717, w0
    2a00:	01 00 20    	mov.w     #0x0, w1
    2a02:	80 0f 51    	sub.w     w2, w0, [w15]
    2a04:	81 8f 59    	subb.w    w3, w1, [w15]
    2a06:	05 00 3e    	bra       GTU, 0x2a12 <.L48>
							dwTemp = PPM_LATENCY + 1; // use min possible
    2a08:	90 0c 20    	mov.w     #0xc9, w0
    2a0a:	01 00 20    	mov.w     #0x0, w1
    2a0c:	20 07 98    	mov.w     w0, [w14+4]
    2a0e:	31 07 98    	mov.w     w1, [w14+6]
    2a10:	08 00 37    	bra       0x2a22 <.L50>

00002a12 <.L48>:
						else dwTemp -= PPM_SYNC_COUNTS; // leave this much time to calc delay
    2a12:	2e 00 90    	mov.w     [w14+4], w0
    2a14:	be 00 90    	mov.w     [w14+6], w1
    2a16:	02 9b 2b    	mov.w     #0xb9b0, w2
    2a18:	f3 ff 2f    	mov.w     #0xffff, w3
    2a1a:	00 00 41    	add.w     w2, w0, w0
    2a1c:	81 80 49    	addc.w    w3, w1, w1
    2a1e:	20 07 98    	mov.w     w0, [w14+4]
    2a20:	31 07 98    	mov.w     w1, [w14+6]

00002a22 <.L50>:
						lpTag->dwPrivate[0] += dwTemp; // add to start time
    2a22:	5e 00 90    	mov.w     [w14+10], w0
    2a24:	40 01 90    	mov.w     [w0+8], w2
    2a26:	d0 01 90    	mov.w     [w0+10], w3
    2a28:	2e 00 90    	mov.w     [w14+4], w0
    2a2a:	be 00 90    	mov.w     [w14+6], w1
    2a2c:	02 00 40    	add.w     w0, w2, w0
    2a2e:	83 80 48    	addc.w    w1, w3, w1
    2a30:	5e 01 90    	mov.w     [w14+10], w2
    2a32:	40 01 98    	mov.w     w0, [w2+8]
    2a34:	51 01 98    	mov.w     w1, [w2+10]
						wTemp = lpTag->wBuffer[0]; // R - get short version
    2a36:	5e 00 90    	mov.w     [w14+10], w0
    2a38:	80 09 90    	mov.w     [w0+16], w3
    2a3a:	13 07 98    	mov.w     w3, [w14+2]
						wTemp2 = wTemp + dwTemp; // add actual start time
    2a3c:	ae 00 90    	mov.w     [w14+4], w1
    2a3e:	1e 00 90    	mov.w     [w14+2], w0
    2a40:	00 8f 40    	add.w     w1, w0, [w14]
						lpTag->wBuffer[0] = wTemp2; // start time of next pulse = len this one
    2a42:	5e 00 90    	mov.w     [w14+10], w0
    2a44:	9e 00 78    	mov.w     [w14], w1
    2a46:	01 08 98    	mov.w     w1, [w0+16]
						wTemp2 -= PPM_LATENCY; // RS value with grace for interrupt overhead
    2a48:	80 f3 2f    	mov.w     #0xff38, w0
    2a4a:	1e 0f 40    	add.w     w0, [w14], [w14]
    2a4c:	72 00 37    	bra       0x2b32 <.L51>

00002a4e <.L46>:
					} else
						if (lpTag->iIndex == 10) { // sync pulse length - should be exact unless the 9th did not have enough counts available
    2a4e:	5e 00 90    	mov.w     [w14+10], w0
    2a50:	20 00 90    	mov.w     [w0+4], w0
    2a52:	6f 00 60    	and.w     w0, #0xf, w0
    2a54:	ea 0f 50    	sub.w     w0, #0xa, [w15]
    2a56:	3b 00 3a    	bra       NZ, 0x2ace <.L52>

00002a58 <_PPM_NO_RESET>:
PPM_NO_RESET:
						lpTag->iIndex = 1; // and back to begining
    2a58:	5e 01 90    	mov.w     [w14+10], w2
    2a5a:	a2 00 90    	mov.w     [w2+4], w1
    2a5c:	00 ff 2f    	mov.w     #0xfff0, w0
    2a5e:	00 80 60    	and.w     w1, w0, w0
    2a60:	00 00 a0    	bset.w    w0, #0x0
    2a62:	20 01 98    	mov.w     w0, [w2+4]
						dwTemp = 100000L - (lpTag->dwPrivate[0] - lpTag->dwPrivate[1]); // 20mSec - duration so far
    2a64:	5e 00 90    	mov.w     [w14+10], w0
    2a66:	40 01 90    	mov.w     [w0+8], w2
    2a68:	d0 01 90    	mov.w     [w0+10], w3
    2a6a:	5e 00 90    	mov.w     [w14+10], w0
    2a6c:	f0 00 90    	mov.w     [w0+14], w1
    2a6e:	60 00 90    	mov.w     [w0+12], w0
    2a70:	00 01 51    	sub.w     w2, w0, w2
    2a72:	81 81 59    	subb.w    w3, w1, w3
    2a74:	00 6a 28    	mov.w     #0x86a0, w0
    2a76:	11 00 20    	mov.w     #0x1, w1
    2a78:	02 00 50    	sub.w     w0, w2, w0
    2a7a:	83 80 58    	subb.w    w1, w3, w1
    2a7c:	20 07 98    	mov.w     w0, [w14+4]
    2a7e:	31 07 98    	mov.w     w1, [w14+6]
						if (dwTemp < PPM_SYNC_COUNTS) // going to be a problem, not enough counts for delay
    2a80:	2e 01 90    	mov.w     [w14+4], w2
    2a82:	be 01 90    	mov.w     [w14+6], w3
    2a84:	f0 64 24    	mov.w     #0x464f, w0
    2a86:	01 00 20    	mov.w     #0x0, w1
    2a88:	80 0f 51    	sub.w     w2, w0, [w15]
    2a8a:	81 8f 59    	subb.w    w3, w1, [w15]
    2a8c:	04 00 3e    	bra       GTU, 0x2a96 <.L53>
							dwTemp = PPM_SYNC_COUNTS; // use min possible
    2a8e:	00 65 24    	mov.w     #0x4650, w0
    2a90:	01 00 20    	mov.w     #0x0, w1
    2a92:	20 07 98    	mov.w     w0, [w14+4]
    2a94:	31 07 98    	mov.w     w1, [w14+6]

00002a96 <.L53>:
						else; // leave this much time to calc delay
						lpTag->dwPrivate[0] += dwTemp; // add to start time - should make exactly 100k counts
    2a96:	5e 00 90    	mov.w     [w14+10], w0
    2a98:	40 01 90    	mov.w     [w0+8], w2
    2a9a:	d0 01 90    	mov.w     [w0+10], w3
    2a9c:	2e 00 90    	mov.w     [w14+4], w0
    2a9e:	be 00 90    	mov.w     [w14+6], w1
    2aa0:	02 00 40    	add.w     w0, w2, w0
    2aa2:	83 80 48    	addc.w    w1, w3, w1
    2aa4:	5e 01 90    	mov.w     [w14+10], w2
    2aa6:	40 01 98    	mov.w     w0, [w2+8]
    2aa8:	51 01 98    	mov.w     w1, [w2+10]
						wTemp = lpTag->wBuffer[0]; // R - get short version
    2aaa:	5e 00 90    	mov.w     [w14+10], w0
    2aac:	00 09 90    	mov.w     [w0+16], w2
    2aae:	12 07 98    	mov.w     w2, [w14+2]
						wTemp2 = wTemp + dwTemp; // add actual start time
    2ab0:	ae 00 90    	mov.w     [w14+4], w1
    2ab2:	1e 00 90    	mov.w     [w14+2], w0
    2ab4:	00 8f 40    	add.w     w1, w0, [w14]
						lpTag->wBuffer[0] = wTemp2; // start time of next pulse = len this one
    2ab6:	5e 00 90    	mov.w     [w14+10], w0
    2ab8:	9e 01 78    	mov.w     [w14], w3
    2aba:	03 08 98    	mov.w     w3, [w0+16]
						wTemp2 -= PPM_LATENCY; // RS value with grace for interrupt overhead
    2abc:	80 f3 2f    	mov.w     #0xff38, w0
    2abe:	1e 0f 40    	add.w     w0, [w14], [w14]
						lpTag->dwPrivate[1] = lpTag->dwPrivate[0]; // store absolute start time
    2ac0:	5e 00 90    	mov.w     [w14+10], w0
    2ac2:	d0 00 90    	mov.w     [w0+10], w1
    2ac4:	40 00 90    	mov.w     [w0+8], w0
    2ac6:	5e 01 90    	mov.w     [w14+10], w2
    2ac8:	60 01 98    	mov.w     w0, [w2+12]
    2aca:	71 01 98    	mov.w     w1, [w2+14]
    2acc:	32 00 37    	bra       0x2b32 <.L51>

00002ace <.L52>:
					} else {
						wTemp = lpTag->iGlobal + lpTag->iIndex - 1; // both 1 based
    2ace:	5e 00 90    	mov.w     [w14+10], w0
    2ad0:	30 00 90    	mov.w     [w0+6], w0
    2ad2:	f0 43 b2    	and.b     #0x3f, w0
    2ad4:	80 80 fb    	ze        w0, w1
    2ad6:	5e 00 90    	mov.w     [w14+10], w0
    2ad8:	20 00 90    	mov.w     [w0+4], w0
    2ada:	6f 40 60    	and.b     w0, #0xf, w0
    2adc:	00 80 fb    	ze        w0, w0
    2ade:	00 80 40    	add.w     w1, w0, w0
    2ae0:	00 00 e9    	dec.w     w0, w0
    2ae2:	10 07 98    	mov.w     w0, [w14+2]
						wTemp2 = udb_pwOut[wTemp]; // get PWM on time
    2ae4:	1e 00 90    	mov.w     [w14+2], w0
    2ae6:	80 00 40    	add.w     w0, w0, w1
    2ae8:	20 ba 20    	mov.w     #0xba2, w0
    2aea:	00 80 40    	add.w     w1, w0, w0
    2aec:	10 00 78    	mov.w     [w0], w0
    2aee:	00 0f 78    	mov.w     w0, [w14]
						lpTag->dwPrivate[0] += wTemp2; // add to start time
    2af0:	5e 00 90    	mov.w     [w14+10], w0
    2af2:	40 01 90    	mov.w     [w0+8], w2
    2af4:	d0 01 90    	mov.w     [w0+10], w3
    2af6:	1e 00 78    	mov.w     [w14], w0
    2af8:	01 00 20    	mov.w     #0x0, w1
    2afa:	02 00 40    	add.w     w0, w2, w0
    2afc:	83 80 48    	addc.w    w1, w3, w1
    2afe:	5e 01 90    	mov.w     [w14+10], w2
    2b00:	40 01 98    	mov.w     w0, [w2+8]
    2b02:	51 01 98    	mov.w     w1, [w2+10]
						wTemp = lpTag->wBuffer[0]; // R - get short version
    2b04:	5e 00 90    	mov.w     [w14+10], w0
    2b06:	80 08 90    	mov.w     [w0+16], w1
    2b08:	11 07 98    	mov.w     w1, [w14+2]
						wTemp2 += wTemp; // add actual start time
    2b0a:	1e 00 90    	mov.w     [w14+2], w0
    2b0c:	1e 0f 40    	add.w     w0, [w14], [w14]
						lpTag->wBuffer[0] = wTemp2; // start time of next pulse = len this one
    2b0e:	5e 00 90    	mov.w     [w14+10], w0
    2b10:	1e 01 78    	mov.w     [w14], w2
    2b12:	02 08 98    	mov.w     w2, [w0+16]
						wTemp2 -= PPM_LATENCY; // RS value with grace for interrupt overhead
    2b14:	80 f3 2f    	mov.w     #0xff38, w0
    2b16:	1e 0f 40    	add.w     w0, [w14], [w14]
						lpTag->iIndex++; // point to next one
    2b18:	5e 00 90    	mov.w     [w14+10], w0
    2b1a:	20 00 90    	mov.w     [w0+4], w0
    2b1c:	6f 40 60    	and.b     w0, #0xf, w0
    2b1e:	00 40 e8    	inc.b     w0, w0
    2b20:	6f 40 60    	and.b     w0, #0xf, w0
    2b22:	5e 01 90    	mov.w     [w14+10], w2
    2b24:	00 80 fb    	ze        w0, w0
    2b26:	ef 01 60    	and.w     w0, #0xf, w3
    2b28:	a2 00 90    	mov.w     [w2+4], w1
    2b2a:	00 ff 2f    	mov.w     #0xfff0, w0
    2b2c:	00 80 60    	and.w     w1, w0, w0
    2b2e:	03 00 70    	ior.w     w0, w3, w0
    2b30:	20 01 98    	mov.w     w0, [w2+4]

00002b32 <.L51>:
					}
					_DI(); // disable interrupts while
    2b32:	ff 0f fc    	disi      #0xfff
					lpOCModule->OCR = wTemp; // turn on time
    2b34:	6e 00 90    	mov.w     [w14+12], w0
    2b36:	9e 01 90    	mov.w     [w14+2], w3
    2b38:	13 00 98    	mov.w     w3, [w0+2]
					lpOCModule->OCRS = wTemp2; // turn off time
    2b3a:	6e 00 90    	mov.w     [w14+12], w0
    2b3c:	1e 08 78    	mov.w     [w14], [w0]
					lpOCModule->OCCON = 4; // delayed one shot mode
    2b3e:	ee 00 90    	mov.w     [w14+12], w1
    2b40:	40 00 20    	mov.w     #0x4, w0
    2b42:	a0 00 98    	mov.w     w0, [w1+4]
					_EI(); // re-enable
    2b44:	00 00 fc    	disi      #0x0
					break; // end case 1 & -1 (no reset pin)
    2b46:	ad 00 37    	bra       0x2ca2 <.L58>

00002b48 <.L34>:
				case 2: // IT1 reset pin
					oIT1 = 1; // reset on 4017
    2b48:	d0 82 a8    	bset.b    0x2d0, #0x4
					lpTag->iIndex = 1;
    2b4a:	5e 01 90    	mov.w     [w14+10], w2
    2b4c:	a2 00 90    	mov.w     [w2+4], w1
    2b4e:	00 ff 2f    	mov.w     #0xfff0, w0
    2b50:	00 80 60    	and.w     w1, w0, w0
    2b52:	00 00 a0    	bset.w    w0, #0x0
    2b54:	20 01 98    	mov.w     w0, [w2+4]
					oIT1 = 0; // release reset on 4017, restart index
    2b56:	d0 82 a9    	bclr.b    0x2d0, #0x4
				case -2:
					goto PPM_WITH_RESET;
    2b58:	3e 00 37    	bra       0x2bd6 <_PPM_WITH_RESET>

00002b5a <.L35>:
					break; // end iState case 2 + -2
				case 3: // IT2 reset pin
					oIT2 = 1; // reset on 4017
    2b5a:	d0 62 a8    	bset.b    0x2d0, #0x3
					lpTag->iIndex = 1;
    2b5c:	5e 01 90    	mov.w     [w14+10], w2
    2b5e:	a2 00 90    	mov.w     [w2+4], w1
    2b60:	00 ff 2f    	mov.w     #0xfff0, w0
    2b62:	00 80 60    	and.w     w1, w0, w0
    2b64:	00 00 a0    	bset.w    w0, #0x0
    2b66:	20 01 98    	mov.w     w0, [w2+4]
					oIT2 = 0; // release reset on 4017
    2b68:	d0 62 a9    	bclr.b    0x2d0, #0x3
				case -3:
					goto PPM_WITH_RESET;
    2b6a:	35 00 37    	bra       0x2bd6 <_PPM_WITH_RESET>

00002b6c <.L36>:
					break; // end iState case 3 + -3
				case 4: // IT3 reset pin
					oIT3 = 1; // reset on 4017
    2b6c:	d0 42 a8    	bset.b    0x2d0, #0x2
					lpTag->iIndex = 1;
    2b6e:	5e 01 90    	mov.w     [w14+10], w2
    2b70:	a2 00 90    	mov.w     [w2+4], w1
    2b72:	00 ff 2f    	mov.w     #0xfff0, w0
    2b74:	00 80 60    	and.w     w1, w0, w0
    2b76:	00 00 a0    	bset.w    w0, #0x0
    2b78:	20 01 98    	mov.w     w0, [w2+4]
					oIT3 = 0; // release reset on 4017
    2b7a:	d0 42 a9    	bclr.b    0x2d0, #0x2
				case -4:
					goto PPM_WITH_RESET;
    2b7c:	2c 00 37    	bra       0x2bd6 <_PPM_WITH_RESET>

00002b7e <.L37>:
					break; // end iState case 4 + -4
				case 5: // IT4 reset pin
					oIT4 = 1; // reset on 4017
    2b7e:	d0 22 a8    	bset.b    0x2d0, #0x1
					lpTag->iIndex = 1;
    2b80:	5e 01 90    	mov.w     [w14+10], w2
    2b82:	a2 00 90    	mov.w     [w2+4], w1
    2b84:	00 ff 2f    	mov.w     #0xfff0, w0
    2b86:	00 80 60    	and.w     w1, w0, w0
    2b88:	00 00 a0    	bset.w    w0, #0x0
    2b8a:	20 01 98    	mov.w     w0, [w2+4]
					oIT4 = 0; // release reset on 4017
    2b8c:	d0 22 a9    	bclr.b    0x2d0, #0x1
				case -5:
					goto PPM_WITH_RESET;
    2b8e:	23 00 37    	bra       0x2bd6 <_PPM_WITH_RESET>

00002b90 <.L38>:
					break; // end iState case 5 + -5
				case 6: // DIGITAL9 reset pin
					oDIGITAL9 = 1; // reset on 4017
    2b90:	c5 c2 a8    	bset.b    0x2c5, #0x6
					lpTag->iIndex = 1;
    2b92:	5e 01 90    	mov.w     [w14+10], w2
    2b94:	a2 00 90    	mov.w     [w2+4], w1
    2b96:	00 ff 2f    	mov.w     #0xfff0, w0
    2b98:	00 80 60    	and.w     w1, w0, w0
    2b9a:	00 00 a0    	bset.w    w0, #0x0
    2b9c:	20 01 98    	mov.w     w0, [w2+4]
					oDIGITAL9 = 0; // release reset on 4017
    2b9e:	c5 c2 a9    	bclr.b    0x2c5, #0x6
				case -6:
					goto PPM_WITH_RESET;
    2ba0:	1a 00 37    	bra       0x2bd6 <_PPM_WITH_RESET>

00002ba2 <.L39>:
					break; // end iState case 6 + -6
				case 7: // DIGITAL10 reset pin
					oDIGITAL10 = 1; // reset on 4017
    2ba2:	c5 e2 a8    	bset.b    0x2c5, #0x7
					lpTag->iIndex = 1;
    2ba4:	5e 01 90    	mov.w     [w14+10], w2
    2ba6:	a2 00 90    	mov.w     [w2+4], w1
    2ba8:	00 ff 2f    	mov.w     #0xfff0, w0
    2baa:	00 80 60    	and.w     w1, w0, w0
    2bac:	00 00 a0    	bset.w    w0, #0x0
    2bae:	20 01 98    	mov.w     w0, [w2+4]
					oDIGITAL10 = 0; // release reset on 4017
    2bb0:	c5 e2 a9    	bclr.b    0x2c5, #0x7
				case -7:
					goto PPM_WITH_RESET;
    2bb2:	11 00 37    	bra       0x2bd6 <_PPM_WITH_RESET>

00002bb4 <.L40>:
					break; // end iState case 7 + -7
				case 8: // OUT1 / Digital4 reset pin
					oDIGITAL4 = 1; // reset on 4017
    2bb4:	e9 e2 a8    	bset.b    0x2e9, #0x7
					lpTag->iIndex = 1;
    2bb6:	5e 01 90    	mov.w     [w14+10], w2
    2bb8:	a2 00 90    	mov.w     [w2+4], w1
    2bba:	00 ff 2f    	mov.w     #0xfff0, w0
    2bbc:	00 80 60    	and.w     w1, w0, w0
    2bbe:	00 00 a0    	bset.w    w0, #0x0
    2bc0:	20 01 98    	mov.w     w0, [w2+4]
					oDIGITAL4 = 0; // release reset on 4017
    2bc2:	e9 e2 a9    	bclr.b    0x2e9, #0x7
				case -8:
					goto PPM_WITH_RESET;
    2bc4:	08 00 37    	bra       0x2bd6 <_PPM_WITH_RESET>

00002bc6 <.L41>:
					break; // end iState case 8 + -8
				case 9: // Buzzer / AN5 reset pin
					oBUZZER1 = 1; // reset on 4017
    2bc6:	ca a2 a8    	bset.b    0x2ca, #0x5
					lpTag->iIndex = 1;
    2bc8:	5e 01 90    	mov.w     [w14+10], w2
    2bca:	a2 00 90    	mov.w     [w2+4], w1
    2bcc:	00 ff 2f    	mov.w     #0xfff0, w0
    2bce:	00 80 60    	and.w     w1, w0, w0
    2bd0:	00 00 a0    	bset.w    w0, #0x0
    2bd2:	20 01 98    	mov.w     w0, [w2+4]
					oBUZZER1 = 0; // release reset on 4017
    2bd4:	ca a2 a9    	bclr.b    0x2ca, #0x5

00002bd6 <_PPM_WITH_RESET>:
				case -9:
					PPM_WITH_RESET :
							lpOCModule->OCCON = 0; // turn off
    2bd6:	ee 00 90    	mov.w     [w14+12], w1
    2bd8:	00 00 eb    	clr.w     w0
    2bda:	a0 00 98    	mov.w     w0, [w1+4]
					if (lpTag->iIndex == 1) {
    2bdc:	5e 00 90    	mov.w     [w14+10], w0
    2bde:	20 00 90    	mov.w     [w0+4], w0
    2be0:	6f 00 60    	and.w     w0, #0xf, w0
    2be2:	e1 0f 50    	sub.w     w0, #0x1, [w15]
    2be4:	28 00 3a    	bra       NZ, 0x2c36 <.L55>
						wTemp = TMR2 + 10; // R - when we actually start pulse
    2be6:	30 08 80    	mov.w     0x106, w0
    2be8:	6a 00 40    	add.w     w0, #0xa, w0
    2bea:	10 07 98    	mov.w     w0, [w14+2]
						lpTag->wPrivate[2] = wTemp; // save absolute start time
    2bec:	5e 00 90    	mov.w     [w14+10], w0
    2bee:	9e 00 90    	mov.w     [w14+2], w1
    2bf0:	61 00 98    	mov.w     w1, [w0+12]
						lpTag->wPrivate[3] = T2_OF; // save absolute start time
    2bf2:	e1 52 80    	mov.w     0xa5c, w1
    2bf4:	5e 00 90    	mov.w     [w14+10], w0
    2bf6:	71 00 98    	mov.w     w1, [w0+14]
						wTemp2 += wTemp; // add actual start time
    2bf8:	1e 00 90    	mov.w     [w14+2], w0
    2bfa:	1e 0f 40    	add.w     w0, [w14], [w14]
						lpTag->wBuffer[0] = wTemp2; // start time of next pulse = len this one
    2bfc:	5e 00 90    	mov.w     [w14+10], w0
    2bfe:	1e 01 78    	mov.w     [w14], w2
    2c00:	02 08 98    	mov.w     w2, [w0+16]
						wTemp2 -= PPM_LATENCY; // RS value with grace for interrupt overhead
    2c02:	80 f3 2f    	mov.w     #0xff38, w0
    2c04:	1e 0f 40    	add.w     w0, [w14], [w14]
						lpTag->iIndex++;
    2c06:	5e 00 90    	mov.w     [w14+10], w0
    2c08:	20 00 90    	mov.w     [w0+4], w0
    2c0a:	6f 40 60    	and.b     w0, #0xf, w0
    2c0c:	00 40 e8    	inc.b     w0, w0
    2c0e:	6f 40 60    	and.b     w0, #0xf, w0
    2c10:	5e 01 90    	mov.w     [w14+10], w2
    2c12:	00 80 fb    	ze        w0, w0
    2c14:	ef 01 60    	and.w     w0, #0xf, w3
    2c16:	a2 00 90    	mov.w     [w2+4], w1
    2c18:	00 ff 2f    	mov.w     #0xfff0, w0
    2c1a:	00 80 60    	and.w     w1, w0, w0
    2c1c:	03 00 70    	ior.w     w0, w3, w0
    2c1e:	20 01 98    	mov.w     w0, [w2+4]
						_DI(); // disable interrupts while
    2c20:	ff 0f fc    	disi      #0xfff
						lpOCModule->OCR = wTemp; // turn on time
    2c22:	6e 00 90    	mov.w     [w14+12], w0
    2c24:	9e 01 90    	mov.w     [w14+2], w3
    2c26:	13 00 98    	mov.w     w3, [w0+2]
						lpOCModule->OCRS = wTemp2; // turn off time
    2c28:	6e 00 90    	mov.w     [w14+12], w0
    2c2a:	1e 08 78    	mov.w     [w14], [w0]
						lpOCModule->OCCON = 4; // delayed one shot mode
    2c2c:	ee 00 90    	mov.w     [w14+12], w1
    2c2e:	40 00 20    	mov.w     #0x4, w0
    2c30:	a0 00 98    	mov.w     w0, [w1+4]
						_EI(); // re-enable
    2c32:	00 00 fc    	disi      #0x0
    2c34:	36 00 37    	bra       0x2ca2 <.L58>

00002c36 <.L55>:
					} else
						if (lpTag->iIndex <= 8) {
    2c36:	5e 00 90    	mov.w     [w14+10], w0
    2c38:	20 00 90    	mov.w     [w0+4], w0
    2c3a:	6f 40 60    	and.b     w0, #0xf, w0
    2c3c:	00 80 fb    	ze        w0, w0
    2c3e:	e8 0f 50    	sub.w     w0, #0x8, [w15]
    2c40:	30 00 3c    	bra       GT, 0x2ca2 <.L58>
						wTemp2 = udb_pwOut[lpTag->iGlobal + lpTag->iIndex - 1]; // get PWM on time
    2c42:	5e 00 90    	mov.w     [w14+10], w0
    2c44:	30 00 90    	mov.w     [w0+6], w0
    2c46:	f0 43 b2    	and.b     #0x3f, w0
    2c48:	80 80 fb    	ze        w0, w1
    2c4a:	5e 00 90    	mov.w     [w14+10], w0
    2c4c:	20 00 90    	mov.w     [w0+4], w0
    2c4e:	6f 40 60    	and.b     w0, #0xf, w0
    2c50:	00 80 fb    	ze        w0, w0
    2c52:	00 80 40    	add.w     w1, w0, w0
    2c54:	00 00 e9    	dec.w     w0, w0
    2c56:	80 00 40    	add.w     w0, w0, w1
    2c58:	20 ba 20    	mov.w     #0xba2, w0
    2c5a:	00 80 40    	add.w     w1, w0, w0
    2c5c:	10 00 78    	mov.w     [w0], w0
    2c5e:	00 0f 78    	mov.w     w0, [w14]
						wTemp = lpTag->wBuffer[0]; // start time of next pulse = len this one
    2c60:	5e 00 90    	mov.w     [w14+10], w0
    2c62:	80 08 90    	mov.w     [w0+16], w1
    2c64:	11 07 98    	mov.w     w1, [w14+2]
						wTemp2 += wTemp; // add actual start time
    2c66:	1e 00 90    	mov.w     [w14+2], w0
    2c68:	1e 0f 40    	add.w     w0, [w14], [w14]
						lpTag->wBuffer[0] = wTemp2; // start time of next pulse = len this one
    2c6a:	5e 00 90    	mov.w     [w14+10], w0
    2c6c:	1e 01 78    	mov.w     [w14], w2
    2c6e:	02 08 98    	mov.w     w2, [w0+16]
						wTemp2 -= PPM_LATENCY; // RS value with grace for interrupt overhead
    2c70:	80 f3 2f    	mov.w     #0xff38, w0
    2c72:	1e 0f 40    	add.w     w0, [w14], [w14]
						lpTag->iIndex++;
    2c74:	5e 00 90    	mov.w     [w14+10], w0
    2c76:	20 00 90    	mov.w     [w0+4], w0
    2c78:	6f 40 60    	and.b     w0, #0xf, w0
    2c7a:	00 40 e8    	inc.b     w0, w0
    2c7c:	6f 40 60    	and.b     w0, #0xf, w0
    2c7e:	5e 01 90    	mov.w     [w14+10], w2
    2c80:	00 80 fb    	ze        w0, w0
    2c82:	ef 01 60    	and.w     w0, #0xf, w3
    2c84:	a2 00 90    	mov.w     [w2+4], w1
    2c86:	00 ff 2f    	mov.w     #0xfff0, w0
    2c88:	00 80 60    	and.w     w1, w0, w0
    2c8a:	03 00 70    	ior.w     w0, w3, w0
    2c8c:	20 01 98    	mov.w     w0, [w2+4]
						_DI(); // disable interrupts while
    2c8e:	ff 0f fc    	disi      #0xfff
						lpOCModule->OCR = wTemp; // turn on time
    2c90:	6e 00 90    	mov.w     [w14+12], w0
    2c92:	9e 01 90    	mov.w     [w14+2], w3
    2c94:	13 00 98    	mov.w     w3, [w0+2]
						lpOCModule->OCRS = wTemp2; // turn off time
    2c96:	6e 00 90    	mov.w     [w14+12], w0
    2c98:	1e 08 78    	mov.w     [w14], [w0]
						lpOCModule->OCCON = 4; // delayed one shot mode
    2c9a:	ee 00 90    	mov.w     [w14+12], w1
    2c9c:	40 00 20    	mov.w     #0x4, w0
    2c9e:	a0 00 98    	mov.w     w0, [w1+4]
						_EI(); // re-enable
    2ca0:	00 00 fc    	disi      #0x0

00002ca2 <.L58>:
					};
					break; // end iState case 9 + -9
				default:
					break; // end iState default
			}
			break; // end case 10 + 11
	}
}
    2ca2:	00 80 fa    	ulnk      
    2ca4:	00 00 06    	return    

00002ca6 <_udb_gyro_autoZero>:

void udb_gyro_autoZero(void) {
    2ca6:	00 00 fa    	lnk       #0x0
	oAZ_Y = oAZ_XZ = 1; // turn on gyro AZ
    2ca8:	e9 a2 a8    	bset.b    0x2e9, #0x5
    2caa:	e9 c2 bf    	mov.b     0x2e9, WREG
    2cac:	00 80 fb    	ze        w0, w0
    2cae:	45 00 de    	lsr.w     w0, #0x5, w0
    2cb0:	61 40 60    	and.b     w0, #0x1, w0
    2cb2:	61 40 60    	and.b     w0, #0x1, w0
    2cb4:	44 01 dd    	sl.w      w0, #0x4, w2
    2cb6:	91 2e 20    	mov.w     #0x2e9, w1
    2cb8:	91 40 78    	mov.b     [w1], w1
    2cba:	f0 ce b3    	mov.b     #0xef, w0
    2cbc:	00 c0 60    	and.b     w1, w0, w0
    2cbe:	02 40 70    	ior.b     w0, w2, w0
    2cc0:	e9 e2 b7    	mov.b     WREG, 0x2e9

}
    2cc2:	00 80 fa    	ulnk      
    2cc4:	00 00 06    	return    

00002cc6 <__T3Interrupt>:
LEDCTRL ThrottleLed;

// this interrupt runs every 1mSec with 80MHz osc and 40000 preload

void __attribute__((__interrupt__, __no_auto_psv__)) _T3Interrupt(void) {
    2cc6:	36 00 f8    	push      0x36
    2cc8:	80 9f be    	mov.d     w0, [w15++]
    2cca:	82 9f be    	mov.d     w2, [w15++]
    2ccc:	84 9f be    	mov.d     w4, [w15++]
    2cce:	86 9f be    	mov.d     w6, [w15++]
    2cd0:	02 00 fa    	lnk       #0x2
	// interrupt_save_extended_state ;
	//	WORD	wTemp;

	indicate_loading_inter;
    2cd2:	21 e1 a8    	bset.b    0x121, #0x7
	_T3IF = 0; // clear the interrupt
    2cd4:	85 00 a9    	bclr.b    0x85, #0x0
	tagUSec_x40.WW += TMR3_PERIOD;
    2cd6:	c0 c2 20    	mov.w     #0xc2c, w0
    2cd8:	30 02 be    	mov.d     [w0++], w4
    2cda:	20 03 be    	mov.d     [w0--], w6
    2cdc:	00 c4 29    	mov.w     #0x9c40, w0
    2cde:	01 00 20    	mov.w     #0x0, w1
    2ce0:	60 11 b8    	mul.uu    w2, #0x0, w2
    2ce2:	04 00 40    	add.w     w0, w4, w0
    2ce4:	85 80 48    	addc.w    w1, w5, w1
    2ce6:	06 01 49    	addc.w    w2, w6, w2
    2ce8:	87 81 49    	addc.w    w3, w7, w3
    2cea:	c4 c2 20    	mov.w     #0xc2c, w4
    2cec:	00 9a be    	mov.d     w0, [w4++]
    2cee:	02 92 be    	mov.d     w2, [w4--]

	dwMilliSec++, iFrameCounter++;
    2cf0:	a0 61 80    	mov.w     0xc34, w0
    2cf2:	b1 61 80    	mov.w     0xc36, w1
    2cf4:	61 00 40    	add.w     w0, #0x1, w0
    2cf6:	e0 80 48    	addc.w    w1, #0x0, w1
    2cf8:	a0 61 88    	mov.w     w0, 0xc34
    2cfa:	b1 61 88    	mov.w     w1, 0xc36
    2cfc:	40 76 80    	mov.w     0xec8, w0
    2cfe:	00 00 e8    	inc.w     w0, w0
    2d00:	40 76 88    	mov.w     w0, 0xec8

	if (oAZ_Y || oAZ_XZ)
    2d02:	e9 c2 bf    	mov.b     0x2e9, WREG
    2d04:	70 40 60    	and.b     w0, #0x10, w0
    2d06:	00 04 e0    	cp0.b     w0
    2d08:	04 00 3a    	bra       NZ, 0x2d12 <.L62>
    2d0a:	e9 c2 bf    	mov.b     0x2e9, WREG
    2d0c:	00 42 b2    	and.b     #0x20, w0
    2d0e:	00 04 e0    	cp0.b     w0
    2d10:	0d 00 32    	bra       Z, 0x2d2c <.L64>

00002d12 <.L62>:
		oAZ_Y = oAZ_XZ = 0; // turn off gyro AZ
    2d12:	e9 a2 a9    	bclr.b    0x2e9, #0x5
    2d14:	e9 c2 bf    	mov.b     0x2e9, WREG
    2d16:	00 80 fb    	ze        w0, w0
    2d18:	45 00 de    	lsr.w     w0, #0x5, w0
    2d1a:	61 40 60    	and.b     w0, #0x1, w0
    2d1c:	61 40 60    	and.b     w0, #0x1, w0
    2d1e:	44 01 dd    	sl.w      w0, #0x4, w2
    2d20:	91 2e 20    	mov.w     #0x2e9, w1
    2d22:	91 40 78    	mov.b     [w1], w1
    2d24:	f0 ce b3    	mov.b     #0xef, w0
    2d26:	00 c0 60    	and.b     w1, w0, w0
    2d28:	02 40 70    	ior.b     w0, w2, w0
    2d2a:	e9 e2 b7    	mov.b     WREG, 0x2e9

00002d2c <.L64>:
	else;

	if (EE_Write_Timer) // simple counter that is decremented to 0 in T3 interrupt
    2d2c:	d0 76 80    	mov.w     0xeda, w0
    2d2e:	00 00 e0    	cp0.w     w0
    2d30:	03 00 32    	bra       Z, 0x2d38 <.L65>
		EE_Write_Timer--;
    2d32:	d0 76 80    	mov.w     0xeda, w0
    2d34:	00 00 e9    	dec.w     w0, w0
    2d36:	d0 76 88    	mov.w     w0, 0xeda

00002d38 <.L65>:
	if (I2C_Timeout > 0) // simple counter that is decremented to 0 in T3 interrupt
    2d38:	a0 4a 80    	mov.w     0x954, w0
    2d3a:	00 00 e0    	cp0.w     w0
    2d3c:	08 00 34    	bra       LE, 0x2d4e <.L67>
		if (--I2C_Timeout == 0)
    2d3e:	a0 4a 80    	mov.w     0x954, w0
    2d40:	00 00 e9    	dec.w     w0, w0
    2d42:	a0 4a 88    	mov.w     w0, 0x954
    2d44:	a0 4a 80    	mov.w     0x954, w0
    2d46:	00 00 e0    	cp0.w     w0
    2d48:	02 00 3a    	bra       NZ, 0x2d4e <.L67>
			CC.I2CERROR = TIMEOUT; // set error status
    2d4a:	10 00 20    	mov.w     #0x1, w0
    2d4c:	a0 57 88    	mov.w     w0, 0xaf4

00002d4e <.L67>:

	if (iFrameCounter >= FRAME_ROLL)
    2d4e:	41 76 80    	mov.w     0xec8, w1
    2d50:	f0 18 20    	mov.w     #0x18f, w0
    2d52:	80 8f 50    	sub.w     w1, w0, [w15]
    2d54:	02 00 34    	bra       LE, 0x2d5a <.L70>
		iFrameCounter = 0;
    2d56:	00 00 eb    	clr.w     w0
    2d58:	40 76 88    	mov.w     w0, 0xec8

00002d5a <.L70>:
	else;

	ThrottleLed.uMode = LED_ANALOG; // analog, duty set in servoMix.c
    2d5a:	39 8c a9    	bclr.b    0xc39, #0x4
    2d5c:	39 ac a9    	bclr.b    0xc39, #0x5
    2d5e:	39 cc a8    	bset.b    0xc39, #0x6
    2d60:	39 ec a9    	bclr.b    0xc39, #0x7
	ThrottleLed.uOnDuty = (udb_pwIn[8] / 2048) + 8;
    2d62:	80 4b 80    	mov.w     0x970, w0
    2d64:	02 80 20    	mov.w     #0x800, w2
    2d66:	11 00 09    	repeat    #0x11
    2d68:	02 00 d8    	div.sw    w0, w2
    2d6a:	68 40 40    	add.b     w0, #0x8, w0
    2d6c:	f0 43 b2    	and.b     #0x3f, w0
    2d6e:	80 80 fb    	ze        w0, w1
    2d70:	f0 03 20    	mov.w     #0x3f, w0
    2d72:	00 81 60    	and.w     w1, w0, w2
    2d74:	c1 61 80    	mov.w     0xc38, w1
    2d76:	00 fc 2f    	mov.w     #0xffc0, w0
    2d78:	00 80 60    	and.w     w1, w0, w0
    2d7a:	02 00 70    	ior.w     w0, w2, w0
    2d7c:	c0 61 88    	mov.w     w0, 0xc38
	oLED1 = LED_Update(&ThrottleLed, oLED1);
    2d7e:	cb c2 bf    	mov.b     0x2cb, WREG
    2d80:	61 40 60    	and.b     w0, #0x1, w0
    2d82:	80 80 fb    	ze        w0, w1
    2d84:	80 c3 20    	mov.w     #0xc38, w0
    2d86:	89 01 07    	rcall     0x309a <_LED_Update>
    2d88:	61 40 60    	and.b     w0, #0x1, w0
    2d8a:	61 41 60    	and.b     w0, #0x1, w2
    2d8c:	b1 2c 20    	mov.w     #0x2cb, w1
    2d8e:	91 40 78    	mov.b     [w1], w1
    2d90:	e0 cf b3    	mov.b     #0xfe, w0
    2d92:	00 c0 60    	and.b     w1, w0, w0
    2d94:	02 40 70    	ior.b     w0, w2, w0
    2d96:	cb e2 b7    	mov.b     WREG, 0x2cb
	if (GreenLED.uMode == LED_ANALOG) // analog mode based on mode channel, more assist = brighter LED
    2d98:	c1 72 80    	mov.w     0xe58, w1
    2d9a:	00 00 2f    	mov.w     #0xf000, w0
    2d9c:	80 80 60    	and.w     w1, w0, w1
    2d9e:	00 00 24    	mov.w     #0x4000, w0
    2da0:	80 8f 50    	sub.w     w1, w0, [w15]
    2da2:	0e 00 3a    	bra       NZ, 0x2dc0 <.L72>
		GreenLED.uOnDuty = (udb_pwIn[MODE_SWITCH_INPUT_CHANNEL + 7] / 2048) + 9;
    2da4:	80 4b 80    	mov.w     0x970, w0
    2da6:	02 80 20    	mov.w     #0x800, w2
    2da8:	11 00 09    	repeat    #0x11
    2daa:	02 00 d8    	div.sw    w0, w2
    2dac:	69 40 40    	add.b     w0, #0x9, w0
    2dae:	f0 43 b2    	and.b     #0x3f, w0
    2db0:	80 80 fb    	ze        w0, w1
    2db2:	f0 03 20    	mov.w     #0x3f, w0
    2db4:	00 81 60    	and.w     w1, w0, w2
    2db6:	c1 72 80    	mov.w     0xe58, w1
    2db8:	00 fc 2f    	mov.w     #0xffc0, w0
    2dba:	00 80 60    	and.w     w1, w0, w0
    2dbc:	02 00 70    	ior.w     w0, w2, w0
    2dbe:	c0 72 88    	mov.w     w0, 0xe58

00002dc0 <.L72>:
	LED_GREEN = LED_Update(&GreenLED, LED_GREEN);
    2dc0:	cb c2 bf    	mov.b     0x2cb, WREG
    2dc2:	00 80 fb    	ze        w0, w0
    2dc4:	42 00 de    	lsr.w     w0, #0x2, w0
    2dc6:	61 40 60    	and.b     w0, #0x1, w0
    2dc8:	80 80 fb    	ze        w0, w1
    2dca:	80 e5 20    	mov.w     #0xe58, w0
    2dcc:	66 01 07    	rcall     0x309a <_LED_Update>
    2dce:	61 40 60    	and.b     w0, #0x1, w0
    2dd0:	61 40 60    	and.b     w0, #0x1, w0
    2dd2:	42 01 dd    	sl.w      w0, #0x2, w2
    2dd4:	b1 2c 20    	mov.w     #0x2cb, w1
    2dd6:	91 40 78    	mov.b     [w1], w1
    2dd8:	b0 cf b3    	mov.b     #0xfb, w0
    2dda:	00 c0 60    	and.b     w1, w0, w0
    2ddc:	02 40 70    	ior.b     w0, w2, w0
    2dde:	cb e2 b7    	mov.b     WREG, 0x2cb

	if (dwMilliSec < 1000) // give radio a chance to insert values
    2de0:	a2 61 80    	mov.w     0xc34, w2
    2de2:	b3 61 80    	mov.w     0xc36, w3
    2de4:	70 3e 20    	mov.w     #0x3e7, w0
    2de6:	01 00 20    	mov.w     #0x0, w1
    2de8:	80 0f 51    	sub.w     w2, w0, [w15]
    2dea:	81 8f 59    	subb.w    w3, w1, [w15]
    2dec:	97 00 36    	bra       LEU, 0x2f1c <.L104>
		return;
	else;

	if ((iFrameCounter & 1)) // only start them on odd millisec counts 
    2dee:	40 76 80    	mov.w     0xec8, w0
    2df0:	61 00 60    	and.w     w0, #0x1, w0
    2df2:	00 04 e0    	cp0.b     w0
    2df4:	5b 00 32    	bra       Z, 0x2eac <.L76>
	{
		switch ((iFrameCounter % FRAME_50HZ_CNT) >> 1) {
    2df6:	40 76 80    	mov.w     0xec8, w0
    2df8:	42 01 20    	mov.w     #0x14, w2
    2dfa:	11 00 09    	repeat    #0x11
    2dfc:	02 00 d8    	div.sw    w0, w2
    2dfe:	80 00 fd    	exch      w0, w1
    2e00:	00 80 d1    	asr.w     w0, w0
    2e02:	00 0f 78    	mov.w     w0, [w14]
    2e04:	1e 00 78    	mov.w     [w14], w0
    2e06:	e5 0f 50    	sub.w     w0, #0x5, [w15]
    2e08:	2f 00 32    	bra       Z, 0x2e68 <.L81>
    2e0a:	1e 00 78    	mov.w     [w14], w0
    2e0c:	e5 0f 50    	sub.w     w0, #0x5, [w15]
    2e0e:	0a 00 3c    	bra       GT, 0x2e24 <.L86>
    2e10:	1e 00 78    	mov.w     [w14], w0
    2e12:	e3 0f 50    	sub.w     w0, #0x3, [w15]
    2e14:	1b 00 32    	bra       Z, 0x2e4c <.L79>
    2e16:	1e 00 78    	mov.w     [w14], w0
    2e18:	e3 0f 50    	sub.w     w0, #0x3, [w15]
    2e1a:	1f 00 3c    	bra       GT, 0x2e5a <.L80>
    2e1c:	1e 00 78    	mov.w     [w14], w0
    2e1e:	e2 0f 50    	sub.w     w0, #0x2, [w15]
    2e20:	0e 00 32    	bra       Z, 0x2e3e <.L78>
    2e22:	44 00 37    	bra       0x2eac <.L76>

00002e24 <.L86>:
    2e24:	1e 00 78    	mov.w     [w14], w0
    2e26:	e7 0f 50    	sub.w     w0, #0x7, [w15]
    2e28:	2d 00 32    	bra       Z, 0x2e84 <.L83>
    2e2a:	1e 00 78    	mov.w     [w14], w0
    2e2c:	e7 0f 50    	sub.w     w0, #0x7, [w15]
    2e2e:	23 00 35    	bra       LT, 0x2e76 <.L82>
    2e30:	1e 00 78    	mov.w     [w14], w0
    2e32:	e8 0f 50    	sub.w     w0, #0x8, [w15]
    2e34:	2e 00 32    	bra       Z, 0x2e92 <.L84>
    2e36:	1e 00 78    	mov.w     [w14], w0
    2e38:	e9 0f 50    	sub.w     w0, #0x9, [w15]
    2e3a:	32 00 32    	bra       Z, 0x2ea0 <.L85>
    2e3c:	37 00 37    	bra       0x2eac <.L76>

00002e3e <.L78>:
			case 1 + SERVO_OUT_OFFSET: // start OC1 - this will end up in a pin function
				do_pin(DIO[SERVO_PIN_START + 0].iSpare, &DIO[SERVO_PIN_START + 0], (LPOCM) & OC1RS);
    2e3e:	02 18 20    	mov.w     #0x180, w2
    2e40:	01 8b 22    	mov.w     #0x28b0, w1
    2e42:	70 8b 22    	mov.w     #0x28b7, w0
    2e44:	10 40 78    	mov.b     [w0], w0
    2e46:	00 80 fb    	ze        w0, w0
    2e48:	01 fd 07    	rcall     0x284c <_do_pin>
				break;
    2e4a:	30 00 37    	bra       0x2eac <.L76>

00002e4c <.L79>:
			case 2 + SERVO_OUT_OFFSET: // start OC2 - this will end up in a pin function
				do_pin(DIO[SERVO_PIN_START + 1].iSpare, &DIO[SERVO_PIN_START + 1], (LPOCM) & OC2RS);
    2e4c:	62 18 20    	mov.w     #0x186, w2
    2e4e:	01 8e 22    	mov.w     #0x28e0, w1
    2e50:	70 8e 22    	mov.w     #0x28e7, w0
    2e52:	10 40 78    	mov.b     [w0], w0
    2e54:	00 80 fb    	ze        w0, w0
    2e56:	fa fc 07    	rcall     0x284c <_do_pin>
				break;
    2e58:	29 00 37    	bra       0x2eac <.L76>

00002e5a <.L80>:
			case 3 + SERVO_OUT_OFFSET: // start OC3 - this will end up in a pin function
				do_pin(DIO[SERVO_PIN_START + 2].iSpare, &DIO[SERVO_PIN_START + 2], (LPOCM) & OC3RS);
    2e5a:	c2 18 20    	mov.w     #0x18c, w2
    2e5c:	01 91 22    	mov.w     #0x2910, w1
    2e5e:	70 91 22    	mov.w     #0x2917, w0
    2e60:	10 40 78    	mov.b     [w0], w0
    2e62:	00 80 fb    	ze        w0, w0
    2e64:	f3 fc 07    	rcall     0x284c <_do_pin>
				break;
    2e66:	22 00 37    	bra       0x2eac <.L76>

00002e68 <.L81>:
			case 4 + SERVO_OUT_OFFSET: // start OC4 - this will end up in a pin function
				do_pin(DIO[SERVO_PIN_START + 3].iSpare, &DIO[SERVO_PIN_START + 3], (LPOCM) & OC4RS);
    2e68:	22 19 20    	mov.w     #0x192, w2
    2e6a:	01 94 22    	mov.w     #0x2940, w1
    2e6c:	70 94 22    	mov.w     #0x2947, w0
    2e6e:	10 40 78    	mov.b     [w0], w0
    2e70:	00 80 fb    	ze        w0, w0
    2e72:	ec fc 07    	rcall     0x284c <_do_pin>
				break;
    2e74:	1b 00 37    	bra       0x2eac <.L76>

00002e76 <.L82>:
			case 5 + SERVO_OUT_OFFSET: // start OC5 - this will end up in a pin function
				do_pin(DIO[SERVO_PIN_START + 4].iSpare, &DIO[SERVO_PIN_START + 4], (LPOCM) & OC5RS);
    2e76:	82 19 20    	mov.w     #0x198, w2
    2e78:	01 97 22    	mov.w     #0x2970, w1
    2e7a:	70 97 22    	mov.w     #0x2977, w0
    2e7c:	10 40 78    	mov.b     [w0], w0
    2e7e:	00 80 fb    	ze        w0, w0
    2e80:	e5 fc 07    	rcall     0x284c <_do_pin>
				break;
    2e82:	14 00 37    	bra       0x2eac <.L76>

00002e84 <.L83>:
			case 6 + SERVO_OUT_OFFSET: // start OC6 - this will end up in a pin function
				do_pin(DIO[SERVO_PIN_START + 5].iSpare, &DIO[SERVO_PIN_START + 5], (LPOCM) & OC6RS);
    2e84:	e2 19 20    	mov.w     #0x19e, w2
    2e86:	01 9a 22    	mov.w     #0x29a0, w1
    2e88:	70 9a 22    	mov.w     #0x29a7, w0
    2e8a:	10 40 78    	mov.b     [w0], w0
    2e8c:	00 80 fb    	ze        w0, w0
    2e8e:	de fc 07    	rcall     0x284c <_do_pin>
				break;
    2e90:	0d 00 37    	bra       0x2eac <.L76>

00002e92 <.L84>:
			case 7 + SERVO_OUT_OFFSET: // start OC7 - this will end up in a pin function
				do_pin(DIO[SERVO_PIN_START + 6].iSpare, &DIO[SERVO_PIN_START + 6], (LPOCM) & OC7RS);
    2e92:	42 1a 20    	mov.w     #0x1a4, w2
    2e94:	01 9d 22    	mov.w     #0x29d0, w1
    2e96:	70 9d 22    	mov.w     #0x29d7, w0
    2e98:	10 40 78    	mov.b     [w0], w0
    2e9a:	00 80 fb    	ze        w0, w0
    2e9c:	d7 fc 07    	rcall     0x284c <_do_pin>
				break;
    2e9e:	06 00 37    	bra       0x2eac <.L76>

00002ea0 <.L85>:
			case 8 + SERVO_OUT_OFFSET: // start OC8 - this will end up in a pin function
				do_pin(DIO[SERVO_PIN_START + 7].iSpare, &DIO[SERVO_PIN_START + 7], (LPOCM) & OC8RS);
    2ea0:	a2 1a 20    	mov.w     #0x1aa, w2
    2ea2:	01 a0 22    	mov.w     #0x2a00, w1
    2ea4:	70 a0 22    	mov.w     #0x2a07, w0
    2ea6:	10 40 78    	mov.b     [w0], w0
    2ea8:	00 80 fb    	ze        w0, w0
    2eaa:	d0 fc 07    	rcall     0x284c <_do_pin>

00002eac <.L76>:
				break;
		}
	};

	//	Executes whatever needs to be done every 20 milliseconds
	//	This is a good place to compute pulse widths for servos.
	if (!(iFrameCounter % FRAME_50HZ_CNT)) // has to == 0
    2eac:	40 76 80    	mov.w     0xec8, w0
    2eae:	42 01 20    	mov.w     #0x14, w2
    2eb0:	11 00 09    	repeat    #0x11
    2eb2:	02 00 d8    	div.sw    w0, w2
    2eb4:	80 00 fd    	exch      w0, w1
    2eb6:	00 00 e0    	cp0.w     w0
    2eb8:	08 00 3a    	bra       NZ, 0x2eca <.L87>
	{
		if (CD[magCDindex].iResult >= MAG_NORMAL) // is in MAG_NORMAL mode
    2eba:	70 44 80    	mov.w     0x88e, w0
    2ebc:	ea 0f 50    	sub.w     w0, #0xa, [w15]
    2ebe:	01 00 34    	bra       LE, 0x2ec2 <.L89>
			I2C_flags.bMagReady = 1; // mark it
    2ec0:	fc 4a a8    	bset.b    0xafc, #0x2

00002ec2 <.L89>:
		if (CD[accCDindex].iResult >= ACC_NORMAL) // is in ACC_NORMAL mode
    2ec2:	60 45 80    	mov.w     0x8ac, w0
    2ec4:	e8 0f 50    	sub.w     w0, #0x8, [w15]
    2ec6:	01 00 34    	bra       LE, 0x2eca <.L87>
			I2C_flags.bAccReady = 1; // mark it
    2ec8:	fc 6a a8    	bset.b    0xafc, #0x3

00002eca <.L87>:
	}

	//	Executes whatever needs to be done every 25 milliseconds, using the PWM clock.
	//	This is a good place to run the A/D digital filters and compute pulse widths for servos.
	//	Also, this is used to wait a few pulses before recording input DC offsets.

	if (!(iFrameCounter % FRAME_40HZ_CNT)) // has to == 0
    2eca:	40 76 80    	mov.w     0xec8, w0
    2ecc:	92 01 20    	mov.w     #0x19, w2
    2ece:	11 00 09    	repeat    #0x11
    2ed0:	02 00 d8    	div.sw    w0, w2
    2ed2:	80 00 fd    	exch      w0, w1
    2ed4:	00 00 e0    	cp0.w     w0
    2ed6:	22 00 3a    	bra       NZ, 0x2f1c <.L104>
	{
#if ( NORADIO == 0 )
		twentyHertzCounter++;
    2ed8:	30 76 80    	mov.w     0xec6, w0
    2eda:	00 00 e8    	inc.w     w0, w0
    2edc:	30 76 88    	mov.w     w0, 0xec6
		if (twentyHertzCounter >= 2) {
    2ede:	30 76 80    	mov.w     0xec6, w0
    2ee0:	e1 0f 50    	sub.w     w0, #0x1, [w15]
    2ee2:	1c 00 34    	bra       LE, 0x2f1c <.L104>
			if (failSafePulses == 0) // for all of this GreenLED will get
    2ee4:	c0 76 80    	mov.w     0xed8, w0
    2ee6:	00 00 e0    	cp0.w     w0
    2ee8:	03 00 3a    	bra       NZ, 0x2ef0 <.L95>
			{ // updated in next pass of states
				udb_flags._.radio_on = 0; // but transistion causes instant
    2eea:	ba ee a9    	bclr.b    0xeba, #0x7
				LED_GREEN = LED_OFF; // LED change
    2eec:	cb 42 a8    	bset.b    0x2cb, #0x2
    2eee:	14 00 37    	bra       0x2f18 <.L97>

00002ef0 <.L95>:
			} else if (failSafePulses >= 7) {
    2ef0:	c0 76 80    	mov.w     0xed8, w0
    2ef2:	e6 0f 50    	sub.w     w0, #0x6, [w15]
    2ef4:	0b 00 34    	bra       LE, 0x2f0c <.L98>
				if (!udb_flags._.radio_on) {
    2ef6:	d0 75 80    	mov.w     0xeba, w0
    2ef8:	01 08 20    	mov.w     #0x80, w1
    2efa:	01 00 60    	and.w     w0, w1, w0
    2efc:	00 00 e0    	cp0.w     w0
    2efe:	03 00 3a    	bra       NZ, 0x2f06 <.L100>
					udb_flags._.radio_on = 1;
    2f00:	ba ee a8    	bset.b    0xeba, #0x7
					LED_GREEN = LED_ON;
    2f02:	cb 42 a9    	bclr.b    0x2cb, #0x2
    2f04:	09 00 37    	bra       0x2f18 <.L97>

00002f06 <.L100>:
				} else failSafePulses = 8;
    2f06:	80 00 20    	mov.w     #0x8, w0
    2f08:	c0 76 88    	mov.w     w0, 0xed8
    2f0a:	06 00 37    	bra       0x2f18 <.L97>

00002f0c <.L98>:
			} else if (failSafePulses > 0)
    2f0c:	c0 76 80    	mov.w     0xed8, w0
    2f0e:	00 00 e0    	cp0.w     w0
    2f10:	03 00 34    	bra       LE, 0x2f18 <.L97>
				failSafePulses--;
    2f12:	c0 76 80    	mov.w     0xed8, w0
    2f14:	00 00 e9    	dec.w     w0, w0
    2f16:	c0 76 88    	mov.w     w0, 0xed8

00002f18 <.L97>:
			twentyHertzCounter = 0;
    2f18:	00 00 eb    	clr.w     w0
    2f1a:	30 76 88    	mov.w     w0, 0xec6

00002f1c <.L104>:

		}

#if (BOARD_TYPE != ASPG_BOARD)
		// changed to run on T4 lower priority
		udb_servo_callback_prepare_outputs();
#endif
#endif
	}

	// interrupt_restore_extended_state ;
	return;
}
    2f1c:	00 80 fa    	ulnk      
    2f1e:	4f 03 be    	mov.d     [--w15], w6
    2f20:	4f 02 be    	mov.d     [--w15], w4
    2f22:	4f 01 be    	mov.d     [--w15], w2
    2f24:	4f 00 be    	mov.d     [--w15], w0
    2f26:	36 00 f9    	pop       0x36
    2f28:	00 40 06    	retfie    

00002f2a <__OC1Interrupt>:

void __attribute__((__interrupt__, __no_auto_psv__)) _OC1Interrupt(void) {
    2f2a:	36 00 f8    	push      0x36
    2f2c:	80 9f be    	mov.d     w0, [w15++]
    2f2e:	82 9f be    	mov.d     w2, [w15++]
    2f30:	84 9f be    	mov.d     w4, [w15++]
    2f32:	86 9f be    	mov.d     w6, [w15++]
    2f34:	00 00 fa    	lnk       #0x0
	IFS0bits.OC1IF = 0; // Clear Output Compare 1 Interrupt Flag
    2f36:	84 40 a9    	bclr.b    0x84, #0x2
	do_pin(DIO[SERVO_PIN_START + 0].iSpare * -1, &DIO[SERVO_PIN_START + 0], (LPOCM) & OC1RS);
    2f38:	02 18 20    	mov.w     #0x180, w2
    2f3a:	03 8b 22    	mov.w     #0x28b0, w3
    2f3c:	70 8b 22    	mov.w     #0x28b7, w0
    2f3e:	10 40 78    	mov.b     [w0], w0
    2f40:	80 80 fb    	ze        w0, w1
    2f42:	00 80 eb    	setm.w    w0
    2f44:	00 88 b9    	mul.ss    w1, w0, w0
    2f46:	83 00 78    	mov.w     w3, w1
    2f48:	81 fc 07    	rcall     0x284c <_do_pin>
}
    2f4a:	00 80 fa    	ulnk      
    2f4c:	4f 03 be    	mov.d     [--w15], w6
    2f4e:	4f 02 be    	mov.d     [--w15], w4
    2f50:	4f 01 be    	mov.d     [--w15], w2
    2f52:	4f 00 be    	mov.d     [--w15], w0
    2f54:	36 00 f9    	pop       0x36
    2f56:	00 40 06    	retfie    

00002f58 <__OC2Interrupt>:

void __attribute__((__interrupt__, __no_auto_psv__)) _OC2Interrupt(void) {
    2f58:	36 00 f8    	push      0x36
    2f5a:	80 9f be    	mov.d     w0, [w15++]
    2f5c:	82 9f be    	mov.d     w2, [w15++]
    2f5e:	84 9f be    	mov.d     w4, [w15++]
    2f60:	86 9f be    	mov.d     w6, [w15++]
    2f62:	00 00 fa    	lnk       #0x0
	IFS0bits.OC2IF = 0; // Clear Output Compare 2 Interrupt Flag
    2f64:	84 c0 a9    	bclr.b    0x84, #0x6
	do_pin(DIO[SERVO_PIN_START + 1].iSpare * -1, &DIO[SERVO_PIN_START + 1], (LPOCM) & OC2RS);
    2f66:	62 18 20    	mov.w     #0x186, w2
    2f68:	03 8e 22    	mov.w     #0x28e0, w3
    2f6a:	70 8e 22    	mov.w     #0x28e7, w0
    2f6c:	10 40 78    	mov.b     [w0], w0
    2f6e:	80 80 fb    	ze        w0, w1
    2f70:	00 80 eb    	setm.w    w0
    2f72:	00 88 b9    	mul.ss    w1, w0, w0
    2f74:	83 00 78    	mov.w     w3, w1
    2f76:	6a fc 07    	rcall     0x284c <_do_pin>
}
    2f78:	00 80 fa    	ulnk      
    2f7a:	4f 03 be    	mov.d     [--w15], w6
    2f7c:	4f 02 be    	mov.d     [--w15], w4
    2f7e:	4f 01 be    	mov.d     [--w15], w2
    2f80:	4f 00 be    	mov.d     [--w15], w0
    2f82:	36 00 f9    	pop       0x36
    2f84:	00 40 06    	retfie    

00002f86 <__OC3Interrupt>:

void __attribute__((__interrupt__, __no_auto_psv__)) _OC3Interrupt(void) {
    2f86:	36 00 f8    	push      0x36
    2f88:	80 9f be    	mov.d     w0, [w15++]
    2f8a:	82 9f be    	mov.d     w2, [w15++]
    2f8c:	84 9f be    	mov.d     w4, [w15++]
    2f8e:	86 9f be    	mov.d     w6, [w15++]
    2f90:	00 00 fa    	lnk       #0x0
	IFS1bits.OC3IF = 0; // Clear Output Compare 3 Interrupt Flag
    2f92:	87 20 a9    	bclr.b    0x87, #0x1
	do_pin(DIO[SERVO_PIN_START + 2].iSpare * -1, &DIO[SERVO_PIN_START + 2], (LPOCM) & OC3RS);
    2f94:	c2 18 20    	mov.w     #0x18c, w2
    2f96:	03 91 22    	mov.w     #0x2910, w3
    2f98:	70 91 22    	mov.w     #0x2917, w0
    2f9a:	10 40 78    	mov.b     [w0], w0
    2f9c:	80 80 fb    	ze        w0, w1
    2f9e:	00 80 eb    	setm.w    w0
    2fa0:	00 88 b9    	mul.ss    w1, w0, w0
    2fa2:	83 00 78    	mov.w     w3, w1
    2fa4:	53 fc 07    	rcall     0x284c <_do_pin>
}
    2fa6:	00 80 fa    	ulnk      
    2fa8:	4f 03 be    	mov.d     [--w15], w6
    2faa:	4f 02 be    	mov.d     [--w15], w4
    2fac:	4f 01 be    	mov.d     [--w15], w2
    2fae:	4f 00 be    	mov.d     [--w15], w0
    2fb0:	36 00 f9    	pop       0x36
    2fb2:	00 40 06    	retfie    

00002fb4 <__OC4Interrupt>:

void __attribute__((__interrupt__, __no_auto_psv__)) _OC4Interrupt(void) {
    2fb4:	36 00 f8    	push      0x36
    2fb6:	80 9f be    	mov.d     w0, [w15++]
    2fb8:	82 9f be    	mov.d     w2, [w15++]
    2fba:	84 9f be    	mov.d     w4, [w15++]
    2fbc:	86 9f be    	mov.d     w6, [w15++]
    2fbe:	00 00 fa    	lnk       #0x0
	IFS1bits.OC4IF = 0; // Clear Output Compare 4 Interrupt Flag
    2fc0:	87 40 a9    	bclr.b    0x87, #0x2
	do_pin(DIO[SERVO_PIN_START + 3].iSpare * -1, &DIO[SERVO_PIN_START + 3], (LPOCM) & OC4RS);
    2fc2:	22 19 20    	mov.w     #0x192, w2
    2fc4:	03 94 22    	mov.w     #0x2940, w3
    2fc6:	70 94 22    	mov.w     #0x2947, w0
    2fc8:	10 40 78    	mov.b     [w0], w0
    2fca:	80 80 fb    	ze        w0, w1
    2fcc:	00 80 eb    	setm.w    w0
    2fce:	00 88 b9    	mul.ss    w1, w0, w0
    2fd0:	83 00 78    	mov.w     w3, w1
    2fd2:	3c fc 07    	rcall     0x284c <_do_pin>
}
    2fd4:	00 80 fa    	ulnk      
    2fd6:	4f 03 be    	mov.d     [--w15], w6
    2fd8:	4f 02 be    	mov.d     [--w15], w4
    2fda:	4f 01 be    	mov.d     [--w15], w2
    2fdc:	4f 00 be    	mov.d     [--w15], w0
    2fde:	36 00 f9    	pop       0x36
    2fe0:	00 40 06    	retfie    

00002fe2 <__OC5Interrupt>:

void __attribute__((__interrupt__, __no_auto_psv__)) _OC5Interrupt(void) {
    2fe2:	36 00 f8    	push      0x36
    2fe4:	80 9f be    	mov.d     w0, [w15++]
    2fe6:	82 9f be    	mov.d     w2, [w15++]
    2fe8:	84 9f be    	mov.d     w4, [w15++]
    2fea:	86 9f be    	mov.d     w6, [w15++]
    2fec:	00 00 fa    	lnk       #0x0
	IFS2bits.OC5IF = 0; // Clear Output Compare 5 Interrupt Flag
    2fee:	89 20 a9    	bclr.b    0x89, #0x1
	do_pin(DIO[SERVO_PIN_START + 4].iSpare * -1, &DIO[SERVO_PIN_START + 4], (LPOCM) & OC5RS);
    2ff0:	82 19 20    	mov.w     #0x198, w2
    2ff2:	03 97 22    	mov.w     #0x2970, w3
    2ff4:	70 97 22    	mov.w     #0x2977, w0
    2ff6:	10 40 78    	mov.b     [w0], w0
    2ff8:	80 80 fb    	ze        w0, w1
    2ffa:	00 80 eb    	setm.w    w0
    2ffc:	00 88 b9    	mul.ss    w1, w0, w0
    2ffe:	83 00 78    	mov.w     w3, w1
    3000:	25 fc 07    	rcall     0x284c <_do_pin>
}
    3002:	00 80 fa    	ulnk      
    3004:	4f 03 be    	mov.d     [--w15], w6
    3006:	4f 02 be    	mov.d     [--w15], w4
    3008:	4f 01 be    	mov.d     [--w15], w2
    300a:	4f 00 be    	mov.d     [--w15], w0
    300c:	36 00 f9    	pop       0x36
    300e:	00 40 06    	retfie    

00003010 <__OC6Interrupt>:

void __attribute__((__interrupt__, __no_auto_psv__)) _OC6Interrupt(void) {
    3010:	36 00 f8    	push      0x36
    3012:	80 9f be    	mov.d     w0, [w15++]
    3014:	82 9f be    	mov.d     w2, [w15++]
    3016:	84 9f be    	mov.d     w4, [w15++]
    3018:	86 9f be    	mov.d     w6, [w15++]
    301a:	00 00 fa    	lnk       #0x0
	IFS2bits.OC6IF = 0; // Clear Output Compare 6 Interrupt Flag
    301c:	89 40 a9    	bclr.b    0x89, #0x2
	do_pin(DIO[SERVO_PIN_START + 5].iSpare * -1, &DIO[SERVO_PIN_START + 5], (LPOCM) & OC6RS);
    301e:	e2 19 20    	mov.w     #0x19e, w2
    3020:	03 9a 22    	mov.w     #0x29a0, w3
    3022:	70 9a 22    	mov.w     #0x29a7, w0
    3024:	10 40 78    	mov.b     [w0], w0
    3026:	80 80 fb    	ze        w0, w1
    3028:	00 80 eb    	setm.w    w0
    302a:	00 88 b9    	mul.ss    w1, w0, w0
    302c:	83 00 78    	mov.w     w3, w1
    302e:	0e fc 07    	rcall     0x284c <_do_pin>
}
    3030:	00 80 fa    	ulnk      
    3032:	4f 03 be    	mov.d     [--w15], w6
    3034:	4f 02 be    	mov.d     [--w15], w4
    3036:	4f 01 be    	mov.d     [--w15], w2
    3038:	4f 00 be    	mov.d     [--w15], w0
    303a:	36 00 f9    	pop       0x36
    303c:	00 40 06    	retfie    

0000303e <__OC7Interrupt>:

void __attribute__((__interrupt__, __no_auto_psv__)) _OC7Interrupt(void) {
    303e:	36 00 f8    	push      0x36
    3040:	80 9f be    	mov.d     w0, [w15++]
    3042:	82 9f be    	mov.d     w2, [w15++]
    3044:	84 9f be    	mov.d     w4, [w15++]
    3046:	86 9f be    	mov.d     w6, [w15++]
    3048:	00 00 fa    	lnk       #0x0
	IFS2bits.OC7IF = 0; // Clear Output Compare 7 Interrupt Flag
    304a:	89 60 a9    	bclr.b    0x89, #0x3
	do_pin(DIO[SERVO_PIN_START + 6].iSpare * -1, &DIO[SERVO_PIN_START + 6], (LPOCM) & OC7RS);
    304c:	42 1a 20    	mov.w     #0x1a4, w2
    304e:	03 9d 22    	mov.w     #0x29d0, w3
    3050:	70 9d 22    	mov.w     #0x29d7, w0
    3052:	10 40 78    	mov.b     [w0], w0
    3054:	80 80 fb    	ze        w0, w1
    3056:	00 80 eb    	setm.w    w0
    3058:	00 88 b9    	mul.ss    w1, w0, w0
    305a:	83 00 78    	mov.w     w3, w1
    305c:	f7 fb 07    	rcall     0x284c <_do_pin>
}
    305e:	00 80 fa    	ulnk      
    3060:	4f 03 be    	mov.d     [--w15], w6
    3062:	4f 02 be    	mov.d     [--w15], w4
    3064:	4f 01 be    	mov.d     [--w15], w2
    3066:	4f 00 be    	mov.d     [--w15], w0
    3068:	36 00 f9    	pop       0x36
    306a:	00 40 06    	retfie    

0000306c <__OC8Interrupt>:

void __attribute__((__interrupt__, __no_auto_psv__)) _OC8Interrupt(void) {
    306c:	36 00 f8    	push      0x36
    306e:	80 9f be    	mov.d     w0, [w15++]
    3070:	82 9f be    	mov.d     w2, [w15++]
    3072:	84 9f be    	mov.d     w4, [w15++]
    3074:	86 9f be    	mov.d     w6, [w15++]
    3076:	00 00 fa    	lnk       #0x0
	IFS2bits.OC8IF = 0; // Clear Output Compare 8 Interrupt Flag
    3078:	89 80 a9    	bclr.b    0x89, #0x4
	do_pin(DIO[SERVO_PIN_START + 7].iSpare * -1, &DIO[SERVO_PIN_START + 7], (LPOCM) & OC8RS);
    307a:	a2 1a 20    	mov.w     #0x1aa, w2
    307c:	03 a0 22    	mov.w     #0x2a00, w3
    307e:	70 a0 22    	mov.w     #0x2a07, w0
    3080:	10 40 78    	mov.b     [w0], w0
    3082:	80 80 fb    	ze        w0, w1
    3084:	00 80 eb    	setm.w    w0
    3086:	00 88 b9    	mul.ss    w1, w0, w0
    3088:	83 00 78    	mov.w     w3, w1
    308a:	e0 fb 07    	rcall     0x284c <_do_pin>

	//	OC8CON = 0;			// TODO: need to write actual pin handler
}
    308c:	00 80 fa    	ulnk      
    308e:	4f 03 be    	mov.d     [--w15], w6
    3090:	4f 02 be    	mov.d     [--w15], w4
    3092:	4f 01 be    	mov.d     [--w15], w2
    3094:	4f 00 be    	mov.d     [--w15], w0
    3096:	36 00 f9    	pop       0x36
    3098:	00 40 06    	retfie    

0000309a <_LED_Update>:
const WORD LED_Table[16] = {
	0x0000, 0x0100, 0x1010, 0x2104, 0x1111, 0x4924, 0x5252, 0x54aa,
	0x5555, 0x55d5, 0x5d75, 0x7775, 0x7777, 0x7f77, 0x7f7f, 0xffff
};

int LED_Update(LPLEDCTRL tagLED, int LED) {
    309a:	0c 00 fa    	lnk       #0xc
    309c:	00 0f 78    	mov.w     w0, [w14]
    309e:	11 07 98    	mov.w     w1, [w14+2]
	switch (tagLED->uMode) {
    30a0:	1e 00 78    	mov.w     [w14], w0
    30a2:	10 00 78    	mov.w     [w0], w0
    30a4:	4c 00 de    	lsr.w     w0, #0xc, w0
    30a6:	00 80 fb    	ze        w0, w0
    30a8:	40 07 98    	mov.w     w0, [w14+8]
    30aa:	4e 00 90    	mov.w     [w14+8], w0
    30ac:	ef 0f 50    	sub.w     w0, #0xf, [w15]
    30ae:	85 00 3e    	bra       GTU, 0x31ba <.L122>
    30b0:	10 00 20    	mov.w     #0x1, w0
    30b2:	ce 00 90    	mov.w     [w14+8], w1
    30b4:	01 00 dd    	sl.w      w0, w1, w0
    30b6:	50 07 98    	mov.w     w0, [w14+10]
    30b8:	b0 08 28    	mov.w     #0x808b, w0
    30ba:	5e 01 90    	mov.w     [w14+10], w2
    30bc:	00 00 61    	and.w     w2, w0, w0
    30be:	00 00 e0    	cp0.w     w0
    30c0:	46 00 3a    	bra       NZ, 0x314e <.L123>
    30c2:	de 00 90    	mov.w     [w14+10], w1
    30c4:	70 80 60    	and.w     w1, #0x10, w0
    30c6:	00 00 e0    	cp0.w     w0
    30c8:	14 00 3a    	bra       NZ, 0x30f2 <.L125>
    30ca:	5e 01 90    	mov.w     [w14+10], w2
    30cc:	64 00 61    	and.w     w2, #0x4, w0
    30ce:	00 00 e0    	cp0.w     w0
    30d0:	01 00 3a    	bra       NZ, 0x30d4 <.L124>
    30d2:	73 00 37    	bra       0x31ba <.L122>

000030d4 <.L124>:
		case LED_ON_OFF:
			return (tagLED->uOnDuty & 1) ? LED_ON : LED_OFF;
    30d4:	1e 00 78    	mov.w     [w14], w0
    30d6:	10 00 78    	mov.w     [w0], w0
    30d8:	f0 43 b2    	and.b     #0x3f, w0
    30da:	00 80 fb    	ze        w0, w0
    30dc:	61 00 60    	and.w     w0, #0x1, w0
    30de:	00 04 e0    	cp0.b     w0
    30e0:	03 00 32    	bra       Z, 0x30e8 <.L126>
    30e2:	00 00 eb    	clr.w     w0
    30e4:	20 07 98    	mov.w     w0, [w14+4]
    30e6:	02 00 37    	bra       0x30ec <.L128>

000030e8 <.L126>:
    30e8:	11 00 20    	mov.w     #0x1, w1
    30ea:	21 07 98    	mov.w     w1, [w14+4]

000030ec <.L128>:
    30ec:	2e 01 90    	mov.w     [w14+4], w2
    30ee:	32 07 98    	mov.w     w2, [w14+6]
    30f0:	66 00 37    	bra       0x31be <.L129>

000030f2 <.L125>:
			break;
		case LED_ANALOG:
			//			if ((iFrameCounter & 0x1))
			//				return LED_OFF;
			//			else
			if (tagLED->uOffDuty != tagLED->uOnDuty) {
    30f2:	1e 00 78    	mov.w     [w14], w0
    30f4:	10 00 78    	mov.w     [w0], w0
    30f6:	46 00 de    	lsr.w     w0, #0x6, w0
    30f8:	f2 c3 b3    	mov.b     #0x3f, w2
    30fa:	82 40 60    	and.b     w0, w2, w1
    30fc:	1e 00 78    	mov.w     [w14], w0
    30fe:	10 00 78    	mov.w     [w0], w0
    3100:	f0 43 b2    	and.b     #0x3f, w0
    3102:	80 cf 50    	sub.b     w1, w0, [w15]
    3104:	16 00 32    	bra       Z, 0x3132 <.L130>
				tagLED->wBits = LED_Table[tagLED->uOnDuty & 0xf];
    3106:	1e 00 78    	mov.w     [w14], w0
    3108:	10 00 78    	mov.w     [w0], w0
    310a:	f0 43 b2    	and.b     #0x3f, w0
    310c:	00 80 fb    	ze        w0, w0
    310e:	6f 00 60    	and.w     w0, #0xf, w0
    3110:	80 00 40    	add.w     w0, w0, w1
    3112:	60 68 2a    	mov.w     #0xa686, w0
    3114:	00 80 40    	add.w     w1, w0, w0
    3116:	90 00 78    	mov.w     [w0], w1
    3118:	1e 00 78    	mov.w     [w14], w0
    311a:	11 00 98    	mov.w     w1, [w0+2]
				tagLED->uOffDuty = tagLED->uOnDuty;
    311c:	1e 00 78    	mov.w     [w14], w0
    311e:	10 00 78    	mov.w     [w0], w0
    3120:	f0 43 b2    	and.b     #0x3f, w0
    3122:	9e 00 78    	mov.w     [w14], w1
    3124:	00 81 fb    	ze        w0, w2
    3126:	f0 03 20    	mov.w     #0x3f, w0
    3128:	00 00 61    	and.w     w2, w0, w0
    312a:	46 01 dd    	sl.w      w0, #0x6, w2
    312c:	f0 03 2f    	mov.w     #0xf03f, w0
    312e:	91 08 60    	and.w     w0, [w1], [w1]
    3130:	91 08 71    	ior.w     w2, [w1], [w1]

00003132 <.L130>:
			};
			//			return (tagLED->wBits & (1 << ((iFrameCounter >> 1) & 0xf))) ? LED_ON : LED_OFF;
			return (tagLED->wBits & (1 << ((iFrameCounter) & 0xf))) ? LED_ON : LED_OFF;
    3132:	1e 00 78    	mov.w     [w14], w0
    3134:	10 01 90    	mov.w     [w0+2], w2
    3136:	40 76 80    	mov.w     0xec8, w0
    3138:	ef 00 60    	and.w     w0, #0xf, w1
    313a:	10 00 20    	mov.w     #0x1, w0
    313c:	01 00 dd    	sl.w      w0, w1, w0
    313e:	00 00 61    	and.w     w2, w0, w0
    3140:	80 00 eb    	clr.w     w1
    3142:	31 07 98    	mov.w     w1, [w14+6]
    3144:	00 00 e0    	cp0.w     w0
    3146:	3b 00 3a    	bra       NZ, 0x31be <.L129>
    3148:	12 00 20    	mov.w     #0x1, w2
    314a:	32 07 98    	mov.w     w2, [w14+6]
    314c:	38 00 37    	bra       0x31be <.L129>

0000314e <.L123>:
			break;
		case LED_DUTY_1mS: //  1mSec - variable time base - must be "&" power of 2
		case LED_DUTY_2mS: //  2mSec - variable time base - must be "&" power of 2
		case LED_DUTY_4mS: //  4mSec - variable time base - must be "&" power of 2
		case LED_DUTY_8mS: //  8mSec - variable time base - must be "&" power of 2
		case LED_DUTY_16mS: // 16mSec - variable time base - must be "&" power of 2
			if (!(iFrameCounter & tagLED->uMode)) // all bits have to be 0
    314e:	1e 00 78    	mov.w     [w14], w0
    3150:	10 00 78    	mov.w     [w0], w0
    3152:	4c 00 de    	lsr.w     w0, #0xc, w0
    3154:	80 80 fb    	ze        w0, w1
    3156:	40 76 80    	mov.w     0xec8, w0
    3158:	00 80 60    	and.w     w1, w0, w0
    315a:	00 00 e0    	cp0.w     w0
    315c:	2b 00 3a    	bra       NZ, 0x31b4 <.L133>
			{
				tagLED->wBits++; // inc counter
    315e:	1e 00 78    	mov.w     [w14], w0
    3160:	10 00 90    	mov.w     [w0+2], w0
    3162:	80 00 e8    	inc.w     w0, w1
    3164:	1e 00 78    	mov.w     [w14], w0
    3166:	11 00 98    	mov.w     w1, [w0+2]
				if (LED == LED_ON) //
    3168:	1e 00 90    	mov.w     [w14+2], w0
    316a:	00 00 e0    	cp0.w     w0
    316c:	11 00 3a    	bra       NZ, 0x3190 <.L135>
				{
					if (tagLED->wBits > tagLED->uOnDuty) {
    316e:	1e 00 78    	mov.w     [w14], w0
    3170:	90 00 90    	mov.w     [w0+2], w1
    3172:	1e 00 78    	mov.w     [w14], w0
    3174:	10 00 78    	mov.w     [w0], w0
    3176:	f0 43 b2    	and.b     #0x3f, w0
    3178:	00 80 fb    	ze        w0, w0
    317a:	80 8f 50    	sub.w     w1, w0, [w15]
    317c:	06 00 36    	bra       LEU, 0x318a <.L137>
						tagLED->wBits = 0;
    317e:	9e 00 78    	mov.w     [w14], w1
    3180:	00 00 eb    	clr.w     w0
    3182:	90 00 98    	mov.w     w0, [w1+2]
						return LED_OFF;
    3184:	10 00 20    	mov.w     #0x1, w0
    3186:	30 07 98    	mov.w     w0, [w14+6]
    3188:	1a 00 37    	bra       0x31be <.L129>

0000318a <.L137>:
					} else return LED_ON;
    318a:	80 00 eb    	clr.w     w1
    318c:	31 07 98    	mov.w     w1, [w14+6]
    318e:	17 00 37    	bra       0x31be <.L129>

00003190 <.L135>:
				} else {
					if (tagLED->wBits > tagLED->uOffDuty) {
    3190:	1e 00 78    	mov.w     [w14], w0
    3192:	90 00 90    	mov.w     [w0+2], w1
    3194:	1e 00 78    	mov.w     [w14], w0
    3196:	10 00 78    	mov.w     [w0], w0
    3198:	46 00 de    	lsr.w     w0, #0x6, w0
    319a:	f0 43 b2    	and.b     #0x3f, w0
    319c:	00 80 fb    	ze        w0, w0
    319e:	80 8f 50    	sub.w     w1, w0, [w15]
    31a0:	06 00 36    	bra       LEU, 0x31ae <.L139>
						tagLED->wBits = 0;
    31a2:	9e 00 78    	mov.w     [w14], w1
    31a4:	00 00 eb    	clr.w     w0
    31a6:	90 00 98    	mov.w     w0, [w1+2]
						return LED_ON;
    31a8:	00 01 eb    	clr.w     w2
    31aa:	32 07 98    	mov.w     w2, [w14+6]
    31ac:	08 00 37    	bra       0x31be <.L129>

000031ae <.L139>:
					} else return LED_OFF;
    31ae:	10 00 20    	mov.w     #0x1, w0
    31b0:	30 07 98    	mov.w     w0, [w14+6]
    31b2:	05 00 37    	bra       0x31be <.L129>

000031b4 <.L133>:
				}
			} else return LED;
    31b4:	9e 00 90    	mov.w     [w14+2], w1
    31b6:	31 07 98    	mov.w     w1, [w14+6]
    31b8:	02 00 37    	bra       0x31be <.L129>

000031ba <.L122>:
			break;
	}
	return LED;
    31ba:	1e 01 90    	mov.w     [w14+2], w2
    31bc:	32 07 98    	mov.w     w2, [w14+6]

000031be <.L129>:
    31be:	3e 00 90    	mov.w     [w14+6], w0
}
    31c0:	00 80 fa    	ulnk      
    31c2:	00 00 06    	return    
Disassembly of section .dinit:

000031c4 <.dinit>:
    31c4:	88 0e 00    	nop       
    31c6:	08 00 00    	nop       
    31c8:	02 00 00    	nop       
	...
    31d0:	ce 0e 00    	nop       
    31d2:	02 00 00    	nop       
    31d4:	00 00 00    	nop       
    31d6:	a0 0e 00    	nop       
    31d8:	06 00 00    	nop       
    31da:	02 00 00    	nop       
	...
    31e0:	b2 0e 00    	nop       
    31e2:	04 00 00    	nop       
    31e4:	00 00 00    	nop       
    31e6:	22 0e 00    	nop       
    31e8:	10 00 00    	nop       
    31ea:	02 00 00    	nop       
	...
    31f0:	14 00 00    	nop       
	...
    31f8:	74 0e 00    	nop       
    31fa:	0a 00 00    	nop       
    31fc:	02 00 00    	nop       
	...
    3206:	32 0e 00    	nop       
    3208:	10 00 00    	nop       
    320a:	00 00 00    	nop       
    320c:	a6 0e 00    	nop       
    320e:	06 00 00    	nop       
    3210:	00 00 00    	nop       
    3212:	00 21 00    	nop       
    3214:	20 01 00    	nop       
    3216:	02 00 00    	nop       
    3218:	83 10 cc    	sac       A, #0x1, w3
    321a:	7f 00 00    	nop       
	...
    322a:	00 4c 1d    	subbr.b   w10, w0, [w8]
    322c:	ac 0d 93    	mov.w     [w12+788], w11
    322e:	04 cc 7f    	mov.b     w4, [w8]
	...
    323c:	99 19 1e    	subbr.w   w12, [w9], [w3++]
    323e:	00 99 19    	subbr.w   w3, w0, [w2++]
    3240:	4c 1d ac    	btsts.b   0x1d4c, #0x0
    3242:	0d a3 08    	do        w13, 0x131de
    3244:	cc 7f 00 
	...
    3254:	00 00 4c    	addc.w    w8, w0, w0
    3256:	1d ac 0d    	bra       OB, 0xffff8a92
    3258:	b3 0c cc    	sac       A, #0x9, [w3++]
    325a:	7f 00 00    	nop       
	...
    326a:	00 4c 1d    	subbr.b   w10, w0, [w8]
    326c:	ac 0d d5    	lsr.w     0xdac, WREG
    326e:	00 ff 7f    	.pword 0x7fff00
	...
    3280:	4c 1d ac    	btsts.b   0x1d4c, #0x0
    3282:	0d 93 04    	goto      0x7fcc930d <__FUID3.sec+0x7ed492f7>
    3284:	cc 7f 00 
	...
    3290:	00 00 99    	mov.w     w0, [w0+256]
    3292:	19 1d 00    	nop       
    3294:	99 19 4c    	addc.w    w8, [w9], [w3++]
    3296:	1d 54 f2    	.pword 0xf2541d
    3298:	e1 14 c0    	mac       w4 * w5, A, [w8]+=6, w5, [w11], w5, [w13]+=2
    329a:	7f 00 00    	nop       
	...
    32aa:	00 4c 1d    	subbr.b   w10, w0, [w8]
    32ac:	ac 0d f1    	mac       w5 * w5, A, [w8]-=4, w4, [w11]+=6, w7
    32ae:	18 c0 7f    	mov.b     [w8], w0
	...
    32c0:	4c 1d ac    	btsts.b   0x1d4c, #0x0
    32c2:	0d 00 00    	nop       
	...
    32d8:	b6 0e 00    	nop       
    32da:	04 00 00    	nop       
    32dc:	02 00 00    	nop       
    32de:	00 00 b8    	mul.uu    w0, w0, w0
    32e0:	6e 00 00    	nop       
    32e2:	50 0e 00    	nop       
    32e4:	0c 00 00    	nop       
    32e6:	00 00 00    	nop       
    32e8:	90 0e 00    	nop       
    32ea:	08 00 00    	nop       
    32ec:	02 00 00    	nop       
	...
    32f4:	ba 0e 00    	nop       
    32f6:	04 00 00    	nop       
    32f8:	00 00 00    	nop       
    32fa:	42 0e 00    	nop       
    32fc:	0e 00 00    	nop       
    32fe:	02 00 00    	nop       
    3300:	00 00 76    	ior.w     w12, w0, w0
    3302:	56 00 00    	nop       
    3304:	00 00 06    	return    
	...
    330a:	1a 0d 00    	nop       
    330c:	38 00 00    	nop       
    330e:	00 00 00    	nop       
    3310:	00 20 00    	nop       
    3312:	00 01 00    	nop       
    3314:	00 00 00    	nop       
    3316:	d0 0e 00    	nop       
    3318:	02 00 00    	nop       
    331a:	02 00 00    	nop       
    331c:	00 00 00    	nop       
    331e:	5c 0e 00    	nop       
    3320:	0c 00 00    	nop       
    3322:	00 00 00    	nop       
    3324:	ea 0d 00    	nop       
    3326:	14 00 00    	nop       
    3328:	02 00 00    	nop       
	...
    3338:	68 0e 00    	nop       
    333a:	0c 00 00    	nop       
    333c:	02 00 00    	nop       
    333e:	00 00 00    	nop       
    3340:	40 00 00    	nop       
	...
    3346:	d2 0e 00    	nop       
    3348:	02 00 00    	nop       
    334a:	00 00 00    	nop       
    334c:	fe 0d 00    	nop       
    334e:	12 00 00    	nop       
    3350:	02 00 00    	nop       
	...
    335e:	9e 0c 00    	nop       
    3360:	3e 00 00    	nop       
    3362:	00 00 00    	nop       
    3364:	ac 0e 00    	nop       
    3366:	06 00 00    	nop       
    3368:	02 00 00    	nop       
    336a:	aa 81 18    	subbr.w   w1, [w10--], w3
    336c:	00 00 00    	nop       
    336e:	52 0d 00    	nop       
    3370:	38 00 00    	nop       
    3372:	00 00 00    	nop       
    3374:	02 0b 00    	nop       
    3376:	a0 00 00    	nop       
    3378:	02 00 00    	nop       
    337a:	85 2f 00    	nop       
    337c:	40 00 00    	nop       
    337e:	00 00 00    	nop       
    3380:	00 00 40    	add.w     w0, w0, w0
	...
    3386:	00 40 00    	nop       
    3388:	40 00 00    	nop       
    338a:	00 00 00    	nop       
    338c:	00 00 40    	add.w     w0, w0, w0
	...
    3392:	00 40 00    	nop       
	...
    33be:	cf 07 00    	nop       
    33c0:	00 00 20    	mov.w     #0x0, w0
    33c2:	00 00 00    	nop       
    33c4:	00 00 20    	mov.w     #0x0, w0
	...
    33e6:	7e 0e 00    	nop       
    33e8:	0a 00 00    	nop       
    33ea:	00 00 00    	nop       
    33ec:	d4 0e 00    	nop       
    33ee:	02 00 00    	nop       
    33f0:	02 00 00    	nop       
    33f2:	00 00 00    	nop       
    33f4:	d6 0e 00    	nop       
    33f6:	02 00 00    	nop       
    33f8:	00 00 00    	nop       
    33fa:	98 0e 00    	nop       
    33fc:	08 00 00    	nop       
    33fe:	02 00 00    	nop       
    3400:	00 00 1e    	subbr.w   w12, w0, w0
    3402:	a6 01 00    	nop       
    3404:	00 00 00    	nop       
    3406:	d4 0d 00    	nop       
    3408:	16 00 00    	nop       
    340a:	00 00 00    	nop       
    340c:	dc 0c 00    	nop       
    340e:	3e 00 00    	nop       
    3410:	02 00 00    	nop       
    3412:	28 00 00    	nop       
	...
    343c:	10 0e 00    	nop       
    343e:	12 00 00    	nop       
    3440:	02 00 00    	nop       
	...
    344c:	00 01 00    	nop       
    344e:	8a 0d 00    	nop       
    3450:	2e 00 00    	nop       
    3452:	02 00 00    	nop       
	...
    3458:	00 40 00    	nop       
    345a:	40 00 40    	add.w     w0, [--w0], w0
	...
    3474:	b8 0d 00    	nop       
    3476:	1c 00 00    	nop       
    3478:	00 00 00    	nop       
    347a:	d8 0e 00    	nop       
    347c:	02 00 00    	nop       
    347e:	02 00 00    	nop       
    3480:	00 00 00    	nop       
    3482:	00 27 00    	nop       
    3484:	00 06 00    	nop       
    3486:	02 00 00    	nop       
    3488:	00 00 c0    	mac       w4 * w5, A, [w8], w4, [w10], w4, w13
	...
    34a8:	00 00 c0    	mac       w4 * w5, A, [w8], w4, [w10], w4, w13
    34aa:	01 c0 86    	mov.w     0xd800, w1
    34ac:	08 00 00    	nop       
	...
    34c8:	00 00 c0    	mac       w4 * w5, A, [w8], w4, [w10], w4, w13
    34ca:	00 c0 96    	mov.b     [w0-192], w0
    34cc:	09 00 00    	nop       
	...
    34e8:	00 00 c0    	mac       w4 * w5, A, [w8], w4, [w10], w4, w13
    34ea:	00 c0 a6    	btss.w    w0, #0xc
    34ec:	0a 00 00    	nop       
	...
    3508:	00 00 c0    	mac       w4 * w5, A, [w8], w4, [w10], w4, w13
    350a:	00 c0 b6    	xor.b     0x0, WREG
    350c:	0b 00 00    	nop       
	...
    3528:	00 00 c0    	mac       w4 * w5, A, [w8], w4, [w10], w4, w13
    352a:	00 c0 c6    	msc       w6 * w7, B, [w8], w4, [w10], w4, w13
    352c:	0c 00 00    	nop       
	...
    3548:	00 00 c0    	mac       w4 * w5, A, [w8], w4, [w10], w4, w13
    354a:	00 c0 d6    	rlc.b     0x0, WREG
    354c:	0d 00 00    	nop       
	...
    3568:	00 00 c0    	mac       w4 * w5, A, [w8], w4, [w10], w4, w13
    356a:	00 c0 e6    	cpslt.w   w8, w0
    356c:	0e 00 00    	nop       
	...
    3588:	00 00 c0    	mac       w4 * w5, A, [w8], w4, [w10], w4, w13
    358a:	00 00 f7    	.pword 0xf70000
    358c:	4f 00 00    	nop       
	...
    35aa:	00 60 06    	.pword 0x066000
    35ac:	01 01 00    	nop       
	...
    35ca:	00 60 16    	subr.b    w12, w0, [--w0]
    35cc:	02 01 00    	nop       
	...
    35ea:	00 60 26    	mov.w     #0x6600, w0
    35ec:	03 01 00    	nop       
	...
    360a:	00 60 36    	bra       LEU, 0xf60c
    360c:	04 01 00    	nop       
	...
    362a:	00 60 46    	add.b     w12, w0, [--w0]
    362c:	05 01 00    	nop       
	...
    364a:	00 60 56    	sub.b     w12, w0, [--w0]
    364c:	06 01 00    	nop       
	...
    366a:	00 60 66    	and.b     w12, w0, [--w0]
    366c:	07 01 00    	nop       
	...
    368a:	00 a0 76    	ior.w     w13, w0, [--w0]
    368c:	48 01 00    	nop       
	...
    36a8:	00 00 c0    	mac       w4 * w5, A, [w8], w4, [w10], w4, w13
    36aa:	00 30 45    	.pword 0x453000
    36ac:	18 00 00    	nop       
	...
    36c8:	00 00 c0    	mac       w4 * w5, A, [w8], w4, [w10], w4, w13
    36ca:	00 30 35    	bra       LT, 0x96cc
    36cc:	19 00 00    	nop       
	...
    36e8:	00 00 c0    	mac       w4 * w5, A, [w8], w4, [w10], w4, w13
    36ea:	00 30 25    	mov.w     #0x5300, w0
    36ec:	1a 00 00    	nop       
	...
    3708:	00 00 c0    	mac       w4 * w5, A, [w8], w4, [w10], w4, w13
    370a:	00 30 15    	.pword 0x153000
    370c:	1b 00 00    	nop       
	...
    3728:	00 00 c0    	mac       w4 * w5, A, [w8], w4, [w10], w4, w13
    372a:	00 30 54    	.pword 0x543000
    372c:	1c 00 00    	nop       
	...
    3748:	00 00 c0    	mac       w4 * w5, A, [w8], w4, [w10], w4, w13
    374a:	00 30 fc    	disi      #0x3000
    374c:	1d 00 00    	nop       
	...
    3768:	00 00 c0    	mac       w4 * w5, A, [w8], w4, [w10], w4, w13
    376a:	00 30 e0    	.pword 0xe03000
    376c:	1e 00 00    	nop       
	...
    3788:	00 00 c0    	mac       w4 * w5, A, [w8], w4, [w10], w4, w13
    378a:	00 30 f0    	mac       w4 * w4, A, [w8], w7, [w10], w4
    378c:	1f 00 00    	nop       
	...
    37a8:	00 00 c0    	mac       w4 * w5, A, [w8], w4, [w10], w4, w13
    37aa:	00 10 62    	and.w     w4, w0, [w0--]
    37ac:	20 00 00    	nop       
	...
    37c8:	00 00 c0    	mac       w4 * w5, A, [w8], w4, [w10], w4, w13
    37ca:	00 10 72    	ior.w     w4, w0, [w0--]
    37cc:	21 00 00    	nop       
	...
    37e8:	00 00 c0    	mac       w4 * w5, A, [w8], w4, [w10], w4, w13
    37ea:	00 10 02    	call      0x221000 <ACC_S+0x217e9e>
    37ec:	22 00 00 
	...
    3808:	00 00 c0    	mac       w4 * w5, A, [w8], w4, [w10], w4, w13
    380a:	00 10 12    	subr.w    w4, w0, [w0--]
    380c:	23 00 00    	nop       
	...
    3828:	00 00 c0    	mac       w4 * w5, A, [w8], w4, [w10], w4, w13
    382a:	00 10 32    	bra       Z, 0x582c
    382c:	24 00 00    	nop       
	...
    3848:	00 00 c0    	mac       w4 * w5, A, [w8], w4, [w10], w4, w13
    384a:	00 10 42    	add.w     w4, w0, [w0--]
    384c:	25 00 00    	nop       
	...
    3888:	58 09 00    	nop       
    388a:	06 01 00    	nop       
    388c:	00 00 00    	nop       
    388e:	be 0e 00    	nop       
    3890:	04 00 00    	nop       
    3892:	02 00 00    	nop       
	...
    3898:	00 23 00    	nop       
    389a:	00 02 00    	nop       
    389c:	00 00 00    	nop       
    389e:	00 25 00    	nop       
    38a0:	00 02 00    	nop       
    38a2:	00 00 00    	nop       
    38a4:	c2 0e 00    	nop       
    38a6:	04 00 00    	nop       
    38a8:	00 00 00    	nop       
    38aa:	c6 0e 00    	nop       
    38ac:	04 00 00    	nop       
    38ae:	02 00 00    	nop       
	...
    38b4:	a2 0b 00    	nop       
    38b6:	9a 00 00    	nop       
    38b8:	00 00 00    	nop       
    38ba:	c0 77 00    	nop       
    38bc:	2a 00 00    	nop       
    38be:	02 00 00    	nop       
    38c0:	20 00 c0    	mac       w4 * w5, A, [w8], w4, [w11], w4, w13
    38c2:	90 ff 90    	mov.b     [w0+121], w15
    38c4:	01 00 00    	nop       
    38c6:	76 3f 76    	.pword 0x763f76
    38c8:	00 76 20    	mov.w     #0x760, w0
    38ca:	00 c0 90    	mov.b     [w0+64], w0
    38cc:	ff 90 01    	.pword 0x0190ff
    38ce:	00 40 76    	ior.b     w12, w0, w0
    38d0:	7f 76 40    	.pword 0x40767f
    38d2:	76 20 00    	nop       
    38d4:	c0 90 ff    	nopr      
    38d6:	90 01 00    	nop       
    38d8:	80 76 bf    	.pword 0xbf7680
    38da:	76 80 76    	ior.w     w13, #0x16, w0
    38dc:	00 76 00    	nop       
    38de:	c0 00 00    	nop       
    38e0:	02 00 00    	nop       
	...
    3962:	da 0e 00    	nop       
    3964:	02 00 00    	nop       
    3966:	02 00 00    	nop       
    3968:	00 00 00    	nop       
    396a:	50 08 00    	nop       
    396c:	08 01 00    	nop       
    396e:	02 00 00    	nop       
    3970:	6e 4a 6e    	xor.b     w12, #0xe, [w4]
    3972:	4a 6e 4a    	addc.b    w4, [--w10], [++w12]
    3974:	6e 4a 6e    	xor.b     w12, #0xe, [w4]
    3976:	4a 6e 4a    	addc.b    w4, [--w10], [++w12]
    3978:	6e 4a 6e    	xor.b     w12, #0xe, [w4]
    397a:	4a 00 00    	nop       
	...
    3986:	00 70 08    	.pword 0x087000
    3988:	70 22 00    	nop       
	...
    399a:	00 8e 08    	do        w0, 0x7e7e
    399c:	70 22 00 
	...
    39ae:	00 ac 08    	do        w0, 0x7e92
    39b0:	70 22 00 
	...
    39c2:	00 ca 08    	do        w0, 0x7ea6
    39c4:	70 22 00 
	...
    39d6:	00 e8 08    	do        w0, 0x7eba
    39d8:	70 22 00 
	...
    39ea:	00 06 09    	repeat    #0x600
    39ec:	70 22 00    	nop       
	...
    39fe:	00 24 09    	repeat    #0x2400
    3a00:	70 22 00    	nop       
	...
    3a12:	00 42 09    	.pword 0x094200
    3a14:	70 22 00    	nop       
	...
    3a20:	5e 0a 00    	nop       
    3a22:	a4 00 00    	nop       
    3a24:	00 00 00    	nop       
    3a26:	70 22 00    	nop       
    3a28:	90 00 00    	nop       
    3a2a:	00 00 00    	nop       
    3a2c:	ca 0e 00    	nop       
    3a2e:	04 00 00    	nop       
    3a30:	02 00 00    	nop       
    3a32:	01 00 00    	nop       
    3a34:	00 00 00    	nop       
    3a36:	3c 0c 00    	nop       
    3a38:	62 00 00    	nop       
    3a3a:	00 00 00    	nop       
    3a3c:	00 2d 00    	nop       
    3a3e:	30 00 00    	nop       
    3a40:	00 00 00    	nop       
    3a42:	30 2d 00    	nop       
    3a44:	30 00 00    	nop       
    3a46:	00 00 00    	nop       
    3a48:	00 2e 00    	nop       
    3a4a:	00 07 00    	nop       
    3a4c:	00 00 00    	nop       
    3a4e:	00 78 00    	nop       
    3a50:	40 01 00    	nop       
    3a52:	00 00 00    	nop       
    3a54:	00 7a 00    	nop       
    3a56:	40 01 00    	nop       
    3a58:	00 00 00    	nop       
    3a5a:	00 7c 00    	nop       
    3a5c:	40 01 00    	nop       
    3a5e:	00 00 00    	nop       
    3a60:	60 2d 00    	nop       
    3a62:	2a 00 00    	nop       
    3a64:	02 00 00    	nop       
    3a66:	20 00 00    	nop       
    3a68:	91 3f 91    	mov.w     [w1+370], w15
    3a6a:	01 00 00    	nop       
    3a6c:	77 3f 77    	.pword 0x773f77
    3a6e:	00 77 20    	mov.w     #0x770, w0
    3a70:	00 00 91    	mov.w     [w0+256], w0
    3a72:	3f 91 01    	.pword 0x01913f
    3a74:	00 40 77    	ior.b     w14, w0, w0
    3a76:	7f 77 40    	.pword 0x40777f
    3a78:	77 20 00    	nop       
    3a7a:	00 91 3f    	bra       0xffff5c7c
    3a7c:	91 01 00    	nop       
    3a7e:	80 77 bf    	.pword 0xbf7780
    3a80:	77 80 77    	ior.w     w15, #0x17, w0
    3a82:	00 77 00    	nop       
    3a84:	c0 00 00    	nop       
    3a86:	02 00 00    	nop       
	...
    3b08:	ea 77 00    	nop       
    3b0a:	12 00 00    	nop       
    3b0c:	02 00 00    	nop       
    3b0e:	01 00 02    	call      0x4000001 <__FUID3.sec+0x307ffeb>
    3b10:	00 04 00 
    3b12:	08 00 10    	subr.w    w0, w8, w0
    3b14:	00 00 00    	nop       
    3b16:	20 2b 2d    	mov.w     #0xd2b2, w0
    3b18:	23 30 00    	nop       
    3b1a:	68 22 00    	nop       
    3b1c:	08 00 00    	nop       
    3b1e:	02 00 00    	nop       
    3b20:	68 6a 6c    	xor.b     w8, #0x8, [++w4]
    3b22:	74 7a 4c    	.pword 0x4c7a74
    3b24:	00 00 00    	nop       
    3b26:	20 22 00    	nop       
    3b28:	48 00 00    	nop       
    3b2a:	02 00 00    	nop       
	...
    3b30:	24 40 00    	nop       
    3b32:	00 00 00    	nop       
    3b34:	00 00 59    	subb.w    w2, w0, w0
    3b36:	40 00 00    	nop       
    3b38:	00 00 00    	nop       
    3b3a:	88 c3 40    	add.b     w1, w8, w7
    3b3c:	00 00 00    	nop       
    3b3e:	00 84 d7    	rrc.w     0x400, WREG
    3b40:	97 41 00    	nop       
    3b42:	80 e0 37    	bra       0xfffffc44
    3b44:	79 c3 41    	add.b     w3, #0x19, w6
    3b46:	43 17 6e    	xor.w     w12, [--w3], [w14--]
    3b48:	05 b5 b5    	subb.w    0x1505
    3b4a:	b8 93 46    	add.w     w13, [w8++], [w7--]
    3b4c:	f5 f9 3f    	bra       0x2f38
    3b4e:	e9 03 4f    	addc.w    w14, #0x9, w7
    3b50:	38 4d 32    	bra       Z, 0xd5c2
    3b52:	1d 30 f9    	pop       0x301d
    3b54:	48 77 82    	mov.w     0x4ee8, w8
    3b56:	5a 3c bf    	.pword 0xbf3c5a
    3b58:	73 7f dd    	.pword 0xdd7f73
    3b5a:	4f 15 75    	ior.w     w10, [--w15], [w10--]
    3b5c:	c0 76 00    	nop       
    3b5e:	32 00 00    	nop       
    3b60:	02 00 00    	nop       
    3b62:	4e 41 4e    	addc.b    w12, [--w14], w2
    3b64:	00 6e 61    	and.b     w2, w0, [++w12]
    3b66:	6e 00 49    	addc.w    w2, #0xe, w0
    3b68:	4e 46 00    	nop       
    3b6a:	69 6e 66    	and.b     w12, #0x9, [++w12]
    3b6c:	00 30 31    	bra       C, 0x9b6e
    3b6e:	32 33 34    	bra       LE, 0xa1d4
    3b70:	35 36 37    	bra       0xa7dc
    3b72:	38 39 61    	.pword 0x613938
    3b74:	62 63 64    	and.b     w8, #0x2, [--w6]
    3b76:	65 66 00    	nop       
    3b78:	30 31 32    	bra       Z, 0x9dda
    3b7a:	33 34 35    	bra       LT, 0xa3e2
    3b7c:	36 37 38    	bra       NOV, 0xa9ea
    3b7e:	39 41 42    	add.b     w4, [w9++], w2
    3b80:	43 44 45    	add.b     w10, [--w3], w8
    3b82:	46 00 00    	nop       
    3b84:	8a 2d 00    	nop       
    3b86:	22 00 00    	nop       
    3b88:	02 00 00    	nop       
    3b8a:	30 31 32    	bra       Z, 0x9dec
    3b8c:	33 34 35    	bra       LT, 0xa3f4
    3b8e:	36 37 38    	bra       NOV, 0xa9fc
    3b90:	39 61 62    	and.b     w4, [w9++], [--w2]
    3b92:	63 64 65    	and.b     w10, #0x3, [--w8]
    3b94:	66 00 30    	bra       OV, 0x3c62
    3b96:	31 32 33    	bra       N, 0x9ffa
    3b98:	34 35 36    	bra       LEU, 0xa602
    3b9a:	37 38 39    	bra       NC, 0xac0a
    3b9c:	41 42 43    	add.b     w6, [--w1], w4
    3b9e:	44 45 46    	add.b     w12, [--w4], w10
    3ba0:	00 00 00    	nop       
    3ba2:	fc 77 00    	nop       
    3ba4:	02 00 00    	nop       
    3ba6:	02 00 00    	nop       
    3ba8:	00 00 00    	nop       
    3baa:	fe 77 00    	nop       
    3bac:	02 00 00    	nop       
    3bae:	02 00 00    	nop       
    3bb0:	30 00 00    	nop       
    3bb2:	f2 76 00    	nop       
    3bb4:	02 00 00    	nop       
    3bb6:	02 00 00    	nop       
	...
Disassembly of section .text:

00003bbc <_udb_init_capture>:
    3bbc:	02 00 fa    	lnk       #0x2
    3bbe:	00 00 eb    	clr.w     w0
    3bc0:	00 0f 78    	mov.w     w0, [w14]
    3bc2:	10 00 37    	bra       0x3be4 <.L2>

00003bc4 <.L3>:
    3bc4:	9e 01 78    	mov.w     [w14], w3
    3bc6:	9e 00 78    	mov.w     [w14], w1
    3bc8:	01 81 40    	add.w     w1, w1, w2
    3bca:	a0 9d 20    	mov.w     #0x9da, w0
    3bcc:	00 01 41    	add.w     w2, w0, w2
    3bce:	00 00 eb    	clr.w     w0
    3bd0:	00 09 78    	mov.w     w0, [w2]
    3bd2:	81 80 40    	add.w     w1, w1, w1
    3bd4:	a0 9d 20    	mov.w     #0x9da, w0
    3bd6:	00 80 40    	add.w     w1, w0, w0
    3bd8:	10 01 78    	mov.w     [w0], w2
    3bda:	83 80 41    	add.w     w3, w3, w1
    3bdc:	80 95 20    	mov.w     #0x958, w0
    3bde:	00 80 40    	add.w     w1, w0, w0
    3be0:	02 08 78    	mov.w     w2, [w0]
    3be2:	1e 0f e8    	inc.w     [w14], [w14]

00003be4 <.L2>:
    3be4:	80 00 20    	mov.w     #0x8, w0
    3be6:	9e 0f 10    	subr.w    w0, [w14], [w15]
    3be8:	ed ff 34    	bra       LE, 0x3bc4 <.L3>
    3bea:	00 00 eb    	clr.w     w0
    3bec:	80 08 88    	mov.w     w0, 0x110
    3bee:	00 00 eb    	clr.w     w0
    3bf0:	30 08 88    	mov.w     w0, 0x106
    3bf2:	00 80 eb    	setm.w    w0
    3bf4:	60 08 88    	mov.w     w0, 0x10c
    3bf6:	01 11 20    	mov.w     #0x110, w1
    3bf8:	91 40 78    	mov.b     [w1], w1
    3bfa:	f0 cc b3    	mov.b     #0xcf, w0
    3bfc:	00 c0 60    	and.b     w1, w0, w0
    3bfe:	00 44 a0    	bset.b    w0, #0x4
    3c00:	10 e1 b7    	mov.b     WREG, 0x110
    3c02:	10 21 a9    	bclr.b    0x110, #0x1
    3c04:	11 e1 a8    	bset.b    0x111, #0x7
    3c06:	71 0a 20    	mov.w     #0xa7, w1
    3c08:	91 40 78    	mov.b     [w1], w1
    3c0a:	f0 c8 b3    	mov.b     #0x8f, w0
    3c0c:	00 c0 60    	and.b     w1, w0, w0
    3c0e:	01 c6 b3    	mov.b     #0x60, w1
    3c10:	01 40 70    	ior.b     w0, w1, w0
    3c12:	a7 e0 b7    	mov.b     WREG, 0xa7
    3c14:	84 e0 a9    	bclr.b    0x84, #0x7
    3c16:	94 e0 a8    	bset.b    0x94, #0x7
    3c18:	00 00 eb    	clr.w     w0
    3c1a:	10 0a 88    	mov.w     w0, 0x142
    3c1c:	42 e1 a8    	bset.b    0x142, #0x7
    3c1e:	21 14 20    	mov.w     #0x142, w1
    3c20:	91 40 78    	mov.b     [w1], w1
    3c22:	80 cf b3    	mov.b     #0xf8, w0
    3c24:	00 c0 60    	and.b     w1, w0, w0
    3c26:	00 04 a0    	bset.b    w0, #0x0
    3c28:	42 e1 b7    	mov.b     WREG, 0x142
    3c2a:	10 0a 80    	mov.w     0x142, w0
    3c2c:	30 0a 88    	mov.w     w0, 0x146
    3c2e:	30 0a 80    	mov.w     0x146, w0
    3c30:	50 0a 88    	mov.w     w0, 0x14a
    3c32:	50 0a 80    	mov.w     0x14a, w0
    3c34:	70 0a 88    	mov.w     w0, 0x14e
    3c36:	70 0a 80    	mov.w     0x14e, w0
    3c38:	90 0a 88    	mov.w     w0, 0x152
    3c3a:	90 0a 80    	mov.w     0x152, w0
    3c3c:	b0 0a 88    	mov.w     w0, 0x156
    3c3e:	b0 0a 80    	mov.w     0x156, w0
    3c40:	d0 0a 88    	mov.w     w0, 0x15a
    3c42:	d0 0a 80    	mov.w     0x15a, w0
    3c44:	f0 0a 88    	mov.w     w0, 0x15e
    3c46:	d3 02 a8    	bset.b    0x2d3, #0x0
    3c48:	d3 22 a8    	bset.b    0x2d3, #0x1
    3c4a:	d3 42 a8    	bset.b    0x2d3, #0x2
    3c4c:	d3 62 a8    	bset.b    0x2d3, #0x3
    3c4e:	d3 82 a8    	bset.b    0x2d3, #0x4
    3c50:	d3 a2 a8    	bset.b    0x2d3, #0x5
    3c52:	d3 c2 a8    	bset.b    0x2d3, #0x6
    3c54:	d3 e2 a8    	bset.b    0x2d3, #0x7
    3c56:	41 0a 20    	mov.w     #0xa4, w1
    3c58:	91 40 78    	mov.b     [w1], w1
    3c5a:	f0 c8 b3    	mov.b     #0x8f, w0
    3c5c:	00 c0 60    	and.b     w1, w0, w0
    3c5e:	01 c6 b3    	mov.b     #0x60, w1
    3c60:	01 40 70    	ior.b     w0, w1, w0
    3c62:	a4 e0 b7    	mov.b     WREG, 0xa4
    3c64:	61 0a 20    	mov.w     #0xa6, w1
    3c66:	91 40 78    	mov.b     [w1], w1
    3c68:	f0 c8 b3    	mov.b     #0x8f, w0
    3c6a:	00 c0 60    	and.b     w1, w0, w0
    3c6c:	01 c6 b3    	mov.b     #0x60, w1
    3c6e:	01 40 70    	ior.b     w0, w1, w0
    3c70:	a6 e0 b7    	mov.b     WREG, 0xa6
    3c72:	61 0b 20    	mov.w     #0xb6, w1
    3c74:	91 40 78    	mov.b     [w1], w1
    3c76:	f0 c8 b3    	mov.b     #0x8f, w0
    3c78:	00 c0 60    	and.b     w1, w0, w0
    3c7a:	01 c6 b3    	mov.b     #0x60, w1
    3c7c:	01 40 70    	ior.b     w0, w1, w0
    3c7e:	b6 e0 b7    	mov.b     WREG, 0xb6
    3c80:	71 0b 20    	mov.w     #0xb7, w1
    3c82:	91 40 78    	mov.b     [w1], w1
    3c84:	80 cf b3    	mov.b     #0xf8, w0
    3c86:	00 c0 60    	and.b     w1, w0, w0
    3c88:	60 40 b3    	ior.b     #0x6, w0
    3c8a:	b7 e0 b7    	mov.b     WREG, 0xb7
    3c8c:	71 0b 20    	mov.w     #0xb7, w1
    3c8e:	91 40 78    	mov.b     [w1], w1
    3c90:	f0 c8 b3    	mov.b     #0x8f, w0
    3c92:	00 c0 60    	and.b     w1, w0, w0
    3c94:	01 c6 b3    	mov.b     #0x60, w1
    3c96:	01 40 70    	ior.b     w0, w1, w0
    3c98:	b7 e0 b7    	mov.b     WREG, 0xb7
    3c9a:	81 0b 20    	mov.w     #0xb8, w1
    3c9c:	91 40 78    	mov.b     [w1], w1
    3c9e:	80 cf b3    	mov.b     #0xf8, w0
    3ca0:	00 c0 60    	and.b     w1, w0, w0
    3ca2:	60 40 b3    	ior.b     #0x6, w0
    3ca4:	b8 e0 b7    	mov.b     WREG, 0xb8
    3ca6:	f1 0a 20    	mov.w     #0xaf, w1
    3ca8:	91 40 78    	mov.b     [w1], w1
    3caa:	80 cf b3    	mov.b     #0xf8, w0
    3cac:	00 c0 60    	and.b     w1, w0, w0
    3cae:	60 40 b3    	ior.b     #0x6, w0
    3cb0:	af e0 b7    	mov.b     WREG, 0xaf
    3cb2:	f1 0a 20    	mov.w     #0xaf, w1
    3cb4:	91 40 78    	mov.b     [w1], w1
    3cb6:	f0 c8 b3    	mov.b     #0x8f, w0
    3cb8:	00 c0 60    	and.b     w1, w0, w0
    3cba:	01 c6 b3    	mov.b     #0x60, w1
    3cbc:	01 40 70    	ior.b     w0, w1, w0
    3cbe:	af e0 b7    	mov.b     WREG, 0xaf
    3cc0:	84 20 a9    	bclr.b    0x84, #0x1
    3cc2:	84 a0 a9    	bclr.b    0x84, #0x5
    3cc4:	88 a0 a9    	bclr.b    0x88, #0x5
    3cc6:	88 c0 a9    	bclr.b    0x88, #0x6
    3cc8:	88 e0 a9    	bclr.b    0x88, #0x7
    3cca:	89 00 a9    	bclr.b    0x89, #0x0
    3ccc:	86 c0 a9    	bclr.b    0x86, #0x6
    3cce:	86 e0 a9    	bclr.b    0x86, #0x7
    3cd0:	94 20 a8    	bset.b    0x94, #0x1
    3cd2:	94 a0 a8    	bset.b    0x94, #0x5
    3cd4:	98 a0 a8    	bset.b    0x98, #0x5
    3cd6:	98 c0 a8    	bset.b    0x98, #0x6
    3cd8:	98 e0 a8    	bset.b    0x98, #0x7
    3cda:	99 00 a8    	bset.b    0x99, #0x0
    3cdc:	96 c0 a8    	bset.b    0x96, #0x6
    3cde:	96 e0 a8    	bset.b    0x96, #0x7
    3ce0:	00 80 fa    	ulnk      
    3ce2:	00 00 06    	return    

00003ce4 <_rc_pin>:
    3ce4:	10 00 fa    	lnk       #0x10
    3ce6:	30 07 98    	mov.w     w0, [w14+6]
    3ce8:	41 07 98    	mov.w     w1, [w14+8]
    3cea:	52 07 98    	mov.w     w2, [w14+10]
    3cec:	5e 00 90    	mov.w     [w14+10], w0
    3cee:	20 00 90    	mov.w     [w0+4], w0
    3cf0:	44 00 de    	lsr.w     w0, #0x4, w0
    3cf2:	7f 40 60    	and.b     w0, #0x1f, w0
    3cf4:	00 80 fb    	ze        w0, w0
    3cf6:	70 07 98    	mov.w     w0, [w14+14]
    3cf8:	7e 00 90    	mov.w     [w14+14], w0
    3cfa:	ee 0f 50    	sub.w     w0, #0xe, [w15]
    3cfc:	1c 00 32    	bra       Z, 0x3d36 <.L8>
    3cfe:	fe 00 90    	mov.w     [w14+14], w1
    3d00:	ee 8f 50    	sub.w     w1, #0xe, [w15]
    3d02:	07 00 3c    	bra       GT, 0x3d12 <.L12>
    3d04:	7e 00 90    	mov.w     [w14+14], w0
    3d06:	ec 0f 50    	sub.w     w0, #0xc, [w15]
    3d08:	16 00 32    	bra       Z, 0x3d36 <.L8>
    3d0a:	fe 00 90    	mov.w     [w14+14], w1
    3d0c:	ed 8f 50    	sub.w     w1, #0xd, [w15]
    3d0e:	0b 00 32    	bra       Z, 0x3d26 <.L9>
    3d10:	2c 02 37    	bra       0x416a <.L79>

00003d12 <.L12>:
    3d12:	7e 00 90    	mov.w     [w14+14], w0
    3d14:	f0 0f 50    	sub.w     w0, #0x10, [w15]
    3d16:	36 01 32    	bra       Z, 0x3f84 <.L10>
    3d18:	fe 00 90    	mov.w     [w14+14], w1
    3d1a:	f0 8f 50    	sub.w     w1, #0x10, [w15]
    3d1c:	04 00 35    	bra       LT, 0x3d26 <.L9>
    3d1e:	7e 00 90    	mov.w     [w14+14], w0
    3d20:	f1 0f 50    	sub.w     w0, #0x11, [w15]
    3d22:	28 01 32    	bra       Z, 0x3f74 <.L11>
    3d24:	22 02 37    	bra       0x416a <.L79>

00003d26 <.L9>:
    3d26:	4e 00 90    	mov.w     [w14+8], w0
    3d28:	e1 0f 50    	sub.w     w0, #0x1, [w15]
    3d2a:	03 00 3a    	bra       NZ, 0x3d32 <.L13>
    3d2c:	00 00 eb    	clr.w     w0
    3d2e:	40 07 98    	mov.w     w0, [w14+8]
    3d30:	02 00 37    	bra       0x3d36 <.L8>

00003d32 <.L13>:
    3d32:	10 00 20    	mov.w     #0x1, w0
    3d34:	40 07 98    	mov.w     w0, [w14+8]

00003d36 <.L8>:
    3d36:	4e 00 90    	mov.w     [w14+8], w0
    3d38:	e1 0f 50    	sub.w     w0, #0x1, [w15]
    3d3a:	07 00 3a    	bra       NZ, 0x3d4a <.L15>
    3d3c:	5e 00 90    	mov.w     [w14+10], w0
    3d3e:	be 00 90    	mov.w     [w14+6], w1
    3d40:	41 00 98    	mov.w     w1, [w0+8]
    3d42:	e1 52 80    	mov.w     0xa5c, w1
    3d44:	5e 00 90    	mov.w     [w14+10], w0
    3d46:	51 00 98    	mov.w     w1, [w0+10]
    3d48:	10 02 37    	bra       0x416a <.L79>

00003d4a <.L15>:
    3d4a:	5e 00 90    	mov.w     [w14+10], w0
    3d4c:	50 00 90    	mov.w     [w0+10], w0
    3d4e:	80 00 78    	mov.w     w0, w1
    3d50:	e0 52 80    	mov.w     0xa5c, w0
    3d52:	80 8f 50    	sub.w     w1, w0, [w15]
    3d54:	08 00 3a    	bra       NZ, 0x3d66 <.L18>
    3d56:	5e 00 90    	mov.w     [w14+10], w0
    3d58:	c0 00 90    	mov.w     [w0+8], w1
    3d5a:	3e 00 90    	mov.w     [w14+6], w0
    3d5c:	01 00 50    	sub.w     w0, w1, w0
    3d5e:	01 00 20    	mov.w     #0x0, w1
    3d60:	10 07 98    	mov.w     w0, [w14+2]
    3d62:	21 07 98    	mov.w     w1, [w14+4]
    3d64:	28 00 37    	bra       0x3db6 <.L20>

00003d66 <.L18>:
    3d66:	5e 00 90    	mov.w     [w14+10], w0
    3d68:	d0 00 90    	mov.w     [w0+10], w1
    3d6a:	e0 52 80    	mov.w     0xa5c, w0
    3d6c:	80 8f 50    	sub.w     w1, w0, [w15]
    3d6e:	10 00 31    	bra       C, 0x3d90 <.L21>
    3d70:	e0 52 80    	mov.w     0xa5c, w0
    3d72:	01 00 20    	mov.w     #0x0, w1
    3d74:	c0 01 dd    	sl.w      w0, #0x0, w3
    3d76:	02 00 20    	mov.w     #0x0, w2
    3d78:	3e 00 90    	mov.w     [w14+6], w0
    3d7a:	01 00 20    	mov.w     #0x0, w1
    3d7c:	02 01 40    	add.w     w0, w2, w2
    3d7e:	83 81 48    	addc.w    w1, w3, w3
    3d80:	5e 00 90    	mov.w     [w14+10], w0
    3d82:	d0 00 90    	mov.w     [w0+10], w1
    3d84:	40 00 90    	mov.w     [w0+8], w0
    3d86:	00 00 51    	sub.w     w2, w0, w0
    3d88:	81 80 59    	subb.w    w3, w1, w1
    3d8a:	10 07 98    	mov.w     w0, [w14+2]
    3d8c:	21 07 98    	mov.w     w1, [w14+4]
    3d8e:	13 00 37    	bra       0x3db6 <.L20>

00003d90 <.L21>:
    3d90:	e1 52 80    	mov.w     0xa5c, w1
    3d92:	5e 00 90    	mov.w     [w14+10], w0
    3d94:	50 00 90    	mov.w     [w0+10], w0
    3d96:	00 8f 50    	sub.w     w1, w0, [w14]
    3d98:	1e 00 78    	mov.w     [w14], w0
    3d9a:	01 00 20    	mov.w     #0x0, w1
    3d9c:	c0 01 dd    	sl.w      w0, #0x0, w3
    3d9e:	02 00 20    	mov.w     #0x0, w2
    3da0:	3e 00 90    	mov.w     [w14+6], w0
    3da2:	01 00 20    	mov.w     #0x0, w1
    3da4:	02 01 40    	add.w     w0, w2, w2
    3da6:	83 81 48    	addc.w    w1, w3, w3
    3da8:	5e 00 90    	mov.w     [w14+10], w0
    3daa:	40 00 90    	mov.w     [w0+8], w0
    3dac:	01 00 20    	mov.w     #0x0, w1
    3dae:	00 00 51    	sub.w     w2, w0, w0
    3db0:	81 80 59    	subb.w    w3, w1, w1
    3db2:	10 07 98    	mov.w     w0, [w14+2]
    3db4:	21 07 98    	mov.w     w1, [w14+4]

00003db6 <.L20>:
    3db6:	1e 01 90    	mov.w     [w14+2], w2
    3db8:	ae 01 90    	mov.w     [w14+4], w3
    3dba:	80 af 22    	mov.w     #0x2af8, w0
    3dbc:	01 00 20    	mov.w     #0x0, w1
    3dbe:	80 0f 51    	sub.w     w2, w0, [w15]
    3dc0:	81 8f 59    	subb.w    w3, w1, [w15]
    3dc2:	03 00 36    	bra       LEU, 0x3dca <.L23>
    3dc4:	80 af 22    	mov.w     #0x2af8, w0
    3dc6:	00 0f 78    	mov.w     w0, [w14]
    3dc8:	2e 00 37    	bra       0x3e26 <.L25>

00003dca <.L23>:
    3dca:	1e 01 90    	mov.w     [w14+2], w2
    3dcc:	ae 01 90    	mov.w     [w14+4], w3
    3dce:	f0 f9 20    	mov.w     #0xf9f, w0
    3dd0:	01 00 20    	mov.w     #0x0, w1
    3dd2:	80 0f 51    	sub.w     w2, w0, [w15]
    3dd4:	81 8f 59    	subb.w    w3, w1, [w15]
    3dd6:	03 00 3e    	bra       GTU, 0x3dde <.L26>
    3dd8:	00 fa 20    	mov.w     #0xfa0, w0
    3dda:	00 0f 78    	mov.w     w0, [w14]
    3ddc:	24 00 37    	bra       0x3e26 <.L25>

00003dde <.L26>:
    3dde:	1e 00 90    	mov.w     [w14+2], w0
    3de0:	00 0f 78    	mov.w     w0, [w14]
    3de2:	5e 00 90    	mov.w     [w14+10], w0
    3de4:	10 00 90    	mov.w     [w0+2], w0
    3de6:	70 00 60    	and.w     w0, #0x10, w0
    3de8:	00 00 e0    	cp0.w     w0
    3dea:	1d 00 32    	bra       Z, 0x3e26 <.L25>
    3dec:	5e 00 90    	mov.w     [w14+10], w0
    3dee:	10 00 90    	mov.w     [w0+2], w0
    3df0:	6f 40 60    	and.b     w0, #0xf, w0
    3df2:	00 40 e9    	dec.b     w0, w0
    3df4:	6f 40 60    	and.b     w0, #0xf, w0
    3df6:	5e 01 90    	mov.w     [w14+10], w2
    3df8:	00 80 fb    	ze        w0, w0
    3dfa:	ef 01 60    	and.w     w0, #0xf, w3
    3dfc:	92 00 90    	mov.w     [w2+2], w1
    3dfe:	00 ff 2f    	mov.w     #0xfff0, w0
    3e00:	00 80 60    	and.w     w1, w0, w0
    3e02:	03 00 70    	ior.w     w0, w3, w0
    3e04:	10 01 98    	mov.w     w0, [w2+2]
    3e06:	5e 00 90    	mov.w     [w14+10], w0
    3e08:	10 00 90    	mov.w     [w0+2], w0
    3e0a:	6f 40 60    	and.b     w0, #0xf, w0
    3e0c:	00 04 e0    	cp0.b     w0
    3e0e:	0b 00 3a    	bra       NZ, 0x3e26 <.L25>
    3e10:	5e 01 90    	mov.w     [w14+10], w2
    3e12:	92 00 90    	mov.w     [w2+2], w1
    3e14:	f0 fe 2f    	mov.w     #0xffef, w0
    3e16:	00 80 60    	and.w     w1, w0, w0
    3e18:	10 01 98    	mov.w     w0, [w2+2]
    3e1a:	5e 01 90    	mov.w     [w14+10], w2
    3e1c:	92 00 90    	mov.w     [w2+2], w1
    3e1e:	00 ff 2f    	mov.w     #0xfff0, w0
    3e20:	00 80 60    	and.w     w1, w0, w0
    3e22:	00 30 a0    	bset.w    w0, #0x3
    3e24:	10 01 98    	mov.w     w0, [w2+2]

00003e26 <.L25>:
    3e26:	5e 00 90    	mov.w     [w14+10], w0
    3e28:	10 00 90    	mov.w     [w0+2], w0
    3e2a:	70 00 60    	and.w     w0, #0x10, w0
    3e2c:	00 00 e0    	cp0.w     w0
    3e2e:	45 00 32    	bra       Z, 0x3eba <.L30>
    3e30:	5e 00 90    	mov.w     [w14+10], w0
    3e32:	10 00 90    	mov.w     [w0+2], w0
    3e34:	45 00 de    	lsr.w     w0, #0x5, w0
    3e36:	67 40 60    	and.b     w0, #0x7, w0
    3e38:	00 80 fb    	ze        w0, w0
    3e3a:	60 07 98    	mov.w     w0, [w14+12]
    3e3c:	ee 00 90    	mov.w     [w14+12], w1
    3e3e:	e3 8f 50    	sub.w     w1, #0x3, [w15]
    3e40:	1a 00 32    	bra       Z, 0x3e76 <.L36>
    3e42:	6e 00 90    	mov.w     [w14+12], w0
    3e44:	e3 0f 50    	sub.w     w0, #0x3, [w15]
    3e46:	07 00 3c    	bra       GT, 0x3e56 <.L40>
    3e48:	ee 00 90    	mov.w     [w14+12], w1
    3e4a:	e1 8f 50    	sub.w     w1, #0x1, [w15]
    3e4c:	0e 00 32    	bra       Z, 0x3e6a <.L34>
    3e4e:	6e 00 90    	mov.w     [w14+12], w0
    3e50:	e1 0f 50    	sub.w     w0, #0x1, [w15]
    3e52:	0e 00 3c    	bra       GT, 0x3e70 <.L35>
    3e54:	3f 00 37    	bra       0x3ed4 <.L43>

00003e56 <.L40>:
    3e56:	ee 00 90    	mov.w     [w14+12], w1
    3e58:	e5 8f 50    	sub.w     w1, #0x5, [w15]
    3e5a:	13 00 32    	bra       Z, 0x3e82 <.L38>
    3e5c:	6e 00 90    	mov.w     [w14+12], w0
    3e5e:	e5 0f 50    	sub.w     w0, #0x5, [w15]
    3e60:	0d 00 35    	bra       LT, 0x3e7c <.L37>
    3e62:	ee 00 90    	mov.w     [w14+12], w1
    3e64:	e6 8f 50    	sub.w     w1, #0x6, [w15]
    3e66:	10 00 32    	bra       Z, 0x3e88 <.L39>
    3e68:	35 00 37    	bra       0x3ed4 <.L43>

00003e6a <.L34>:
    3e6a:	00 fa 20    	mov.w     #0xfa0, w0
    3e6c:	00 0f 78    	mov.w     w0, [w14]
    3e6e:	32 00 37    	bra       0x3ed4 <.L43>

00003e70 <.L35>:
    3e70:	80 af 22    	mov.w     #0x2af8, w0
    3e72:	00 0f 78    	mov.w     w0, [w14]
    3e74:	2f 00 37    	bra       0x3ed4 <.L43>

00003e76 <.L36>:
    3e76:	c0 d4 21    	mov.w     #0x1d4c, w0
    3e78:	00 0f 78    	mov.w     w0, [w14]
    3e7a:	2c 00 37    	bra       0x3ed4 <.L43>

00003e7c <.L37>:
    3e7c:	a0 3b 21    	mov.w     #0x13ba, w0
    3e7e:	00 0f 78    	mov.w     w0, [w14]
    3e80:	29 00 37    	bra       0x3ed4 <.L43>

00003e82 <.L38>:
    3e82:	e0 6d 22    	mov.w     #0x26de, w0
    3e84:	00 0f 78    	mov.w     w0, [w14]
    3e86:	26 00 37    	bra       0x3ed4 <.L43>

00003e88 <.L39>:
    3e88:	5e 00 90    	mov.w     [w14+10], w0
    3e8a:	b0 00 90    	mov.w     [w0+6], w1
    3e8c:	f0 03 20    	mov.w     #0x3f, w0
    3e8e:	00 80 60    	and.w     w1, w0, w0
    3e90:	00 00 e0    	cp0.w     w0
    3e92:	10 00 32    	bra       Z, 0x3eb4 <.L41>
    3e94:	5e 00 90    	mov.w     [w14+10], w0
    3e96:	30 00 90    	mov.w     [w0+6], w0
    3e98:	f0 43 b2    	and.b     #0x3f, w0
    3e9a:	00 80 fb    	ze        w0, w0
    3e9c:	80 00 40    	add.w     w0, w0, w1
    3e9e:	80 95 20    	mov.w     #0x958, w0
    3ea0:	00 80 40    	add.w     w1, w0, w0
    3ea2:	10 00 78    	mov.w     [w0], w0
    3ea4:	82 00 20    	mov.w     #0x8, w2
    3ea6:	11 00 09    	repeat    #0x11
    3ea8:	02 00 d8    	div.sw    w0, w2
    3eaa:	80 00 78    	mov.w     w0, w1
    3eac:	c0 d4 21    	mov.w     #0x1d4c, w0
    3eae:	00 80 40    	add.w     w1, w0, w0
    3eb0:	00 0f 78    	mov.w     w0, [w14]
    3eb2:	10 00 37    	bra       0x3ed4 <.L43>

00003eb4 <.L41>:
    3eb4:	c0 d4 21    	mov.w     #0x1d4c, w0
    3eb6:	00 0f 78    	mov.w     w0, [w14]
    3eb8:	0d 00 37    	bra       0x3ed4 <.L43>

00003eba <.L30>:
    3eba:	5e 00 90    	mov.w     [w14+10], w0
    3ebc:	10 00 90    	mov.w     [w0+2], w0
    3ebe:	6f 40 60    	and.b     w0, #0xf, w0
    3ec0:	00 40 e8    	inc.b     w0, w0
    3ec2:	6f 40 60    	and.b     w0, #0xf, w0
    3ec4:	5e 01 90    	mov.w     [w14+10], w2
    3ec6:	00 80 fb    	ze        w0, w0
    3ec8:	ef 01 60    	and.w     w0, #0xf, w3
    3eca:	92 00 90    	mov.w     [w2+2], w1
    3ecc:	00 ff 2f    	mov.w     #0xfff0, w0
    3ece:	00 80 60    	and.w     w1, w0, w0
    3ed0:	03 00 70    	ior.w     w0, w3, w0
    3ed2:	10 01 98    	mov.w     w0, [w2+2]

00003ed4 <.L43>:
    3ed4:	40 2b 2e    	mov.w     #0xe2b4, w0
    3ed6:	1e 0f 40    	add.w     w0, [w14], [w14]
    3ed8:	1e 00 78    	mov.w     [w14], w0
    3eda:	43 00 dd    	sl.w      w0, #0x3, w0
    3edc:	00 0f 78    	mov.w     w0, [w14]
    3ede:	9e 00 78    	mov.w     [w14], w1
    3ee0:	5e 00 90    	mov.w     [w14+10], w0
    3ee2:	01 08 78    	mov.w     w1, [w0]
    3ee4:	5e 00 90    	mov.w     [w14+10], w0
    3ee6:	20 00 90    	mov.w     [w0+4], w0
    3ee8:	6f 41 60    	and.b     w0, #0xf, w2
    3eea:	02 80 fb    	ze        w2, w0
    3eec:	9e 01 78    	mov.w     [w14], w3
    3eee:	de 00 90    	mov.w     [w14+10], w1
    3ef0:	00 00 40    	add.w     w0, w0, w0
    3ef2:	70 00 40    	add.w     w0, #0x10, w0
    3ef4:	03 b0 78    	mov.w     w3, [w0+w1]
    3ef6:	02 40 e8    	inc.b     w2, w0
    3ef8:	6f 40 60    	and.b     w0, #0xf, w0
    3efa:	5e 01 90    	mov.w     [w14+10], w2
    3efc:	00 80 fb    	ze        w0, w0
    3efe:	ef 01 60    	and.w     w0, #0xf, w3
    3f00:	a2 00 90    	mov.w     [w2+4], w1
    3f02:	00 ff 2f    	mov.w     #0xfff0, w0
    3f04:	00 80 60    	and.w     w1, w0, w0
    3f06:	03 00 70    	ior.w     w0, w3, w0
    3f08:	20 01 98    	mov.w     w0, [w2+4]
    3f0a:	5e 00 90    	mov.w     [w14+10], w0
    3f0c:	10 00 90    	mov.w     [w0+2], w0
    3f0e:	49 00 de    	lsr.w     w0, #0x9, w0
    3f10:	00 40 e8    	inc.b     w0, w0
    3f12:	00 74 a1    	bclr.b    w0, #0x7
    3f14:	5e 01 90    	mov.w     [w14+10], w2
    3f16:	00 80 fb    	ze        w0, w0
    3f18:	c9 01 dd    	sl.w      w0, #0x9, w3
    3f1a:	92 00 90    	mov.w     [w2+2], w1
    3f1c:	f0 1f 20    	mov.w     #0x1ff, w0
    3f1e:	00 80 60    	and.w     w1, w0, w0
    3f20:	03 00 70    	ior.w     w0, w3, w0
    3f22:	10 01 98    	mov.w     w0, [w2+2]
    3f24:	5e 00 90    	mov.w     [w14+10], w0
    3f26:	90 00 90    	mov.w     [w0+2], w1
    3f28:	00 10 20    	mov.w     #0x100, w0
    3f2a:	00 80 60    	and.w     w1, w0, w0
    3f2c:	00 00 e0    	cp0.w     w0
    3f2e:	12 00 32    	bra       Z, 0x3f54 <.L44>
    3f30:	5e 00 90    	mov.w     [w14+10], w0
    3f32:	90 00 78    	mov.w     [w0], w1
    3f34:	a0 2a 29    	mov.w     #0x92aa, w0
    3f36:	80 8f 50    	sub.w     w1, w0, [w15]
    3f38:	09 00 34    	bra       LE, 0x3f4c <.L46>
    3f3a:	5e 00 90    	mov.w     [w14+10], w0
    3f3c:	90 00 78    	mov.w     [w0], w1
    3f3e:	50 d5 26    	mov.w     #0x6d55, w0
    3f40:	80 8f 50    	sub.w     w1, w0, [w15]
    3f42:	04 00 3c    	bra       GT, 0x3f4c <.L46>
    3f44:	c0 76 80    	mov.w     0xed8, w0
    3f46:	00 00 e8    	inc.w     w0, w0
    3f48:	c0 76 88    	mov.w     w0, 0xed8
    3f4a:	04 00 37    	bra       0x3f54 <.L44>

00003f4c <.L46>:
    3f4c:	00 00 eb    	clr.w     w0
    3f4e:	c0 76 88    	mov.w     w0, 0xed8
    3f50:	ba ee a9    	bclr.b    0xeba, #0x7
    3f52:	cb 42 a8    	bset.b    0x2cb, #0x2

00003f54 <.L44>:
    3f54:	5e 00 90    	mov.w     [w14+10], w0
    3f56:	b0 00 90    	mov.w     [w0+6], w1
    3f58:	f0 03 20    	mov.w     #0x3f, w0
    3f5a:	00 80 60    	and.w     w1, w0, w0
    3f5c:	00 00 e0    	cp0.w     w0
    3f5e:	05 01 32    	bra       Z, 0x416a <.L79>
    3f60:	5e 00 90    	mov.w     [w14+10], w0
    3f62:	30 00 90    	mov.w     [w0+6], w0
    3f64:	f0 43 b2    	and.b     #0x3f, w0
    3f66:	00 80 fb    	ze        w0, w0
    3f68:	1e 01 78    	mov.w     [w14], w2
    3f6a:	80 00 40    	add.w     w0, w0, w1
    3f6c:	80 95 20    	mov.w     #0x958, w0
    3f6e:	00 80 40    	add.w     w1, w0, w0
    3f70:	02 08 78    	mov.w     w2, [w0]
    3f72:	fb 00 37    	bra       0x416a <.L79>

00003f74 <.L11>:
    3f74:	4e 00 90    	mov.w     [w14+8], w0
    3f76:	e1 0f 50    	sub.w     w0, #0x1, [w15]
    3f78:	03 00 3a    	bra       NZ, 0x3f80
    3f7a:	00 00 eb    	clr.w     w0
    3f7c:	40 07 98    	mov.w     w0, [w14+8]
    3f7e:	02 00 37    	bra       0x3f84 <.L10>

00003f80 <.L50>:
    3f80:	10 00 20    	mov.w     #0x1, w0
    3f82:	40 07 98    	mov.w     w0, [w14+8]

00003f84 <.L10>:
    3f84:	4e 00 90    	mov.w     [w14+8], w0
    3f86:	e1 0f 50    	sub.w     w0, #0x1, [w15]
    3f88:	25 00 3a    	bra       NZ, 0x3fd4
    3f8a:	5e 00 90    	mov.w     [w14+10], w0
    3f8c:	be 00 90    	mov.w     [w14+6], w1
    3f8e:	41 00 98    	mov.w     w1, [w0+8]
    3f90:	e1 52 80    	mov.w     0xa5c, w1
    3f92:	5e 00 90    	mov.w     [w14+10], w0
    3f94:	51 00 98    	mov.w     w1, [w0+10]
    3f96:	5e 00 90    	mov.w     [w14+10], w0
    3f98:	40 01 90    	mov.w     [w0+8], w2
    3f9a:	d0 01 90    	mov.w     [w0+10], w3
    3f9c:	5e 00 90    	mov.w     [w14+10], w0
    3f9e:	f0 00 90    	mov.w     [w0+14], w1
    3fa0:	60 00 90    	mov.w     [w0+12], w0
    3fa2:	00 00 51    	sub.w     w2, w0, w0
    3fa4:	81 80 59    	subb.w    w3, w1, w1
    3fa6:	10 07 98    	mov.w     w0, [w14+2]
    3fa8:	21 07 98    	mov.w     w1, [w14+4]
    3faa:	1e 01 90    	mov.w     [w14+2], w2
    3fac:	ae 01 90    	mov.w     [w14+4], w3
    3fae:	c0 45 24    	mov.w     #0x445c, w0
    3fb0:	01 00 20    	mov.w     #0x0, w1
    3fb2:	80 0f 51    	sub.w     w2, w0, [w15]
    3fb4:	81 8f 59    	subb.w    w3, w1, [w15]
    3fb6:	d9 00 36    	bra       LEU, 0x416a <.L79>
    3fb8:	1e 01 90    	mov.w     [w14+2], w2
    3fba:	ae 01 90    	mov.w     [w14+4], w3
    3fbc:	70 84 2e    	mov.w     #0xe847, w0
    3fbe:	11 00 20    	mov.w     #0x1, w1
    3fc0:	80 0f 51    	sub.w     w2, w0, [w15]
    3fc2:	81 8f 59    	subb.w    w3, w1, [w15]
    3fc4:	d2 00 3e    	bra       GTU, 0x416a <.L79>
    3fc6:	5e 01 90    	mov.w     [w14+10], w2
    3fc8:	a2 00 90    	mov.w     [w2+4], w1
    3fca:	00 ff 2f    	mov.w     #0xfff0, w0
    3fcc:	00 80 60    	and.w     w1, w0, w0
    3fce:	00 00 a0    	bset.w    w0, #0x0
    3fd0:	20 01 98    	mov.w     w0, [w2+4]
    3fd2:	cb 00 37    	bra       0x416a <.L79>

00003fd4 <.L52>:
    3fd4:	5e 00 90    	mov.w     [w14+10], w0
    3fd6:	be 00 90    	mov.w     [w14+6], w1
    3fd8:	61 00 98    	mov.w     w1, [w0+12]
    3fda:	e1 52 80    	mov.w     0xa5c, w1
    3fdc:	5e 00 90    	mov.w     [w14+10], w0
    3fde:	71 00 98    	mov.w     w1, [w0+14]
    3fe0:	5e 00 90    	mov.w     [w14+10], w0
    3fe2:	d0 00 90    	mov.w     [w0+10], w1
    3fe4:	e0 52 80    	mov.w     0xa5c, w0
    3fe6:	80 8f 50    	sub.w     w1, w0, [w15]
    3fe8:	08 00 3a    	bra       NZ, 0x3ffa <.L57>
    3fea:	5e 00 90    	mov.w     [w14+10], w0
    3fec:	c0 00 90    	mov.w     [w0+8], w1
    3fee:	3e 00 90    	mov.w     [w14+6], w0
    3ff0:	01 00 50    	sub.w     w0, w1, w0
    3ff2:	01 00 20    	mov.w     #0x0, w1
    3ff4:	10 07 98    	mov.w     w0, [w14+2]
    3ff6:	21 07 98    	mov.w     w1, [w14+4]
    3ff8:	23 00 37    	bra       0x4040 <.L59>

00003ffa <.L57>:
    3ffa:	5e 00 90    	mov.w     [w14+10], w0
    3ffc:	d0 00 90    	mov.w     [w0+10], w1
    3ffe:	e0 52 80    	mov.w     0xa5c, w0
    4000:	80 8f 50    	sub.w     w1, w0, [w15]
    4002:	0b 00 31    	bra       C, 0x401a <.L60>
    4004:	5e 00 90    	mov.w     [w14+10], w0
    4006:	60 01 90    	mov.w     [w0+12], w2
    4008:	f0 01 90    	mov.w     [w0+14], w3
    400a:	5e 00 90    	mov.w     [w14+10], w0
    400c:	d0 00 90    	mov.w     [w0+10], w1
    400e:	40 00 90    	mov.w     [w0+8], w0
    4010:	00 00 51    	sub.w     w2, w0, w0
    4012:	81 80 59    	subb.w    w3, w1, w1
    4014:	10 07 98    	mov.w     w0, [w14+2]
    4016:	21 07 98    	mov.w     w1, [w14+4]
    4018:	13 00 37    	bra       0x4040 <.L59>

0000401a <.L60>:
    401a:	e1 52 80    	mov.w     0xa5c, w1
    401c:	5e 00 90    	mov.w     [w14+10], w0
    401e:	50 00 90    	mov.w     [w0+10], w0
    4020:	00 8f 50    	sub.w     w1, w0, [w14]
    4022:	1e 00 78    	mov.w     [w14], w0
    4024:	01 00 20    	mov.w     #0x0, w1
    4026:	c0 01 dd    	sl.w      w0, #0x0, w3
    4028:	02 00 20    	mov.w     #0x0, w2
    402a:	3e 00 90    	mov.w     [w14+6], w0
    402c:	01 00 20    	mov.w     #0x0, w1
    402e:	02 01 40    	add.w     w0, w2, w2
    4030:	83 81 48    	addc.w    w1, w3, w3
    4032:	5e 00 90    	mov.w     [w14+10], w0
    4034:	40 00 90    	mov.w     [w0+8], w0
    4036:	01 00 20    	mov.w     #0x0, w1
    4038:	00 00 51    	sub.w     w2, w0, w0
    403a:	81 80 59    	subb.w    w3, w1, w1
    403c:	10 07 98    	mov.w     w0, [w14+2]
    403e:	21 07 98    	mov.w     w1, [w14+4]

00004040 <.L59>:
    4040:	1e 01 90    	mov.w     [w14+2], w2
    4042:	ae 01 90    	mov.w     [w14+4], w3
    4044:	c0 45 24    	mov.w     #0x445c, w0
    4046:	01 00 20    	mov.w     #0x0, w1
    4048:	80 0f 51    	sub.w     w2, w0, [w15]
    404a:	81 8f 59    	subb.w    w3, w1, [w15]
    404c:	0e 00 36    	bra       LEU, 0x406a <.L62>
    404e:	1e 01 90    	mov.w     [w14+2], w2
    4050:	ae 01 90    	mov.w     [w14+4], w3
    4052:	70 84 2e    	mov.w     #0xe847, w0
    4054:	11 00 20    	mov.w     #0x1, w1
    4056:	80 0f 51    	sub.w     w2, w0, [w15]
    4058:	81 8f 59    	subb.w    w3, w1, [w15]
    405a:	07 00 3e    	bra       GTU, 0x406a <.L62>
    405c:	5e 01 90    	mov.w     [w14+10], w2
    405e:	a2 00 90    	mov.w     [w2+4], w1
    4060:	00 ff 2f    	mov.w     #0xfff0, w0
    4062:	00 80 60    	and.w     w1, w0, w0
    4064:	00 00 a0    	bset.w    w0, #0x0
    4066:	20 01 98    	mov.w     w0, [w2+4]
    4068:	80 00 37    	bra       0x416a <.L79>

0000406a <.L62>:
    406a:	1e 01 90    	mov.w     [w14+2], w2
    406c:	ae 01 90    	mov.w     [w14+4], w3
    406e:	80 af 22    	mov.w     #0x2af8, w0
    4070:	01 00 20    	mov.w     #0x0, w1
    4072:	80 0f 51    	sub.w     w2, w0, [w15]
    4074:	81 8f 59    	subb.w    w3, w1, [w15]
    4076:	03 00 36    	bra       LEU, 0x407e <.L65>
    4078:	80 af 22    	mov.w     #0x2af8, w0
    407a:	00 0f 78    	mov.w     w0, [w14]
    407c:	16 00 37    	bra       0x40aa <.L67>

0000407e <.L65>:
    407e:	1e 01 90    	mov.w     [w14+2], w2
    4080:	ae 01 90    	mov.w     [w14+4], w3
    4082:	f0 f9 20    	mov.w     #0xf9f, w0
    4084:	01 00 20    	mov.w     #0x0, w1
    4086:	80 0f 51    	sub.w     w2, w0, [w15]
    4088:	81 8f 59    	subb.w    w3, w1, [w15]
    408a:	03 00 3e    	bra       GTU, 0x4092 <.L68>
    408c:	00 fa 20    	mov.w     #0xfa0, w0
    408e:	00 0f 78    	mov.w     w0, [w14]
    4090:	0c 00 37    	bra       0x40aa <.L67>

00004092 <.L68>:
    4092:	1e 00 90    	mov.w     [w14+2], w0
    4094:	00 0f 78    	mov.w     w0, [w14]
    4096:	5e 01 90    	mov.w     [w14+10], w2
    4098:	92 00 90    	mov.w     [w2+2], w1
    409a:	f0 fe 2f    	mov.w     #0xffef, w0
    409c:	00 80 60    	and.w     w1, w0, w0
    409e:	10 01 98    	mov.w     w0, [w2+2]
    40a0:	5e 01 90    	mov.w     [w14+10], w2
    40a2:	92 00 90    	mov.w     [w2+2], w1
    40a4:	00 ff 2f    	mov.w     #0xfff0, w0
    40a6:	00 80 60    	and.w     w1, w0, w0
    40a8:	10 01 98    	mov.w     w0, [w2+2]

000040aa <.L67>:
    40aa:	40 2b 2e    	mov.w     #0xe2b4, w0
    40ac:	1e 0f 40    	add.w     w0, [w14], [w14]
    40ae:	1e 00 78    	mov.w     [w14], w0
    40b0:	43 00 dd    	sl.w      w0, #0x3, w0
    40b2:	00 0f 78    	mov.w     w0, [w14]
    40b4:	9e 00 78    	mov.w     [w14], w1
    40b6:	5e 00 90    	mov.w     [w14+10], w0
    40b8:	01 08 78    	mov.w     w1, [w0]
    40ba:	5e 00 90    	mov.w     [w14+10], w0
    40bc:	20 00 90    	mov.w     [w0+4], w0
    40be:	6f 40 60    	and.b     w0, #0xf, w0
    40c0:	00 80 fb    	ze        w0, w0
    40c2:	00 00 e0    	cp0.w     w0
    40c4:	52 00 34    	bra       LE, 0x416a <.L79>
    40c6:	5e 00 90    	mov.w     [w14+10], w0
    40c8:	20 00 90    	mov.w     [w0+4], w0
    40ca:	6f 40 60    	and.b     w0, #0xf, w0
    40cc:	00 80 fb    	ze        w0, w0
    40ce:	e8 0f 50    	sub.w     w0, #0x8, [w15]
    40d0:	4c 00 3c    	bra       GT, 0x416a <.L79>
    40d2:	5e 00 90    	mov.w     [w14+10], w0
    40d4:	20 00 90    	mov.w     [w0+4], w0
    40d6:	6f 40 60    	and.b     w0, #0xf, w0
    40d8:	00 80 fb    	ze        w0, w0
    40da:	1e 01 78    	mov.w     [w14], w2
    40dc:	de 00 90    	mov.w     [w14+10], w1
    40de:	00 00 40    	add.w     w0, w0, w0
    40e0:	70 00 40    	add.w     w0, #0x10, w0
    40e2:	02 b0 78    	mov.w     w2, [w0+w1]
    40e4:	5e 00 90    	mov.w     [w14+10], w0
    40e6:	10 00 90    	mov.w     [w0+2], w0
    40e8:	49 00 de    	lsr.w     w0, #0x9, w0
    40ea:	00 40 e8    	inc.b     w0, w0
    40ec:	00 74 a1    	bclr.b    w0, #0x7
    40ee:	5e 01 90    	mov.w     [w14+10], w2
    40f0:	00 80 fb    	ze        w0, w0
    40f2:	c9 01 dd    	sl.w      w0, #0x9, w3
    40f4:	92 00 90    	mov.w     [w2+2], w1
    40f6:	f0 1f 20    	mov.w     #0x1ff, w0
    40f8:	00 80 60    	and.w     w1, w0, w0
    40fa:	03 00 70    	ior.w     w0, w3, w0
    40fc:	10 01 98    	mov.w     w0, [w2+2]
    40fe:	5e 00 90    	mov.w     [w14+10], w0
    4100:	90 00 90    	mov.w     [w0+2], w1
    4102:	00 10 20    	mov.w     #0x100, w0
    4104:	00 80 60    	and.w     w1, w0, w0
    4106:	00 00 e0    	cp0.w     w0
    4108:	0e 00 32    	bra       Z, 0x4126 <.L72>
    410a:	a0 2a 29    	mov.w     #0x92aa, w0
    410c:	9e 0f 10    	subr.w    w0, [w14], [w15]
    410e:	07 00 36    	bra       LEU, 0x411e <.L74>
    4110:	50 d5 26    	mov.w     #0x6d55, w0
    4112:	9e 0f 10    	subr.w    w0, [w14], [w15]
    4114:	04 00 3e    	bra       GTU, 0x411e <.L74>
    4116:	c0 76 80    	mov.w     0xed8, w0
    4118:	00 00 e8    	inc.w     w0, w0
    411a:	c0 76 88    	mov.w     w0, 0xed8
    411c:	04 00 37    	bra       0x4126 <.L72>

0000411e <.L74>:
    411e:	00 00 eb    	clr.w     w0
    4120:	c0 76 88    	mov.w     w0, 0xed8
    4122:	ba ee a9    	bclr.b    0xeba, #0x7
    4124:	cb 42 a8    	bset.b    0x2cb, #0x2

00004126 <.L72>:
    4126:	5e 00 90    	mov.w     [w14+10], w0
    4128:	b0 00 90    	mov.w     [w0+6], w1
    412a:	f0 03 20    	mov.w     #0x3f, w0
    412c:	00 80 60    	and.w     w1, w0, w0
    412e:	00 00 e0    	cp0.w     w0
    4130:	0f 00 32    	bra       Z, 0x4150 <.L77>
    4132:	5e 00 90    	mov.w     [w14+10], w0
    4134:	30 00 90    	mov.w     [w0+6], w0
    4136:	f0 43 b2    	and.b     #0x3f, w0
    4138:	80 80 fb    	ze        w0, w1
    413a:	5e 00 90    	mov.w     [w14+10], w0
    413c:	20 00 90    	mov.w     [w0+4], w0
    413e:	6f 40 60    	and.b     w0, #0xf, w0
    4140:	00 80 fb    	ze        w0, w0
    4142:	00 80 40    	add.w     w1, w0, w0
    4144:	00 00 e9    	dec.w     w0, w0
    4146:	1e 01 78    	mov.w     [w14], w2
    4148:	80 00 40    	add.w     w0, w0, w1
    414a:	80 95 20    	mov.w     #0x958, w0
    414c:	00 80 40    	add.w     w1, w0, w0
    414e:	02 08 78    	mov.w     w2, [w0]

00004150 <.L77>:
    4150:	5e 00 90    	mov.w     [w14+10], w0
    4152:	20 00 90    	mov.w     [w0+4], w0
    4154:	6f 40 60    	and.b     w0, #0xf, w0
    4156:	00 40 e8    	inc.b     w0, w0
    4158:	6f 40 60    	and.b     w0, #0xf, w0
    415a:	5e 01 90    	mov.w     [w14+10], w2
    415c:	00 80 fb    	ze        w0, w0
    415e:	ef 01 60    	and.w     w0, #0xf, w3
    4160:	a2 00 90    	mov.w     [w2+4], w1
    4162:	00 ff 2f    	mov.w     #0xfff0, w0
    4164:	00 80 60    	and.w     w1, w0, w0
    4166:	03 00 70    	ior.w     w0, w3, w0
    4168:	20 01 98    	mov.w     w0, [w2+4]

0000416a <.L79>:
    416a:	00 80 fa    	ulnk      
    416c:	00 00 06    	return    

0000416e <__T2Interrupt>:
    416e:	80 1f 78    	mov.w     w0, [w15++]
    4170:	00 00 fa    	lnk       #0x0
    4172:	84 e0 a9    	bclr.b    0x84, #0x7
    4174:	e0 52 80    	mov.w     0xa5c, w0
    4176:	00 00 e8    	inc.w     w0, w0
    4178:	e0 52 88    	mov.w     w0, 0xa5c
    417a:	00 80 fa    	ulnk      
    417c:	4f 00 78    	mov.w     [--w15], w0
    417e:	00 40 06    	retfie    

00004180 <__IC1Interrupt>:
    4180:	36 00 f8    	push      0x36
    4182:	80 9f be    	mov.d     w0, [w15++]
    4184:	82 9f be    	mov.d     w2, [w15++]
    4186:	84 9f be    	mov.d     w4, [w15++]
    4188:	86 9f be    	mov.d     w6, [w15++]
    418a:	00 00 fa    	lnk       #0x0
    418c:	21 e1 a8    	bset.b    0x121, #0x7
    418e:	06 00 37    	bra       0x419c <.L83>

00004190 <.L84>:
    4190:	02 73 22    	mov.w     #0x2730, w2
    4192:	d5 c2 bf    	mov.b     0x2d5, WREG
    4194:	61 40 60    	and.b     w0, #0x1, w0
    4196:	80 80 fb    	ze        w0, w1
    4198:	00 0a 80    	mov.w     0x140, w0
    419a:	a4 fd 07    	rcall     0x3ce4 <_rc_pin>

0000419c <.L83>:
    419c:	42 c1 bf    	mov.b     0x142, WREG
    419e:	68 40 60    	and.b     w0, #0x8, w0
    41a0:	00 04 e0    	cp0.b     w0
    41a2:	f6 ff 3a    	bra       NZ, 0x4190 <.L84>
    41a4:	84 20 a9    	bclr.b    0x84, #0x1
    41a6:	00 80 fa    	ulnk      
    41a8:	4f 03 be    	mov.d     [--w15], w6
    41aa:	4f 02 be    	mov.d     [--w15], w4
    41ac:	4f 01 be    	mov.d     [--w15], w2
    41ae:	4f 00 be    	mov.d     [--w15], w0
    41b0:	36 00 f9    	pop       0x36
    41b2:	00 40 06    	retfie    

000041b4 <__IC2Interrupt>:
    41b4:	36 00 f8    	push      0x36
    41b6:	80 9f be    	mov.d     w0, [w15++]
    41b8:	82 9f be    	mov.d     w2, [w15++]
    41ba:	84 9f be    	mov.d     w4, [w15++]
    41bc:	86 9f be    	mov.d     w6, [w15++]
    41be:	00 00 fa    	lnk       #0x0
    41c0:	21 e1 a8    	bset.b    0x121, #0x7
    41c2:	08 00 37    	bra       0x41d4 <.L88>

000041c4 <.L89>:
    41c4:	02 76 22    	mov.w     #0x2760, w2
    41c6:	d5 c2 bf    	mov.b     0x2d5, WREG
    41c8:	00 80 fb    	ze        w0, w0
    41ca:	00 00 d1    	lsr.w     w0, w0
    41cc:	61 40 60    	and.b     w0, #0x1, w0
    41ce:	80 80 fb    	ze        w0, w1
    41d0:	20 0a 80    	mov.w     0x144, w0
    41d2:	88 fd 07    	rcall     0x3ce4 <_rc_pin>

000041d4 <.L88>:
    41d4:	46 c1 bf    	mov.b     0x146, WREG
    41d6:	68 40 60    	and.b     w0, #0x8, w0
    41d8:	00 04 e0    	cp0.b     w0
    41da:	f4 ff 3a    	bra       NZ, 0x41c4 <.L89>
    41dc:	84 a0 a9    	bclr.b    0x84, #0x5
    41de:	00 80 fa    	ulnk      
    41e0:	4f 03 be    	mov.d     [--w15], w6
    41e2:	4f 02 be    	mov.d     [--w15], w4
    41e4:	4f 01 be    	mov.d     [--w15], w2
    41e6:	4f 00 be    	mov.d     [--w15], w0
    41e8:	36 00 f9    	pop       0x36
    41ea:	00 40 06    	retfie    

000041ec <__IC3Interrupt>:
    41ec:	36 00 f8    	push      0x36
    41ee:	80 9f be    	mov.d     w0, [w15++]
    41f0:	82 9f be    	mov.d     w2, [w15++]
    41f2:	84 9f be    	mov.d     w4, [w15++]
    41f4:	86 9f be    	mov.d     w6, [w15++]
    41f6:	00 00 fa    	lnk       #0x0
    41f8:	21 e1 a8    	bset.b    0x121, #0x7
    41fa:	08 00 37    	bra       0x420c <.L93>

000041fc <.L94>:
    41fc:	02 79 22    	mov.w     #0x2790, w2
    41fe:	d5 c2 bf    	mov.b     0x2d5, WREG
    4200:	00 80 fb    	ze        w0, w0
    4202:	42 00 de    	lsr.w     w0, #0x2, w0
    4204:	61 40 60    	and.b     w0, #0x1, w0
    4206:	80 80 fb    	ze        w0, w1
    4208:	40 0a 80    	mov.w     0x148, w0
    420a:	6c fd 07    	rcall     0x3ce4 <_rc_pin>

0000420c <.L93>:
    420c:	4a c1 bf    	mov.b     0x14a, WREG
    420e:	68 40 60    	and.b     w0, #0x8, w0
    4210:	00 04 e0    	cp0.b     w0
    4212:	f4 ff 3a    	bra       NZ, 0x41fc <.L94>
    4214:	88 a0 a9    	bclr.b    0x88, #0x5
    4216:	00 80 fa    	ulnk      
    4218:	4f 03 be    	mov.d     [--w15], w6
    421a:	4f 02 be    	mov.d     [--w15], w4
    421c:	4f 01 be    	mov.d     [--w15], w2
    421e:	4f 00 be    	mov.d     [--w15], w0
    4220:	36 00 f9    	pop       0x36
    4222:	00 40 06    	retfie    

00004224 <__IC4Interrupt>:
    4224:	36 00 f8    	push      0x36
    4226:	80 9f be    	mov.d     w0, [w15++]
    4228:	82 9f be    	mov.d     w2, [w15++]
    422a:	84 9f be    	mov.d     w4, [w15++]
    422c:	86 9f be    	mov.d     w6, [w15++]
    422e:	00 00 fa    	lnk       #0x0
    4230:	21 e1 a8    	bset.b    0x121, #0x7
    4232:	08 00 37    	bra       0x4244 <.L98>

00004234 <.L99>:
    4234:	02 7c 22    	mov.w     #0x27c0, w2
    4236:	d5 c2 bf    	mov.b     0x2d5, WREG
    4238:	00 80 fb    	ze        w0, w0
    423a:	43 00 de    	lsr.w     w0, #0x3, w0
    423c:	61 40 60    	and.b     w0, #0x1, w0
    423e:	80 80 fb    	ze        w0, w1
    4240:	60 0a 80    	mov.w     0x14c, w0
    4242:	50 fd 07    	rcall     0x3ce4 <_rc_pin>

00004244 <.L98>:
    4244:	4e c1 bf    	mov.b     0x14e, WREG
    4246:	68 40 60    	and.b     w0, #0x8, w0
    4248:	00 04 e0    	cp0.b     w0
    424a:	f4 ff 3a    	bra       NZ, 0x4234 <.L99>
    424c:	88 c0 a9    	bclr.b    0x88, #0x6
    424e:	00 80 fa    	ulnk      
    4250:	4f 03 be    	mov.d     [--w15], w6
    4252:	4f 02 be    	mov.d     [--w15], w4
    4254:	4f 01 be    	mov.d     [--w15], w2
    4256:	4f 00 be    	mov.d     [--w15], w0
    4258:	36 00 f9    	pop       0x36
    425a:	00 40 06    	retfie    

0000425c <__IC5Interrupt>:
    425c:	36 00 f8    	push      0x36
    425e:	80 9f be    	mov.d     w0, [w15++]
    4260:	82 9f be    	mov.d     w2, [w15++]
    4262:	84 9f be    	mov.d     w4, [w15++]
    4264:	86 9f be    	mov.d     w6, [w15++]
    4266:	00 00 fa    	lnk       #0x0
    4268:	21 e1 a8    	bset.b    0x121, #0x7
    426a:	08 00 37    	bra       0x427c <.L103>

0000426c <.L104>:
    426c:	02 85 22    	mov.w     #0x2850, w2
    426e:	d5 c2 bf    	mov.b     0x2d5, WREG
    4270:	00 80 fb    	ze        w0, w0
    4272:	44 00 de    	lsr.w     w0, #0x4, w0
    4274:	61 40 60    	and.b     w0, #0x1, w0
    4276:	80 80 fb    	ze        w0, w1
    4278:	80 0a 80    	mov.w     0x150, w0
    427a:	34 fd 07    	rcall     0x3ce4 <_rc_pin>

0000427c <.L103>:
    427c:	52 c1 bf    	mov.b     0x152, WREG
    427e:	68 40 60    	and.b     w0, #0x8, w0
    4280:	00 04 e0    	cp0.b     w0
    4282:	f4 ff 3a    	bra       NZ, 0x426c <.L104>
    4284:	88 e0 a9    	bclr.b    0x88, #0x7
    4286:	00 80 fa    	ulnk      
    4288:	4f 03 be    	mov.d     [--w15], w6
    428a:	4f 02 be    	mov.d     [--w15], w4
    428c:	4f 01 be    	mov.d     [--w15], w2
    428e:	4f 00 be    	mov.d     [--w15], w0
    4290:	36 00 f9    	pop       0x36
    4292:	00 40 06    	retfie    

00004294 <__IC6Interrupt>:
    4294:	36 00 f8    	push      0x36
    4296:	80 9f be    	mov.d     w0, [w15++]
    4298:	82 9f be    	mov.d     w2, [w15++]
    429a:	84 9f be    	mov.d     w4, [w15++]
    429c:	86 9f be    	mov.d     w6, [w15++]
    429e:	00 00 fa    	lnk       #0x0
    42a0:	21 e1 a8    	bset.b    0x121, #0x7
    42a2:	08 00 37    	bra       0x42b4 <.L108>

000042a4 <.L109>:
    42a4:	02 88 22    	mov.w     #0x2880, w2
    42a6:	d5 c2 bf    	mov.b     0x2d5, WREG
    42a8:	00 80 fb    	ze        w0, w0
    42aa:	45 00 de    	lsr.w     w0, #0x5, w0
    42ac:	61 40 60    	and.b     w0, #0x1, w0
    42ae:	80 80 fb    	ze        w0, w1
    42b0:	a0 0a 80    	mov.w     0x154, w0
    42b2:	18 fd 07    	rcall     0x3ce4 <_rc_pin>

000042b4 <.L108>:
    42b4:	56 c1 bf    	mov.b     0x156, WREG
    42b6:	68 40 60    	and.b     w0, #0x8, w0
    42b8:	00 04 e0    	cp0.b     w0
    42ba:	f4 ff 3a    	bra       NZ, 0x42a4 <.L109>
    42bc:	89 00 a9    	bclr.b    0x89, #0x0
    42be:	00 80 fa    	ulnk      
    42c0:	4f 03 be    	mov.d     [--w15], w6
    42c2:	4f 02 be    	mov.d     [--w15], w4
    42c4:	4f 01 be    	mov.d     [--w15], w2
    42c6:	4f 00 be    	mov.d     [--w15], w0
    42c8:	36 00 f9    	pop       0x36
    42ca:	00 40 06    	retfie    

000042cc <__IC7Interrupt>:
    42cc:	36 00 f8    	push      0x36
    42ce:	80 9f be    	mov.d     w0, [w15++]
    42d0:	82 9f be    	mov.d     w2, [w15++]
    42d2:	84 9f be    	mov.d     w4, [w15++]
    42d4:	86 9f be    	mov.d     w6, [w15++]
    42d6:	00 00 fa    	lnk       #0x0
    42d8:	21 e1 a8    	bset.b    0x121, #0x7
    42da:	08 00 37    	bra       0x42ec <.L113>

000042dc <.L114>:
    42dc:	02 82 22    	mov.w     #0x2820, w2
    42de:	d5 c2 bf    	mov.b     0x2d5, WREG
    42e0:	00 80 fb    	ze        w0, w0
    42e2:	46 00 de    	lsr.w     w0, #0x6, w0
    42e4:	61 40 60    	and.b     w0, #0x1, w0
    42e6:	80 80 fb    	ze        w0, w1
    42e8:	c0 0a 80    	mov.w     0x158, w0
    42ea:	fc fc 07    	rcall     0x3ce4 <_rc_pin>

000042ec <.L113>:
    42ec:	5a c1 bf    	mov.b     0x15a, WREG
    42ee:	68 40 60    	and.b     w0, #0x8, w0
    42f0:	00 04 e0    	cp0.b     w0
    42f2:	f4 ff 3a    	bra       NZ, 0x42dc <.L114>
    42f4:	86 c0 a9    	bclr.b    0x86, #0x6
    42f6:	00 80 fa    	ulnk      
    42f8:	4f 03 be    	mov.d     [--w15], w6
    42fa:	4f 02 be    	mov.d     [--w15], w4
    42fc:	4f 01 be    	mov.d     [--w15], w2
    42fe:	4f 00 be    	mov.d     [--w15], w0
    4300:	36 00 f9    	pop       0x36
    4302:	00 40 06    	retfie    

00004304 <__IC8Interrupt>:
    4304:	36 00 f8    	push      0x36
    4306:	80 9f be    	mov.d     w0, [w15++]
    4308:	82 9f be    	mov.d     w2, [w15++]
    430a:	84 9f be    	mov.d     w4, [w15++]
    430c:	86 9f be    	mov.d     w6, [w15++]
    430e:	00 00 fa    	lnk       #0x0
    4310:	21 e1 a8    	bset.b    0x121, #0x7
    4312:	07 00 37    	bra       0x4322 <.L118>

00004314 <.L119>:
    4314:	02 7f 22    	mov.w     #0x27f0, w2
    4316:	d5 c2 bf    	mov.b     0x2d5, WREG
    4318:	00 80 fb    	ze        w0, w0
    431a:	47 00 de    	lsr.w     w0, #0x7, w0
    431c:	80 80 fb    	ze        w0, w1
    431e:	e0 0a 80    	mov.w     0x15c, w0
    4320:	e1 fc 07    	rcall     0x3ce4 <_rc_pin>

00004322 <.L118>:
    4322:	5e c1 bf    	mov.b     0x15e, WREG
    4324:	68 40 60    	and.b     w0, #0x8, w0
    4326:	00 04 e0    	cp0.b     w0
    4328:	f5 ff 3a    	bra       NZ, 0x4314 <.L119>
    432a:	86 e0 a9    	bclr.b    0x86, #0x7
    432c:	00 80 fa    	ulnk      
    432e:	4f 03 be    	mov.d     [--w15], w6
    4330:	4f 02 be    	mov.d     [--w15], w4
    4332:	4f 01 be    	mov.d     [--w15], w2
    4334:	4f 00 be    	mov.d     [--w15], w0
    4336:	36 00 f9    	pop       0x36
    4338:	00 40 06    	retfie    

0000433a <_udb_init_I2C2>:
    433a:	04 00 fa    	lnk       #0x4
    433c:	17 e2 a9    	bclr.b    0x217, #0x7
    433e:	9a 20 a9    	bclr.b    0x9a, #0x1
    4340:	9a 40 a9    	bclr.b    0x9a, #0x2
    4342:	c0 62 a9    	bclr.b    0x2c0, #0x3
    4344:	c0 66 a8    	bset.b    0x6c0, #0x3
    4346:	c0 42 a9    	bclr.b    0x2c0, #0x2
    4348:	c0 46 a8    	bset.b    0x6c0, #0x2
    434a:	00 00 eb    	clr.w     w0
    434c:	b0 10 88    	mov.w     w0, 0x216
    434e:	c4 42 a9    	bclr.b    0x2c4, #0x2
    4350:	c4 c2 bf    	mov.b     0x2c4, WREG
    4352:	00 80 fb    	ze        w0, w0
    4354:	42 00 de    	lsr.w     w0, #0x2, w0
    4356:	61 40 60    	and.b     w0, #0x1, w0
    4358:	61 40 60    	and.b     w0, #0x1, w0
    435a:	43 01 dd    	sl.w      w0, #0x3, w2
    435c:	41 2c 20    	mov.w     #0x2c4, w1
    435e:	91 40 78    	mov.b     [w1], w1
    4360:	70 cf b3    	mov.b     #0xf7, w0
    4362:	00 c0 60    	and.b     w1, w0, w0
    4364:	02 40 70    	ior.b     w0, w2, w0
    4366:	c4 e2 b7    	mov.b     WREG, 0x2c4
    4368:	f0 05 20    	mov.w     #0x5f, w0
    436a:	a0 10 88    	mov.w     w0, 0x214
    436c:	17 82 a8    	bset.b    0x217, #0x4
    436e:	17 22 a9    	bclr.b    0x217, #0x1
    4370:	c4 42 a8    	bset.b    0x2c4, #0x2
    4372:	c4 c2 bf    	mov.b     0x2c4, WREG
    4374:	00 80 fb    	ze        w0, w0
    4376:	42 00 de    	lsr.w     w0, #0x2, w0
    4378:	61 40 60    	and.b     w0, #0x1, w0
    437a:	61 40 60    	and.b     w0, #0x1, w0
    437c:	43 01 dd    	sl.w      w0, #0x3, w2
    437e:	41 2c 20    	mov.w     #0x2c4, w1
    4380:	91 40 78    	mov.b     [w1], w1
    4382:	70 cf b3    	mov.b     #0xf7, w0
    4384:	00 c0 60    	and.b     w1, w0, w0
    4386:	02 40 70    	ior.b     w0, w2, w0
    4388:	c4 e2 b7    	mov.b     WREG, 0x2c4
    438a:	c2 c2 bf    	mov.b     0x2c2, WREG
    438c:	68 40 60    	and.b     w0, #0x8, w0
    438e:	00 04 e0    	cp0.b     w0
    4390:	04 00 32    	bra       Z, 0x439a <.L2>
    4392:	c2 c2 bf    	mov.b     0x2c2, WREG
    4394:	64 40 60    	and.b     w0, #0x4, w0
    4396:	00 04 e0    	cp0.b     w0
    4398:	31 00 3a    	bra       NZ, 0x43fc <.L4>

0000439a <.L2>:
    439a:	00 00 eb    	clr.w     w0
    439c:	00 0f 78    	mov.w     w0, [w14]

0000439e <.L5>:
    439e:	10 00 20    	mov.w     #0x1, w0
    43a0:	10 07 98    	mov.w     w0, [w14+2]
    43a2:	03 00 37    	bra       0x43aa <.L6>

000043a4 <.L7>:
    43a4:	1e 00 90    	mov.w     [w14+2], w0
    43a6:	00 00 e8    	inc.w     w0, w0
    43a8:	10 07 98    	mov.w     w0, [w14+2]

000043aa <.L6>:
    43aa:	1e 00 90    	mov.w     [w14+2], w0
    43ac:	ff 0f 50    	sub.w     w0, #0x1f, [w15]
    43ae:	fa ff 34    	bra       LE, 0x43a4 <.L7>
    43b0:	c4 42 a9    	bclr.b    0x2c4, #0x2
    43b2:	10 00 20    	mov.w     #0x1, w0
    43b4:	10 07 98    	mov.w     w0, [w14+2]
    43b6:	03 00 37    	bra       0x43be <.L9>

000043b8 <.L10>:
    43b8:	1e 00 90    	mov.w     [w14+2], w0
    43ba:	00 00 e8    	inc.w     w0, w0
    43bc:	10 07 98    	mov.w     w0, [w14+2]

000043be <.L9>:
    43be:	1e 00 90    	mov.w     [w14+2], w0
    43c0:	ff 0f 50    	sub.w     w0, #0x1f, [w15]
    43c2:	fa ff 34    	bra       LE, 0x43b8 <.L10>
    43c4:	c4 42 a8    	bset.b    0x2c4, #0x2
    43c6:	10 00 20    	mov.w     #0x1, w0
    43c8:	10 07 98    	mov.w     w0, [w14+2]
    43ca:	03 00 37    	bra       0x43d2 <.L12>

000043cc <.L13>:
    43cc:	1e 00 90    	mov.w     [w14+2], w0
    43ce:	00 00 e8    	inc.w     w0, w0
    43d0:	10 07 98    	mov.w     w0, [w14+2]

000043d2 <.L12>:
    43d2:	1e 00 90    	mov.w     [w14+2], w0
    43d4:	ff 0f 50    	sub.w     w0, #0x1f, [w15]
    43d6:	fa ff 34    	bra       LE, 0x43cc <.L13>
    43d8:	1e 0f e8    	inc.w     [w14], [w14]
    43da:	c2 c2 bf    	mov.b     0x2c2, WREG
    43dc:	68 40 60    	and.b     w0, #0x8, w0
    43de:	00 04 e0    	cp0.b     w0
    43e0:	04 00 32    	bra       Z, 0x43ea <.L15>
    43e2:	c2 c2 bf    	mov.b     0x2c2, WREG
    43e4:	64 40 60    	and.b     w0, #0x4, w0
    43e6:	00 04 e0    	cp0.b     w0
    43e8:	03 00 3a    	bra       NZ, 0x43f0 <.L17>

000043ea <.L15>:
    43ea:	40 06 20    	mov.w     #0x64, w0
    43ec:	9e 0f 10    	subr.w    w0, [w14], [w15]
    43ee:	d7 ff 34    	bra       LE, 0x439e <.L5>

000043f0 <.L17>:
    43f0:	30 06 20    	mov.w     #0x63, w0
    43f2:	9e 0f 10    	subr.w    w0, [w14], [w15]
    43f4:	03 00 34    	bra       LE, 0x43fc <.L4>
    43f6:	fc 0a a8    	bset.b    0xafc, #0x0
    43f8:	30 00 20    	mov.w     #0x3, w0
    43fa:	a0 57 88    	mov.w     w0, 0xaf4

000043fc <.L4>:
    43fc:	d1 0b 20    	mov.w     #0xbd, w1
    43fe:	91 40 78    	mov.b     [w1], w1
    4400:	80 cf b3    	mov.b     #0xf8, w0
    4402:	00 c0 60    	and.b     w1, w0, w0
    4404:	00 24 a0    	bset.b    w0, #0x2
    4406:	bd e0 b7    	mov.b     WREG, 0xbd
    4408:	8a 40 a9    	bclr.b    0x8a, #0x2
    440a:	9a 40 a8    	bset.b    0x9a, #0x2
    440c:	17 e2 a8    	bset.b    0x217, #0x7
    440e:	b0 4a 80    	mov.w     0x956, w0
    4410:	00 00 e0    	cp0.w     w0
    4412:	11 00 3a    	bra       NZ, 0x4436 <.L21>
    4414:	10 00 20    	mov.w     #0x1, w0
    4416:	b0 4a 88    	mov.w     w0, 0x956
    4418:	21 0b 20    	mov.w     #0xb2, w1
    441a:	91 40 78    	mov.b     [w1], w1
    441c:	f0 c8 b3    	mov.b     #0x8f, w0
    441e:	00 c0 60    	and.b     w1, w0, w0
    4420:	01 c2 b3    	mov.b     #0x20, w1
    4422:	01 40 70    	ior.b     w0, w1, w0
    4424:	b2 e0 b7    	mov.b     WREG, 0xb2
    4426:	c1 a2 a8    	bset.b    0x2c1, #0x5
    4428:	87 a0 a9    	bclr.b    0x87, #0x5
    442a:	82 40 a9    	bclr.b    0x82, #0x2
    442c:	97 a0 a9    	bclr.b    0x97, #0x5
    442e:	d0 36 85    	mov.w     0xa6da, w0
    4430:	d0 56 88    	mov.w     w0, 0xada
    4432:	e0 36 85    	mov.w     0xa6dc, w0
    4434:	e0 56 88    	mov.w     w0, 0xadc

00004436 <.L21>:
    4436:	00 80 fa    	ulnk      
    4438:	00 00 06    	return    

0000443a <__MI2C2Interrupt>:
    443a:	36 00 f8    	push      0x36
    443c:	80 9f be    	mov.d     w0, [w15++]
    443e:	82 9f be    	mov.d     w2, [w15++]
    4440:	84 9f be    	mov.d     w4, [w15++]
    4442:	86 9f be    	mov.d     w6, [w15++]
    4444:	12 00 fa    	lnk       #0x12
    4446:	21 e1 a8    	bset.b    0x121, #0x7
    4448:	90 74 80    	mov.w     0xe92, w0
    444a:	00 00 e0    	cp0.w     w0
    444c:	1a 00 32    	bra       Z, 0x4482 <.L23>

0000444e <.bb>:
    444e:	44 00 f8    	push      0x44
    4450:	42 00 f8    	push      0x42
    4452:	46 00 f8    	push      0x46
    4454:	50 00 f8    	push      0x50
    4456:	22 00 f8    	push      0x22
    4458:	24 00 f8    	push      0x24
    445a:	26 00 f8    	push      0x26
    445c:	28 00 f8    	push      0x28
    445e:	2a 00 f8    	push      0x2a
    4460:	2c 00 f8    	push      0x2c
    4462:	36 00 f8    	push      0x36
    4464:	38 00 f8    	push      0x38
    4466:	3a 00 f8    	push      0x3a
    4468:	3c 00 f8    	push      0x3c
    446a:	3e 00 f8    	push      0x3e
    446c:	40 00 f8    	push      0x40
    446e:	10 00 20    	mov.w     #0x1, w0
    4470:	20 07 98    	mov.w     w0, [w14+4]
    4472:	2e 00 90    	mov.w     [w14+4], w0
    4474:	80 1f 78    	mov.w     w0, [w15++]
    4476:	20 07 98    	mov.w     w0, [w14+4]
    4478:	a0 74 80    	mov.w     0xe94, w0
    447a:	20 02 88    	mov.w     w0, 0x44
    447c:	00 00 eb    	clr.w     w0
    447e:	90 74 88    	mov.w     w0, 0xe92
    4480:	05 00 37    	bra       0x448c <.L25>

00004482 <.L23>:
    4482:	00 00 eb    	clr.w     w0
    4484:	10 07 98    	mov.w     w0, [w14+2]
    4486:	1e 00 90    	mov.w     [w14+2], w0
    4488:	80 1f 78    	mov.w     w0, [w15++]
    448a:	10 07 98    	mov.w     w0, [w14+2]

0000448c <.L25>:
    448c:	8a 40 a9    	bclr.b    0x8a, #0x2
    448e:	01 57 80    	mov.w     0xae0, w1
    4490:	f0 03 20    	mov.w     #0x3f, w0
    4492:	80 8f 50    	sub.w     w1, w0, [w15]
    4494:	13 00 34    	bra       LE, 0x44bc <.L26>
    4496:	e0 03 20    	mov.w     #0x3e, w0
    4498:	00 57 88    	mov.w     w0, 0xae0
    449a:	00 57 80    	mov.w     0xae0, w0
    449c:	80 00 40    	add.w     w0, w0, w1
    449e:	e0 a5 20    	mov.w     #0xa5e, w0
    44a0:	80 80 40    	add.w     w1, w0, w1
    44a2:	30 c0 b3    	mov.b     #0x3, w0
    44a4:	80 48 78    	mov.b     w0, [w1]
    44a6:	00 57 80    	mov.w     0xae0, w0
    44a8:	00 00 e8    	inc.w     w0, w0
    44aa:	80 00 40    	add.w     w0, w0, w1
    44ac:	e0 a5 20    	mov.w     #0xa5e, w0
    44ae:	80 80 40    	add.w     w1, w0, w1
    44b0:	70 c0 b3    	mov.b     #0x7, w0
    44b2:	80 48 78    	mov.b     w0, [w1]
    44b4:	00 00 eb    	clr.w     w0
    44b6:	10 57 88    	mov.w     w0, 0xae2
    44b8:	50 00 20    	mov.w     #0x5, w0
    44ba:	a0 57 88    	mov.w     w0, 0xaf4

000044bc <.L26>:
    44bc:	10 57 80    	mov.w     0xae2, w0
    44be:	61 01 b9    	mul.su    w0, #0x1, w2
    44c0:	72 07 98    	mov.w     w2, [w14+14]
    44c2:	03 0f 98    	mov.w     w3, [w14+16]
    44c4:	40 03 20    	mov.w     #0x34, w0
    44c6:	01 00 20    	mov.w     #0x0, w1
    44c8:	7e 01 90    	mov.w     [w14+14], w2
    44ca:	8e 09 90    	mov.w     [w14+16], w3
    44cc:	80 0f 51    	sub.w     w2, w0, [w15]
    44ce:	81 8f 59    	subb.w    w3, w1, [w15]
    44d0:	7c 02 3e    	bra       GTU, 0x49ca <_I2C_DONE>
    44d2:	7e 00 90    	mov.w     [w14+14], w0
    44d4:	8e 08 90    	mov.w     [w14+16], w1
    44d6:	00 60 01    	bra       w0
    44d8:	34 00 37    	bra       0x4542 <.L29>
    44da:	28 01 37    	bra       0x472c <.L30>
    44dc:	52 01 37    	bra       0x4782 <.L31>
    44de:	72 01 37    	bra       0x47c4 <.L32>
    44e0:	74 02 37    	bra       0x49ca <_I2C_DONE>
    44e2:	e6 01 37    	bra       0x48b0 <.L33>
    44e4:	25 02 37    	bra       0x4930 <.L34>
    44e6:	71 02 37    	bra       0x49ca <_I2C_DONE>
    44e8:	70 02 37    	bra       0x49ca <_I2C_DONE>
    44ea:	6f 02 37    	bra       0x49ca <_I2C_DONE>
    44ec:	6e 02 37    	bra       0x49ca <_I2C_DONE>
    44ee:	2d 01 37    	bra       0x474a <.L35>
    44f0:	33 01 37    	bra       0x4758 <.L36>
    44f2:	6b 02 37    	bra       0x49ca <_I2C_DONE>
    44f4:	6a 02 37    	bra       0x49ca <_I2C_DONE>
    44f6:	69 02 37    	bra       0x49ca <_I2C_DONE>
    44f8:	68 02 37    	bra       0x49ca <_I2C_DONE>
    44fa:	67 02 37    	bra       0x49ca <_I2C_DONE>
    44fc:	66 02 37    	bra       0x49ca <_I2C_DONE>
    44fe:	65 02 37    	bra       0x49ca <_I2C_DONE>
    4500:	64 02 37    	bra       0x49ca <_I2C_DONE>
    4502:	63 02 37    	bra       0x49ca <_I2C_DONE>
    4504:	62 02 37    	bra       0x49ca <_I2C_DONE>
    4506:	61 02 37    	bra       0x49ca <_I2C_DONE>
    4508:	60 02 37    	bra       0x49ca <_I2C_DONE>
    450a:	5f 02 37    	bra       0x49ca <_I2C_DONE>
    450c:	5e 02 37    	bra       0x49ca <_I2C_DONE>
    450e:	5d 02 37    	bra       0x49ca <_I2C_DONE>
    4510:	5c 02 37    	bra       0x49ca <_I2C_DONE>
    4512:	5b 02 37    	bra       0x49ca <_I2C_DONE>
    4514:	5a 02 37    	bra       0x49ca <_I2C_DONE>
    4516:	59 02 37    	bra       0x49ca <_I2C_DONE>
    4518:	58 02 37    	bra       0x49ca <_I2C_DONE>
    451a:	57 02 37    	bra       0x49ca <_I2C_DONE>
    451c:	56 02 37    	bra       0x49ca <_I2C_DONE>
    451e:	55 02 37    	bra       0x49ca <_I2C_DONE>
    4520:	54 02 37    	bra       0x49ca <_I2C_DONE>
    4522:	53 02 37    	bra       0x49ca <_I2C_DONE>
    4524:	52 02 37    	bra       0x49ca <_I2C_DONE>
    4526:	51 02 37    	bra       0x49ca <_I2C_DONE>
    4528:	50 02 37    	bra       0x49ca <_I2C_DONE>
    452a:	53 01 37    	bra       0x47d2 <.L37>
    452c:	89 01 37    	bra       0x4840 <.L38>
    452e:	4d 02 37    	bra       0x49ca <_I2C_DONE>
    4530:	4c 02 37    	bra       0x49ca <_I2C_DONE>
    4532:	4b 02 37    	bra       0x49ca <_I2C_DONE>
    4534:	4a 02 37    	bra       0x49ca <_I2C_DONE>
    4536:	49 02 37    	bra       0x49ca <_I2C_DONE>
    4538:	48 02 37    	bra       0x49ca <_I2C_DONE>
    453a:	47 02 37    	bra       0x49ca <_I2C_DONE>
    453c:	46 02 37    	bra       0x49ca <_I2C_DONE>
    453e:	e6 01 37    	bra       0x490c <.L39>
    4540:	1a 02 37    	bra       0x4976 <.L40>

00004542 <.L29>:
    4542:	00 57 80    	mov.w     0xae0, w0
    4544:	80 00 40    	add.w     w0, w0, w1
    4546:	e0 a5 20    	mov.w     #0xa5e, w0
    4548:	00 80 40    	add.w     w1, w0, w0
    454a:	10 00 78    	mov.w     [w0], w0
    454c:	d0 57 88    	mov.w     w0, 0xafa
    454e:	d0 57 80    	mov.w     0xafa, w0
    4550:	67 40 60    	and.b     w0, #0x7, w0
    4552:	00 80 fb    	ze        w0, w0
    4554:	60 07 98    	mov.w     w0, [w14+12]
    4556:	ee 00 90    	mov.w     [w14+12], w1
    4558:	e3 8f 50    	sub.w     w1, #0x3, [w15]
    455a:	27 00 32    	bra       Z, 0x45aa <.L46>
    455c:	6e 01 90    	mov.w     [w14+12], w2
    455e:	e3 0f 51    	sub.w     w2, #0x3, [w15]
    4560:	0a 00 3c    	bra       GT, 0x4576 <.L51>
    4562:	ee 01 90    	mov.w     [w14+12], w3
    4564:	e1 8f 51    	sub.w     w3, #0x1, [w15]
    4566:	19 00 32    	bra       Z, 0x459a <.L44>
    4568:	6e 00 90    	mov.w     [w14+12], w0
    456a:	e1 0f 50    	sub.w     w0, #0x1, [w15]
    456c:	1a 00 3c    	bra       GT, 0x45a2 <.L45>
    456e:	ee 00 90    	mov.w     [w14+12], w1
    4570:	01 00 e0    	cp0.w     w1
    4572:	0e 00 32    	bra       Z, 0x4590 <.L43>
    4574:	2a 02 37    	bra       0x49ca <_I2C_DONE>

00004576 <.L51>:
    4576:	6e 01 90    	mov.w     [w14+12], w2
    4578:	e5 0f 51    	sub.w     w2, #0x5, [w15]
    457a:	26 00 32    	bra       Z, 0x45c8 <.L48>
    457c:	ee 01 90    	mov.w     [w14+12], w3
    457e:	e5 8f 51    	sub.w     w3, #0x5, [w15]
    4580:	18 00 35    	bra       LT, 0x45b2 <.L47>
    4582:	6e 00 90    	mov.w     [w14+12], w0
    4584:	e6 0f 50    	sub.w     w0, #0x6, [w15]
    4586:	27 00 32    	bra       Z, 0x45d6 <.L49>
    4588:	ee 00 90    	mov.w     [w14+12], w1
    458a:	e7 8f 50    	sub.w     w1, #0x7, [w15]
    458c:	2b 00 32    	bra       Z, 0x45e4 <.L50>
    458e:	1d 02 37    	bra       0x49ca <_I2C_DONE>

00004590 <.L43>:
    4590:	00 57 80    	mov.w     0xae0, w0
    4592:	00 00 e8    	inc.w     w0, w0
    4594:	00 57 88    	mov.w     w0, 0xae0
    4596:	8a 40 a8    	bset.b    0x8a, #0x2
    4598:	18 02 37    	bra       0x49ca <_I2C_DONE>

0000459a <.L44>:
    459a:	16 02 a8    	bset.b    0x216, #0x0
    459c:	10 00 20    	mov.w     #0x1, w0
    459e:	10 57 88    	mov.w     w0, 0xae2
    45a0:	14 02 37    	bra       0x49ca <_I2C_DONE>

000045a2 <.L45>:
    45a2:	16 22 a8    	bset.b    0x216, #0x1
    45a4:	20 00 20    	mov.w     #0x2, w0
    45a6:	10 57 88    	mov.w     w0, 0xae2
    45a8:	10 02 37    	bra       0x49ca <_I2C_DONE>

000045aa <.L46>:
    45aa:	16 42 a8    	bset.b    0x216, #0x2
    45ac:	30 00 20    	mov.w     #0x3, w0
    45ae:	10 57 88    	mov.w     w0, 0xae2
    45b0:	0c 02 37    	bra       0x49ca <_I2C_DONE>

000045b2 <.L47>:
    45b2:	16 a2 a9    	bclr.b    0x216, #0x5
    45b4:	90 02 20    	mov.w     #0x29, w0
    45b6:	10 57 88    	mov.w     w0, 0xae2
    45b8:	fb ca bf    	mov.b     0xafb, WREG
    45ba:	00 80 fb    	ze        w0, w0
    45bc:	20 57 88    	mov.w     w0, 0xae4
    45be:	00 57 80    	mov.w     0xae0, w0
    45c0:	00 00 e8    	inc.w     w0, w0
    45c2:	00 57 88    	mov.w     w0, 0xae0
    45c4:	8a 40 a8    	bset.b    0x8a, #0x2
    45c6:	01 02 37    	bra       0x49ca <_I2C_DONE>

000045c8 <.L48>:
    45c8:	16 62 a8    	bset.b    0x216, #0x3
    45ca:	50 00 20    	mov.w     #0x5, w0
    45cc:	10 57 88    	mov.w     w0, 0xae2
    45ce:	fb ca bf    	mov.b     0xafb, WREG
    45d0:	00 80 fb    	ze        w0, w0
    45d2:	20 57 88    	mov.w     w0, 0xae4
    45d4:	fa 01 37    	bra       0x49ca <_I2C_DONE>

000045d6 <.L49>:
    45d6:	16 62 a8    	bset.b    0x216, #0x3
    45d8:	60 00 20    	mov.w     #0x6, w0
    45da:	10 57 88    	mov.w     w0, 0xae2
    45dc:	fb ca bf    	mov.b     0xafb, WREG
    45de:	00 80 fb    	ze        w0, w0
    45e0:	20 57 88    	mov.w     w0, 0xae4
    45e2:	f3 01 37    	bra       0x49ca <_I2C_DONE>

000045e4 <.L50>:
    45e4:	70 00 20    	mov.w     #0x7, w0
    45e6:	10 57 88    	mov.w     w0, 0xae2
    45e8:	00 80 eb    	setm.w    w0
    45ea:	a0 4a 88    	mov.w     w0, 0x954
    45ec:	d0 57 80    	mov.w     0xafa, w0
    45ee:	45 00 de    	lsr.w     w0, #0x5, w0
    45f0:	67 40 60    	and.b     w0, #0x7, w0
    45f2:	00 80 fb    	ze        w0, w0
    45f4:	50 07 98    	mov.w     w0, [w14+10]
    45f6:	5e 01 90    	mov.w     [w14+10], w2
    45f8:	e3 0f 51    	sub.w     w2, #0x3, [w15]
    45fa:	1b 00 32    	bra       Z, 0x4632 <.L55>
    45fc:	de 01 90    	mov.w     [w14+10], w3
    45fe:	e3 8f 51    	sub.w     w3, #0x3, [w15]
    4600:	07 00 3c    	bra       GT, 0x4610 <.L58>
    4602:	5e 00 90    	mov.w     [w14+10], w0
    4604:	e1 0f 50    	sub.w     w0, #0x1, [w15]
    4606:	0b 00 32    	bra       Z, 0x461e <.L53>
    4608:	de 00 90    	mov.w     [w14+10], w1
    460a:	e2 8f 50    	sub.w     w1, #0x2, [w15]
    460c:	0c 00 32    	bra       Z, 0x4626 <.L54>
    460e:	47 00 37    	bra       0x469e <.L59>

00004610 <.L58>:
    4610:	5e 01 90    	mov.w     [w14+10], w2
    4612:	e4 0f 51    	sub.w     w2, #0x4, [w15]
    4614:	14 00 32    	bra       Z, 0x463e <.L56>
    4616:	de 01 90    	mov.w     [w14+10], w3
    4618:	e6 8f 51    	sub.w     w3, #0x6, [w15]
    461a:	41 00 3c    	bra       GT, 0x469e <.L59>
    461c:	17 00 37    	bra       0x464c <.L57>

0000461e <.L53>:
    461e:	fb ca bf    	mov.b     0xafb, WREG
    4620:	00 80 fb    	ze        w0, w0
    4622:	70 57 88    	mov.w     w0, 0xaee
    4624:	3c 00 37    	bra       0x469e <.L59>

00004626 <.L54>:
    4626:	71 57 80    	mov.w     0xaee, w1
    4628:	fb ca bf    	mov.b     0xafb, WREG
    462a:	00 80 fb    	ze        w0, w0
    462c:	00 80 40    	add.w     w1, w0, w0
    462e:	70 57 88    	mov.w     w0, 0xaee
    4630:	36 00 37    	bra       0x469e <.L59>

00004632 <.L55>:
    4632:	80 57 80    	mov.w     0xaf0, w0
    4634:	b1 af 20    	mov.w     #0xafb, w1
    4636:	91 40 78    	mov.b     [w1], w1
    4638:	81 80 fb    	ze        w1, w1
    463a:	01 08 78    	mov.w     w1, [w0]
    463c:	30 00 37    	bra       0x469e <.L59>

0000463e <.L56>:
    463e:	82 57 80    	mov.w     0xaf0, w2
    4640:	80 57 80    	mov.w     0xaf0, w0
    4642:	90 00 78    	mov.w     [w0], w1
    4644:	fb ca bf    	mov.b     0xafb, WREG
    4646:	00 80 fb    	ze        w0, w0
    4648:	00 80 40    	add.w     w1, w0, w0
    464a:	00 09 78    	mov.w     w0, [w2]

0000464c <.L57>:
    464c:	d1 57 80    	mov.w     0xafa, w1
    464e:	00 0e 20    	mov.w     #0xe0, w0
    4650:	80 80 60    	and.w     w1, w0, w1
    4652:	00 0a 20    	mov.w     #0xa0, w0
    4654:	80 8f 50    	sub.w     w1, w0, [w15]
    4656:	04 00 3a    	bra       NZ, 0x4660 <.L60>
    4658:	fb ca bf    	mov.b     0xafb, WREG
    465a:	00 80 fb    	ze        w0, w0
    465c:	20 57 88    	mov.w     w0, 0xae4
    465e:	02 00 37    	bra       0x4664 <.L62>

00004660 <.L60>:
    4660:	50 57 80    	mov.w     0xaea, w0
    4662:	20 57 88    	mov.w     w0, 0xae4

00004664 <.L62>:
    4664:	00 00 eb    	clr.w     w0
    4666:	60 57 88    	mov.w     w0, 0xaec
    4668:	90 57 80    	mov.w     0xaf2, w0
    466a:	30 07 98    	mov.w     w0, [w14+6]
    466c:	20 57 80    	mov.w     0xae4, w0
    466e:	00 00 e0    	cp0.w     w0
    4670:	16 00 34    	bra       LE, 0x469e <.L59>
    4672:	21 57 80    	mov.w     0xae4, w1
    4674:	00 09 20    	mov.w     #0x90, w0
    4676:	80 8f 50    	sub.w     w1, w0, [w15]
    4678:	12 00 3c    	bra       GT, 0x469e <.L59>
    467a:	0b 00 37    	bra       0x4692 <.L65>

0000467c <.L66>:
    467c:	62 57 80    	mov.w     0xaec, w2
    467e:	00 27 22    	mov.w     #0x2270, w0
    4680:	00 00 41    	add.w     w2, w0, w0
    4682:	90 40 78    	mov.b     [w0], w1
    4684:	3e 00 90    	mov.w     [w14+6], w0
    4686:	01 48 78    	mov.b     w1, [w0]
    4688:	02 00 e8    	inc.w     w2, w0
    468a:	60 57 88    	mov.w     w0, 0xaec
    468c:	3e 00 90    	mov.w     [w14+6], w0
    468e:	00 00 e8    	inc.w     w0, w0
    4690:	30 07 98    	mov.w     w0, [w14+6]

00004692 <.L65>:
    4692:	20 57 80    	mov.w     0xae4, w0
    4694:	00 00 e9    	dec.w     w0, w0
    4696:	20 57 88    	mov.w     w0, 0xae4
    4698:	20 57 80    	mov.w     0xae4, w0
    469a:	e1 0f 40    	add.w     w0, #0x1, [w15]
    469c:	ef ff 3a    	bra       NZ, 0x467c <.L66>

0000469e <.L59>:
    469e:	d0 57 80    	mov.w     0xafa, w0
    46a0:	68 00 60    	and.w     w0, #0x8, w0
    46a2:	00 00 e0    	cp0.w     w0
    46a4:	03 00 32    	bra       Z, 0x46ac <.L67>
    46a6:	70 57 80    	mov.w     0xaee, w0
    46a8:	00 00 e8    	inc.w     w0, w0
    46aa:	70 57 88    	mov.w     w0, 0xaee

000046ac <.L67>:
    46ac:	40 57 80    	mov.w     0xae8, w0
    46ae:	00 00 e8    	inc.w     w0, w0
    46b0:	40 57 88    	mov.w     w0, 0xae8
    46b2:	f0 56 80    	mov.w     0xade, w0
    46b4:	67 00 60    	and.w     w0, #0x7, w0
    46b6:	7e 00 b9    	mul.su    w0, #0x1e, w0
    46b8:	80 00 78    	mov.w     w0, w1
    46ba:	00 86 20    	mov.w     #0x860, w0
    46bc:	00 80 40    	add.w     w1, w0, w0
    46be:	e1 ad 20    	mov.w     #0xade, w1
    46c0:	0e 00 09    	repeat    #0xe
    46c2:	31 18 78    	mov.w     [w1++], [w0++]
    46c4:	e0 01 b1    	sub.w     #0x1e, w0
    46c6:	d0 57 80    	mov.w     0xafa, w0
    46c8:	70 00 60    	and.w     w0, #0x10, w0
    46ca:	00 00 e0    	cp0.w     w0
    46cc:	07 00 32    	bra       Z, 0x46dc <.L69>
    46ce:	f0 56 80    	mov.w     0xade, w0
    46d0:	67 00 60    	and.w     w0, #0x7, w0
    46d2:	80 00 40    	add.w     w0, w0, w1
    46d4:	00 85 20    	mov.w     #0x850, w0
    46d6:	00 80 40    	add.w     w1, w0, w0
    46d8:	10 00 78    	mov.w     [w0], w0
    46da:	00 00 01    	call      w0

000046dc <.L69>:
    46dc:	90 4a 80    	mov.w     0x952, w0
    46de:	00 00 e8    	inc.w     w0, w0
    46e0:	90 4a 88    	mov.w     w0, 0x952
    46e2:	e0 57 80    	mov.w     0xafc, w0
    46e4:	64 00 60    	and.w     w0, #0x4, w0
    46e6:	00 00 e0    	cp0.w     w0
    46e8:	03 00 32    	bra       Z, 0x46f0 <.L71>
    46ea:	e8 04 07    	rcall     0x50bc <_magSetupRead>
    46ec:	8a 40 a8    	bset.b    0x8a, #0x2
    46ee:	6d 01 37    	bra       0x49ca <_I2C_DONE>

000046f0 <.L71>:
    46f0:	e0 57 80    	mov.w     0xafc, w0
    46f2:	68 00 60    	and.w     w0, #0x8, w0
    46f4:	00 00 e0    	cp0.w     w0
    46f6:	04 00 3a    	bra       NZ, 0x4700 <.L73>
    46f8:	c3 c2 bf    	mov.b     0x2c3, WREG
    46fa:	00 42 b2    	and.b     #0x20, w0
    46fc:	00 04 e0    	cp0.b     w0
    46fe:	14 00 32    	bra       Z, 0x4728 <.L75>

00004700 <.L73>:
    4700:	c3 c2 bf    	mov.b     0x2c3, WREG
    4702:	00 80 fb    	ze        w0, w0
    4704:	45 00 de    	lsr.w     w0, #0x5, w0
    4706:	61 40 60    	and.b     w0, #0x1, w0
    4708:	00 4f 98    	mov.b     w0, [w14+8]
    470a:	70 27 22    	mov.w     #0x2277, w0
    470c:	10 40 78    	mov.b     [w0], w0
    470e:	00 80 fb    	ze        w0, w0
    4710:	7f 00 60    	and.w     w0, #0x1f, w0
    4712:	00 00 e0    	cp0.w     w0
    4714:	04 00 3a    	bra       NZ, 0x471e <.L76>
    4716:	e0 57 80    	mov.w     0xafc, w0
    4718:	68 00 60    	and.w     w0, #0x8, w0
    471a:	00 00 e0    	cp0.w     w0
    471c:	03 00 32    	bra       Z, 0x4724 <.L78>

0000471e <.L76>:
    471e:	31 06 07    	rcall     0x5382 <_accSetupRead>
    4720:	8a 40 a8    	bset.b    0x8a, #0x2
    4722:	53 01 37    	bra       0x49ca <_I2C_DONE>

00004724 <.L78>:
    4724:	fc 0a a9    	bclr.b    0xafc, #0x0
    4726:	51 01 37    	bra       0x49ca <_I2C_DONE>

00004728 <.L75>:
    4728:	fc 0a a9    	bclr.b    0xafc, #0x0
    472a:	4f 01 37    	bra       0x49ca <_I2C_DONE>

0000472c <.L30>:
    472c:	d0 57 80    	mov.w     0xafa, w0
    472e:	68 00 60    	and.w     w0, #0x8, w0
    4730:	00 00 e0    	cp0.w     w0
    4732:	03 00 32    	bra       Z, 0x473a <.L80>
    4734:	c0 00 20    	mov.w     #0xc, w0
    4736:	10 57 88    	mov.w     w0, 0xae2
    4738:	02 00 37    	bra       0x473e <.L82>

0000473a <.L80>:
    473a:	b0 00 20    	mov.w     #0xb, w0
    473c:	10 57 88    	mov.w     w0, 0xae2

0000473e <.L82>:
    473e:	fb ca bf    	mov.b     0xafb, WREG
    4740:	00 80 fb    	ze        w0, w0
    4742:	30 57 88    	mov.w     w0, 0xae6
    4744:	30 57 80    	mov.w     0xae6, w0
    4746:	90 10 88    	mov.w     w0, 0x212
    4748:	40 01 37    	bra       0x49ca <_I2C_DONE>

0000474a <.L35>:
    474a:	19 c2 bf    	mov.b     0x219, WREG
    474c:	01 c8 b3    	mov.b     #0x80, w1
    474e:	01 40 60    	and.b     w0, w1, w0
    4750:	00 04 e0    	cp0.b     w0
    4752:	02 00 32    	bra       Z, 0x4758 <.L36>
    4754:	20 00 20    	mov.w     #0x2, w0
    4756:	a0 57 88    	mov.w     w0, 0xaf4

00004758 <.L36>:
    4758:	b0 10 80    	mov.w     0x216, w0
    475a:	7f 00 60    	and.w     w0, #0x1f, w0
    475c:	00 00 e0    	cp0.w     w0
    475e:	05 00 3a    	bra       NZ, 0x476a <.L84>
    4760:	c0 10 80    	mov.w     0x218, w0
    4762:	11 4c 24    	mov.w     #0x44c1, w1
    4764:	01 00 60    	and.w     w0, w1, w0
    4766:	00 00 e0    	cp0.w     w0
    4768:	02 00 32    	bra       Z, 0x476e <.L86>

0000476a <.L84>:
    476a:	30 00 20    	mov.w     #0x3, w0
    476c:	a0 57 88    	mov.w     w0, 0xaf4

0000476e <.L86>:
    476e:	00 00 eb    	clr.w     w0
    4770:	10 57 88    	mov.w     w0, 0xae2
    4772:	00 57 80    	mov.w     0xae0, w0
    4774:	00 00 e8    	inc.w     w0, w0
    4776:	00 57 88    	mov.w     w0, 0xae0
    4778:	a0 57 80    	mov.w     0xaf4, w0
    477a:	00 00 e0    	cp0.w     w0
    477c:	11 01 3a    	bra       NZ, 0x49a0 <_I2C_ERROR>
    477e:	8a 40 a8    	bset.b    0x8a, #0x2
    4780:	24 01 37    	bra       0x49ca <_I2C_DONE>

00004782 <.L31>:
    4782:	00 57 80    	mov.w     0xae0, w0
    4784:	80 00 40    	add.w     w0, w0, w1
    4786:	e0 a5 20    	mov.w     #0xa5e, w0
    4788:	00 80 40    	add.w     w1, w0, w0
    478a:	10 00 78    	mov.w     [w0], w0
    478c:	43 00 de    	lsr.w     w0, #0x3, w0
    478e:	61 40 60    	and.b     w0, #0x1, w0
    4790:	00 04 e0    	cp0.b     w0
    4792:	03 00 32    	bra       Z, 0x479a <.L89>
    4794:	c0 00 20    	mov.w     #0xc, w0
    4796:	10 57 88    	mov.w     w0, 0xae2
    4798:	02 00 37    	bra       0x479e <.L91>

0000479a <.L89>:
    479a:	b0 00 20    	mov.w     #0xb, w0
    479c:	10 57 88    	mov.w     w0, 0xae2

0000479e <.L91>:
    479e:	00 57 80    	mov.w     0xae0, w0
    47a0:	80 00 40    	add.w     w0, w0, w1
    47a2:	e0 a5 20    	mov.w     #0xa5e, w0
    47a4:	00 80 40    	add.w     w1, w0, w0
    47a6:	10 00 78    	mov.w     [w0], w0
    47a8:	44 00 de    	lsr.w     w0, #0x4, w0
    47aa:	61 40 60    	and.b     w0, #0x1, w0
    47ac:	00 04 e0    	cp0.b     w0
    47ae:	04 00 32    	bra       Z, 0x47b8 <.L92>
    47b0:	30 57 80    	mov.w     0xae6, w0
    47b2:	00 00 a0    	bset.w    w0, #0x0
    47b4:	90 10 88    	mov.w     w0, 0x212
    47b6:	09 01 37    	bra       0x49ca <_I2C_DONE>

000047b8 <.L92>:
    47b8:	fb ca bf    	mov.b     0xafb, WREG
    47ba:	00 80 fb    	ze        w0, w0
    47bc:	30 57 88    	mov.w     w0, 0xae6
    47be:	30 57 80    	mov.w     0xae6, w0
    47c0:	90 10 88    	mov.w     w0, 0x212
    47c2:	03 01 37    	bra       0x49ca <_I2C_DONE>

000047c4 <.L32>:
    47c4:	00 57 80    	mov.w     0xae0, w0
    47c6:	00 00 e8    	inc.w     w0, w0
    47c8:	00 57 88    	mov.w     w0, 0xae0
    47ca:	00 00 eb    	clr.w     w0
    47cc:	10 57 88    	mov.w     w0, 0xae2
    47ce:	8a 40 a8    	bset.b    0x8a, #0x2
    47d0:	fc 00 37    	bra       0x49ca <_I2C_DONE>

000047d2 <.L37>:
    47d2:	19 c2 bf    	mov.b     0x219, WREG
    47d4:	01 c8 b3    	mov.b     #0x80, w1
    47d6:	01 40 60    	and.b     w0, w1, w0
    47d8:	00 04 e0    	cp0.b     w0
    47da:	02 00 32    	bra       Z, 0x47e0 <.L95>
    47dc:	20 00 20    	mov.w     #0x2, w0
    47de:	a0 57 88    	mov.w     w0, 0xaf4

000047e0 <.L95>:
    47e0:	b0 10 80    	mov.w     0x216, w0
    47e2:	7f 00 60    	and.w     w0, #0x1f, w0
    47e4:	00 00 e0    	cp0.w     w0
    47e6:	05 00 3a    	bra       NZ, 0x47f2 <.L97>
    47e8:	c0 10 80    	mov.w     0x218, w0
    47ea:	11 4c 24    	mov.w     #0x44c1, w1
    47ec:	01 00 60    	and.w     w0, w1, w0
    47ee:	00 00 e0    	cp0.w     w0
    47f0:	02 00 32    	bra       Z, 0x47f6 <.L99>

000047f2 <.L97>:
    47f2:	30 00 20    	mov.w     #0x3, w0
    47f4:	a0 57 88    	mov.w     w0, 0xaf4

000047f6 <.L99>:
    47f6:	a0 57 80    	mov.w     0xaf4, w0
    47f8:	00 00 e0    	cp0.w     w0
    47fa:	d2 00 3a    	bra       NZ, 0x49a0 <_I2C_ERROR>
    47fc:	d0 57 80    	mov.w     0xafa, w0
    47fe:	70 00 60    	and.w     w0, #0x10, w0
    4800:	00 00 e0    	cp0.w     w0
    4802:	09 00 32    	bra       Z, 0x4816 <.L101>
    4804:	61 57 80    	mov.w     0xaec, w1
    4806:	00 27 22    	mov.w     #0x2270, w0
    4808:	00 80 40    	add.w     w1, w0, w0
    480a:	10 40 78    	mov.b     [w0], w0
    480c:	00 80 fb    	ze        w0, w0
    480e:	90 10 88    	mov.w     w0, 0x212
    4810:	01 00 e8    	inc.w     w1, w0
    4812:	60 57 88    	mov.w     w0, 0xaec
    4814:	09 00 37    	bra       0x4828 <.L103>

00004816 <.L101>:
    4816:	00 57 80    	mov.w     0xae0, w0
    4818:	80 00 40    	add.w     w0, w0, w1
    481a:	e0 a5 20    	mov.w     #0xa5e, w0
    481c:	00 80 40    	add.w     w1, w0, w0
    481e:	10 40 78    	mov.b     [w0], w0
    4820:	00 80 fb    	ze        w0, w0
    4822:	90 10 88    	mov.w     w0, 0x212
    4824:	a0 02 20    	mov.w     #0x2a, w0
    4826:	10 57 88    	mov.w     w0, 0xae2

00004828 <.L103>:
    4828:	20 57 80    	mov.w     0xae4, w0
    482a:	00 00 e9    	dec.w     w0, w0
    482c:	20 57 88    	mov.w     w0, 0xae4
    482e:	20 57 80    	mov.w     0xae4, w0
    4830:	00 00 e0    	cp0.w     w0
    4832:	cb 00 3d    	bra       GE, 0x49ca <_I2C_DONE>
    4834:	00 00 eb    	clr.w     w0
    4836:	10 57 88    	mov.w     w0, 0xae2
    4838:	00 57 80    	mov.w     0xae0, w0
    483a:	00 00 e8    	inc.w     w0, w0
    483c:	00 57 88    	mov.w     w0, 0xae0
    483e:	c5 00 37    	bra       0x49ca <_I2C_DONE>

00004840 <.L38>:
    4840:	19 c2 bf    	mov.b     0x219, WREG
    4842:	01 c8 b3    	mov.b     #0x80, w1
    4844:	01 40 60    	and.b     w0, w1, w0
    4846:	00 04 e0    	cp0.b     w0
    4848:	02 00 32    	bra       Z, 0x484e <.L106>
    484a:	20 00 20    	mov.w     #0x2, w0
    484c:	a0 57 88    	mov.w     w0, 0xaf4

0000484e <.L106>:
    484e:	b0 10 80    	mov.w     0x216, w0
    4850:	7f 00 60    	and.w     w0, #0x1f, w0
    4852:	00 00 e0    	cp0.w     w0
    4854:	05 00 3a    	bra       NZ, 0x4860 <.L108>
    4856:	c0 10 80    	mov.w     0x218, w0
    4858:	11 4c 24    	mov.w     #0x44c1, w1
    485a:	01 00 60    	and.w     w0, w1, w0
    485c:	00 00 e0    	cp0.w     w0
    485e:	02 00 32    	bra       Z, 0x4864 <.L110>

00004860 <.L108>:
    4860:	30 00 20    	mov.w     #0x3, w0
    4862:	a0 57 88    	mov.w     w0, 0xaf4

00004864 <.L110>:
    4864:	a0 57 80    	mov.w     0xaf4, w0
    4866:	00 00 e0    	cp0.w     w0
    4868:	9b 00 3a    	bra       NZ, 0x49a0 <_I2C_ERROR>
    486a:	d0 57 80    	mov.w     0xafa, w0
    486c:	70 00 60    	and.w     w0, #0x10, w0
    486e:	00 00 e0    	cp0.w     w0
    4870:	09 00 32    	bra       Z, 0x4884 <.L112>
    4872:	61 57 80    	mov.w     0xaec, w1
    4874:	00 27 22    	mov.w     #0x2270, w0
    4876:	00 80 40    	add.w     w1, w0, w0
    4878:	10 40 78    	mov.b     [w0], w0
    487a:	00 80 fb    	ze        w0, w0
    487c:	90 10 88    	mov.w     w0, 0x212
    487e:	01 00 e8    	inc.w     w1, w0
    4880:	60 57 88    	mov.w     w0, 0xaec
    4882:	0a 00 37    	bra       0x4898 <.L114>

00004884 <.L112>:
    4884:	00 57 80    	mov.w     0xae0, w0
    4886:	00 00 40    	add.w     w0, w0, w0
    4888:	80 00 e8    	inc.w     w0, w1
    488a:	e0 a5 20    	mov.w     #0xa5e, w0
    488c:	00 80 40    	add.w     w1, w0, w0
    488e:	10 40 78    	mov.b     [w0], w0
    4890:	00 80 fb    	ze        w0, w0
    4892:	90 10 88    	mov.w     w0, 0x212
    4894:	90 02 20    	mov.w     #0x29, w0
    4896:	10 57 88    	mov.w     w0, 0xae2

00004898 <.L114>:
    4898:	20 57 80    	mov.w     0xae4, w0
    489a:	00 00 e9    	dec.w     w0, w0
    489c:	20 57 88    	mov.w     w0, 0xae4
    489e:	00 57 80    	mov.w     0xae0, w0
    48a0:	00 00 e8    	inc.w     w0, w0
    48a2:	00 57 88    	mov.w     w0, 0xae0
    48a4:	20 57 80    	mov.w     0xae4, w0
    48a6:	00 00 e0    	cp0.w     w0
    48a8:	90 00 3d    	bra       GE, 0x49ca <_I2C_DONE>
    48aa:	00 00 eb    	clr.w     w0
    48ac:	10 57 88    	mov.w     w0, 0xae2
    48ae:	8d 00 37    	bra       0x49ca <_I2C_DONE>

000048b0 <.L33>:
    48b0:	18 c2 bf    	mov.b     0x218, WREG
    48b2:	62 40 60    	and.b     w0, #0x2, w0
    48b4:	00 04 e0    	cp0.b     w0
    48b6:	03 00 3a    	bra       NZ, 0x48be <.L117>
    48b8:	40 00 20    	mov.w     #0x4, w0
    48ba:	a0 57 88    	mov.w     w0, 0xaf4
    48bc:	02 00 37    	bra       0x48c2 <.L119>

000048be <.L117>:
    48be:	80 10 80    	mov.w     0x210, w0
    48c0:	00 4f 98    	mov.b     w0, [w14+8]

000048c2 <.L119>:
    48c2:	b0 10 80    	mov.w     0x216, w0
    48c4:	7f 00 60    	and.w     w0, #0x1f, w0
    48c6:	00 00 e0    	cp0.w     w0
    48c8:	05 00 3a    	bra       NZ, 0x48d4 <.L120>
    48ca:	c0 10 80    	mov.w     0x218, w0
    48cc:	11 4c 24    	mov.w     #0x44c1, w1
    48ce:	01 00 60    	and.w     w0, w1, w0
    48d0:	00 00 e0    	cp0.w     w0
    48d2:	02 00 32    	bra       Z, 0x48d8 <.L122>

000048d4 <.L120>:
    48d4:	30 00 20    	mov.w     #0x3, w0
    48d6:	a0 57 88    	mov.w     w0, 0xaf4

000048d8 <.L122>:
    48d8:	a0 57 80    	mov.w     0xaf4, w0
    48da:	00 00 e0    	cp0.w     w0
    48dc:	61 00 3a    	bra       NZ, 0x49a0 <_I2C_ERROR>
    48de:	51 57 80    	mov.w     0xaea, w1
    48e0:	00 27 22    	mov.w     #0x2270, w0
    48e2:	00 80 40    	add.w     w1, w0, w0
    48e4:	0e 49 90    	mov.b     [w14+8], w2
    48e6:	02 48 78    	mov.b     w2, [w0]
    48e8:	01 00 e8    	inc.w     w1, w0
    48ea:	50 57 88    	mov.w     w0, 0xaea
    48ec:	20 57 80    	mov.w     0xae4, w0
    48ee:	00 00 e9    	dec.w     w0, w0
    48f0:	20 57 88    	mov.w     w0, 0xae4
    48f2:	20 57 80    	mov.w     0xae4, w0
    48f4:	00 00 e0    	cp0.w     w0
    48f6:	05 00 3d    	bra       GE, 0x4902 <.L124>
    48f8:	40 03 20    	mov.w     #0x34, w0
    48fa:	10 57 88    	mov.w     w0, 0xae2
    48fc:	16 a2 a8    	bset.b    0x216, #0x5
    48fe:	16 82 a8    	bset.b    0x216, #0x4
    4900:	64 00 37    	bra       0x49ca <_I2C_DONE>

00004902 <.L124>:
    4902:	30 03 20    	mov.w     #0x33, w0
    4904:	10 57 88    	mov.w     w0, 0xae2
    4906:	16 a2 a9    	bclr.b    0x216, #0x5
    4908:	16 82 a8    	bset.b    0x216, #0x4
    490a:	5f 00 37    	bra       0x49ca <_I2C_DONE>

0000490c <.L39>:
    490c:	b0 10 80    	mov.w     0x216, w0
    490e:	7f 00 60    	and.w     w0, #0x1f, w0
    4910:	00 00 e0    	cp0.w     w0
    4912:	05 00 3a    	bra       NZ, 0x491e <.L127>
    4914:	c0 10 80    	mov.w     0x218, w0
    4916:	11 4c 24    	mov.w     #0x44c1, w1
    4918:	01 00 60    	and.w     w0, w1, w0
    491a:	00 00 e0    	cp0.w     w0
    491c:	02 00 32    	bra       Z, 0x4922 <.L129>

0000491e <.L127>:
    491e:	30 00 20    	mov.w     #0x3, w0
    4920:	a0 57 88    	mov.w     w0, 0xaf4

00004922 <.L129>:
    4922:	a0 57 80    	mov.w     0xaf4, w0
    4924:	00 00 e0    	cp0.w     w0
    4926:	3c 00 3a    	bra       NZ, 0x49a0 <_I2C_ERROR>
    4928:	50 00 20    	mov.w     #0x5, w0
    492a:	10 57 88    	mov.w     w0, 0xae2
    492c:	16 62 a8    	bset.b    0x216, #0x3
    492e:	4d 00 37    	bra       0x49ca <_I2C_DONE>

00004930 <.L34>:
    4930:	18 c2 bf    	mov.b     0x218, WREG
    4932:	62 40 60    	and.b     w0, #0x2, w0
    4934:	00 04 e0    	cp0.b     w0
    4936:	03 00 3a    	bra       NZ, 0x493e <.L131>
    4938:	40 00 20    	mov.w     #0x4, w0
    493a:	a0 57 88    	mov.w     w0, 0xaf4
    493c:	02 00 37    	bra       0x4942 <.L133>

0000493e <.L131>:
    493e:	80 10 80    	mov.w     0x210, w0
    4940:	00 4f 98    	mov.b     w0, [w14+8]

00004942 <.L133>:
    4942:	b0 10 80    	mov.w     0x216, w0
    4944:	7f 00 60    	and.w     w0, #0x1f, w0
    4946:	00 00 e0    	cp0.w     w0
    4948:	05 00 3a    	bra       NZ, 0x4954 <.L134>
    494a:	c0 10 80    	mov.w     0x218, w0
    494c:	11 4c 24    	mov.w     #0x44c1, w1
    494e:	01 00 60    	and.w     w0, w1, w0
    4950:	00 00 e0    	cp0.w     w0
    4952:	02 00 32    	bra       Z, 0x4958 <.L136>

00004954 <.L134>:
    4954:	30 00 20    	mov.w     #0x3, w0
    4956:	a0 57 88    	mov.w     w0, 0xaf4

00004958 <.L136>:
    4958:	a0 57 80    	mov.w     0xaf4, w0
    495a:	00 00 e0    	cp0.w     w0
    495c:	21 00 3a    	bra       NZ, 0x49a0 <_I2C_ERROR>
    495e:	51 57 80    	mov.w     0xaea, w1
    4960:	00 27 22    	mov.w     #0x2270, w0
    4962:	00 80 40    	add.w     w1, w0, w0
    4964:	8e 49 90    	mov.b     [w14+8], w3
    4966:	03 48 78    	mov.b     w3, [w0]
    4968:	01 00 e8    	inc.w     w1, w0
    496a:	50 57 88    	mov.w     w0, 0xaea
    496c:	16 a2 a8    	bset.b    0x216, #0x5
    496e:	16 82 a8    	bset.b    0x216, #0x4
    4970:	40 03 20    	mov.w     #0x34, w0
    4972:	10 57 88    	mov.w     w0, 0xae2
    4974:	2a 00 37    	bra       0x49ca <_I2C_DONE>

00004976 <.L40>:
    4976:	b0 10 80    	mov.w     0x216, w0
    4978:	7f 00 60    	and.w     w0, #0x1f, w0
    497a:	00 00 e0    	cp0.w     w0
    497c:	05 00 3a    	bra       NZ, 0x4988 <.L138>
    497e:	c0 10 80    	mov.w     0x218, w0
    4980:	11 4c 24    	mov.w     #0x44c1, w1
    4982:	01 00 60    	and.w     w0, w1, w0
    4984:	00 00 e0    	cp0.w     w0
    4986:	02 00 32    	bra       Z, 0x498c <.L140>

00004988 <.L138>:
    4988:	30 00 20    	mov.w     #0x3, w0
    498a:	a0 57 88    	mov.w     w0, 0xaf4

0000498c <.L140>:
    498c:	a0 57 80    	mov.w     0xaf4, w0
    498e:	00 00 e0    	cp0.w     w0
    4990:	07 00 3a    	bra       NZ, 0x49a0 <_I2C_ERROR>
    4992:	00 00 eb    	clr.w     w0
    4994:	10 57 88    	mov.w     w0, 0xae2
    4996:	00 57 80    	mov.w     0xae0, w0
    4998:	00 00 e8    	inc.w     w0, w0
    499a:	00 57 88    	mov.w     w0, 0xae0
    499c:	8a 40 a8    	bset.b    0x8a, #0x2
    499e:	15 00 37    	bra       0x49ca <_I2C_DONE>

000049a0 <_I2C_ERROR>:
    49a0:	b0 10 80    	mov.w     0x216, w0
    49a2:	b0 57 88    	mov.w     w0, 0xaf6
    49a4:	c0 10 80    	mov.w     0x218, w0
    49a6:	c0 57 88    	mov.w     w0, 0xaf8
    49a8:	00 86 20    	mov.w     #0x860, w0
    49aa:	e1 ad 20    	mov.w     #0xade, w1
    49ac:	0e 00 09    	repeat    #0xe
    49ae:	31 18 78    	mov.w     [w1++], [w0++]
    49b0:	c2 65 80    	mov.w     0xcb8, w2
    49b2:	d3 65 80    	mov.w     0xcba, w3
    49b4:	f2 57 88    	mov.w     w2, 0xafe
    49b6:	03 58 88    	mov.w     w3, 0xb00
    49b8:	e0 03 20    	mov.w     #0x3e, w0
    49ba:	00 57 88    	mov.w     w0, 0xae0
    49bc:	00 00 eb    	clr.w     w0
    49be:	10 57 88    	mov.w     w0, 0xae2
    49c0:	a0 57 80    	mov.w     0xaf4, w0
    49c2:	e3 0f 50    	sub.w     w0, #0x3, [w15]
    49c4:	01 00 3a    	bra       NZ, 0x49c8 <.L143>
    49c6:	b9 fc 07    	rcall     0x433a <_udb_init_I2C2>

000049c8 <.L143>:
    49c8:	8a 40 a8    	bset.b    0x8a, #0x2

000049ca <_I2C_DONE>:
    49ca:	1e 00 78    	mov.w     [w14], w0
    49cc:	4f 00 78    	mov.w     [--w15], w0
    49ce:	00 0f 78    	mov.w     w0, [w14]
    49d0:	1e 00 e0    	cp0.w     [w14]
    49d2:	12 00 32    	bra       Z, 0x49f8 <.L147>
    49d4:	40 00 f9    	pop       0x40
    49d6:	3e 00 f9    	pop       0x3e
    49d8:	3c 00 f9    	pop       0x3c
    49da:	3a 00 f9    	pop       0x3a
    49dc:	38 00 f9    	pop       0x38
    49de:	36 00 f9    	pop       0x36
    49e0:	2c 00 f9    	pop       0x2c
    49e2:	2a 00 f9    	pop       0x2a
    49e4:	28 00 f9    	pop       0x28
    49e6:	26 00 f9    	pop       0x26
    49e8:	24 00 f9    	pop       0x24
    49ea:	22 00 f9    	pop       0x22
    49ec:	50 00 f9    	pop       0x50
    49ee:	46 00 f9    	pop       0x46
    49f0:	42 00 f9    	pop       0x42
    49f2:	44 00 f9    	pop       0x44
    49f4:	10 00 20    	mov.w     #0x1, w0
    49f6:	90 74 88    	mov.w     w0, 0xe92

000049f8 <.L147>:
    49f8:	00 80 fa    	ulnk      
    49fa:	4f 03 be    	mov.d     [--w15], w6
    49fc:	4f 02 be    	mov.d     [--w15], w4
    49fe:	4f 01 be    	mov.d     [--w15], w2
    4a00:	4f 00 be    	mov.d     [--w15], w0
    4a02:	36 00 f9    	pop       0x36
    4a04:	00 40 06    	retfie    

00004a06 <_I2C_Start>:
    4a06:	04 00 fa    	lnk       #0x4
    4a08:	00 0f 78    	mov.w     w0, [w14]
    4a0a:	00 80 eb    	setm.w    w0
    4a0c:	9e 0f 10    	subr.w    w0, [w14], [w15]
    4a0e:	06 00 35    	bra       LT, 0x4a1c <.L149>
    4a10:	10 00 20    	mov.w     #0x1, w0
    4a12:	9e 0f 10    	subr.w    w0, [w14], [w15]
    4a14:	03 00 3c    	bra       GT, 0x4a1c <.L149>
    4a16:	30 00 20    	mov.w     #0x3, w0
    4a18:	a0 4a 88    	mov.w     w0, 0x954
    4a1a:	0a 00 37    	bra       0x4a30 <.L152>

00004a1c <.L149>:
    4a1c:	1e 00 78    	mov.w     [w14], w0
    4a1e:	10 07 98    	mov.w     w0, [w14+2]
    4a20:	1e 00 90    	mov.w     [w14+2], w0
    4a22:	00 00 e0    	cp0.w     w0
    4a24:	03 00 3d    	bra       GE, 0x4a2c <.L153>
    4a26:	1e 00 90    	mov.w     [w14+2], w0
    4a28:	00 00 ea    	neg.w     w0, w0
    4a2a:	10 07 98    	mov.w     w0, [w14+2]

00004a2c <.L153>:
    4a2c:	1e 00 90    	mov.w     [w14+2], w0
    4a2e:	a0 4a 88    	mov.w     w0, 0x954

00004a30 <.L152>:
    4a30:	1e 00 e0    	cp0.w     [w14]
    4a32:	0e 00 35    	bra       LT, 0x4a50 <.L154>
    4a34:	00 00 eb    	clr.w     w0
    4a36:	10 57 88    	mov.w     w0, 0xae2
    4a38:	00 00 eb    	clr.w     w0
    4a3a:	60 57 88    	mov.w     w0, 0xaec
    4a3c:	00 00 eb    	clr.w     w0
    4a3e:	50 57 88    	mov.w     w0, 0xaea
    4a40:	00 00 eb    	clr.w     w0
    4a42:	00 57 88    	mov.w     w0, 0xae0
    4a44:	00 00 eb    	clr.w     w0
    4a46:	a0 57 88    	mov.w     w0, 0xaf4
    4a48:	00 00 eb    	clr.w     w0
    4a4a:	b0 57 88    	mov.w     w0, 0xaf6
    4a4c:	00 00 eb    	clr.w     w0
    4a4e:	c0 57 88    	mov.w     w0, 0xaf8

00004a50 <.L154>:
    4a50:	8a 40 a8    	bset.b    0x8a, #0x2
    4a52:	00 80 fa    	ulnk      
    4a54:	00 00 06    	return    

00004a56 <_I2C_Reset>:
    4a56:	00 00 fa    	lnk       #0x0
    4a58:	70 fc 07    	rcall     0x433a <_udb_init_I2C2>
    4a5a:	b0 36 85    	mov.w     0xa6d6, w0
    4a5c:	f0 52 88    	mov.w     w0, 0xa5e
    4a5e:	c0 36 85    	mov.w     0xa6d8, w0
    4a60:	00 53 88    	mov.w     w0, 0xa60
    4a62:	d0 36 85    	mov.w     0xa6da, w0
    4a64:	10 53 88    	mov.w     w0, 0xa62
    4a66:	00 00 eb    	clr.w     w0
    4a68:	ce ff 07    	rcall     0x4a06 <_I2C_Start>
    4a6a:	00 80 fa    	ulnk      
    4a6c:	00 00 06    	return    

00004a6e <_I2C_default>:
    4a6e:	00 00 fa    	lnk       #0x0
    4a70:	00 80 fa    	ulnk      
    4a72:	00 00 06    	return    

00004a74 <_bankMix>:
    4a74:	26 00 fa    	lnk       #0x26
    4a76:	70 0f 98    	mov.w     w0, [w14+30]
    4a78:	01 17 98    	mov.w     w1, [w14+32]
    4a7a:	00 00 eb    	clr.w     w0
    4a7c:	10 07 98    	mov.w     w0, [w14+2]
    4a7e:	60 00 b8    	mul.uu    w0, #0x0, w0
    4a80:	20 07 98    	mov.w     w0, [w14+4]
    4a82:	31 07 98    	mov.w     w1, [w14+6]
    4a84:	2e 00 90    	mov.w     [w14+4], w0
    4a86:	be 00 90    	mov.w     [w14+6], w1
    4a88:	40 07 98    	mov.w     w0, [w14+8]
    4a8a:	51 07 98    	mov.w     w1, [w14+10]
    4a8c:	2f 02 37    	bra       0x4eec <.L2>

00004a8e <.L3>:
    4a8e:	1e 00 90    	mov.w     [w14+2], w0
    4a90:	e7 0f 50    	sub.w     w0, #0x7, [w15]
    4a92:	03 00 3a    	bra       NZ, 0x4a9a <.L4>
    4a94:	00 01 20    	mov.w     #0x10, w0
    4a96:	00 0f 78    	mov.w     w0, [w14]
    4a98:	07 00 37    	bra       0x4aa8 <.L6>

00004a9a <.L4>:
    4a9a:	7e 08 90    	mov.w     [w14+30], w0
    4a9c:	10 00 78    	mov.w     [w0], w0
    4a9e:	44 00 dd    	sl.w      w0, #0x4, w0
    4aa0:	00 00 fb    	se        w0, w0
    4aa2:	44 80 de    	asr.w     w0, #0x4, w0
    4aa4:	00 00 fb    	se        w0, w0
    4aa6:	00 0f 78    	mov.w     w0, [w14]

00004aa8 <.L6>:
    4aa8:	1e 00 e0    	cp0.w     [w14]
    4aaa:	1a 02 32    	bra       Z, 0x4ee0 <.L7>
    4aac:	7e 08 90    	mov.w     [w14+30], w0
    4aae:	10 00 78    	mov.w     [w0], w0
    4ab0:	46 00 dd    	sl.w      w0, #0x6, w0
    4ab2:	4a 80 de    	asr.w     w0, #0xa, w0
    4ab4:	00 00 fb    	se        w0, w0
    4ab6:	80 00 40    	add.w     w0, w0, w1
    4ab8:	80 95 20    	mov.w     #0x958, w0
    4aba:	00 80 40    	add.w     w1, w0, w0
    4abc:	90 00 78    	mov.w     [w0], w1
    4abe:	71 07 98    	mov.w     w1, [w14+14]
    4ac0:	7e 08 90    	mov.w     [w14+30], w0
    4ac2:	10 00 78    	mov.w     [w0], w0
    4ac4:	4a 80 de    	asr.w     w0, #0xa, w0
    4ac6:	00 00 fb    	se        w0, w0
    4ac8:	80 00 40    	add.w     w0, w0, w1
    4aca:	80 95 20    	mov.w     #0x958, w0
    4acc:	00 80 40    	add.w     w1, w0, w0
    4ace:	10 01 78    	mov.w     [w0], w2
    4ad0:	62 07 98    	mov.w     w2, [w14+12]
    4ad2:	7e 08 90    	mov.w     [w14+30], w0
    4ad4:	90 01 90    	mov.w     [w0+2], w3
    4ad6:	03 0f 98    	mov.w     w3, [w14+16]
    4ad8:	1e 00 78    	mov.w     [w14], w0
    4ada:	61 01 b8    	mul.uu    w0, #0x1, w2
    4adc:	12 17 98    	mov.w     w2, [w14+34]
    4ade:	23 17 98    	mov.w     w3, [w14+36]
    4ae0:	00 01 20    	mov.w     #0x10, w0
    4ae2:	01 00 20    	mov.w     #0x0, w1
    4ae4:	1e 11 90    	mov.w     [w14+34], w2
    4ae6:	ae 11 90    	mov.w     [w14+36], w3
    4ae8:	80 0f 51    	sub.w     w2, w0, [w15]
    4aea:	81 8f 59    	subb.w    w3, w1, [w15]
    4aec:	f9 01 3e    	bra       GTU, 0x4ee0 <.L7>
    4aee:	1e 10 90    	mov.w     [w14+34], w0
    4af0:	ae 10 90    	mov.w     [w14+36], w1
    4af2:	00 60 01    	bra       w0
    4af4:	f5 01 37    	bra       0x4ee0 <.L7>
    4af6:	0f 00 37    	bra       0x4b16 <.L10>
    4af8:	5e 00 37    	bra       0x4bb6 <.L11>
    4afa:	a3 00 37    	bra       0x4c42 <.L12>
    4afc:	f1 01 37    	bra       0x4ee0 <.L7>
    4afe:	ec 00 37    	bra       0x4cd8 <.L14>
    4b00:	f9 00 37    	bra       0x4cf4 <.L15>
    4b02:	0b 01 37    	bra       0x4d1a <.L16>
    4b04:	1b 01 37    	bra       0x4d3c <.L17>
    4b06:	30 01 37    	bra       0x4d68 <.L18>
    4b08:	44 01 37    	bra       0x4d92 <.L19>
    4b0a:	5d 01 37    	bra       0x4dc6 <.L20>
    4b0c:	6e 01 37    	bra       0x4dea <.L21>
    4b0e:	84 01 37    	bra       0x4e18 <.L22>
    4b10:	9a 01 37    	bra       0x4e46 <.L23>
    4b12:	b0 01 37    	bra       0x4e74 <.L24>
    4b14:	b4 01 37    	bra       0x4e7e <.L25>

00004b16 <.L10>:
    4b16:	7e 08 90    	mov.w     [w14+30], w0
    4b18:	10 00 90    	mov.w     [w0+2], w0
    4b1a:	42 00 dd    	sl.w      w0, #0x2, w0
    4b1c:	00 00 fb    	se        w0, w0
    4b1e:	42 80 de    	asr.w     w0, #0x2, w0
    4b20:	00 00 fb    	se        w0, w0
    4b22:	80 00 40    	add.w     w0, w0, w1
    4b24:	80 95 20    	mov.w     #0x958, w0
    4b26:	00 80 40    	add.w     w1, w0, w0
    4b28:	90 00 78    	mov.w     [w0], w1
    4b2a:	21 0f 98    	mov.w     w1, [w14+20]
    4b2c:	2e 08 90    	mov.w     [w14+20], w0
    4b2e:	00 00 e0    	cp0.w     w0
    4b30:	0b 00 3d    	bra       GE, 0x4b48 <.L27>
    4b32:	ae 08 90    	mov.w     [w14+20], w1
    4b34:	f0 ff 27    	mov.w     #0x7fff, w0
    4b36:	00 80 60    	and.w     w1, w0, w0
    4b38:	20 0f 98    	mov.w     w0, [w14+20]
    4b3a:	2e 08 90    	mov.w     [w14+20], w0
    4b3c:	00 00 e0    	cp0.w     w0
    4b3e:	0b 00 32    	bra       Z, 0x4b56 <.L31>
    4b40:	2e 08 90    	mov.w     [w14+20], w0
    4b42:	43 80 de    	asr.w     w0, #0x3, w0
    4b44:	20 0f 98    	mov.w     w0, [w14+20]
    4b46:	07 00 37    	bra       0x4b56 <.L31>

00004b48 <.L27>:
    4b48:	2e 08 90    	mov.w     [w14+20], w0
    4b4a:	43 80 de    	asr.w     w0, #0x3, w0
    4b4c:	20 0f 98    	mov.w     w0, [w14+20]
    4b4e:	ae 08 90    	mov.w     [w14+20], w1
    4b50:	00 00 21    	mov.w     #0x1000, w0
    4b52:	00 80 40    	add.w     w1, w0, w0
    4b54:	20 0f 98    	mov.w     w0, [w14+20]

00004b56 <.L31>:
    4b56:	ae 08 90    	mov.w     [w14+20], w1
    4b58:	f0 ff 21    	mov.w     #0x1fff, w0
    4b5a:	80 8f 50    	sub.w     w1, w0, [w15]
    4b5c:	02 00 34    	bra       LE, 0x4b62 <.L32>
    4b5e:	f0 ff 21    	mov.w     #0x1fff, w0
    4b60:	20 0f 98    	mov.w     w0, [w14+20]

00004b62 <.L32>:
    4b62:	2e 08 90    	mov.w     [w14+20], w0
    4b64:	42 00 dd    	sl.w      w0, #0x2, w0
    4b66:	20 0f 98    	mov.w     w0, [w14+20]
    4b68:	f1 ff 27    	mov.w     #0x7fff, w1
    4b6a:	2e 08 90    	mov.w     [w14+20], w0
    4b6c:	00 80 50    	sub.w     w1, w0, w0
    4b6e:	10 0f 98    	mov.w     w0, [w14+18]
    4b70:	8e 08 90    	mov.w     [w14+16], w1
    4b72:	00 fc 2f    	mov.w     #0xffc0, w0
    4b74:	00 80 60    	and.w     w1, w0, w0
    4b76:	00 0f 98    	mov.w     w0, [w14+16]
    4b78:	9e 08 90    	mov.w     [w14+18], w1
    4b7a:	0e 08 90    	mov.w     [w14+16], w0
    4b7c:	00 88 b9    	mul.ss    w1, w0, w0
    4b7e:	30 0f 98    	mov.w     w0, [w14+22]
    4b80:	41 0f 98    	mov.w     w1, [w14+24]
    4b82:	ce 08 90    	mov.w     [w14+24], w1
    4b84:	7e 00 90    	mov.w     [w14+14], w0
    4b86:	00 88 b9    	mul.ss    w1, w0, w0
    4b88:	30 0f 98    	mov.w     w0, [w14+22]
    4b8a:	41 0f 98    	mov.w     w1, [w14+24]
    4b8c:	ae 08 90    	mov.w     [w14+20], w1
    4b8e:	0e 08 90    	mov.w     [w14+16], w0
    4b90:	00 88 b9    	mul.ss    w1, w0, w0
    4b92:	50 0f 98    	mov.w     w0, [w14+26]
    4b94:	61 0f 98    	mov.w     w1, [w14+28]
    4b96:	ee 08 90    	mov.w     [w14+28], w1
    4b98:	6e 00 90    	mov.w     [w14+12], w0
    4b9a:	00 88 b9    	mul.ss    w1, w0, w0
    4b9c:	50 0f 98    	mov.w     w0, [w14+26]
    4b9e:	61 0f 98    	mov.w     w1, [w14+28]
    4ba0:	ce 08 90    	mov.w     [w14+24], w1
    4ba2:	6e 08 90    	mov.w     [w14+28], w0
    4ba4:	00 80 40    	add.w     w1, w0, w0
    4ba6:	61 01 b9    	mul.su    w0, #0x1, w2
    4ba8:	4e 00 90    	mov.w     [w14+8], w0
    4baa:	de 00 90    	mov.w     [w14+10], w1
    4bac:	00 00 41    	add.w     w2, w0, w0
    4bae:	81 80 49    	addc.w    w3, w1, w1
    4bb0:	40 07 98    	mov.w     w0, [w14+8]
    4bb2:	51 07 98    	mov.w     w1, [w14+10]
    4bb4:	95 01 37    	bra       0x4ee0 <.L7>

00004bb6 <.L11>:
    4bb6:	7e 08 90    	mov.w     [w14+30], w0
    4bb8:	10 00 90    	mov.w     [w0+2], w0
    4bba:	42 00 dd    	sl.w      w0, #0x2, w0
    4bbc:	00 00 fb    	se        w0, w0
    4bbe:	42 80 de    	asr.w     w0, #0x2, w0
    4bc0:	00 00 fb    	se        w0, w0
    4bc2:	80 00 40    	add.w     w0, w0, w1
    4bc4:	80 95 20    	mov.w     #0x958, w0
    4bc6:	00 80 40    	add.w     w1, w0, w0
    4bc8:	10 01 78    	mov.w     [w0], w2
    4bca:	22 0f 98    	mov.w     w2, [w14+20]
    4bcc:	2e 08 90    	mov.w     [w14+20], w0
    4bce:	00 00 e0    	cp0.w     w0
    4bd0:	0b 00 3d    	bra       GE, 0x4be8 <.L34>
    4bd2:	ae 08 90    	mov.w     [w14+20], w1
    4bd4:	f0 ff 27    	mov.w     #0x7fff, w0
    4bd6:	00 80 60    	and.w     w1, w0, w0
    4bd8:	20 0f 98    	mov.w     w0, [w14+20]
    4bda:	2e 08 90    	mov.w     [w14+20], w0
    4bdc:	00 00 e0    	cp0.w     w0
    4bde:	0b 00 32    	bra       Z, 0x4bf6 <.L38>
    4be0:	2e 08 90    	mov.w     [w14+20], w0
    4be2:	43 80 de    	asr.w     w0, #0x3, w0
    4be4:	20 0f 98    	mov.w     w0, [w14+20]
    4be6:	07 00 37    	bra       0x4bf6 <.L38>

00004be8 <.L34>:
    4be8:	2e 08 90    	mov.w     [w14+20], w0
    4bea:	43 80 de    	asr.w     w0, #0x3, w0
    4bec:	20 0f 98    	mov.w     w0, [w14+20]
    4bee:	ae 08 90    	mov.w     [w14+20], w1
    4bf0:	00 00 21    	mov.w     #0x1000, w0
    4bf2:	00 80 40    	add.w     w1, w0, w0
    4bf4:	20 0f 98    	mov.w     w0, [w14+20]

00004bf6 <.L38>:
    4bf6:	ae 08 90    	mov.w     [w14+20], w1
    4bf8:	f0 ff 21    	mov.w     #0x1fff, w0
    4bfa:	80 8f 50    	sub.w     w1, w0, [w15]
    4bfc:	02 00 34    	bra       LE, 0x4c02 <.L39>
    4bfe:	f0 ff 21    	mov.w     #0x1fff, w0
    4c00:	20 0f 98    	mov.w     w0, [w14+20]

00004c02 <.L39>:
    4c02:	2e 08 90    	mov.w     [w14+20], w0
    4c04:	42 00 dd    	sl.w      w0, #0x2, w0
    4c06:	20 0f 98    	mov.w     w0, [w14+20]
    4c08:	f1 ff 27    	mov.w     #0x7fff, w1
    4c0a:	2e 08 90    	mov.w     [w14+20], w0
    4c0c:	00 80 50    	sub.w     w1, w0, w0
    4c0e:	10 0f 98    	mov.w     w0, [w14+18]
    4c10:	8e 08 90    	mov.w     [w14+16], w1
    4c12:	00 fc 2f    	mov.w     #0xffc0, w0
    4c14:	00 80 60    	and.w     w1, w0, w0
    4c16:	00 0f 98    	mov.w     w0, [w14+16]
    4c18:	9e 08 90    	mov.w     [w14+18], w1
    4c1a:	7e 00 90    	mov.w     [w14+14], w0
    4c1c:	00 88 b9    	mul.ss    w1, w0, w0
    4c1e:	30 0f 98    	mov.w     w0, [w14+22]
    4c20:	41 0f 98    	mov.w     w1, [w14+24]
    4c22:	ae 08 90    	mov.w     [w14+20], w1
    4c24:	6e 00 90    	mov.w     [w14+12], w0
    4c26:	00 88 b9    	mul.ss    w1, w0, w0
    4c28:	50 0f 98    	mov.w     w0, [w14+26]
    4c2a:	61 0f 98    	mov.w     w1, [w14+28]
    4c2c:	ce 08 90    	mov.w     [w14+24], w1
    4c2e:	6e 08 90    	mov.w     [w14+28], w0
    4c30:	00 80 40    	add.w     w1, w0, w0
    4c32:	61 01 b9    	mul.su    w0, #0x1, w2
    4c34:	4e 00 90    	mov.w     [w14+8], w0
    4c36:	de 00 90    	mov.w     [w14+10], w1
    4c38:	00 00 41    	add.w     w2, w0, w0
    4c3a:	81 80 49    	addc.w    w3, w1, w1
    4c3c:	40 07 98    	mov.w     w0, [w14+8]
    4c3e:	51 07 98    	mov.w     w1, [w14+10]
    4c40:	4f 01 37    	bra       0x4ee0 <.L7>

00004c42 <.L12>:
    4c42:	7e 08 90    	mov.w     [w14+30], w0
    4c44:	10 00 90    	mov.w     [w0+2], w0
    4c46:	42 00 dd    	sl.w      w0, #0x2, w0
    4c48:	00 00 fb    	se        w0, w0
    4c4a:	42 80 de    	asr.w     w0, #0x2, w0
    4c4c:	00 00 fb    	se        w0, w0
    4c4e:	80 00 40    	add.w     w0, w0, w1
    4c50:	80 95 20    	mov.w     #0x958, w0
    4c52:	00 80 40    	add.w     w1, w0, w0
    4c54:	90 01 78    	mov.w     [w0], w3
    4c56:	23 0f 98    	mov.w     w3, [w14+20]
    4c58:	2e 08 90    	mov.w     [w14+20], w0
    4c5a:	00 00 e0    	cp0.w     w0
    4c5c:	0b 00 3d    	bra       GE, 0x4c74 <.L41>
    4c5e:	ae 08 90    	mov.w     [w14+20], w1
    4c60:	f0 ff 27    	mov.w     #0x7fff, w0
    4c62:	00 80 60    	and.w     w1, w0, w0
    4c64:	20 0f 98    	mov.w     w0, [w14+20]
    4c66:	2e 08 90    	mov.w     [w14+20], w0
    4c68:	00 00 e0    	cp0.w     w0
    4c6a:	0b 00 32    	bra       Z, 0x4c82 <.L45>
    4c6c:	2e 08 90    	mov.w     [w14+20], w0
    4c6e:	43 80 de    	asr.w     w0, #0x3, w0
    4c70:	20 0f 98    	mov.w     w0, [w14+20]
    4c72:	07 00 37    	bra       0x4c82 <.L45>

00004c74 <.L41>:
    4c74:	2e 08 90    	mov.w     [w14+20], w0
    4c76:	43 80 de    	asr.w     w0, #0x3, w0
    4c78:	20 0f 98    	mov.w     w0, [w14+20]
    4c7a:	ae 08 90    	mov.w     [w14+20], w1
    4c7c:	00 00 21    	mov.w     #0x1000, w0
    4c7e:	00 80 40    	add.w     w1, w0, w0
    4c80:	20 0f 98    	mov.w     w0, [w14+20]

00004c82 <.L45>:
    4c82:	ae 08 90    	mov.w     [w14+20], w1
    4c84:	f0 ff 21    	mov.w     #0x1fff, w0
    4c86:	80 8f 50    	sub.w     w1, w0, [w15]
    4c88:	02 00 34    	bra       LE, 0x4c8e <.L46>
    4c8a:	f0 ff 21    	mov.w     #0x1fff, w0
    4c8c:	20 0f 98    	mov.w     w0, [w14+20]

00004c8e <.L46>:
    4c8e:	2e 08 90    	mov.w     [w14+20], w0
    4c90:	42 00 dd    	sl.w      w0, #0x2, w0
    4c92:	20 0f 98    	mov.w     w0, [w14+20]
    4c94:	f1 ff 27    	mov.w     #0x7fff, w1
    4c96:	2e 08 90    	mov.w     [w14+20], w0
    4c98:	00 80 50    	sub.w     w1, w0, w0
    4c9a:	10 0f 98    	mov.w     w0, [w14+18]
    4c9c:	8e 08 90    	mov.w     [w14+16], w1
    4c9e:	00 fc 2f    	mov.w     #0xffc0, w0
    4ca0:	00 80 60    	and.w     w1, w0, w0
    4ca2:	00 0f 98    	mov.w     w0, [w14+16]
    4ca4:	9e 08 90    	mov.w     [w14+18], w1
    4ca6:	7e 00 90    	mov.w     [w14+14], w0
    4ca8:	00 88 b9    	mul.ss    w1, w0, w0
    4caa:	30 0f 98    	mov.w     w0, [w14+22]
    4cac:	41 0f 98    	mov.w     w1, [w14+24]
    4cae:	ae 08 90    	mov.w     [w14+20], w1
    4cb0:	0e 08 90    	mov.w     [w14+16], w0
    4cb2:	00 88 b9    	mul.ss    w1, w0, w0
    4cb4:	50 0f 98    	mov.w     w0, [w14+26]
    4cb6:	61 0f 98    	mov.w     w1, [w14+28]
    4cb8:	ee 08 90    	mov.w     [w14+28], w1
    4cba:	6e 00 90    	mov.w     [w14+12], w0
    4cbc:	00 88 b9    	mul.ss    w1, w0, w0
    4cbe:	50 0f 98    	mov.w     w0, [w14+26]
    4cc0:	61 0f 98    	mov.w     w1, [w14+28]
    4cc2:	ce 08 90    	mov.w     [w14+24], w1
    4cc4:	6e 08 90    	mov.w     [w14+28], w0
    4cc6:	00 80 40    	add.w     w1, w0, w0
    4cc8:	61 01 b9    	mul.su    w0, #0x1, w2
    4cca:	4e 00 90    	mov.w     [w14+8], w0
    4ccc:	de 00 90    	mov.w     [w14+10], w1
    4cce:	00 00 41    	add.w     w2, w0, w0
    4cd0:	81 80 49    	addc.w    w3, w1, w1
    4cd2:	40 07 98    	mov.w     w0, [w14+8]
    4cd4:	51 07 98    	mov.w     w1, [w14+10]
    4cd6:	04 01 37    	bra       0x4ee0 <.L7>

00004cd8 <.L14>:
    4cd8:	8e 08 90    	mov.w     [w14+16], w1
    4cda:	7e 00 90    	mov.w     [w14+14], w0
    4cdc:	00 88 b9    	mul.ss    w1, w0, w0
    4cde:	30 0f 98    	mov.w     w0, [w14+22]
    4ce0:	41 0f 98    	mov.w     w1, [w14+24]
    4ce2:	4e 08 90    	mov.w     [w14+24], w0
    4ce4:	61 01 b9    	mul.su    w0, #0x1, w2
    4ce6:	4e 00 90    	mov.w     [w14+8], w0
    4ce8:	de 00 90    	mov.w     [w14+10], w1
    4cea:	00 00 41    	add.w     w2, w0, w0
    4cec:	81 80 49    	addc.w    w3, w1, w1
    4cee:	40 07 98    	mov.w     w0, [w14+8]
    4cf0:	51 07 98    	mov.w     w1, [w14+10]
    4cf2:	f6 00 37    	bra       0x4ee0 <.L7>

00004cf4 <.L15>:
    4cf4:	8e 08 90    	mov.w     [w14+16], w1
    4cf6:	7e 00 90    	mov.w     [w14+14], w0
    4cf8:	00 88 b9    	mul.ss    w1, w0, w0
    4cfa:	30 0f 98    	mov.w     w0, [w14+22]
    4cfc:	41 0f 98    	mov.w     w1, [w14+24]
    4cfe:	ce 08 90    	mov.w     [w14+24], w1
    4d00:	6e 00 90    	mov.w     [w14+12], w0
    4d02:	00 88 b9    	mul.ss    w1, w0, w0
    4d04:	30 0f 98    	mov.w     w0, [w14+22]
    4d06:	41 0f 98    	mov.w     w1, [w14+24]
    4d08:	4e 08 90    	mov.w     [w14+24], w0
    4d0a:	61 01 b9    	mul.su    w0, #0x1, w2
    4d0c:	4e 00 90    	mov.w     [w14+8], w0
    4d0e:	de 00 90    	mov.w     [w14+10], w1
    4d10:	00 00 41    	add.w     w2, w0, w0
    4d12:	81 80 49    	addc.w    w3, w1, w1
    4d14:	40 07 98    	mov.w     w0, [w14+8]
    4d16:	51 07 98    	mov.w     w1, [w14+10]
    4d18:	e3 00 37    	bra       0x4ee0 <.L7>

00004d1a <.L16>:
    4d1a:	c0 4a 80    	mov.w     0x958, w0
    4d1c:	00 00 e0    	cp0.w     w0
    4d1e:	e0 00 3a    	bra       NZ, 0x4ee0 <.L7>
    4d20:	8e 08 90    	mov.w     [w14+16], w1
    4d22:	7e 00 90    	mov.w     [w14+14], w0
    4d24:	00 88 b9    	mul.ss    w1, w0, w0
    4d26:	30 0f 98    	mov.w     w0, [w14+22]
    4d28:	41 0f 98    	mov.w     w1, [w14+24]
    4d2a:	4e 08 90    	mov.w     [w14+24], w0
    4d2c:	61 01 b9    	mul.su    w0, #0x1, w2
    4d2e:	4e 00 90    	mov.w     [w14+8], w0
    4d30:	de 00 90    	mov.w     [w14+10], w1
    4d32:	00 00 41    	add.w     w2, w0, w0
    4d34:	81 80 49    	addc.w    w3, w1, w1
    4d36:	40 07 98    	mov.w     w0, [w14+8]
    4d38:	51 07 98    	mov.w     w1, [w14+10]
    4d3a:	d2 00 37    	bra       0x4ee0 <.L7>

00004d3c <.L17>:
    4d3c:	c0 4a 80    	mov.w     0x958, w0
    4d3e:	00 00 e0    	cp0.w     w0
    4d40:	cf 00 3a    	bra       NZ, 0x4ee0 <.L7>
    4d42:	8e 08 90    	mov.w     [w14+16], w1
    4d44:	7e 00 90    	mov.w     [w14+14], w0
    4d46:	00 88 b9    	mul.ss    w1, w0, w0
    4d48:	30 0f 98    	mov.w     w0, [w14+22]
    4d4a:	41 0f 98    	mov.w     w1, [w14+24]
    4d4c:	ce 08 90    	mov.w     [w14+24], w1
    4d4e:	6e 00 90    	mov.w     [w14+12], w0
    4d50:	00 88 b9    	mul.ss    w1, w0, w0
    4d52:	30 0f 98    	mov.w     w0, [w14+22]
    4d54:	41 0f 98    	mov.w     w1, [w14+24]
    4d56:	4e 08 90    	mov.w     [w14+24], w0
    4d58:	61 01 b9    	mul.su    w0, #0x1, w2
    4d5a:	4e 00 90    	mov.w     [w14+8], w0
    4d5c:	de 00 90    	mov.w     [w14+10], w1
    4d5e:	00 00 41    	add.w     w2, w0, w0
    4d60:	81 80 49    	addc.w    w3, w1, w1
    4d62:	40 07 98    	mov.w     w0, [w14+8]
    4d64:	51 07 98    	mov.w     w1, [w14+10]
    4d66:	bc 00 37    	bra       0x4ee0 <.L7>

00004d68 <.L18>:
    4d68:	c0 4a 80    	mov.w     0x958, w0
    4d6a:	00 00 e0    	cp0.w     w0
    4d6c:	b9 00 34    	bra       LE, 0x4ee0 <.L7>
    4d6e:	c1 4a 80    	mov.w     0x958, w1
    4d70:	e0 0f 20    	mov.w     #0xfe, w0
    4d72:	80 8f 50    	sub.w     w1, w0, [w15]
    4d74:	b5 00 3c    	bra       GT, 0x4ee0 <.L7>
    4d76:	8e 08 90    	mov.w     [w14+16], w1
    4d78:	7e 00 90    	mov.w     [w14+14], w0
    4d7a:	00 88 b9    	mul.ss    w1, w0, w0
    4d7c:	30 0f 98    	mov.w     w0, [w14+22]
    4d7e:	41 0f 98    	mov.w     w1, [w14+24]
    4d80:	4e 08 90    	mov.w     [w14+24], w0
    4d82:	61 01 b9    	mul.su    w0, #0x1, w2
    4d84:	4e 00 90    	mov.w     [w14+8], w0
    4d86:	de 00 90    	mov.w     [w14+10], w1
    4d88:	00 00 41    	add.w     w2, w0, w0
    4d8a:	81 80 49    	addc.w    w3, w1, w1
    4d8c:	40 07 98    	mov.w     w0, [w14+8]
    4d8e:	51 07 98    	mov.w     w1, [w14+10]
    4d90:	a7 00 37    	bra       0x4ee0 <.L7>

00004d92 <.L19>:
    4d92:	c0 4a 80    	mov.w     0x958, w0
    4d94:	00 00 e0    	cp0.w     w0
    4d96:	a4 00 34    	bra       LE, 0x4ee0 <.L7>
    4d98:	c1 4a 80    	mov.w     0x958, w1
    4d9a:	e0 0f 20    	mov.w     #0xfe, w0
    4d9c:	80 8f 50    	sub.w     w1, w0, [w15]
    4d9e:	a0 00 3c    	bra       GT, 0x4ee0 <.L7>
    4da0:	8e 08 90    	mov.w     [w14+16], w1
    4da2:	7e 00 90    	mov.w     [w14+14], w0
    4da4:	00 88 b9    	mul.ss    w1, w0, w0
    4da6:	30 0f 98    	mov.w     w0, [w14+22]
    4da8:	41 0f 98    	mov.w     w1, [w14+24]
    4daa:	ce 08 90    	mov.w     [w14+24], w1
    4dac:	6e 00 90    	mov.w     [w14+12], w0
    4dae:	00 88 b9    	mul.ss    w1, w0, w0
    4db0:	30 0f 98    	mov.w     w0, [w14+22]
    4db2:	41 0f 98    	mov.w     w1, [w14+24]
    4db4:	4e 08 90    	mov.w     [w14+24], w0
    4db6:	61 01 b9    	mul.su    w0, #0x1, w2
    4db8:	4e 00 90    	mov.w     [w14+8], w0
    4dba:	de 00 90    	mov.w     [w14+10], w1
    4dbc:	00 00 41    	add.w     w2, w0, w0
    4dbe:	81 80 49    	addc.w    w3, w1, w1
    4dc0:	40 07 98    	mov.w     w0, [w14+8]
    4dc2:	51 07 98    	mov.w     w1, [w14+10]
    4dc4:	8d 00 37    	bra       0x4ee0 <.L7>

00004dc6 <.L20>:
    4dc6:	c1 4a 80    	mov.w     0x958, w1
    4dc8:	f0 0f 20    	mov.w     #0xff, w0
    4dca:	80 8f 50    	sub.w     w1, w0, [w15]
    4dcc:	89 00 3a    	bra       NZ, 0x4ee0 <.L7>
    4dce:	8e 08 90    	mov.w     [w14+16], w1
    4dd0:	7e 00 90    	mov.w     [w14+14], w0
    4dd2:	00 88 b9    	mul.ss    w1, w0, w0
    4dd4:	30 0f 98    	mov.w     w0, [w14+22]
    4dd6:	41 0f 98    	mov.w     w1, [w14+24]
    4dd8:	4e 08 90    	mov.w     [w14+24], w0
    4dda:	61 01 b9    	mul.su    w0, #0x1, w2
    4ddc:	4e 00 90    	mov.w     [w14+8], w0
    4dde:	de 00 90    	mov.w     [w14+10], w1
    4de0:	00 00 41    	add.w     w2, w0, w0
    4de2:	81 80 49    	addc.w    w3, w1, w1
    4de4:	40 07 98    	mov.w     w0, [w14+8]
    4de6:	51 07 98    	mov.w     w1, [w14+10]
    4de8:	7b 00 37    	bra       0x4ee0 <.L7>

00004dea <.L21>:
    4dea:	c1 4a 80    	mov.w     0x958, w1
    4dec:	f0 0f 20    	mov.w     #0xff, w0
    4dee:	80 8f 50    	sub.w     w1, w0, [w15]
    4df0:	77 00 3a    	bra       NZ, 0x4ee0 <.L7>
    4df2:	8e 08 90    	mov.w     [w14+16], w1
    4df4:	7e 00 90    	mov.w     [w14+14], w0
    4df6:	00 88 b9    	mul.ss    w1, w0, w0
    4df8:	30 0f 98    	mov.w     w0, [w14+22]
    4dfa:	41 0f 98    	mov.w     w1, [w14+24]
    4dfc:	ce 08 90    	mov.w     [w14+24], w1
    4dfe:	6e 00 90    	mov.w     [w14+12], w0
    4e00:	00 88 b9    	mul.ss    w1, w0, w0
    4e02:	30 0f 98    	mov.w     w0, [w14+22]
    4e04:	41 0f 98    	mov.w     w1, [w14+24]
    4e06:	4e 08 90    	mov.w     [w14+24], w0
    4e08:	61 01 b9    	mul.su    w0, #0x1, w2
    4e0a:	4e 00 90    	mov.w     [w14+8], w0
    4e0c:	de 00 90    	mov.w     [w14+10], w1
    4e0e:	00 00 41    	add.w     w2, w0, w0
    4e10:	81 80 49    	addc.w    w3, w1, w1
    4e12:	40 07 98    	mov.w     w0, [w14+8]
    4e14:	51 07 98    	mov.w     w1, [w14+10]
    4e16:	64 00 37    	bra       0x4ee0 <.L7>

00004e18 <.L22>:
    4e18:	7e 00 90    	mov.w     [w14+14], w0
    4e1a:	00 00 e0    	cp0.w     w0
    4e1c:	61 00 34    	bra       LE, 0x4ee0 <.L7>
    4e1e:	0e 08 90    	mov.w     [w14+16], w0
    4e20:	61 02 b9    	mul.su    w0, #0x1, w4
    4e22:	84 00 78    	mov.w     w4, w1
    4e24:	4e 00 90    	mov.w     [w14+8], w0
    4e26:	00 0b b8    	mul.uu    w1, w0, w6
    4e28:	5e 00 90    	mov.w     [w14+10], w0
    4e2a:	00 a0 b9    	mul.ss    w4, w0, w0
    4e2c:	07 01 78    	mov.w     w7, w2
    4e2e:	00 01 41    	add.w     w2, w0, w2
    4e30:	4e 00 90    	mov.w     [w14+8], w0
    4e32:	05 80 b9    	mul.ss    w0, w5, w0
    4e34:	00 01 41    	add.w     w2, w0, w2
    4e36:	82 03 78    	mov.w     w2, w7
    4e38:	4e 00 90    	mov.w     [w14+8], w0
    4e3a:	de 00 90    	mov.w     [w14+10], w1
    4e3c:	06 00 50    	sub.w     w0, w6, w0
    4e3e:	87 80 58    	subb.w    w1, w7, w1
    4e40:	40 07 98    	mov.w     w0, [w14+8]
    4e42:	51 07 98    	mov.w     w1, [w14+10]
    4e44:	4d 00 37    	bra       0x4ee0 <.L7>

00004e46 <.L23>:
    4e46:	7e 00 90    	mov.w     [w14+14], w0
    4e48:	00 00 e0    	cp0.w     w0
    4e4a:	4a 00 3d    	bra       GE, 0x4ee0 <.L7>
    4e4c:	0e 08 90    	mov.w     [w14+16], w0
    4e4e:	61 02 b9    	mul.su    w0, #0x1, w4
    4e50:	84 00 78    	mov.w     w4, w1
    4e52:	4e 00 90    	mov.w     [w14+8], w0
    4e54:	00 0b b8    	mul.uu    w1, w0, w6
    4e56:	5e 00 90    	mov.w     [w14+10], w0
    4e58:	00 a0 b9    	mul.ss    w4, w0, w0
    4e5a:	07 01 78    	mov.w     w7, w2
    4e5c:	00 01 41    	add.w     w2, w0, w2
    4e5e:	4e 00 90    	mov.w     [w14+8], w0
    4e60:	05 80 b9    	mul.ss    w0, w5, w0
    4e62:	00 01 41    	add.w     w2, w0, w2
    4e64:	82 03 78    	mov.w     w2, w7
    4e66:	4e 00 90    	mov.w     [w14+8], w0
    4e68:	de 00 90    	mov.w     [w14+10], w1
    4e6a:	06 00 50    	sub.w     w0, w6, w0
    4e6c:	87 80 58    	subb.w    w1, w7, w1
    4e6e:	40 07 98    	mov.w     w0, [w14+8]
    4e70:	51 07 98    	mov.w     w1, [w14+10]
    4e72:	36 00 37    	bra       0x4ee0 <.L7>

00004e74 <.L24>:
    4e74:	0e 08 90    	mov.w     [w14+16], w0
    4e76:	cf 80 de    	asr.w     w0, #0xf, w1
    4e78:	40 07 98    	mov.w     w0, [w14+8]
    4e7a:	51 07 98    	mov.w     w1, [w14+10]
    4e7c:	31 00 37    	bra       0x4ee0 <.L7>

00004e7e <.L25>:
    4e7e:	4e 01 90    	mov.w     [w14+8], w2
    4e80:	de 01 90    	mov.w     [w14+10], w3
    4e82:	f0 ff 27    	mov.w     #0x7fff, w0
    4e84:	01 00 20    	mov.w     #0x0, w1
    4e86:	80 0f 51    	sub.w     w2, w0, [w15]
    4e88:	81 8f 59    	subb.w    w3, w1, [w15]
    4e8a:	04 00 34    	bra       LE, 0x4e94 <.L66>
    4e8c:	f0 ff 27    	mov.w     #0x7fff, w0
    4e8e:	01 00 20    	mov.w     #0x0, w1
    4e90:	40 07 98    	mov.w     w0, [w14+8]
    4e92:	51 07 98    	mov.w     w1, [w14+10]

00004e94 <.L66>:
    4e94:	4e 01 90    	mov.w     [w14+8], w2
    4e96:	de 01 90    	mov.w     [w14+10], w3
    4e98:	10 00 28    	mov.w     #0x8001, w0
    4e9a:	f1 ff 2f    	mov.w     #0xffff, w1
    4e9c:	80 0f 51    	sub.w     w2, w0, [w15]
    4e9e:	81 8f 59    	subb.w    w3, w1, [w15]
    4ea0:	04 00 3d    	bra       GE, 0x4eaa <.L68>
    4ea2:	10 00 28    	mov.w     #0x8001, w0
    4ea4:	f1 ff 2f    	mov.w     #0xffff, w1
    4ea6:	40 07 98    	mov.w     w0, [w14+8]
    4ea8:	51 07 98    	mov.w     w1, [w14+10]

00004eaa <.L68>:
    4eaa:	0e 08 90    	mov.w     [w14+16], w0
    4eac:	61 03 b9    	mul.su    w0, #0x1, w6
    4eae:	86 00 78    	mov.w     w6, w1
    4eb0:	4e 00 90    	mov.w     [w14+8], w0
    4eb2:	00 0a b8    	mul.uu    w1, w0, w4
    4eb4:	5e 00 90    	mov.w     [w14+10], w0
    4eb6:	00 b0 b9    	mul.ss    w6, w0, w0
    4eb8:	05 01 78    	mov.w     w5, w2
    4eba:	00 01 41    	add.w     w2, w0, w2
    4ebc:	4e 00 90    	mov.w     [w14+8], w0
    4ebe:	07 80 b9    	mul.ss    w0, w7, w0
    4ec0:	00 01 41    	add.w     w2, w0, w2
    4ec2:	82 02 78    	mov.w     w2, w5
    4ec4:	43 28 dd    	sl.w      w5, #0x3, w0
    4ec6:	4d 21 de    	lsr.w     w4, #0xd, w2
    4ec8:	02 01 70    	ior.w     w0, w2, w2
    4eca:	cd a9 de    	asr.w     w5, #0xd, w3
    4ecc:	7e 08 90    	mov.w     [w14+30], w0
    4ece:	10 00 78    	mov.w     [w0], w0
    4ed0:	cf 80 de    	asr.w     w0, #0xf, w1
    4ed2:	02 00 40    	add.w     w0, w2, w0
    4ed4:	83 80 48    	addc.w    w1, w3, w1
    4ed6:	20 07 98    	mov.w     w0, [w14+4]
    4ed8:	31 07 98    	mov.w     w1, [w14+6]
    4eda:	ae 00 90    	mov.w     [w14+4], w1
    4edc:	0e 10 90    	mov.w     [w14+32], w0
    4ede:	01 08 78    	mov.w     w1, [w0]

00004ee0 <.L7>:
    4ee0:	1e 00 90    	mov.w     [w14+2], w0
    4ee2:	00 00 e8    	inc.w     w0, w0
    4ee4:	10 07 98    	mov.w     w0, [w14+2]
    4ee6:	7e 08 90    	mov.w     [w14+30], w0
    4ee8:	64 00 40    	add.w     w0, #0x4, w0
    4eea:	70 0f 98    	mov.w     w0, [w14+30]

00004eec <.L2>:
    4eec:	1e 00 90    	mov.w     [w14+2], w0
    4eee:	e7 0f 50    	sub.w     w0, #0x7, [w15]
    4ef0:	ce fd 36    	bra       LEU, 0x4a8e <.L3>
    4ef2:	4e 00 90    	mov.w     [w14+8], w0
    4ef4:	00 80 fa    	ulnk      
    4ef6:	00 00 06    	return    

00004ef8 <_servoMix>:
    4ef8:	08 00 fa    	lnk       #0x8
    4efa:	d0 75 80    	mov.w     0xeba, w0
    4efc:	01 08 20    	mov.w     #0x80, w1
    4efe:	01 00 60    	and.w     w0, w1, w0
    4f00:	00 00 e0    	cp0.w     w0
    4f02:	17 00 3a    	bra       NZ, 0x4f32 <.L73>
    4f04:	10 00 20    	mov.w     #0x1, w0
    4f06:	20 07 98    	mov.w     w0, [w14+4]
    4f08:	10 00 37    	bra       0x4f2a <.L75>

00004f0a <.L76>:
    4f0a:	2e 00 90    	mov.w     [w14+4], w0
    4f0c:	ec 0f 50    	sub.w     w0, #0xc, [w15]
    4f0e:	0a 00 32    	bra       Z, 0x4f24 <.L77>
    4f10:	2e 01 90    	mov.w     [w14+4], w2
    4f12:	2e 00 90    	mov.w     [w14+4], w0
    4f14:	80 00 40    	add.w     w0, w0, w1
    4f16:	a0 9d 20    	mov.w     #0x9da, w0
    4f18:	00 80 40    	add.w     w1, w0, w0
    4f1a:	90 01 78    	mov.w     [w0], w3
    4f1c:	82 00 41    	add.w     w2, w2, w1
    4f1e:	80 95 20    	mov.w     #0x958, w0
    4f20:	00 80 40    	add.w     w1, w0, w0
    4f22:	03 08 78    	mov.w     w3, [w0]

00004f24 <.L77>:
    4f24:	2e 00 90    	mov.w     [w14+4], w0
    4f26:	00 00 e8    	inc.w     w0, w0
    4f28:	20 07 98    	mov.w     w0, [w14+4]

00004f2a <.L75>:
    4f2a:	ae 00 90    	mov.w     [w14+4], w1
    4f2c:	00 04 20    	mov.w     #0x40, w0
    4f2e:	80 8f 50    	sub.w     w1, w0, [w15]
    4f30:	ec ff 36    	bra       LEU, 0x4f0a <.L76>

00004f32 <.L73>:
    4f32:	f1 72 80    	mov.w     0xe5e, w1
    4f34:	b0 75 80    	mov.w     0xeb6, w0
    4f36:	00 80 40    	add.w     w1, w0, w0
    4f38:	d0 4a 88    	mov.w     w0, 0x95a
    4f3a:	e0 72 80    	mov.w     0xe5c, w0
    4f3c:	e0 4a 88    	mov.w     w0, 0x95c
    4f3e:	01 73 80    	mov.w     0xe60, w1
    4f40:	b0 75 80    	mov.w     0xeb6, w0
    4f42:	00 80 50    	sub.w     w1, w0, w0
    4f44:	f0 4a 88    	mov.w     w0, 0x95e
    4f46:	10 73 80    	mov.w     0xe62, w0
    4f48:	00 4b 88    	mov.w     w0, 0x960
    4f4a:	d1 75 80    	mov.w     0xeba, w1
    4f4c:	00 08 20    	mov.w     #0x80, w0
    4f4e:	00 80 60    	and.w     w1, w0, w0
    4f50:	00 00 e0    	cp0.w     w0
    4f52:	08 00 32    	bra       Z, 0x4f64 <.L79>
    4f54:	80 72 80    	mov.w     0xe50, w0
    4f56:	01 10 20    	mov.w     #0x100, w1
    4f58:	01 00 60    	and.w     w0, w1, w0
    4f5a:	00 00 e0    	cp0.w     w0
    4f5c:	03 00 32    	bra       Z, 0x4f64 <.L79>
    4f5e:	f0 07 20    	mov.w     #0x7f, w0
    4f60:	c0 4a 88    	mov.w     w0, 0x958
    4f62:	0f 00 37    	bra       0x4f82 <.L82>

00004f64 <.L79>:
    4f64:	80 72 80    	mov.w     0xe50, w0
    4f66:	01 00 22    	mov.w     #0x2000, w1
    4f68:	01 00 60    	and.w     w0, w1, w0
    4f6a:	00 00 e0    	cp0.w     w0
    4f6c:	05 00 3a    	bra       NZ, 0x4f78 <.L83>
    4f6e:	80 72 80    	mov.w     0xe50, w0
    4f70:	01 00 21    	mov.w     #0x1000, w1
    4f72:	01 00 60    	and.w     w0, w1, w0
    4f74:	00 00 e0    	cp0.w     w0
    4f76:	03 00 32    	bra       Z, 0x4f7e <.L85>

00004f78 <.L83>:
    4f78:	f0 0f 20    	mov.w     #0xff, w0
    4f7a:	c0 4a 88    	mov.w     w0, 0x958
    4f7c:	02 00 37    	bra       0x4f82 <.L82>

00004f7e <.L85>:
    4f7e:	00 00 eb    	clr.w     w0
    4f80:	c0 4a 88    	mov.w     w0, 0x958

00004f82 <.L82>:
    4f82:	10 00 20    	mov.w     #0x1, w0
    4f84:	20 07 98    	mov.w     w0, [w14+4]
    4f86:	48 00 37    	bra       0x5018 <.L86>

00004f88 <.L87>:
    4f88:	2e 00 90    	mov.w     [w14+4], w0
    4f8a:	45 00 dd    	sl.w      w0, #0x5, w0
    4f8c:	00 01 78    	mov.w     w0, w2
    4f8e:	01 10 22    	mov.w     #0x2100, w1
    4f90:	00 fe 2f    	mov.w     #0xffe0, w0
    4f92:	00 80 40    	add.w     w1, w0, w0
    4f94:	00 00 41    	add.w     w2, w0, w0
    4f96:	e6 00 47    	add.w     w14, #0x6, w1
    4f98:	6d fd 07    	rcall     0x4a74 <_bankMix>
    4f9a:	10 07 98    	mov.w     w0, [w14+2]
    4f9c:	ae 00 90    	mov.w     [w14+4], w1
    4f9e:	3e 00 90    	mov.w     [w14+6], w0
    4fa0:	00 01 78    	mov.w     w0, w2
    4fa2:	81 80 40    	add.w     w1, w1, w1
    4fa4:	20 ba 20    	mov.w     #0xba2, w0
    4fa6:	00 80 40    	add.w     w1, w0, w0
    4fa8:	02 08 78    	mov.w     w2, [w0]
    4faa:	2e 00 90    	mov.w     [w14+4], w0
    4fac:	68 0f 40    	add.w     w0, #0x8, [w14]
    4fae:	9e 00 78    	mov.w     [w14], w1
    4fb0:	1e 01 90    	mov.w     [w14+2], w2
    4fb2:	00 03 20    	mov.w     #0x30, w0
    4fb4:	00 88 b9    	mul.ss    w1, w0, w0
    4fb6:	80 00 78    	mov.w     w0, w1
    4fb8:	00 70 22    	mov.w     #0x2700, w0
    4fba:	00 80 40    	add.w     w1, w0, w0
    4fbc:	02 08 78    	mov.w     w2, [w0]
    4fbe:	9e 00 78    	mov.w     [w14], w1
    4fc0:	00 03 20    	mov.w     #0x30, w0
    4fc2:	00 88 b9    	mul.ss    w1, w0, w0
    4fc4:	e4 00 40    	add.w     w0, #0x4, w1
    4fc6:	00 70 22    	mov.w     #0x2700, w0
    4fc8:	00 80 40    	add.w     w1, w0, w0
    4fca:	10 00 78    	mov.w     [w0], w0
    4fcc:	44 00 de    	lsr.w     w0, #0x4, w0
    4fce:	7f 40 60    	and.b     w0, #0x1f, w0
    4fd0:	00 80 fb    	ze        w0, w0
    4fd2:	e9 0f 50    	sub.w     w0, #0x9, [w15]
    4fd4:	1e 00 3c    	bra       GT, 0x5012 <.L88>
    4fd6:	9e 02 78    	mov.w     [w14], w5
    4fd8:	1e 03 78    	mov.w     [w14], w6
    4fda:	00 03 20    	mov.w     #0x30, w0
    4fdc:	00 b0 b9    	mul.ss    w6, w0, w0
    4fde:	e4 00 40    	add.w     w0, #0x4, w1
    4fe0:	00 70 22    	mov.w     #0x2700, w0
    4fe2:	00 80 40    	add.w     w1, w0, w0
    4fe4:	10 00 78    	mov.w     [w0], w0
    4fe6:	ef 41 60    	and.b     w0, #0xf, w3
    4fe8:	03 81 fb    	ze        w3, w2
    4fea:	1e 02 90    	mov.w     [w14+2], w4
    4fec:	78 28 b9    	mul.su    w5, #0x18, w0
    4fee:	02 00 40    	add.w     w0, w2, w0
    4ff0:	00 00 40    	add.w     w0, w0, w0
    4ff2:	f0 00 40    	add.w     w0, #0x10, w1
    4ff4:	00 70 22    	mov.w     #0x2700, w0
    4ff6:	00 80 40    	add.w     w1, w0, w0
    4ff8:	04 08 78    	mov.w     w4, [w0]
    4ffa:	03 41 e8    	inc.b     w3, w2
    4ffc:	6f 41 61    	and.b     w2, #0xf, w2
    4ffe:	00 03 20    	mov.w     #0x30, w0
    5000:	00 b0 b9    	mul.ss    w6, w0, w0
    5002:	e4 00 40    	add.w     w0, #0x4, w1
    5004:	00 70 22    	mov.w     #0x2700, w0
    5006:	00 80 40    	add.w     w1, w0, w0
    5008:	82 80 fb    	ze        w2, w1
    500a:	6f 81 60    	and.w     w1, #0xf, w2
    500c:	01 ff 2f    	mov.w     #0xfff0, w1
    500e:	10 88 60    	and.w     w1, [w0], [w0]
    5010:	10 08 71    	ior.w     w2, [w0], [w0]

00005012 <.L88>:
    5012:	2e 00 90    	mov.w     [w14+4], w0
    5014:	00 00 e8    	inc.w     w0, w0
    5016:	20 07 98    	mov.w     w0, [w14+4]

00005018 <.L86>:
    5018:	2e 00 90    	mov.w     [w14+4], w0
    501a:	e7 0f 50    	sub.w     w0, #0x7, [w15]
    501c:	b5 ff 36    	bra       LEU, 0x4f88 <.L87>
    501e:	00 80 fa    	ulnk      
    5020:	00 00 06    	return    

00005022 <_cameraServoMix>:
    5022:	16 00 fa    	lnk       #0x16
    5024:	60 00 b8    	mul.uu    w0, #0x0, w0
    5026:	00 8f be    	mov.d     w0, [w14]
    5028:	1e 00 37    	bra       0x5066 <.L93>

0000502a <.L94>:
    502a:	d0 75 80    	mov.w     0xeba, w0
    502c:	01 08 20    	mov.w     #0x80, w1
    502e:	01 00 60    	and.w     w0, w1, w0
    5030:	00 00 e0    	cp0.w     w0
    5032:	0b 00 32    	bra       Z, 0x504a <.L95>
    5034:	1e 01 be    	mov.d     [w14], w2
    5036:	1e 00 be    	mov.d     [w14], w0
    5038:	80 00 40    	add.w     w0, w0, w1
    503a:	80 95 20    	mov.w     #0x958, w0
    503c:	00 80 40    	add.w     w1, w0, w0
    503e:	10 02 78    	mov.w     [w0], w4
    5040:	e4 00 47    	add.w     w14, #0x4, w1
    5042:	02 00 78    	mov.w     w2, w0
    5044:	00 00 40    	add.w     w0, w0, w0
    5046:	04 b0 78    	mov.w     w4, [w0+w1]
    5048:	0a 00 37    	bra       0x505e <.L97>

0000504a <.L95>:
    504a:	1e 01 be    	mov.d     [w14], w2
    504c:	1e 00 be    	mov.d     [w14], w0
    504e:	80 00 40    	add.w     w0, w0, w1
    5050:	a0 9d 20    	mov.w     #0x9da, w0
    5052:	00 80 40    	add.w     w1, w0, w0
    5054:	10 02 78    	mov.w     [w0], w4
    5056:	e4 00 47    	add.w     w14, #0x4, w1
    5058:	02 00 78    	mov.w     w2, w0
    505a:	00 00 40    	add.w     w0, w0, w0
    505c:	04 b0 78    	mov.w     w4, [w0+w1]

0000505e <.L97>:
    505e:	10 00 20    	mov.w     #0x1, w0
    5060:	01 00 20    	mov.w     #0x0, w1
    5062:	1e 0f 40    	add.w     w0, [w14], [w14]
    5064:	5e 97 48    	addc.w    w1, [++w14], [w14--]

00005066 <.L93>:
    5066:	80 00 20    	mov.w     #0x8, w0
    5068:	01 00 20    	mov.w     #0x0, w1
    506a:	be 0f 10    	subr.w    w0, [w14++], [w15]
    506c:	ae 8f 18    	subbr.w   w1, [w14--], [w15]
    506e:	dd ff 34    	bra       LE, 0x502a <.L94>
    5070:	64 00 47    	add.w     w14, #0x4, w0
    5072:	90 00 78    	mov.w     [w0], w1
    5074:	10 71 80    	mov.w     0xe22, w0
    5076:	80 80 40    	add.w     w1, w0, w1
    5078:	80 44 2f    	mov.w     #0xf448, w0
    507a:	00 80 40    	add.w     w1, w0, w0
    507c:	cf 80 de    	asr.w     w0, #0xf, w1
    507e:	00 8f be    	mov.d     w0, [w14]
    5080:	1e 00 be    	mov.d     [w14], w0
    5082:	6b 1f 07    	rcall     0x8f5a <_cam_pitchServoLimit>
    5084:	00 8f be    	mov.d     w0, [w14]
    5086:	80 bb 20    	mov.w     #0xbb8, w0
    5088:	01 00 20    	mov.w     #0x0, w1
    508a:	3e 01 40    	add.w     w0, [w14++], w2
    508c:	ae 81 48    	addc.w    w1, [w14--], w3
    508e:	02 00 be    	mov.d     w2, w0
    5090:	15 16 07    	rcall     0x7cbc <_udb_servo_pulsesat>
    5092:	10 5d 88    	mov.w     w0, 0xba2
    5094:	64 00 47    	add.w     w14, #0x4, w0
    5096:	90 00 78    	mov.w     [w0], w1
    5098:	20 71 80    	mov.w     0xe24, w0
    509a:	80 80 40    	add.w     w1, w0, w1
    509c:	80 44 2f    	mov.w     #0xf448, w0
    509e:	00 80 40    	add.w     w1, w0, w0
    50a0:	cf 80 de    	asr.w     w0, #0xf, w1
    50a2:	00 8f be    	mov.d     w0, [w14]
    50a4:	1e 00 be    	mov.d     [w14], w0
    50a6:	6e 1f 07    	rcall     0x8f84 <_cam_yawServoLimit>
    50a8:	00 8f be    	mov.d     w0, [w14]
    50aa:	80 bb 20    	mov.w     #0xbb8, w0
    50ac:	01 00 20    	mov.w     #0x0, w1
    50ae:	3e 01 40    	add.w     w0, [w14++], w2
    50b0:	ae 81 48    	addc.w    w1, [w14--], w3
    50b2:	02 00 be    	mov.d     w2, w0
    50b4:	03 16 07    	rcall     0x7cbc <_udb_servo_pulsesat>
    50b6:	10 5d 88    	mov.w     w0, 0xba2
    50b8:	00 80 fa    	ulnk      
    50ba:	00 00 06    	return    

000050bc <_magSetupRead>:
    50bc:	00 00 fa    	lnk       #0x0
    50be:	fc 0a a8    	bset.b    0xafc, #0x0
    50c0:	fc 8a a8    	bset.b    0xafc, #0x4
    50c2:	fc 4a a9    	bclr.b    0xafc, #0x2
    50c4:	e0 ad 20    	mov.w     #0xade, w0
    50c6:	e1 87 20    	mov.w     #0x87e, w1
    50c8:	0e 00 09    	repeat    #0xe
    50ca:	31 18 78    	mov.w     [w1++], [w0++]
    50cc:	30 00 20    	mov.w     #0x3, w0
    50ce:	a0 4a 88    	mov.w     w0, 0x954
    50d0:	00 00 eb    	clr.w     w0
    50d2:	10 57 88    	mov.w     w0, 0xae2
    50d4:	00 00 eb    	clr.w     w0
    50d6:	60 57 88    	mov.w     w0, 0xaec
    50d8:	00 00 eb    	clr.w     w0
    50da:	50 57 88    	mov.w     w0, 0xaea
    50dc:	00 00 eb    	clr.w     w0
    50de:	c0 57 88    	mov.w     w0, 0xaf8
    50e0:	c0 57 80    	mov.w     0xaf8, w0
    50e2:	b0 57 88    	mov.w     w0, 0xaf6
    50e4:	b0 57 80    	mov.w     0xaf6, w0
    50e6:	a0 57 88    	mov.w     w0, 0xaf4
    50e8:	50 03 20    	mov.w     #0x35, w0
    50ea:	00 57 88    	mov.w     w0, 0xae0
    50ec:	00 80 fa    	ulnk      
    50ee:	00 00 06    	return    

000050f0 <_rxMagnetometer>:
    50f0:	02 00 fa    	lnk       #0x2
    50f2:	00 80 fa    	ulnk      
    50f4:	00 00 06    	return    

000050f6 <_doneReadMagData>:
    50f6:	10 00 fa    	lnk       #0x10
    50f8:	be cd bf    	mov.b     0xdbe, WREG
    50fa:	00 80 fb    	ze        w0, w0
    50fc:	c8 00 dd    	sl.w      w0, #0x8, w1
    50fe:	bf cd bf    	mov.b     0xdbf, WREG
    5100:	00 80 fb    	ze        w0, w0
    5102:	80 80 40    	add.w     w1, w0, w1
    5104:	0e 80 e8    	inc2.w    w14, w0
    5106:	01 08 78    	mov.w     w1, [w0]
    5108:	c0 cd bf    	mov.b     0xdc0, WREG
    510a:	00 80 fb    	ze        w0, w0
    510c:	c8 00 dd    	sl.w      w0, #0x8, w1
    510e:	c1 cd bf    	mov.b     0xdc1, WREG
    5110:	00 80 fb    	ze        w0, w0
    5112:	80 80 40    	add.w     w1, w0, w1
    5114:	0e 80 e8    	inc2.w    w14, w0
    5116:	11 00 98    	mov.w     w1, [w0+2]
    5118:	c2 cd bf    	mov.b     0xdc2, WREG
    511a:	00 80 fb    	ze        w0, w0
    511c:	c8 00 dd    	sl.w      w0, #0x8, w1
    511e:	c3 cd bf    	mov.b     0xdc3, WREG
    5120:	00 80 fb    	ze        w0, w0
    5122:	80 80 40    	add.w     w1, w0, w1
    5124:	0e 80 e8    	inc2.w    w14, w0
    5126:	21 00 98    	mov.w     w1, [w0+4]
    5128:	70 44 80    	mov.w     0x88e, w0
    512a:	70 07 98    	mov.w     w0, [w14+14]
    512c:	fe 00 90    	mov.w     [w14+14], w1
    512e:	e8 8f 50    	sub.w     w1, #0x8, [w15]
    5130:	ce 00 32    	bra       Z, 0x52ce <.L7>
    5132:	7e 01 90    	mov.w     [w14+14], w2
    5134:	e8 0f 51    	sub.w     w2, #0x8, [w15]
    5136:	06 01 35    	bra       LT, 0x5344 <.L34>
    5138:	fe 00 90    	mov.w     [w14+14], w1
    513a:	6b 80 50    	sub.w     w1, #0xb, w0
    513c:	e2 0f 50    	sub.w     w0, #0x2, [w15]
    513e:	02 01 3e    	bra       GTU, 0x5344 <.L34>
    5140:	b0 00 20    	mov.w     #0xb, w0
    5142:	70 44 88    	mov.w     w0, 0x88e
    5144:	0e 80 e8    	inc2.w    w14, w0
    5146:	90 00 78    	mov.w     [w0], w1
    5148:	00 6d 80    	mov.w     0xda0, w0
    514a:	80 8f 50    	sub.w     w1, w0, [w15]
    514c:	1c 00 3a    	bra       NZ, 0x5186 <.L9>
    514e:	0e 80 e8    	inc2.w    w14, w0
    5150:	90 00 90    	mov.w     [w0+2], w1
    5152:	10 6d 80    	mov.w     0xda2, w0
    5154:	80 8f 50    	sub.w     w1, w0, [w15]
    5156:	17 00 3a    	bra       NZ, 0x5186 <.L9>
    5158:	0e 80 e8    	inc2.w    w14, w0
    515a:	a0 00 90    	mov.w     [w0+4], w1
    515c:	20 6d 80    	mov.w     0xda4, w0
    515e:	80 8f 50    	sub.w     w1, w0, [w15]
    5160:	12 00 3a    	bra       NZ, 0x5186 <.L9>
    5162:	62 6d 80    	mov.w     0xdac, w2
    5164:	62 07 98    	mov.w     w2, [w14+12]
    5166:	00 40 eb    	clr.b     w0
    5168:	20 4f 98    	mov.b     w0, [w14+10]
    516a:	ee 00 90    	mov.w     [w14+12], w1
    516c:	e4 8f 50    	sub.w     w1, #0x4, [w15]
    516e:	02 00 34    	bra       LE, 0x5174 <.L13>
    5170:	12 c0 b3    	mov.b     #0x1, w2
    5172:	22 4f 98    	mov.b     w2, [w14+10]

00005174 <.L13>:
    5174:	ee 00 90    	mov.w     [w14+12], w1
    5176:	01 00 e8    	inc.w     w1, w0
    5178:	60 6d 88    	mov.w     w0, 0xdac
    517a:	2e 49 90    	mov.b     [w14+10], w2
    517c:	02 04 e0    	cp0.b     w2
    517e:	05 00 32    	bra       Z, 0x518a <.L16>
    5180:	10 00 20    	mov.w     #0x1, w0
    5182:	70 44 88    	mov.w     w0, 0x88e
    5184:	02 00 37    	bra       0x518a <.L16>

00005186 <.L9>:
    5186:	00 00 eb    	clr.w     w0
    5188:	60 6d 88    	mov.w     w0, 0xdac

0000518a <.L16>:
    518a:	fc 8a a9    	bclr.b    0xafc, #0x4
    518c:	31 6d 80    	mov.w     0xda6, w1
    518e:	30 6d 80    	mov.w     0xda6, w0
    5190:	82 00 20    	mov.w     #0x8, w2
    5192:	81 1f 78    	mov.w     w1, [w15++]
    5194:	11 00 09    	repeat    #0x11
    5196:	02 00 d8    	div.sw    w0, w2
    5198:	01 01 78    	mov.w     w1, w2
    519a:	cf 00 78    	mov.w     [--w15], w1
    519c:	80 80 50    	sub.w     w1, w0, w1
    519e:	0e 80 e8    	inc2.w    w14, w0
    51a0:	10 00 78    	mov.w     [w0], w0
    51a2:	82 00 20    	mov.w     #0x8, w2
    51a4:	81 1f 78    	mov.w     w1, [w15++]
    51a6:	11 00 09    	repeat    #0x11
    51a8:	02 00 d8    	div.sw    w0, w2
    51aa:	01 01 78    	mov.w     w1, w2
    51ac:	cf 00 78    	mov.w     [--w15], w1
    51ae:	00 80 40    	add.w     w1, w0, w0
    51b0:	30 6d 88    	mov.w     w0, 0xda6
    51b2:	41 6d 80    	mov.w     0xda8, w1
    51b4:	40 6d 80    	mov.w     0xda8, w0
    51b6:	82 00 20    	mov.w     #0x8, w2
    51b8:	81 1f 78    	mov.w     w1, [w15++]
    51ba:	11 00 09    	repeat    #0x11
    51bc:	02 00 d8    	div.sw    w0, w2
    51be:	01 01 78    	mov.w     w1, w2
    51c0:	cf 00 78    	mov.w     [--w15], w1
    51c2:	80 80 50    	sub.w     w1, w0, w1
    51c4:	0e 80 e8    	inc2.w    w14, w0
    51c6:	10 00 90    	mov.w     [w0+2], w0
    51c8:	82 00 20    	mov.w     #0x8, w2
    51ca:	81 1f 78    	mov.w     w1, [w15++]
    51cc:	11 00 09    	repeat    #0x11
    51ce:	02 00 d8    	div.sw    w0, w2
    51d0:	01 01 78    	mov.w     w1, w2
    51d2:	cf 00 78    	mov.w     [--w15], w1
    51d4:	00 80 40    	add.w     w1, w0, w0
    51d6:	40 6d 88    	mov.w     w0, 0xda8
    51d8:	51 6d 80    	mov.w     0xdaa, w1
    51da:	50 6d 80    	mov.w     0xdaa, w0
    51dc:	82 00 20    	mov.w     #0x8, w2
    51de:	81 1f 78    	mov.w     w1, [w15++]
    51e0:	11 00 09    	repeat    #0x11
    51e2:	02 00 d8    	div.sw    w0, w2
    51e4:	01 01 78    	mov.w     w1, w2
    51e6:	cf 00 78    	mov.w     [--w15], w1
    51e8:	80 80 50    	sub.w     w1, w0, w1
    51ea:	0e 80 e8    	inc2.w    w14, w0
    51ec:	20 00 90    	mov.w     [w0+4], w0
    51ee:	82 00 20    	mov.w     #0x8, w2
    51f0:	81 1f 78    	mov.w     w1, [w15++]
    51f2:	11 00 09    	repeat    #0x11
    51f4:	02 00 d8    	div.sw    w0, w2
    51f6:	01 01 78    	mov.w     w1, w2
    51f8:	cf 00 78    	mov.w     [--w15], w1
    51fa:	00 80 40    	add.w     w1, w0, w0
    51fc:	50 6d 88    	mov.w     w0, 0xdaa
    51fe:	0e 80 e8    	inc2.w    w14, w0
    5200:	10 00 78    	mov.w     [w0], w0
    5202:	00 6d 88    	mov.w     w0, 0xda0
    5204:	0e 80 e8    	inc2.w    w14, w0
    5206:	10 00 90    	mov.w     [w0+2], w0
    5208:	10 6d 88    	mov.w     w0, 0xda2
    520a:	0e 80 e8    	inc2.w    w14, w0
    520c:	20 00 90    	mov.w     [w0+4], w0
    520e:	20 6d 88    	mov.w     w0, 0xda4
    5210:	80 6c 80    	mov.w     0xd90, w0
    5212:	80 00 78    	mov.w     w0, w1
    5214:	0e 80 e8    	inc2.w    w14, w0
    5216:	10 00 78    	mov.w     [w0], w0
    5218:	01 00 b9    	mul.su    w0, w1, w0
    521a:	42 09 dd    	sl.w      w1, #0x2, w2
    521c:	4e 00 de    	lsr.w     w0, #0xe, w0
    521e:	00 00 71    	ior.w     w2, w0, w0
    5220:	ce 88 de    	asr.w     w1, #0xe, w1
    5222:	80 00 78    	mov.w     w0, w1
    5224:	50 6c 80    	mov.w     0xd8a, w0
    5226:	00 80 d1    	asr.w     w0, w0
    5228:	00 80 50    	sub.w     w1, w0, w0
    522a:	c0 6d 88    	mov.w     w0, 0xdb8
    522c:	90 6c 80    	mov.w     0xd92, w0
    522e:	80 00 78    	mov.w     w0, w1
    5230:	0e 80 e8    	inc2.w    w14, w0
    5232:	10 00 90    	mov.w     [w0+2], w0
    5234:	01 00 b9    	mul.su    w0, w1, w0
    5236:	42 09 dd    	sl.w      w1, #0x2, w2
    5238:	4e 00 de    	lsr.w     w0, #0xe, w0
    523a:	00 00 71    	ior.w     w2, w0, w0
    523c:	ce 88 de    	asr.w     w1, #0xe, w1
    523e:	80 00 78    	mov.w     w0, w1
    5240:	60 6c 80    	mov.w     0xd8c, w0
    5242:	00 80 d1    	asr.w     w0, w0
    5244:	00 80 50    	sub.w     w1, w0, w0
    5246:	d0 6d 88    	mov.w     w0, 0xdba
    5248:	a0 6c 80    	mov.w     0xd94, w0
    524a:	80 00 78    	mov.w     w0, w1
    524c:	0e 80 e8    	inc2.w    w14, w0
    524e:	20 00 90    	mov.w     [w0+4], w0
    5250:	01 00 b9    	mul.su    w0, w1, w0
    5252:	42 09 dd    	sl.w      w1, #0x2, w2
    5254:	4e 00 de    	lsr.w     w0, #0xe, w0
    5256:	00 00 71    	ior.w     w2, w0, w0
    5258:	ce 88 de    	asr.w     w1, #0xe, w1
    525a:	80 00 ea    	neg.w     w0, w1
    525c:	70 6c 80    	mov.w     0xd8e, w0
    525e:	00 80 d1    	asr.w     w0, w0
    5260:	00 80 50    	sub.w     w1, w0, w0
    5262:	e0 6d 88    	mov.w     w0, 0xdbc
    5264:	c0 6d 80    	mov.w     0xdb8, w0
    5266:	f0 69 89    	mov.w     w0, 0x2d3e
    5268:	f0 69 81    	mov.w     0x2d3e, w0
    526a:	e0 68 89    	mov.w     w0, 0x2d1c
    526c:	d0 6d 80    	mov.w     0xdba, w0
    526e:	00 6a 89    	mov.w     w0, 0x2d40
    5270:	00 6a 81    	mov.w     0x2d40, w0
    5272:	f0 68 89    	mov.w     w0, 0x2d1e
    5274:	e0 6d 80    	mov.w     0xdbc, w0
    5276:	10 6a 89    	mov.w     w0, 0x2d42
    5278:	10 6a 81    	mov.w     0x2d42, w0
    527a:	00 69 89    	mov.w     w0, 0x2d20
    527c:	01 6d 80    	mov.w     0xda0, w1
    527e:	90 c1 2f    	mov.w     #0xfc19, w0
    5280:	80 8f 50    	sub.w     w1, w0, [w15]
    5282:	21 00 35    	bra       LT, 0x52c6 <.L17>
    5284:	01 6d 80    	mov.w     0xda0, w1
    5286:	70 3e 20    	mov.w     #0x3e7, w0
    5288:	80 8f 50    	sub.w     w1, w0, [w15]
    528a:	1d 00 3c    	bra       GT, 0x52c6 <.L17>
    528c:	11 6d 80    	mov.w     0xda2, w1
    528e:	90 c1 2f    	mov.w     #0xfc19, w0
    5290:	80 8f 50    	sub.w     w1, w0, [w15]
    5292:	19 00 35    	bra       LT, 0x52c6 <.L17>
    5294:	11 6d 80    	mov.w     0xda2, w1
    5296:	70 3e 20    	mov.w     #0x3e7, w0
    5298:	80 8f 50    	sub.w     w1, w0, [w15]
    529a:	15 00 3c    	bra       GT, 0x52c6 <.L17>
    529c:	21 6d 80    	mov.w     0xda4, w1
    529e:	90 c1 2f    	mov.w     #0xfc19, w0
    52a0:	80 8f 50    	sub.w     w1, w0, [w15]
    52a2:	11 00 35    	bra       LT, 0x52c6 <.L17>
    52a4:	21 6d 80    	mov.w     0xda4, w1
    52a6:	70 3e 20    	mov.w     #0x3e7, w0
    52a8:	80 8f 50    	sub.w     w1, w0, [w15]
    52aa:	0d 00 3c    	bra       GT, 0x52c6 <.L17>
    52ac:	30 6d 80    	mov.w     0xda6, w0
    52ae:	40 07 98    	mov.w     w0, [w14+8]
    52b0:	4e 00 90    	mov.w     [w14+8], w0
    52b2:	00 00 e0    	cp0.w     w0
    52b4:	03 00 3d    	bra       GE, 0x52bc <.L24>
    52b6:	ce 00 90    	mov.w     [w14+8], w1
    52b8:	81 00 ea    	neg.w     w1, w1
    52ba:	41 07 98    	mov.w     w1, [w14+8]

000052bc <.L24>:
    52bc:	40 1f 20    	mov.w     #0x1f4, w0
    52be:	4e 01 90    	mov.w     [w14+8], w2
    52c0:	80 0f 51    	sub.w     w2, w0, [w15]
    52c2:	01 00 34    	bra       LE, 0x52c6 <.L17>
    52c4:	3f 00 37    	bra       0x5344 <.L34>

000052c6 <.L17>:
    52c6:	10 00 20    	mov.w     #0x1, w0
    52c8:	70 44 88    	mov.w     w0, 0x88e
    52ca:	96 80 a9    	bclr.b    0x96, #0x4
    52cc:	3b 00 37    	bra       0x5344 <.L34>

000052ce <.L7>:
    52ce:	00 00 eb    	clr.w     w0
    52d0:	00 0f 78    	mov.w     w0, [w14]
    52d2:	32 00 37    	bra       0x5338 <.L27>

000052d4 <.L28>:
    52d4:	1e 01 78    	mov.w     [w14], w2
    52d6:	1e 00 78    	mov.w     [w14], w0
    52d8:	8e 80 e8    	inc2.w    w14, w1
    52da:	00 00 40    	add.w     w0, w0, w0
    52dc:	e0 81 78    	mov.w     [w0+w1], w3
    52de:	82 00 41    	add.w     w2, w2, w1
    52e0:	60 d9 20    	mov.w     #0xd96, w0
    52e2:	00 80 40    	add.w     w1, w0, w0
    52e4:	03 08 78    	mov.w     w3, [w0]
    52e6:	1e 00 78    	mov.w     [w14], w0
    52e8:	8e 80 e8    	inc2.w    w14, w1
    52ea:	00 00 40    	add.w     w0, w0, w0
    52ec:	e0 80 78    	mov.w     [w0+w1], w1
    52ee:	40 06 20    	mov.w     #0x64, w0
    52f0:	80 8f 50    	sub.w     w1, w0, [w15]
    52f2:	19 00 34    	bra       LE, 0x5326 <.L29>
    52f4:	1e 00 78    	mov.w     [w14], w0
    52f6:	8e 80 e8    	inc2.w    w14, w1
    52f8:	00 00 40    	add.w     w0, w0, w0
    52fa:	e0 80 78    	mov.w     [w0+w1], w1
    52fc:	70 3e 20    	mov.w     #0x3e7, w0
    52fe:	80 8f 50    	sub.w     w1, w0, [w15]
    5300:	12 00 3c    	bra       GT, 0x5326 <.L29>
    5302:	9e 01 78    	mov.w     [w14], w3
    5304:	1e 00 78    	mov.w     [w14], w0
    5306:	8e 80 e8    	inc2.w    w14, w1
    5308:	00 00 40    	add.w     w0, w0, w0
    530a:	60 80 78    	mov.w     [w0+w1], w0
    530c:	00 01 78    	mov.w     w0, w2
    530e:	00 00 20    	mov.w     #0x0, w0
    5310:	f1 0a 20    	mov.w     #0xaf, w1
    5312:	81 1f 78    	mov.w     w1, [w15++]
    5314:	11 00 09    	repeat    #0x11
    5316:	42 88 d8    	div.ud    w0, w2
    5318:	cf 00 78    	mov.w     [--w15], w1
    531a:	00 01 78    	mov.w     w0, w2
    531c:	83 80 41    	add.w     w3, w3, w1
    531e:	00 d9 20    	mov.w     #0xd90, w0
    5320:	00 80 40    	add.w     w1, w0, w0
    5322:	02 08 78    	mov.w     w2, [w0]
    5324:	08 00 37    	bra       0x5336 <.L32>

00005326 <.L29>:
    5326:	1e 00 78    	mov.w     [w14], w0
    5328:	80 00 40    	add.w     w0, w0, w1
    532a:	00 d9 20    	mov.w     #0xd90, w0
    532c:	80 80 40    	add.w     w1, w0, w1
    532e:	00 00 24    	mov.w     #0x4000, w0
    5330:	80 08 78    	mov.w     w0, [w1]
    5332:	10 00 20    	mov.w     #0x1, w0
    5334:	70 44 88    	mov.w     w0, 0x88e

00005336 <.L32>:
    5336:	1e 0f e8    	inc.w     [w14], [w14]

00005338 <.L27>:
    5338:	20 00 20    	mov.w     #0x2, w0
    533a:	9e 0f 10    	subr.w    w0, [w14], [w15]
    533c:	cb ff 34    	bra       LE, 0x52d4 <.L28>
    533e:	70 44 80    	mov.w     0x88e, w0
    5340:	00 00 e8    	inc.w     w0, w0
    5342:	70 44 88    	mov.w     w0, 0x88e

00005344 <.L34>:
    5344:	00 80 fa    	ulnk      
    5346:	00 00 06    	return    

00005348 <__INT1Interrupt>:
    5348:	36 00 f8    	push      0x36
    534a:	80 9f be    	mov.d     w0, [w15++]
    534c:	82 9f be    	mov.d     w2, [w15++]
    534e:	84 9f be    	mov.d     w4, [w15++]
    5350:	86 9f be    	mov.d     w6, [w15++]
    5352:	00 00 fa    	lnk       #0x0
    5354:	21 e1 a8    	bset.b    0x121, #0x7
    5356:	96 80 a9    	bclr.b    0x96, #0x4
    5358:	70 44 80    	mov.w     0x88e, w0
    535a:	ea 0f 50    	sub.w     w0, #0xa, [w15]
    535c:	0b 00 34    	bra       LE, 0x5374 <.L41>
    535e:	c3 c2 bf    	mov.b     0x2c3, WREG
    5360:	70 40 60    	and.b     w0, #0x10, w0
    5362:	00 04 e0    	cp0.b     w0
    5364:	07 00 32    	bra       Z, 0x5374 <.L41>
    5366:	e0 57 80    	mov.w     0xafc, w0
    5368:	61 00 60    	and.w     w0, #0x1, w0
    536a:	00 00 e0    	cp0.w     w0
    536c:	02 00 32    	bra       Z, 0x5372 <.L39>
    536e:	fc 4a a8    	bset.b    0xafc, #0x2
    5370:	01 00 37    	bra       0x5374 <.L41>

00005372 <.L39>:
    5372:	be fe 07    	rcall     0x50f0 <_rxMagnetometer>

00005374 <.L41>:
    5374:	00 80 fa    	ulnk      
    5376:	4f 03 be    	mov.d     [--w15], w6
    5378:	4f 02 be    	mov.d     [--w15], w4
    537a:	4f 01 be    	mov.d     [--w15], w2
    537c:	4f 00 be    	mov.d     [--w15], w0
    537e:	36 00 f9    	pop       0x36
    5380:	00 40 06    	retfie    

00005382 <_accSetupRead>:
    5382:	00 00 fa    	lnk       #0x0
    5384:	fc 0a a8    	bset.b    0xafc, #0x0
    5386:	fc aa a8    	bset.b    0xafc, #0x5
    5388:	fc 6a a9    	bclr.b    0xafc, #0x3
    538a:	e0 ad 20    	mov.w     #0xade, w0
    538c:	c1 89 20    	mov.w     #0x89c, w1
    538e:	0e 00 09    	repeat    #0xe
    5390:	31 18 78    	mov.w     [w1++], [w0++]
    5392:	40 00 20    	mov.w     #0x4, w0
    5394:	a0 4a 88    	mov.w     w0, 0x954
    5396:	00 00 eb    	clr.w     w0
    5398:	10 57 88    	mov.w     w0, 0xae2
    539a:	00 00 eb    	clr.w     w0
    539c:	60 57 88    	mov.w     w0, 0xaec
    539e:	00 00 eb    	clr.w     w0
    53a0:	50 57 88    	mov.w     w0, 0xaea
    53a2:	00 00 eb    	clr.w     w0
    53a4:	c0 57 88    	mov.w     w0, 0xaf8
    53a6:	c0 57 80    	mov.w     0xaf8, w0
    53a8:	b0 57 88    	mov.w     w0, 0xaf6
    53aa:	b0 57 80    	mov.w     0xaf6, w0
    53ac:	a0 57 88    	mov.w     w0, 0xaf4
    53ae:	c0 02 20    	mov.w     #0x2c, w0
    53b0:	00 57 88    	mov.w     w0, 0xae0
    53b2:	00 80 fa    	ulnk      
    53b4:	00 00 06    	return    

000053b6 <_rxAccel>:
    53b6:	06 00 fa    	lnk       #0x6
    53b8:	e0 44 80    	mov.w     0x89c, w0
    53ba:	e2 0f 50    	sub.w     w0, #0x2, [w15]
    53bc:	1f 00 32    	bra       Z, 0x53fc <.L45>
    53be:	20 00 20    	mov.w     #0x2, w0
    53c0:	e0 44 88    	mov.w     w0, 0x89c
    53c2:	80 00 20    	mov.w     #0x8, w0
    53c4:	60 45 88    	mov.w     w0, 0x8ac
    53c6:	c0 dc 20    	mov.w     #0xdcc, w0
    53c8:	80 45 88    	mov.w     w0, 0x8b0
    53ca:	60 55 25    	mov.w     #0x5556, w0
    53cc:	a0 42 88    	mov.w     w0, 0x854
    53ce:	70 00 20    	mov.w     #0x7, w0
    53d0:	00 45 88    	mov.w     w0, 0x8a0
    53d2:	70 00 20    	mov.w     #0x7, w0
    53d4:	70 6d 88    	mov.w     w0, 0xdae
    53d6:	00 00 eb    	clr.w     w0
    53d8:	00 0f 78    	mov.w     w0, [w14]
    53da:	0d 00 37    	bra       0x53f6 <.L47>

000053dc <.L48>:
    53dc:	1e 00 78    	mov.w     [w14], w0
    53de:	c2 02 20    	mov.w     #0x2c, w2
    53e0:	00 01 41    	add.w     w2, w0, w2
    53e2:	1e 00 78    	mov.w     [w14], w0
    53e4:	80 00 40    	add.w     w0, w0, w1
    53e6:	00 52 2a    	mov.w     #0xa520, w0
    53e8:	00 80 40    	add.w     w1, w0, w0
    53ea:	90 01 78    	mov.w     [w0], w3
    53ec:	82 00 41    	add.w     w2, w2, w1
    53ee:	e0 a5 20    	mov.w     #0xa5e, w0
    53f0:	00 80 40    	add.w     w1, w0, w0
    53f2:	03 08 78    	mov.w     w3, [w0]
    53f4:	1e 0f e8    	inc.w     [w14], [w14]

000053f6 <.L47>:
    53f6:	70 6d 80    	mov.w     0xdae, w0
    53f8:	9e 0f 10    	subr.w    w0, [w14], [w15]
    53fa:	f0 ff 34    	bra       LE, 0x53dc <.L48>

000053fc <.L45>:
    53fc:	00 45 80    	mov.w     0x8a0, w0
    53fe:	e7 0f 50    	sub.w     w0, #0x7, [w15]
    5400:	0a 00 32    	bra       Z, 0x5416 <.L49>
    5402:	90 45 80    	mov.w     0x8b2, w0
    5404:	00 00 e0    	cp0.w     w0
    5406:	07 00 3a    	bra       NZ, 0x5416 <.L49>
    5408:	f1 44 80    	mov.w     0x89e, w1
    540a:	70 6d 80    	mov.w     0xdae, w0
    540c:	80 8f 50    	sub.w     w1, w0, [w15]
    540e:	03 00 32    	bra       Z, 0x5416 <.L49>
    5410:	a0 4a 80    	mov.w     0x954, w0
    5412:	00 00 e0    	cp0.w     w0
    5414:	9e 00 3a    	bra       NZ, 0x5552 <.L89>

00005416 <.L49>:
    5416:	60 45 80    	mov.w     0x8ac, w0
    5418:	e8 0f 50    	sub.w     w0, #0x8, [w15]
    541a:	02 00 34    	bra       LE, 0x5420 <.L54>
    541c:	90 00 20    	mov.w     #0x9, w0
    541e:	60 45 88    	mov.w     w0, 0x8ac

00005420 <.L54>:
    5420:	60 45 80    	mov.w     0x8ac, w0
    5422:	61 01 b9    	mul.su    w0, #0x1, w2
    5424:	12 07 98    	mov.w     w2, [w14+2]
    5426:	23 07 98    	mov.w     w3, [w14+4]
    5428:	b0 00 20    	mov.w     #0xb, w0
    542a:	01 00 20    	mov.w     #0x0, w1
    542c:	1e 01 90    	mov.w     [w14+2], w2
    542e:	ae 01 90    	mov.w     [w14+4], w3
    5430:	80 0f 51    	sub.w     w2, w0, [w15]
    5432:	81 8f 59    	subb.w    w3, w1, [w15]
    5434:	8e 00 3e    	bra       GTU, 0x5552 <.L89>
    5436:	1e 00 90    	mov.w     [w14+2], w0
    5438:	ae 00 90    	mov.w     [w14+4], w1
    543a:	00 60 01    	bra       w0
    543c:	8a 00 37    	bra       0x5552 <.L89>
    543e:	0a 00 37    	bra       0x5454 <.L57>
    5440:	11 00 37    	bra       0x5464 <.L58>
    5442:	2f 00 37    	bra       0x54a2 <.L59>
    5444:	86 00 37    	bra       0x5552 <.L89>
    5446:	35 00 37    	bra       0x54b2 <.L60>
    5448:	53 00 37    	bra       0x54f0 <.L61>
    544a:	83 00 37    	bra       0x5552 <.L89>
    544c:	59 00 37    	bra       0x5500 <.L63>
    544e:	78 00 37    	bra       0x5540 <.L64>
    5450:	77 00 37    	bra       0x5540 <.L64>
    5452:	76 00 37    	bra       0x5540 <.L64>

00005454 <.L57>:
    5454:	e0 57 80    	mov.w     0xafc, w0
    5456:	61 00 60    	and.w     w0, #0x1, w0
    5458:	00 00 e0    	cp0.w     w0
    545a:	7b 00 3a    	bra       NZ, 0x5552 <.L89>
    545c:	92 ff 07    	rcall     0x5382 <_accSetupRead>
    545e:	00 80 eb    	setm.w    w0
    5460:	d2 fa 07    	rcall     0x4a06 <_I2C_Start>
    5462:	77 00 37    	bra       0x5552 <.L89>

00005464 <.L58>:
    5464:	e0 57 80    	mov.w     0xafc, w0
    5466:	61 00 60    	and.w     w0, #0x1, w0
    5468:	00 00 e0    	cp0.w     w0
    546a:	73 00 3a    	bra       NZ, 0x5552 <.L89>
    546c:	fc 0a a8    	bset.b    0xafc, #0x0
    546e:	e1 ad 20    	mov.w     #0xade, w1
    5470:	c2 89 20    	mov.w     #0x89c, w2
    5472:	0e 00 09    	repeat    #0xe
    5474:	b2 18 78    	mov.w     [w2++], [w1++]
    5476:	70 01 20    	mov.w     #0x17, w0
    5478:	70 6d 88    	mov.w     w0, 0xdae
    547a:	00 00 eb    	clr.w     w0
    547c:	00 0f 78    	mov.w     w0, [w14]
    547e:	0b 00 37    	bra       0x5496 <.L70>

00005480 <.L71>:
    5480:	1e 01 78    	mov.w     [w14], w2
    5482:	1e 00 78    	mov.w     [w14], w0
    5484:	80 00 40    	add.w     w0, w0, w1
    5486:	c0 53 2a    	mov.w     #0xa53c, w0
    5488:	00 80 40    	add.w     w1, w0, w0
    548a:	90 01 78    	mov.w     [w0], w3
    548c:	82 00 41    	add.w     w2, w2, w1
    548e:	e0 a5 20    	mov.w     #0xa5e, w0
    5490:	00 80 40    	add.w     w1, w0, w0
    5492:	03 08 78    	mov.w     w3, [w0]
    5494:	1e 0f e8    	inc.w     [w14], [w14]

00005496 <.L70>:
    5496:	70 6d 80    	mov.w     0xdae, w0
    5498:	9e 0f 10    	subr.w    w0, [w14], [w15]
    549a:	f2 ff 34    	bra       LE, 0x5480 <.L71>
    549c:	00 00 eb    	clr.w     w0
    549e:	b3 fa 07    	rcall     0x4a06 <_I2C_Start>
    54a0:	58 00 37    	bra       0x5552 <.L89>

000054a2 <.L59>:
    54a2:	e0 57 80    	mov.w     0xafc, w0
    54a4:	61 00 60    	and.w     w0, #0x1, w0
    54a6:	00 00 e0    	cp0.w     w0
    54a8:	54 00 3a    	bra       NZ, 0x5552 <.L89>
    54aa:	6b ff 07    	rcall     0x5382 <_accSetupRead>
    54ac:	00 80 eb    	setm.w    w0
    54ae:	ab fa 07    	rcall     0x4a06 <_I2C_Start>
    54b0:	50 00 37    	bra       0x5552 <.L89>

000054b2 <.L60>:
    54b2:	e0 57 80    	mov.w     0xafc, w0
    54b4:	61 00 60    	and.w     w0, #0x1, w0
    54b6:	00 00 e0    	cp0.w     w0
    54b8:	4c 00 3a    	bra       NZ, 0x5552 <.L89>
    54ba:	fc 0a a8    	bset.b    0xafc, #0x0
    54bc:	e3 ad 20    	mov.w     #0xade, w3
    54be:	c0 89 20    	mov.w     #0x89c, w0
    54c0:	0e 00 09    	repeat    #0xe
    54c2:	b0 19 78    	mov.w     [w0++], [w3++]
    54c4:	50 00 20    	mov.w     #0x5, w0
    54c6:	70 6d 88    	mov.w     w0, 0xdae
    54c8:	00 00 eb    	clr.w     w0
    54ca:	00 0f 78    	mov.w     w0, [w14]
    54cc:	0b 00 37    	bra       0x54e4 <.L77>

000054ce <.L78>:
    54ce:	1e 01 78    	mov.w     [w14], w2
    54d0:	1e 00 78    	mov.w     [w14], w0
    54d2:	80 00 40    	add.w     w0, w0, w1
    54d4:	00 53 2a    	mov.w     #0xa530, w0
    54d6:	00 80 40    	add.w     w1, w0, w0
    54d8:	90 01 78    	mov.w     [w0], w3
    54da:	82 00 41    	add.w     w2, w2, w1
    54dc:	e0 a5 20    	mov.w     #0xa5e, w0
    54de:	00 80 40    	add.w     w1, w0, w0
    54e0:	03 08 78    	mov.w     w3, [w0]
    54e2:	1e 0f e8    	inc.w     [w14], [w14]

000054e4 <.L77>:
    54e4:	70 6d 80    	mov.w     0xdae, w0
    54e6:	9e 0f 10    	subr.w    w0, [w14], [w15]
    54e8:	f2 ff 34    	bra       LE, 0x54ce <.L78>
    54ea:	00 00 eb    	clr.w     w0
    54ec:	8c fa 07    	rcall     0x4a06 <_I2C_Start>
    54ee:	31 00 37    	bra       0x5552 <.L89>

000054f0 <.L61>:
    54f0:	e0 57 80    	mov.w     0xafc, w0
    54f2:	61 00 60    	and.w     w0, #0x1, w0
    54f4:	00 00 e0    	cp0.w     w0
    54f6:	2d 00 3a    	bra       NZ, 0x5552 <.L89>
    54f8:	44 ff 07    	rcall     0x5382 <_accSetupRead>
    54fa:	00 80 eb    	setm.w    w0
    54fc:	84 fa 07    	rcall     0x4a06 <_I2C_Start>
    54fe:	29 00 37    	bra       0x5552 <.L89>

00005500 <.L63>:
    5500:	e0 57 80    	mov.w     0xafc, w0
    5502:	61 00 60    	and.w     w0, #0x1, w0
    5504:	00 00 e0    	cp0.w     w0
    5506:	25 00 3a    	bra       NZ, 0x5552 <.L89>
    5508:	fc 0a a8    	bset.b    0xafc, #0x0
    550a:	e1 ad 20    	mov.w     #0xade, w1
    550c:	c2 89 20    	mov.w     #0x89c, w2
    550e:	0e 00 09    	repeat    #0xe
    5510:	b2 18 78    	mov.w     [w2++], [w1++]
    5512:	70 01 20    	mov.w     #0x17, w0
    5514:	70 6d 88    	mov.w     w0, 0xdae
    5516:	00 00 eb    	clr.w     w0
    5518:	00 0f 78    	mov.w     w0, [w14]
    551a:	0b 00 37    	bra       0x5532 <.L84>

0000551c <.L85>:
    551c:	1e 01 78    	mov.w     [w14], w2
    551e:	1e 00 78    	mov.w     [w14], w0
    5520:	80 00 40    	add.w     w0, w0, w1
    5522:	c0 56 2a    	mov.w     #0xa56c, w0
    5524:	00 80 40    	add.w     w1, w0, w0
    5526:	90 01 78    	mov.w     [w0], w3
    5528:	82 00 41    	add.w     w2, w2, w1
    552a:	e0 a5 20    	mov.w     #0xa5e, w0
    552c:	00 80 40    	add.w     w1, w0, w0
    552e:	03 08 78    	mov.w     w3, [w0]
    5530:	1e 0f e8    	inc.w     [w14], [w14]

00005532 <.L84>:
    5532:	70 6d 80    	mov.w     0xdae, w0
    5534:	9e 0f 10    	subr.w    w0, [w14], [w15]
    5536:	f2 ff 34    	bra       LE, 0x551c <.L85>
    5538:	00 00 eb    	clr.w     w0
    553a:	65 fa 07    	rcall     0x4a06 <_I2C_Start>
    553c:	97 a0 a8    	bset.b    0x97, #0x5
    553e:	09 00 37    	bra       0x5552 <.L89>

00005540 <.L64>:
    5540:	e0 57 80    	mov.w     0xafc, w0
    5542:	61 00 60    	and.w     w0, #0x1, w0
    5544:	00 00 e0    	cp0.w     w0
    5546:	04 00 3a    	bra       NZ, 0x5550 <.L87>
    5548:	1c ff 07    	rcall     0x5382 <_accSetupRead>
    554a:	00 80 eb    	setm.w    w0
    554c:	5c fa 07    	rcall     0x4a06 <_I2C_Start>
    554e:	01 00 37    	bra       0x5552 <.L89>

00005550 <.L87>:
    5550:	fc aa a8    	bset.b    0xafc, #0x5

00005552 <.L89>:
    5552:	00 80 fa    	ulnk      
    5554:	00 00 06    	return    

00005556 <_doneReadAccData>:
    5556:	0a 00 fa    	lnk       #0xa
    5558:	cd cd bf    	mov.b     0xdcd, WREG
    555a:	00 80 fb    	ze        w0, w0
    555c:	c8 00 dd    	sl.w      w0, #0x8, w1
    555e:	cc cd bf    	mov.b     0xdcc, WREG
    5560:	00 80 fb    	ze        w0, w0
    5562:	00 80 40    	add.w     w1, w0, w0
    5564:	00 0f 78    	mov.w     w0, [w14]
    5566:	cf cd bf    	mov.b     0xdcf, WREG
    5568:	00 80 fb    	ze        w0, w0
    556a:	c8 00 dd    	sl.w      w0, #0x8, w1
    556c:	ce cd bf    	mov.b     0xdce, WREG
    556e:	00 80 fb    	ze        w0, w0
    5570:	00 80 40    	add.w     w1, w0, w0
    5572:	10 07 98    	mov.w     w0, [w14+2]
    5574:	d1 cd bf    	mov.b     0xdd1, WREG
    5576:	00 80 fb    	ze        w0, w0
    5578:	c8 00 dd    	sl.w      w0, #0x8, w1
    557a:	d0 cd bf    	mov.b     0xdd0, WREG
    557c:	00 80 fb    	ze        w0, w0
    557e:	00 80 40    	add.w     w1, w0, w0
    5580:	20 07 98    	mov.w     w0, [w14+4]
    5582:	60 45 80    	mov.w     0x8ac, w0
    5584:	e6 0f 50    	sub.w     w0, #0x6, [w15]
    5586:	1e 00 34    	bra       LE, 0x55c4 <.L91>
    5588:	9e 00 78    	mov.w     [w14], w1
    558a:	80 6d 80    	mov.w     0xdb0, w0
    558c:	80 8f 50    	sub.w     w1, w0, [w15]
    558e:	1a 00 3a    	bra       NZ, 0x55c4 <.L91>
    5590:	9e 00 90    	mov.w     [w14+2], w1
    5592:	90 6d 80    	mov.w     0xdb2, w0
    5594:	80 8f 50    	sub.w     w1, w0, [w15]
    5596:	16 00 3a    	bra       NZ, 0x55c4 <.L91>
    5598:	ae 00 90    	mov.w     [w14+4], w1
    559a:	a0 6d 80    	mov.w     0xdb4, w0
    559c:	80 8f 50    	sub.w     w1, w0, [w15]
    559e:	12 00 3a    	bra       NZ, 0x55c4 <.L91>
    55a0:	b0 6d 80    	mov.w     0xdb6, w0
    55a2:	40 07 98    	mov.w     w0, [w14+8]
    55a4:	80 40 eb    	clr.b     w1
    55a6:	61 47 98    	mov.b     w1, [w14+6]
    55a8:	4e 00 90    	mov.w     [w14+8], w0
    55aa:	e5 0f 50    	sub.w     w0, #0x5, [w15]
    55ac:	02 00 34    	bra       LE, 0x55b2 <.L96>
    55ae:	11 c0 b3    	mov.b     #0x1, w1
    55b0:	61 47 98    	mov.b     w1, [w14+6]

000055b2 <.L96>:
    55b2:	ce 00 90    	mov.w     [w14+8], w1
    55b4:	01 00 e8    	inc.w     w1, w0
    55b6:	b0 6d 88    	mov.w     w0, 0xdb6
    55b8:	6e 40 90    	mov.b     [w14+6], w0
    55ba:	00 04 e0    	cp0.b     w0
    55bc:	05 00 32    	bra       Z, 0x55c8 <.L99>
    55be:	80 00 20    	mov.w     #0x8, w0
    55c0:	60 45 88    	mov.w     w0, 0x8ac
    55c2:	02 00 37    	bra       0x55c8 <.L99>

000055c4 <.L91>:
    55c4:	00 00 eb    	clr.w     w0
    55c6:	b0 6d 88    	mov.w     w0, 0xdb6

000055c8 <.L99>:
    55c8:	1e 00 78    	mov.w     [w14], w0
    55ca:	80 6d 88    	mov.w     w0, 0xdb0
    55cc:	1e 00 90    	mov.w     [w14+2], w0
    55ce:	90 6d 88    	mov.w     w0, 0xdb2
    55d0:	2e 00 90    	mov.w     [w14+4], w0
    55d2:	a0 6d 88    	mov.w     w0, 0xdb4
    55d4:	60 45 80    	mov.w     0x8ac, w0
    55d6:	e8 0f 50    	sub.w     w0, #0x8, [w15]
    55d8:	2a 00 34    	bra       LE, 0x562e <.L105>
    55da:	90 00 20    	mov.w     #0x9, w0
    55dc:	60 45 88    	mov.w     w0, 0x8ac
    55de:	1e 00 78    	mov.w     [w14], w0
    55e0:	b0 68 89    	mov.w     w0, 0x2d16
    55e2:	1e 00 90    	mov.w     [w14+2], w0
    55e4:	c0 68 89    	mov.w     w0, 0x2d18
    55e6:	2e 00 90    	mov.w     [w14+4], w0
    55e8:	d0 68 89    	mov.w     w0, 0x2d1a
    55ea:	50 63 80    	mov.w     0xc6a, w0
    55ec:	b2 68 81    	mov.w     0x2d16, w2
    55ee:	00 00 40    	add.w     w0, w0, w0
    55f0:	01 20 20    	mov.w     #0x200, w1
    55f2:	80 80 40    	add.w     w1, w0, w1
    55f4:	00 e0 22    	mov.w     #0x2e00, w0
    55f6:	00 80 40    	add.w     w1, w0, w0
    55f8:	02 08 78    	mov.w     w2, [w0]
    55fa:	50 63 80    	mov.w     0xc6a, w0
    55fc:	c2 68 81    	mov.w     0x2d18, w2
    55fe:	00 00 40    	add.w     w0, w0, w0
    5600:	01 28 20    	mov.w     #0x280, w1
    5602:	80 80 40    	add.w     w1, w0, w1
    5604:	00 e0 22    	mov.w     #0x2e00, w0
    5606:	00 80 40    	add.w     w1, w0, w0
    5608:	02 08 78    	mov.w     w2, [w0]
    560a:	50 63 80    	mov.w     0xc6a, w0
    560c:	d2 68 81    	mov.w     0x2d1a, w2
    560e:	00 00 40    	add.w     w0, w0, w0
    5610:	01 30 20    	mov.w     #0x300, w1
    5612:	80 80 40    	add.w     w1, w0, w1
    5614:	00 e0 22    	mov.w     #0x2e00, w0
    5616:	00 80 40    	add.w     w1, w0, w0
    5618:	02 08 78    	mov.w     w2, [w0]
    561a:	50 63 80    	mov.w     0xc6a, w0
    561c:	00 00 e8    	inc.w     w0, w0
    561e:	50 63 88    	mov.w     w0, 0xc6a
    5620:	51 63 80    	mov.w     0xc6a, w1
    5622:	00 04 20    	mov.w     #0x40, w0
    5624:	80 8f 50    	sub.w     w1, w0, [w15]
    5626:	02 00 34    	bra       LE, 0x562c <.L102>
    5628:	00 00 eb    	clr.w     w0
    562a:	50 63 88    	mov.w     w0, 0xc6a

0000562c <.L102>:
    562c:	fc aa a9    	bclr.b    0xafc, #0x5

0000562e <.L105>:
    562e:	00 80 fa    	ulnk      
    5630:	00 00 06    	return    

00005632 <__INT2Interrupt>:
    5632:	36 00 f8    	push      0x36
    5634:	80 9f be    	mov.d     w0, [w15++]
    5636:	82 9f be    	mov.d     w2, [w15++]
    5638:	84 9f be    	mov.d     w4, [w15++]
    563a:	86 9f be    	mov.d     w6, [w15++]
    563c:	00 00 fa    	lnk       #0x0
    563e:	21 e1 a8    	bset.b    0x121, #0x7
    5640:	87 a0 a9    	bclr.b    0x87, #0x5
    5642:	fc 6a a8    	bset.b    0xafc, #0x3
    5644:	e0 57 80    	mov.w     0xafc, w0
    5646:	61 00 60    	and.w     w0, #0x1, w0
    5648:	00 00 e0    	cp0.w     w0
    564a:	01 00 3a    	bra       NZ, 0x564e <.L109>
    564c:	b4 fe 07    	rcall     0x53b6 <_rxAccel>

0000564e <.L109>:
    564e:	00 80 fa    	ulnk      
    5650:	4f 03 be    	mov.d     [--w15], w6
    5652:	4f 02 be    	mov.d     [--w15], w4
    5654:	4f 01 be    	mov.d     [--w15], w2
    5656:	4f 00 be    	mov.d     [--w15], w0
    5658:	36 00 f9    	pop       0x36
    565a:	00 40 06    	retfie    

0000565c <_init_serial>:
    565c:	00 00 fa    	lnk       #0x0
    565e:	00 40 28    	mov.w     #0x8400, w0
    5660:	31 00 20    	mov.w     #0x3, w1
    5662:	7d 0a 07    	rcall     0x6b5e <_udb_serial_set_rate>
    5664:	00 80 fa    	ulnk      
    5666:	00 00 06    	return    

00005668 <_udb_serial_callback_received_char>:
    5668:	02 00 fa    	lnk       #0x2
    566a:	00 4f 78    	mov.b     w0, [w14]
    566c:	21 72 80    	mov.w     0xe44, w1
    566e:	1e 40 78    	mov.b     [w14], w0
    5670:	01 00 01    	call      w1
    5672:	00 80 fa    	ulnk      
    5674:	00 00 06    	return    

00005676 <_sio_newMsg>:
    5676:	02 00 fa    	lnk       #0x2
    5678:	00 4f 78    	mov.b     w0, [w14]
    567a:	60 c5 b3    	mov.b     #0x56, w0
    567c:	9e 4f 10    	subr.b    w0, [w14], [w15]
    567e:	03 00 3a    	bra       NZ, 0x5686 <.L6>
    5680:	e0 69 25    	mov.w     #0x569e, w0
    5682:	20 72 88    	mov.w     w0, 0xe44
    5684:	0a 00 37    	bra       0x569a <.L10>

00005686 <.L6>:
    5686:	20 c5 b3    	mov.b     #0x52, w0
    5688:	9e 4f 10    	subr.b    w0, [w14], [w15]
    568a:	07 00 3a    	bra       NZ, 0x569a <.L10>
    568c:	00 c0 eb    	setm.b    w0
    568e:	1c ed b7    	mov.b     WREG, 0xd1c
    5690:	00 40 eb    	clr.b     w0
    5692:	1d ed b7    	mov.b     WREG, 0xd1d
    5694:	a0 70 25    	mov.w     #0x570a, w0
    5696:	20 72 88    	mov.w     w0, 0xe44
    5698:	02 09 07    	rcall     0x689e <_flightplan_live_begin>

0000569a <.L10>:
    569a:	00 80 fa    	ulnk      
    569c:	00 00 06    	return    

0000569e <_sio_voltage_high>:
    569e:	02 00 fa    	lnk       #0x2
    56a0:	00 4f 78    	mov.b     w0, [w14]
    56a2:	00 00 eb    	clr.w     w0
    56a4:	d0 68 88    	mov.w     w0, 0xd1a
    56a6:	1e 40 78    	mov.b     [w14], w0
    56a8:	1b ed b7    	mov.b     WREG, 0xd1b
    56aa:	20 6b 25    	mov.w     #0x56b2, w0
    56ac:	20 72 88    	mov.w     w0, 0xe44
    56ae:	00 80 fa    	ulnk      
    56b0:	00 00 06    	return    

000056b2 <_sio_voltage_low>:
    56b2:	02 00 fa    	lnk       #0x2
    56b4:	00 4f 78    	mov.b     w0, [w14]
    56b6:	1e 40 78    	mov.b     [w14], w0
    56b8:	1a ed b7    	mov.b     WREG, 0xd1a
    56ba:	d0 68 80    	mov.w     0xd1a, w0
    56bc:	00 00 40    	add.w     w0, w0, w0
    56be:	d0 68 88    	mov.w     w0, 0xd1a
    56c0:	d0 68 80    	mov.w     0xd1a, w0
    56c2:	10 72 88    	mov.w     w0, 0xe42
    56c4:	60 67 25    	mov.w     #0x5676, w0
    56c6:	20 72 88    	mov.w     w0, 0xe44
    56c8:	00 80 fa    	ulnk      
    56ca:	00 00 06    	return    

000056cc <_hex_char_val>:
    56cc:	04 00 fa    	lnk       #0x4
    56ce:	00 4f 78    	mov.b     w0, [w14]
    56d0:	f0 c2 b3    	mov.b     #0x2f, w0
    56d2:	9e 4f 10    	subr.b    w0, [w14], [w15]
    56d4:	09 00 36    	bra       LEU, 0x56e8 <.L16>
    56d6:	90 c3 b3    	mov.b     #0x39, w0
    56d8:	9e 4f 10    	subr.b    w0, [w14], [w15]
    56da:	06 00 3e    	bra       GTU, 0x56e8 <.L16>
    56dc:	1e 40 78    	mov.b     [w14], w0
    56de:	01 cd b3    	mov.b     #0xd0, w1
    56e0:	01 40 40    	add.b     w0, w1, w0
    56e2:	00 00 fb    	se        w0, w0
    56e4:	10 07 98    	mov.w     w0, [w14+2]
    56e6:	0e 00 37    	bra       0x5704 <.L19>

000056e8 <.L16>:
    56e8:	00 c4 b3    	mov.b     #0x40, w0
    56ea:	9e 4f 10    	subr.b    w0, [w14], [w15]
    56ec:	09 00 36    	bra       LEU, 0x5700 <.L20>
    56ee:	60 c4 b3    	mov.b     #0x46, w0
    56f0:	9e 4f 10    	subr.b    w0, [w14], [w15]
    56f2:	06 00 3e    	bra       GTU, 0x5700 <.L20>
    56f4:	1e 40 78    	mov.b     [w14], w0
    56f6:	91 cc b3    	mov.b     #0xc9, w1
    56f8:	01 40 40    	add.b     w0, w1, w0
    56fa:	00 00 fb    	se        w0, w0
    56fc:	10 07 98    	mov.w     w0, [w14+2]
    56fe:	02 00 37    	bra       0x5704 <.L19>

00005700 <.L20>:
    5700:	00 80 eb    	setm.w    w0
    5702:	10 07 98    	mov.w     w0, [w14+2]

00005704 <.L19>:
    5704:	1e 00 90    	mov.w     [w14+2], w0
    5706:	00 80 fa    	ulnk      
    5708:	00 00 06    	return    

0000570a <_sio_fp_data>:
    570a:	04 00 fa    	lnk       #0x4
    570c:	20 47 98    	mov.b     w0, [w14+2]
    570e:	ae 40 90    	mov.b     [w14+2], w1
    5710:	a0 c2 b3    	mov.b     #0x2a, w0
    5712:	80 cf 50    	sub.b     w1, w0, [w15]
    5714:	05 00 3a    	bra       NZ, 0x5720 <.L25>
    5716:	00 c0 eb    	setm.b    w0
    5718:	1c ed b7    	mov.b     WREG, 0xd1c
    571a:	60 75 25    	mov.w     #0x5756, w0
    571c:	20 72 88    	mov.w     w0, 0xe44
    571e:	19 00 37    	bra       0x5752 <.L34>

00005720 <.L25>:
    5720:	2e 40 90    	mov.b     [w14+2], w0
    5722:	d4 ff 07    	rcall     0x56cc <_hex_char_val>
    5724:	00 4f 78    	mov.b     w0, [w14]
    5726:	00 c0 eb    	setm.b    w0
    5728:	9e 4f 10    	subr.b    w0, [w14], [w15]
    572a:	03 00 3a    	bra       NZ, 0x5732 <.L28>
    572c:	60 67 25    	mov.w     #0x5676, w0
    572e:	20 72 88    	mov.w     w0, 0xe44
    5730:	10 00 37    	bra       0x5752 <.L34>

00005732 <.L28>:
    5732:	1c cd bf    	mov.b     0xd1c, WREG
    5734:	e1 4f 40    	add.b     w0, #0x1, [w15]
    5736:	04 00 3a    	bra       NZ, 0x5740 <.L31>
    5738:	1e 00 fb    	se        [w14], w0
    573a:	44 00 dd    	sl.w      w0, #0x4, w0
    573c:	1c ed b7    	mov.b     WREG, 0xd1c
    573e:	05 00 37    	bra       0x574a <.L33>

00005740 <.L31>:
    5740:	1c cd bf    	mov.b     0xd1c, WREG
    5742:	1e 40 40    	add.b     w0, [w14], w0
    5744:	b1 08 07    	rcall     0x68a8 <_flightplan_live_received_byte>
    5746:	00 c0 eb    	setm.b    w0
    5748:	1c ed b7    	mov.b     WREG, 0xd1c

0000574a <.L33>:
    574a:	1d cd bf    	mov.b     0xd1d, WREG
    574c:	ae 40 90    	mov.b     [w14+2], w1
    574e:	01 40 40    	add.b     w0, w1, w0
    5750:	1d ed b7    	mov.b     WREG, 0xd1d

00005752 <.L34>:
    5752:	00 80 fa    	ulnk      
    5754:	00 00 06    	return    

00005756 <_sio_fp_checksum>:
    5756:	04 00 fa    	lnk       #0x4
    5758:	20 47 98    	mov.b     w0, [w14+2]
    575a:	2e 40 90    	mov.b     [w14+2], w0
    575c:	b7 ff 07    	rcall     0x56cc <_hex_char_val>
    575e:	10 47 98    	mov.b     w0, [w14+1]
    5760:	1e 40 90    	mov.b     [w14+1], w0
    5762:	e1 4f 40    	add.b     w0, #0x1, [w15]
    5764:	03 00 3a    	bra       NZ, 0x576c <.L36>
    5766:	60 67 25    	mov.w     #0x5676, w0
    5768:	20 72 88    	mov.w     w0, 0xe44
    576a:	13 00 37    	bra       0x5792 <.L43>

0000576c <.L36>:
    576c:	1c cd bf    	mov.b     0xd1c, WREG
    576e:	e1 4f 40    	add.b     w0, #0x1, [w15]
    5770:	05 00 3a    	bra       NZ, 0x577c <.L39>
    5772:	1e 40 90    	mov.b     [w14+1], w0
    5774:	00 00 fb    	se        w0, w0
    5776:	44 00 dd    	sl.w      w0, #0x4, w0
    5778:	1c ed b7    	mov.b     WREG, 0xd1c
    577a:	0b 00 37    	bra       0x5792 <.L43>

0000577c <.L39>:
    577c:	c1 d1 20    	mov.w     #0xd1c, w1
    577e:	91 40 78    	mov.b     [w1], w1
    5780:	1e 40 90    	mov.b     [w14+1], w0
    5782:	00 c0 40    	add.b     w1, w0, w0
    5784:	00 4f 78    	mov.b     w0, [w14]
    5786:	1d cd bf    	mov.b     0xd1d, WREG
    5788:	9e 4f 10    	subr.b    w0, [w14], [w15]
    578a:	01 00 3a    	bra       NZ, 0x578e <.L41>
    578c:	a8 08 07    	rcall     0x68de <_flightplan_live_commit>

0000578e <.L41>:
    578e:	60 67 25    	mov.w     #0x5676, w0
    5790:	20 72 88    	mov.w     w0, 0xe44

00005792 <.L43>:
    5792:	00 80 fa    	ulnk      
    5794:	00 00 06    	return    

00005796 <_serial_output>:
    5796:	08 00 fa    	lnk       #0x8
    5798:	68 00 57    	sub.w     w14, #0x8, w0
    579a:	30 07 98    	mov.w     w0, [w14+6]
    579c:	40 72 80    	mov.w     0xe48, w0
    579e:	20 07 98    	mov.w     w0, [w14+4]
    57a0:	01 10 20    	mov.w     #0x100, w1
    57a2:	2e 00 90    	mov.w     [w14+4], w0
    57a4:	00 80 50    	sub.w     w1, w0, w0
    57a6:	10 07 98    	mov.w     w0, [w14+2]
    57a8:	1e 00 90    	mov.w     [w14+2], w0
    57aa:	e1 0f 50    	sub.w     w0, #0x1, [w15]
    57ac:	0d 00 34    	bra       LE, 0x57c8 <.L45>
    57ae:	1e 02 90    	mov.w     [w14+2], w4
    57b0:	2e 00 90    	mov.w     [w14+4], w0
    57b2:	80 00 78    	mov.w     w0, w1
    57b4:	00 00 22    	mov.w     #0x2000, w0
    57b6:	00 80 40    	add.w     w1, w0, w0
    57b8:	be 01 90    	mov.w     [w14+6], w3
    57ba:	4e b9 97    	mov.w     [w14-8], w2
    57bc:	84 00 78    	mov.w     w4, w1
    57be:	a8 d5 07    	rcall     0x310 <_vsnprintf>
    57c0:	00 0f 78    	mov.w     w0, [w14]
    57c2:	2e 00 90    	mov.w     [w14+4], w0
    57c4:	1e 00 40    	add.w     w0, [w14], w0
    57c6:	40 72 88    	mov.w     w0, 0xe48

000057c8 <.L45>:
    57c8:	30 72 80    	mov.w     0xe46, w0
    57ca:	00 00 e0    	cp0.w     w0
    57cc:	07 00 3a    	bra       NZ, 0x57dc <.L49>
    57ce:	41 72 80    	mov.w     0xe48, w1
    57d0:	00 00 22    	mov.w     #0x2000, w0
    57d2:	f4 09 07    	rcall     0x6bbc <_udb_serial_send_packet>
    57d4:	00 00 eb    	clr.w     w0
    57d6:	30 72 88    	mov.w     w0, 0xe46
    57d8:	00 00 eb    	clr.w     w0
    57da:	40 72 88    	mov.w     w0, 0xe48

000057dc <.L49>:
    57dc:	00 80 fa    	ulnk      
    57de:	00 00 06    	return    

000057e0 <_udb_serial_callback_get_char_to_send>:
    57e0:	04 00 fa    	lnk       #0x4
    57e2:	31 72 80    	mov.w     0xe46, w1
    57e4:	00 00 22    	mov.w     #0x2000, w0
    57e6:	00 80 40    	add.w     w1, w0, w0
    57e8:	10 4f 78    	mov.b     [w0], [w14]
    57ea:	01 00 e8    	inc.w     w1, w0
    57ec:	30 72 88    	mov.w     w0, 0xe46
    57ee:	1e 04 e0    	cp0.b     [w14]
    57f0:	03 00 32    	bra       Z, 0x57f8 <.L51>
    57f2:	1e 00 fb    	se        [w14], w0
    57f4:	10 07 98    	mov.w     w0, [w14+2]
    57f6:	06 00 37    	bra       0x5804 <.L53>

000057f8 <.L51>:
    57f8:	00 00 eb    	clr.w     w0
    57fa:	30 72 88    	mov.w     w0, 0xe46
    57fc:	00 00 eb    	clr.w     w0
    57fe:	40 72 88    	mov.w     w0, 0xe48
    5800:	00 00 eb    	clr.w     w0
    5802:	10 07 98    	mov.w     w0, [w14+2]

00005804 <.L53>:
    5804:	1e 00 90    	mov.w     [w14+2], w0
    5806:	00 80 fa    	ulnk      
    5808:	00 00 06    	return    

0000580a <_serial_output_8hz>:
    580a:	2c 00 fa    	lnk       #0x2c
    580c:	88 9f be    	mov.d     w8, [w15++]
    580e:	8a 9f be    	mov.d     w10, [w15++]
    5810:	8c 9f be    	mov.d     w12, [w15++]
    5812:	50 72 80    	mov.w     0xe4a, w0
    5814:	40 17 98    	mov.w     w0, [w14+40]
    5816:	ce 10 90    	mov.w     [w14+40], w1
    5818:	e3 8f 50    	sub.w     w1, #0x3, [w15]
    581a:	54 00 32    	bra       Z, 0x58c4 <.L59>
    581c:	4e 12 90    	mov.w     [w14+40], w4
    581e:	e3 0f 52    	sub.w     w4, #0x3, [w15]
    5820:	07 00 3c    	bra       GT, 0x5830 <.L63>
    5822:	ce 12 90    	mov.w     [w14+40], w5
    5824:	e1 8f 52    	sub.w     w5, #0x1, [w15]
    5826:	75 00 32    	bra       Z, 0x5912 <.L57>
    5828:	4e 10 90    	mov.w     [w14+40], w0
    582a:	e2 0f 50    	sub.w     w0, #0x2, [w15]
    582c:	5f 00 32    	bra       Z, 0x58ec <.L58>
    582e:	8b 00 37    	bra       0x5946 <.L56>

00005830 <.L63>:
    5830:	ce 10 90    	mov.w     [w14+40], w1
    5832:	e5 8f 50    	sub.w     w1, #0x5, [w15]
    5834:	1a 00 32    	bra       Z, 0x586a <.L61>
    5836:	4e 12 90    	mov.w     [w14+40], w4
    5838:	e5 0f 52    	sub.w     w4, #0x5, [w15]
    583a:	30 00 35    	bra       LT, 0x589c <.L60>
    583c:	ce 12 90    	mov.w     [w14+40], w5
    583e:	e6 8f 52    	sub.w     w5, #0x6, [w15]
    5840:	01 00 32    	bra       Z, 0x5844 <.L62>
    5842:	81 00 37    	bra       0x5946 <.L56>

00005844 <.L62>:
    5844:	00 3a 80    	mov.w     0x740, w0
    5846:	80 1f 78    	mov.w     w0, [w15++]
    5848:	00 00 eb    	clr.w     w0
    584a:	80 1f 78    	mov.w     w0, [w15++]
    584c:	70 00 20    	mov.w     #0x7, w0
    584e:	80 1f 78    	mov.w     w0, [w15++]
    5850:	10 00 20    	mov.w     #0x1, w0
    5852:	80 1f 78    	mov.w     w0, [w15++]
    5854:	10 00 20    	mov.w     #0x1, w0
    5856:	80 1f 78    	mov.w     w0, [w15++]
    5858:	10 00 20    	mov.w     #0x1, w0
    585a:	80 1f 78    	mov.w     w0, [w15++]
    585c:	80 0a 2a    	mov.w     #0xa0a8, w0
    585e:	80 1f 78    	mov.w     w0, [w15++]
    5860:	9a ff 07    	rcall     0x5796 <_serial_output>
    5862:	ee 87 57    	sub.w     w15, #0xe, w15
    5864:	00 00 eb    	clr.w     w0
    5866:	00 3a 88    	mov.w     w0, 0x740
    5868:	6f 01 37    	bra       0x5b48 <.L64>

0000586a <.L61>:
    586a:	00 00 eb    	clr.w     w0
    586c:	80 1f 78    	mov.w     w0, [w15++]
    586e:	30 00 20    	mov.w     #0x3, w0
    5870:	80 1f 78    	mov.w     w0, [w15++]
    5872:	00 00 eb    	clr.w     w0
    5874:	80 1f 78    	mov.w     w0, [w15++]
    5876:	10 00 20    	mov.w     #0x1, w0
    5878:	80 1f 78    	mov.w     w0, [w15++]
    587a:	10 00 20    	mov.w     #0x1, w0
    587c:	80 1f 78    	mov.w     w0, [w15++]
    587e:	10 00 20    	mov.w     #0x1, w0
    5880:	80 1f 78    	mov.w     w0, [w15++]
    5882:	10 00 20    	mov.w     #0x1, w0
    5884:	80 1f 78    	mov.w     w0, [w15++]
    5886:	10 00 20    	mov.w     #0x1, w0
    5888:	80 1f 78    	mov.w     w0, [w15++]
    588a:	00 00 eb    	clr.w     w0
    588c:	80 1f 78    	mov.w     w0, [w15++]
    588e:	10 00 20    	mov.w     #0x1, w0
    5890:	80 1f 78    	mov.w     w0, [w15++]
    5892:	f0 0e 2a    	mov.w     #0xa0ef, w0
    5894:	80 1f 78    	mov.w     w0, [w15++]
    5896:	7f ff 07    	rcall     0x5796 <_serial_output>
    5898:	f6 87 57    	sub.w     w15, #0x16, w15
    589a:	56 01 37    	bra       0x5b48 <.L64>

0000589c <.L60>:
    589c:	00 00 20    	mov.w     #0x0, w0
    589e:	01 f8 23    	mov.w     #0x3f80, w1
    58a0:	80 9f be    	mov.d     w0, [w15++]
    58a2:	00 00 20    	mov.w     #0x0, w0
    58a4:	01 e0 23    	mov.w     #0x3e00, w1
    58a6:	80 9f be    	mov.d     w0, [w15++]
    58a8:	00 00 20    	mov.w     #0x0, w0
    58aa:	01 e8 23    	mov.w     #0x3e80, w1
    58ac:	80 9f be    	mov.d     w0, [w15++]
    58ae:	d0 cc 2c    	mov.w     #0xcccd, w0
    58b0:	c1 e4 23    	mov.w     #0x3e4c, w1
    58b2:	80 9f be    	mov.d     w0, [w15++]
    58b4:	d0 cc 2c    	mov.w     #0xcccd, w0
    58b6:	c1 dc 23    	mov.w     #0x3dcc, w1
    58b8:	80 9f be    	mov.d     w0, [w15++]
    58ba:	20 16 2a    	mov.w     #0xa162, w0
    58bc:	80 1f 78    	mov.w     w0, [w15++]
    58be:	6b ff 07    	rcall     0x5796 <_serial_output>
    58c0:	f6 87 57    	sub.w     w15, #0x16, w15
    58c2:	42 01 37    	bra       0x5b48 <.L64>

000058c4 <.L59>:
    58c4:	00 00 20    	mov.w     #0x0, w0
    58c6:	01 f0 23    	mov.w     #0x3f00, w1
    58c8:	80 9f be    	mov.d     w0, [w15++]
    58ca:	d0 cc 2c    	mov.w     #0xcccd, w0
    58cc:	c1 dc 23    	mov.w     #0x3dcc, w1
    58ce:	80 9f be    	mov.d     w0, [w15++]
    58d0:	00 00 20    	mov.w     #0x0, w0
    58d2:	01 f0 23    	mov.w     #0x3f00, w1
    58d4:	80 9f be    	mov.d     w0, [w15++]
    58d6:	00 00 20    	mov.w     #0x0, w0
    58d8:	01 d8 23    	mov.w     #0x3d80, w1
    58da:	80 9f be    	mov.d     w0, [w15++]
    58dc:	a0 99 29    	mov.w     #0x999a, w0
    58de:	91 e1 23    	mov.w     #0x3e19, w1
    58e0:	80 9f be    	mov.d     w0, [w15++]
    58e2:	c0 1a 2a    	mov.w     #0xa1ac, w0
    58e4:	80 1f 78    	mov.w     w0, [w15++]
    58e6:	57 ff 07    	rcall     0x5796 <_serial_output>
    58e8:	f6 87 57    	sub.w     w15, #0x16, w15
    58ea:	2e 01 37    	bra       0x5b48 <.L64>

000058ec <.L58>:
    58ec:	60 00 b8    	mul.uu    w0, #0x0, w0
    58ee:	80 9f be    	mov.d     w0, [w15++]
    58f0:	00 00 20    	mov.w     #0x0, w0
    58f2:	01 f8 23    	mov.w     #0x3f80, w1
    58f4:	80 9f be    	mov.d     w0, [w15++]
    58f6:	00 00 20    	mov.w     #0x0, w0
    58f8:	01 d8 23    	mov.w     #0x3d80, w1
    58fa:	80 9f be    	mov.d     w0, [w15++]
    58fc:	00 00 20    	mov.w     #0x0, w0
    58fe:	01 f0 23    	mov.w     #0x3f00, w1
    5900:	80 9f be    	mov.d     w0, [w15++]
    5902:	00 00 20    	mov.w     #0x0, w0
    5904:	01 d8 23    	mov.w     #0x3d80, w1
    5906:	80 9f be    	mov.d     w0, [w15++]
    5908:	80 1f 2a    	mov.w     #0xa1f8, w0
    590a:	80 1f 78    	mov.w     w0, [w15++]
    590c:	44 ff 07    	rcall     0x5796 <_serial_output>
    590e:	f6 87 57    	sub.w     w15, #0x16, w15
    5910:	1b 01 37    	bra       0x5b48 <.L64>

00005912 <.L57>:
    5912:	00 00 20    	mov.w     #0x0, w0
    5914:	01 17 2c    	mov.w     #0xc170, w1
    5916:	80 9f be    	mov.d     w0, [w15++]
    5918:	00 00 20    	mov.w     #0x0, w0
    591a:	01 17 24    	mov.w     #0x4170, w1
    591c:	80 9f be    	mov.d     w0, [w15++]
    591e:	00 00 20    	mov.w     #0x0, w0
    5920:	01 17 2c    	mov.w     #0xc170, w1
    5922:	80 9f be    	mov.d     w0, [w15++]
    5924:	00 00 20    	mov.w     #0x0, w0
    5926:	01 f8 23    	mov.w     #0x3f80, w1
    5928:	80 9f be    	mov.d     w0, [w15++]
    592a:	30 33 23    	mov.w     #0x3333, w0
    592c:	31 eb 23    	mov.w     #0x3eb3, w1
    592e:	80 9f be    	mov.d     w0, [w15++]
    5930:	00 00 20    	mov.w     #0x0, w0
    5932:	81 1c 24    	mov.w     #0x41c8, w1
    5934:	80 9f be    	mov.d     w0, [w15++]
    5936:	00 00 20    	mov.w     #0x0, w0
    5938:	81 2c 24    	mov.w     #0x42c8, w1
    593a:	80 9f be    	mov.d     w0, [w15++]
    593c:	a0 24 2a    	mov.w     #0xa24a, w0
    593e:	80 1f 78    	mov.w     w0, [w15++]
    5940:	2a ff 07    	rcall     0x5796 <_serial_output>
    5942:	fe 87 57    	sub.w     w15, #0x1e, w15
    5944:	01 01 37    	bra       0x5b48 <.L64>

00005946 <.L56>:
    5946:	4e ce bf    	mov.b     0xe4e, WREG
    5948:	00 04 e0    	cp0.b     w0
    594a:	a2 00 3a    	bra       NZ, 0x5a90 <.L65>

0000594c <.bb>:
    594c:	c4 cc bf    	mov.b     0xcc4, WREG
    594e:	00 84 fb    	ze        w0, w8
    5950:	da cc bf    	mov.b     0xcda, WREG
    5952:	80 84 fb    	ze        w0, w9
    5954:	ea 6f 80    	mov.w     0xdfc, w10
    5956:	db 6f 80    	mov.w     0xdfa, w11
    5958:	cc 6f 80    	mov.w     0xdf8, w12
    595a:	9d 73 80    	mov.w     0xe72, w13
    595c:	10 72 80    	mov.w     0xe42, w0
    595e:	30 17 98    	mov.w     w0, [w14+38]
    5960:	9d 17 07    	rcall     0x889c <_udb_cpu_load>
    5962:	00 80 fb    	ze        w0, w0
    5964:	50 17 98    	mov.w     w0, [w14+42]
    5966:	e2 65 80    	mov.w     0xcbc, w2
    5968:	f0 65 80    	mov.w     0xcbe, w0
    596a:	80 01 78    	mov.w     w0, w3
    596c:	a4 58 80    	mov.w     0xb14, w4
    596e:	95 58 80    	mov.w     0xb12, w5
    5970:	86 58 80    	mov.w     0xb10, w6
    5972:	77 58 80    	mov.w     0xb0e, w7
    5974:	61 58 80    	mov.w     0xb0c, w1
    5976:	21 17 98    	mov.w     w1, [w14+36]
    5978:	50 58 80    	mov.w     0xb0a, w0
    597a:	10 17 98    	mov.w     w0, [w14+34]
    597c:	41 58 80    	mov.w     0xb08, w1
    597e:	01 17 98    	mov.w     w1, [w14+32]
    5980:	30 58 80    	mov.w     0xb06, w0
    5982:	70 0f 98    	mov.w     w0, [w14+30]
    5984:	21 58 80    	mov.w     0xb04, w1
    5986:	61 0f 98    	mov.w     w1, [w14+28]
    5988:	c0 74 80    	mov.w     0xe98, w0
    598a:	50 0f 98    	mov.w     w0, [w14+26]
    598c:	40 65 80    	mov.w     0xca8, w0
    598e:	51 65 80    	mov.w     0xcaa, w1
    5990:	30 0f 98    	mov.w     w0, [w14+22]
    5992:	41 0f 98    	mov.w     w1, [w14+24]
    5994:	20 65 80    	mov.w     0xca4, w0
    5996:	31 65 80    	mov.w     0xca6, w1
    5998:	10 0f 98    	mov.w     w0, [w14+18]
    599a:	21 0f 98    	mov.w     w1, [w14+20]
    599c:	00 65 80    	mov.w     0xca0, w0
    599e:	11 65 80    	mov.w     0xca2, w1
    59a0:	70 07 98    	mov.w     w0, [w14+14]
    59a2:	01 0f 98    	mov.w     w1, [w14+16]
    59a4:	80 72 80    	mov.w     0xe50, w0
    59a6:	47 00 de    	lsr.w     w0, #0x7, w0
    59a8:	61 40 60    	and.b     w0, #0x1, w0
    59aa:	00 80 fb    	ze        w0, w0
    59ac:	60 07 98    	mov.w     w0, [w14+12]
    59ae:	b0 76 80    	mov.w     0xed6, w0
    59b0:	46 00 de    	lsr.w     w0, #0x6, w0
    59b2:	61 40 60    	and.b     w0, #0x1, w0
    59b4:	00 80 fb    	ze        w0, w0
    59b6:	50 07 98    	mov.w     w0, [w14+10]
    59b8:	d0 75 80    	mov.w     0xeba, w0
    59ba:	47 00 de    	lsr.w     w0, #0x7, w0
    59bc:	61 40 60    	and.b     w0, #0x1, w0
    59be:	00 80 fb    	ze        w0, w0
    59c0:	40 07 98    	mov.w     w0, [w14+8]
    59c2:	c0 65 80    	mov.w     0xcb8, w0
    59c4:	d1 65 80    	mov.w     0xcba, w1
    59c6:	20 07 98    	mov.w     w0, [w14+4]
    59c8:	31 07 98    	mov.w     w1, [w14+6]
    59ca:	88 1f 78    	mov.w     w8, [w15++]
    59cc:	89 1f 78    	mov.w     w9, [w15++]
    59ce:	00 00 eb    	clr.w     w0
    59d0:	80 1f 78    	mov.w     w0, [w15++]
    59d2:	00 00 eb    	clr.w     w0
    59d4:	80 1f 78    	mov.w     w0, [w15++]
    59d6:	00 00 eb    	clr.w     w0
    59d8:	80 1f 78    	mov.w     w0, [w15++]
    59da:	8a 1f 78    	mov.w     w10, [w15++]
    59dc:	8b 1f 78    	mov.w     w11, [w15++]
    59de:	8c 1f 78    	mov.w     w12, [w15++]
    59e0:	8d 1f 78    	mov.w     w13, [w15++]
    59e2:	be 10 90    	mov.w     [w14+38], w1
    59e4:	81 1f 78    	mov.w     w1, [w15++]
    59e6:	5e 10 90    	mov.w     [w14+42], w0
    59e8:	80 1f 78    	mov.w     w0, [w15++]
    59ea:	82 1f 78    	mov.w     w2, [w15++]
    59ec:	83 1f 78    	mov.w     w3, [w15++]
    59ee:	84 1f 78    	mov.w     w4, [w15++]
    59f0:	85 1f 78    	mov.w     w5, [w15++]
    59f2:	86 1f 78    	mov.w     w6, [w15++]
    59f4:	87 1f 78    	mov.w     w7, [w15++]
    59f6:	ae 10 90    	mov.w     [w14+36], w1
    59f8:	81 1f 78    	mov.w     w1, [w15++]
    59fa:	1e 12 90    	mov.w     [w14+34], w4
    59fc:	84 1f 78    	mov.w     w4, [w15++]
    59fe:	8e 12 90    	mov.w     [w14+32], w5
    5a00:	85 1f 78    	mov.w     w5, [w15++]
    5a02:	7e 08 90    	mov.w     [w14+30], w0
    5a04:	80 1f 78    	mov.w     w0, [w15++]
    5a06:	ee 08 90    	mov.w     [w14+28], w1
    5a08:	81 1f 78    	mov.w     w1, [w15++]
    5a0a:	5e 0a 90    	mov.w     [w14+26], w4
    5a0c:	84 1f 78    	mov.w     w4, [w15++]
    5a0e:	3e 08 90    	mov.w     [w14+22], w0
    5a10:	ce 08 90    	mov.w     [w14+24], w1
    5a12:	80 9f be    	mov.d     w0, [w15++]
    5a14:	1e 0a 90    	mov.w     [w14+18], w4
    5a16:	ae 0a 90    	mov.w     [w14+20], w5
    5a18:	84 9f be    	mov.d     w4, [w15++]
    5a1a:	7e 00 90    	mov.w     [w14+14], w0
    5a1c:	8e 08 90    	mov.w     [w14+16], w1
    5a1e:	80 9f be    	mov.d     w0, [w15++]
    5a20:	ee 00 90    	mov.w     [w14+12], w1
    5a22:	81 1f 78    	mov.w     w1, [w15++]
    5a24:	5e 02 90    	mov.w     [w14+10], w4
    5a26:	84 1f 78    	mov.w     w4, [w15++]
    5a28:	ce 02 90    	mov.w     [w14+8], w5
    5a2a:	85 1f 78    	mov.w     w5, [w15++]
    5a2c:	2e 00 90    	mov.w     [w14+4], w0
    5a2e:	be 00 90    	mov.w     [w14+6], w1
    5a30:	80 9f be    	mov.d     w0, [w15++]
    5a32:	10 2c 2a    	mov.w     #0xa2c1, w0
    5a34:	80 1f 78    	mov.w     w0, [w15++]
    5a36:	af fe 07    	rcall     0x5796 <_serial_output>
    5a38:	a0 fb 2f    	mov.w     #0xffba, w0
    5a3a:	80 87 47    	add.w     w15, w0, w15
    5a3c:	00 00 eb    	clr.w     w0
    5a3e:	10 07 98    	mov.w     w0, [w14+2]
    5a40:	0e 00 37    	bra       0x5a5e <.L67>

00005a42 <.L68>:
    5a42:	1e 01 90    	mov.w     [w14+2], w2
    5a44:	1e 00 90    	mov.w     [w14+2], w0
    5a46:	67 00 40    	add.w     w0, #0x7, w0
    5a48:	80 00 40    	add.w     w0, w0, w1
    5a4a:	80 95 20    	mov.w     #0x958, w0
    5a4c:	00 80 40    	add.w     w1, w0, w0
    5a4e:	90 01 78    	mov.w     [w0], w3
    5a50:	82 00 41    	add.w     w2, w2, w1
    5a52:	e0 d1 20    	mov.w     #0xd1e, w0
    5a54:	00 80 40    	add.w     w1, w0, w0
    5a56:	03 08 78    	mov.w     w3, [w0]
    5a58:	1e 00 90    	mov.w     [w14+2], w0
    5a5a:	00 00 e8    	inc.w     w0, w0
    5a5c:	10 07 98    	mov.w     w0, [w14+2]

00005a5e <.L67>:
    5a5e:	1e 00 90    	mov.w     [w14+2], w0
    5a60:	e8 0f 50    	sub.w     w0, #0x8, [w15]
    5a62:	ef ff 34    	bra       LE, 0x5a42 <.L68>
    5a64:	00 00 eb    	clr.w     w0
    5a66:	10 07 98    	mov.w     w0, [w14+2]
    5a68:	0d 00 37    	bra       0x5a84 <.L70>

00005a6a <.L71>:
    5a6a:	1e 01 90    	mov.w     [w14+2], w2
    5a6c:	1e 00 90    	mov.w     [w14+2], w0
    5a6e:	80 00 40    	add.w     w0, w0, w1
    5a70:	20 ba 20    	mov.w     #0xba2, w0
    5a72:	00 80 40    	add.w     w1, w0, w0
    5a74:	90 01 78    	mov.w     [w0], w3
    5a76:	82 00 41    	add.w     w2, w2, w1
    5a78:	00 d4 20    	mov.w     #0xd40, w0
    5a7a:	00 80 40    	add.w     w1, w0, w0
    5a7c:	03 08 78    	mov.w     w3, [w0]
    5a7e:	1e 00 90    	mov.w     [w14+2], w0
    5a80:	00 00 e8    	inc.w     w0, w0
    5a82:	10 07 98    	mov.w     w0, [w14+2]

00005a84 <.L70>:
    5a84:	1e 00 90    	mov.w     [w14+2], w0
    5a86:	e8 0f 50    	sub.w     w0, #0x8, [w15]
    5a88:	f0 ff 34    	bra       LE, 0x5a6a <.L71>
    5a8a:	10 c0 b3    	mov.b     #0x1, w0
    5a8c:	4e ee b7    	mov.b     WREG, 0xe4e
    5a8e:	44 00 37    	bra       0x5b18 <.L73>

00005a90 <.L65>:
    5a90:	10 00 20    	mov.w     #0x1, w0
    5a92:	00 0f 78    	mov.w     w0, [w14]
    5a94:	13 00 37    	bra       0x5abc <.L74>

00005a96 <.L75>:
    5a96:	1e 00 78    	mov.w     [w14], w0
    5a98:	80 00 40    	add.w     w0, w0, w1
    5a9a:	e0 d1 20    	mov.w     #0xd1e, w0
    5a9c:	00 80 40    	add.w     w1, w0, w0
    5a9e:	10 00 78    	mov.w     [w0], w0
    5aa0:	02 01 20    	mov.w     #0x10, w2
    5aa2:	11 00 09    	repeat    #0x11
    5aa4:	02 00 d8    	div.sw    w0, w2
    5aa6:	80 00 78    	mov.w     w0, w1
    5aa8:	80 bb 20    	mov.w     #0xbb8, w0
    5aaa:	00 80 40    	add.w     w1, w0, w0
    5aac:	80 1f 78    	mov.w     w0, [w15++]
    5aae:	9e 00 78    	mov.w     [w14], w1
    5ab0:	81 1f 78    	mov.w     w1, [w15++]
    5ab2:	e0 34 2a    	mov.w     #0xa34e, w0
    5ab4:	80 1f 78    	mov.w     w0, [w15++]
    5ab6:	6f fe 07    	rcall     0x5796 <_serial_output>
    5ab8:	e6 87 57    	sub.w     w15, #0x6, w15
    5aba:	1e 0f e8    	inc.w     [w14], [w14]

00005abc <.L74>:
    5abc:	84 00 20    	mov.w     #0x8, w4
    5abe:	9e 0f 12    	subr.w    w4, [w14], [w15]
    5ac0:	ea ff 34    	bra       LE, 0x5a96 <.L75>
    5ac2:	10 00 20    	mov.w     #0x1, w0
    5ac4:	00 0f 78    	mov.w     w0, [w14]
    5ac6:	13 00 37    	bra       0x5aee <.L77>

00005ac8 <.L78>:
    5ac8:	1e 00 78    	mov.w     [w14], w0
    5aca:	80 00 40    	add.w     w0, w0, w1
    5acc:	00 d4 20    	mov.w     #0xd40, w0
    5ace:	00 80 40    	add.w     w1, w0, w0
    5ad0:	10 00 78    	mov.w     [w0], w0
    5ad2:	cf 80 de    	asr.w     w0, #0xf, w1
    5ad4:	6b dd 07    	rcall     0x15ac <___floatsisf>
    5ad6:	02 00 20    	mov.w     #0x0, w2
    5ad8:	03 02 24    	mov.w     #0x4020, w3
    5ada:	e8 dd 07    	rcall     0x16ac <___divsf3>
    5adc:	c6 dd 07    	rcall     0x166a <___fixsfsi>
    5ade:	80 1f 78    	mov.w     w0, [w15++]
    5ae0:	9e 02 78    	mov.w     [w14], w5
    5ae2:	85 1f 78    	mov.w     w5, [w15++]
    5ae4:	60 35 2a    	mov.w     #0xa356, w0
    5ae6:	80 1f 78    	mov.w     w0, [w15++]
    5ae8:	56 fe 07    	rcall     0x5796 <_serial_output>
    5aea:	e6 87 57    	sub.w     w15, #0x6, w15
    5aec:	1e 0f e8    	inc.w     [w14], [w14]

00005aee <.L77>:
    5aee:	80 00 20    	mov.w     #0x8, w0
    5af0:	9e 0f 10    	subr.w    w0, [w14], [w15]
    5af2:	ea ff 34    	bra       LE, 0x5ac8 <.L78>
    5af4:	80 72 80    	mov.w     0xe50, w0
    5af6:	a1 67 80    	mov.w     0xcf4, w1
    5af8:	82 67 80    	mov.w     0xcf0, w2
    5afa:	63 67 80    	mov.w     0xcec, w3
    5afc:	80 1f 78    	mov.w     w0, [w15++]
    5afe:	81 1f 78    	mov.w     w1, [w15++]
    5b00:	82 1f 78    	mov.w     w2, [w15++]
    5b02:	83 1f 78    	mov.w     w3, [w15++]
    5b04:	e0 35 2a    	mov.w     #0xa35e, w0
    5b06:	80 1f 78    	mov.w     w0, [w15++]
    5b08:	46 fe 07    	rcall     0x5796 <_serial_output>
    5b0a:	ea 87 57    	sub.w     w15, #0xa, w15
    5b0c:	70 37 2a    	mov.w     #0xa377, w0
    5b0e:	80 1f 78    	mov.w     w0, [w15++]
    5b10:	42 fe 07    	rcall     0x5796 <_serial_output>
    5b12:	8f 87 e9    	dec2.w    w15, w15
    5b14:	00 40 eb    	clr.b     w0
    5b16:	4e ee b7    	mov.b     WREG, 0xe4e

00005b18 <.L73>:
    5b18:	80 72 80    	mov.w     0xe50, w0
    5b1a:	01 00 28    	mov.w     #0x8000, w1
    5b1c:	01 00 60    	and.w     w0, w1, w0
    5b1e:	00 00 e0    	cp0.w     w0
    5b20:	1c 00 32    	bra       Z, 0x5b5a <.L84>
    5b22:	4e ce bf    	mov.b     0xe4e, WREG
    5b24:	00 04 e0    	cp0.b     w0
    5b26:	19 00 3a    	bra       NZ, 0x5b5a <.L84>
    5b28:	80 65 80    	mov.w     0xcb0, w0
    5b2a:	91 65 80    	mov.w     0xcb2, w1
    5b2c:	62 65 80    	mov.w     0xcac, w2
    5b2e:	73 65 80    	mov.w     0xcae, w3
    5b30:	a4 65 80    	mov.w     0xcb4, w4
    5b32:	b5 65 80    	mov.w     0xcb6, w5
    5b34:	84 9f be    	mov.d     w4, [w15++]
    5b36:	80 9f be    	mov.d     w0, [w15++]
    5b38:	82 9f be    	mov.d     w2, [w15++]
    5b3a:	c2 0c f8    	push      0xcc2
    5b3c:	a0 37 2a    	mov.w     #0xa37a, w0
    5b3e:	80 1f 78    	mov.w     w0, [w15++]
    5b40:	2a fe 07    	rcall     0x5796 <_serial_output>
    5b42:	f0 87 57    	sub.w     w15, #0x10, w15
    5b44:	51 ee a9    	bclr.b    0xe51, #0x7
    5b46:	09 00 37    	bra       0x5b5a <.L84>

00005b48 <.L64>:
    5b48:	c0 65 80    	mov.w     0xcb8, w0
    5b4a:	d1 65 80    	mov.w     0xcba, w1
    5b4c:	a0 0f b0    	add.w     #0xfa, w0
    5b4e:	01 80 b0    	addc.w    #0x0, w1
    5b50:	c0 65 88    	mov.w     w0, 0xcb8
    5b52:	d1 65 88    	mov.w     w1, 0xcba
    5b54:	50 72 80    	mov.w     0xe4a, w0
    5b56:	00 00 e9    	dec.w     w0, w0
    5b58:	50 72 88    	mov.w     w0, 0xe4a

00005b5a <.L84>:
    5b5a:	4f 06 be    	mov.d     [--w15], w12
    5b5c:	4f 05 be    	mov.d     [--w15], w10
    5b5e:	4f 04 be    	mov.d     [--w15], w8
    5b60:	00 80 fa    	ulnk      
    5b62:	00 00 06    	return    

00005b64 <_dcm_init_rmat>:
    5b64:	00 00 fa    	lnk       #0x0
    5b66:	00 80 fa    	ulnk      
    5b68:	00 00 06    	return    

00005b6a <_VectorCross>:
    5b6a:	0a 00 fa    	lnk       #0xa
    5b6c:	20 07 98    	mov.w     w0, [w14+4]
    5b6e:	31 07 98    	mov.w     w1, [w14+6]
    5b70:	42 07 98    	mov.w     w2, [w14+8]
    5b72:	4e 00 90    	mov.w     [w14+8], w0
    5b74:	64 00 40    	add.w     w0, #0x4, w0
    5b76:	90 00 78    	mov.w     [w0], w1
    5b78:	3e 00 90    	mov.w     [w14+6], w0
    5b7a:	00 80 e8    	inc2.w    w0, w0
    5b7c:	10 00 78    	mov.w     [w0], w0
    5b7e:	01 80 b9    	mul.ss    w0, w1, w0
    5b80:	00 8f be    	mov.d     w0, [w14]
    5b82:	1e 01 be    	mov.d     [w14], w2
    5b84:	4e 00 90    	mov.w     [w14+8], w0
    5b86:	00 80 e8    	inc2.w    w0, w0
    5b88:	90 00 78    	mov.w     [w0], w1
    5b8a:	3e 00 90    	mov.w     [w14+6], w0
    5b8c:	64 00 40    	add.w     w0, #0x4, w0
    5b8e:	10 00 78    	mov.w     [w0], w0
    5b90:	01 80 b9    	mul.ss    w0, w1, w0
    5b92:	00 00 51    	sub.w     w2, w0, w0
    5b94:	81 80 59    	subb.w    w3, w1, w1
    5b96:	00 8f be    	mov.d     w0, [w14]
    5b98:	1e 00 be    	mov.d     [w14], w0
    5b9a:	42 09 dd    	sl.w      w1, #0x2, w2
    5b9c:	ce 00 de    	lsr.w     w0, #0xe, w1
    5b9e:	81 00 71    	ior.w     w2, w1, w1
    5ba0:	42 00 dd    	sl.w      w0, #0x2, w0
    5ba2:	00 8f be    	mov.d     w0, [w14]
    5ba4:	9e 00 90    	mov.w     [w14+2], w1
    5ba6:	2e 00 90    	mov.w     [w14+4], w0
    5ba8:	01 08 78    	mov.w     w1, [w0]
    5baa:	4e 00 90    	mov.w     [w14+8], w0
    5bac:	90 00 78    	mov.w     [w0], w1
    5bae:	3e 00 90    	mov.w     [w14+6], w0
    5bb0:	64 00 40    	add.w     w0, #0x4, w0
    5bb2:	10 00 78    	mov.w     [w0], w0
    5bb4:	01 80 b9    	mul.ss    w0, w1, w0
    5bb6:	00 8f be    	mov.d     w0, [w14]
    5bb8:	1e 01 be    	mov.d     [w14], w2
    5bba:	4e 00 90    	mov.w     [w14+8], w0
    5bbc:	64 00 40    	add.w     w0, #0x4, w0
    5bbe:	90 00 78    	mov.w     [w0], w1
    5bc0:	3e 00 90    	mov.w     [w14+6], w0
    5bc2:	10 00 78    	mov.w     [w0], w0
    5bc4:	01 80 b9    	mul.ss    w0, w1, w0
    5bc6:	00 00 51    	sub.w     w2, w0, w0
    5bc8:	81 80 59    	subb.w    w3, w1, w1
    5bca:	00 8f be    	mov.d     w0, [w14]
    5bcc:	1e 00 be    	mov.d     [w14], w0
    5bce:	42 09 dd    	sl.w      w1, #0x2, w2
    5bd0:	ce 00 de    	lsr.w     w0, #0xe, w1
    5bd2:	81 00 71    	ior.w     w2, w1, w1
    5bd4:	42 00 dd    	sl.w      w0, #0x2, w0
    5bd6:	00 8f be    	mov.d     w0, [w14]
    5bd8:	2e 00 90    	mov.w     [w14+4], w0
    5bda:	80 80 e8    	inc2.w    w0, w1
    5bdc:	1e 00 90    	mov.w     [w14+2], w0
    5bde:	80 08 78    	mov.w     w0, [w1]
    5be0:	4e 00 90    	mov.w     [w14+8], w0
    5be2:	00 80 e8    	inc2.w    w0, w0
    5be4:	90 00 78    	mov.w     [w0], w1
    5be6:	3e 00 90    	mov.w     [w14+6], w0
    5be8:	10 00 78    	mov.w     [w0], w0
    5bea:	01 80 b9    	mul.ss    w0, w1, w0
    5bec:	00 8f be    	mov.d     w0, [w14]
    5bee:	1e 01 be    	mov.d     [w14], w2
    5bf0:	4e 00 90    	mov.w     [w14+8], w0
    5bf2:	90 00 78    	mov.w     [w0], w1
    5bf4:	3e 00 90    	mov.w     [w14+6], w0
    5bf6:	00 80 e8    	inc2.w    w0, w0
    5bf8:	10 00 78    	mov.w     [w0], w0
    5bfa:	01 80 b9    	mul.ss    w0, w1, w0
    5bfc:	00 00 51    	sub.w     w2, w0, w0
    5bfe:	81 80 59    	subb.w    w3, w1, w1
    5c00:	00 8f be    	mov.d     w0, [w14]
    5c02:	1e 00 be    	mov.d     [w14], w0
    5c04:	42 09 dd    	sl.w      w1, #0x2, w2
    5c06:	ce 00 de    	lsr.w     w0, #0xe, w1
    5c08:	81 00 71    	ior.w     w2, w1, w1
    5c0a:	42 00 dd    	sl.w      w0, #0x2, w0
    5c0c:	00 8f be    	mov.d     w0, [w14]
    5c0e:	2e 00 90    	mov.w     [w14+4], w0
    5c10:	e4 00 40    	add.w     w0, #0x4, w1
    5c12:	1e 00 90    	mov.w     [w14+2], w0
    5c14:	80 08 78    	mov.w     w0, [w1]
    5c16:	00 80 fa    	ulnk      
    5c18:	00 00 06    	return    

00005c1a <_read_gyros>:
    5c1a:	06 00 fa    	lnk       #0x6
    5c1c:	00 00 eb    	clr.w     w0
    5c1e:	30 74 88    	mov.w     w0, 0xe86
    5c20:	90 62 80    	mov.w     0xc52, w0
    5c22:	80 80 d1    	asr.w     w0, w1
    5c24:	80 62 80    	mov.w     0xc50, w0
    5c26:	00 80 d1    	asr.w     w0, w0
    5c28:	80 80 50    	sub.w     w1, w0, w1
    5c2a:	30 74 80    	mov.w     0xe86, w0
    5c2c:	00 80 50    	sub.w     w1, w0, w0
    5c2e:	40 59 88    	mov.w     w0, 0xb28
    5c30:	40 59 80    	mov.w     0xb28, w0
    5c32:	20 07 98    	mov.w     w0, [w14+4]
    5c34:	c0 62 80    	mov.w     0xc58, w0
    5c36:	80 80 d1    	asr.w     w0, w1
    5c38:	b0 62 80    	mov.w     0xc56, w0
    5c3a:	00 80 d1    	asr.w     w0, w0
    5c3c:	80 80 50    	sub.w     w1, w0, w1
    5c3e:	30 74 80    	mov.w     0xe86, w0
    5c40:	00 80 50    	sub.w     w1, w0, w0
    5c42:	50 59 88    	mov.w     w0, 0xb2a
    5c44:	50 59 80    	mov.w     0xb2a, w0
    5c46:	10 07 98    	mov.w     w0, [w14+2]
    5c48:	f0 62 80    	mov.w     0xc5e, w0
    5c4a:	80 80 d1    	asr.w     w0, w1
    5c4c:	e0 62 80    	mov.w     0xc5c, w0
    5c4e:	00 80 d1    	asr.w     w0, w0
    5c50:	80 80 50    	sub.w     w1, w0, w1
    5c52:	30 74 80    	mov.w     0xe86, w0
    5c54:	00 80 50    	sub.w     w1, w0, w0
    5c56:	60 59 88    	mov.w     w0, 0xb2c
    5c58:	60 59 80    	mov.w     0xb2c, w0
    5c5a:	00 0f 78    	mov.w     w0, [w14]
    5c5c:	00 80 fa    	ulnk      
    5c5e:	00 00 06    	return    

00005c60 <_read_accel>:
    5c60:	00 00 fa    	lnk       #0x0
    5c62:	f0 61 80    	mov.w     0xc3e, w0
    5c64:	80 80 d1    	asr.w     w0, w1
    5c66:	00 62 80    	mov.w     0xc40, w0
    5c68:	00 80 d1    	asr.w     w0, w0
    5c6a:	00 80 50    	sub.w     w1, w0, w0
    5c6c:	20 5b 88    	mov.w     w0, 0xb64
    5c6e:	20 62 80    	mov.w     0xc44, w0
    5c70:	80 80 d1    	asr.w     w0, w1
    5c72:	30 62 80    	mov.w     0xc46, w0
    5c74:	00 80 d1    	asr.w     w0, w0
    5c76:	00 80 50    	sub.w     w1, w0, w0
    5c78:	30 5b 88    	mov.w     w0, 0xb66
    5c7a:	50 62 80    	mov.w     0xc4a, w0
    5c7c:	80 80 d1    	asr.w     w0, w1
    5c7e:	60 62 80    	mov.w     0xc4c, w0
    5c80:	00 80 d1    	asr.w     w0, w0
    5c82:	00 80 50    	sub.w     w1, w0, w0
    5c84:	40 5b 88    	mov.w     w0, 0xb68
    5c86:	10 c0 b3    	mov.b     #0x1, w0
    5c88:	e7 0f 07    	rcall     0x7c58 <_udb_setDSPLibInUse>
    5c8a:	42 b6 20    	mov.w     #0xb64, w2
    5c8c:	41 b0 20    	mov.w     #0xb04, w1
    5c8e:	30 00 20    	mov.w     #0x3, w0
    5c90:	a2 e1 07    	rcall     0x1fd6 <_VectorDotProduct>
    5c92:	00 00 40    	add.w     w0, w0, w0
    5c94:	00 5a 88    	mov.w     w0, 0xb40
    5c96:	a1 b0 20    	mov.w     #0xb0a, w1
    5c98:	42 b6 20    	mov.w     #0xb64, w2
    5c9a:	30 00 20    	mov.w     #0x3, w0
    5c9c:	9c e1 07    	rcall     0x1fd6 <_VectorDotProduct>
    5c9e:	00 00 ea    	neg.w     w0, w0
    5ca0:	00 00 40    	add.w     w0, w0, w0
    5ca2:	10 5a 88    	mov.w     w0, 0xb42
    5ca4:	01 b1 20    	mov.w     #0xb10, w1
    5ca6:	42 b6 20    	mov.w     #0xb64, w2
    5ca8:	30 00 20    	mov.w     #0x3, w0
    5caa:	95 e1 07    	rcall     0x1fd6 <_VectorDotProduct>
    5cac:	00 00 40    	add.w     w0, w0, w0
    5cae:	80 00 78    	mov.w     w0, w1
    5cb0:	10 83 2f    	mov.w     #0xf831, w0
    5cb2:	00 80 40    	add.w     w1, w0, w0
    5cb4:	20 5a 88    	mov.w     w0, 0xb44
    5cb6:	34 5a 80    	mov.w     0xb46, w4
    5cb8:	45 5a 80    	mov.w     0xb48, w5
    5cba:	00 5a 80    	mov.w     0xb40, w0
    5cbc:	cf 80 de    	asr.w     w0, #0xf, w1
    5cbe:	c0 01 dd    	sl.w      w0, #0x0, w3
    5cc0:	02 00 20    	mov.w     #0x0, w2
    5cc2:	30 5a 80    	mov.w     0xb46, w0
    5cc4:	41 5a 80    	mov.w     0xb48, w1
    5cc6:	00 00 51    	sub.w     w2, w0, w0
    5cc8:	81 80 59    	subb.w    w3, w1, w1
    5cca:	4b 09 dd    	sl.w      w1, #0xb, w2
    5ccc:	45 00 de    	lsr.w     w0, #0x5, w0
    5cce:	00 00 71    	ior.w     w2, w0, w0
    5cd0:	c5 88 de    	asr.w     w1, #0x5, w1
    5cd2:	04 00 40    	add.w     w0, w4, w0
    5cd4:	85 80 48    	addc.w    w1, w5, w1
    5cd6:	30 5a 88    	mov.w     w0, 0xb46
    5cd8:	41 5a 88    	mov.w     w1, 0xb48
    5cda:	54 5a 80    	mov.w     0xb4a, w4
    5cdc:	65 5a 80    	mov.w     0xb4c, w5
    5cde:	10 5a 80    	mov.w     0xb42, w0
    5ce0:	cf 80 de    	asr.w     w0, #0xf, w1
    5ce2:	c0 01 dd    	sl.w      w0, #0x0, w3
    5ce4:	02 00 20    	mov.w     #0x0, w2
    5ce6:	50 5a 80    	mov.w     0xb4a, w0
    5ce8:	61 5a 80    	mov.w     0xb4c, w1
    5cea:	00 00 51    	sub.w     w2, w0, w0
    5cec:	81 80 59    	subb.w    w3, w1, w1
    5cee:	4b 09 dd    	sl.w      w1, #0xb, w2
    5cf0:	45 00 de    	lsr.w     w0, #0x5, w0
    5cf2:	00 00 71    	ior.w     w2, w0, w0
    5cf4:	c5 88 de    	asr.w     w1, #0x5, w1
    5cf6:	04 00 40    	add.w     w0, w4, w0
    5cf8:	85 80 48    	addc.w    w1, w5, w1
    5cfa:	50 5a 88    	mov.w     w0, 0xb4a
    5cfc:	61 5a 88    	mov.w     w1, 0xb4c
    5cfe:	74 5a 80    	mov.w     0xb4e, w4
    5d00:	85 5a 80    	mov.w     0xb50, w5
    5d02:	20 5a 80    	mov.w     0xb44, w0
    5d04:	cf 80 de    	asr.w     w0, #0xf, w1
    5d06:	c0 01 dd    	sl.w      w0, #0x0, w3
    5d08:	02 00 20    	mov.w     #0x0, w2
    5d0a:	70 5a 80    	mov.w     0xb4e, w0
    5d0c:	81 5a 80    	mov.w     0xb50, w1
    5d0e:	00 00 51    	sub.w     w2, w0, w0
    5d10:	81 80 59    	subb.w    w3, w1, w1
    5d12:	4b 09 dd    	sl.w      w1, #0xb, w2
    5d14:	45 00 de    	lsr.w     w0, #0x5, w0
    5d16:	00 00 71    	ior.w     w2, w0, w0
    5d18:	c5 88 de    	asr.w     w1, #0x5, w1
    5d1a:	04 00 40    	add.w     w0, w4, w0
    5d1c:	85 80 48    	addc.w    w1, w5, w1
    5d1e:	70 5a 88    	mov.w     w0, 0xb4e
    5d20:	81 5a 88    	mov.w     w1, 0xb50
    5d22:	00 40 eb    	clr.b     w0
    5d24:	99 0f 07    	rcall     0x7c58 <_udb_setDSPLibInUse>
    5d26:	00 80 fa    	ulnk      
    5d28:	00 00 06    	return    

00005d2a <_omegaSOG>:
    5d2a:	0a 00 fa    	lnk       #0xa
    5d2c:	20 07 98    	mov.w     w0, [w14+4]
    5d2e:	31 07 98    	mov.w     w1, [w14+6]
    5d30:	3e 00 90    	mov.w     [w14+6], w0
    5d32:	43 00 de    	lsr.w     w0, #0x3, w0
    5d34:	30 07 98    	mov.w     w0, [w14+6]
    5d36:	ae 00 90    	mov.w     [w14+4], w1
    5d38:	3e 00 90    	mov.w     [w14+6], w0
    5d3a:	00 08 b9    	mul.su    w1, w0, w0
    5d3c:	00 8f be    	mov.d     w0, [w14]
    5d3e:	1e 00 90    	mov.w     [w14+2], w0
    5d40:	f1 0f 50    	sub.w     w0, #0x11, [w15]
    5d42:	03 00 34    	bra       LE, 0x5d4a <.L10>
    5d44:	00 00 24    	mov.w     #0x4000, w0
    5d46:	40 07 98    	mov.w     w0, [w14+8]
    5d48:	18 00 37    	bra       0x5d7a <.L12>

00005d4a <.L10>:
    5d4a:	1e 00 90    	mov.w     [w14+2], w0
    5d4c:	f1 0f 40    	add.w     w0, #0x11, [w15]
    5d4e:	03 00 3d    	bra       GE, 0x5d56 <.L13>
    5d50:	02 00 2c    	mov.w     #0xc000, w2
    5d52:	42 07 98    	mov.w     w2, [w14+8]
    5d54:	12 00 37    	bra       0x5d7a <.L12>

00005d56 <.L13>:
    5d56:	1e 00 be    	mov.d     [w14], w0
    5d58:	4b 09 dd    	sl.w      w1, #0xb, w2
    5d5a:	45 00 de    	lsr.w     w0, #0x5, w0
    5d5c:	00 00 71    	ior.w     w2, w0, w0
    5d5e:	c5 88 de    	asr.w     w1, #0x5, w1
    5d60:	00 8f be    	mov.d     w0, [w14]
    5d62:	9e 00 78    	mov.w     [w14], w1
    5d64:	30 3a 20    	mov.w     #0x3a3, w0
    5d66:	00 08 b9    	mul.su    w1, w0, w0
    5d68:	00 8f be    	mov.d     w0, [w14]
    5d6a:	1e 00 be    	mov.d     [w14], w0
    5d6c:	45 09 dd    	sl.w      w1, #0x5, w2
    5d6e:	cb 00 de    	lsr.w     w0, #0xb, w1
    5d70:	81 00 71    	ior.w     w2, w1, w1
    5d72:	45 00 dd    	sl.w      w0, #0x5, w0
    5d74:	00 8f be    	mov.d     w0, [w14]
    5d76:	1e 00 90    	mov.w     [w14+2], w0
    5d78:	40 07 98    	mov.w     w0, [w14+8]

00005d7a <.L12>:
    5d7a:	4e 00 90    	mov.w     [w14+8], w0
    5d7c:	00 80 fa    	ulnk      
    5d7e:	00 00 06    	return    

00005d80 <_adj_accel>:
    5d80:	00 00 fa    	lnk       #0x0
    5d82:	88 1f 78    	mov.w     w8, [w15++]
    5d84:	28 5b 80    	mov.w     0xb64, w8
    5d86:	e0 65 80    	mov.w     0xcbc, w0
    5d88:	80 00 78    	mov.w     w0, w1
    5d8a:	10 5b 80    	mov.w     0xb62, w0
    5d8c:	ce ff 07    	rcall     0x5d2a <_omegaSOG>
    5d8e:	00 00 54    	sub.w     w8, w0, w0
    5d90:	20 5b 88    	mov.w     w0, 0xb64
    5d92:	48 5b 80    	mov.w     0xb68, w8
    5d94:	e0 65 80    	mov.w     0xcbc, w0
    5d96:	80 00 78    	mov.w     w0, w1
    5d98:	f0 5a 80    	mov.w     0xb5e, w0
    5d9a:	c7 ff 07    	rcall     0x5d2a <_omegaSOG>
    5d9c:	00 00 44    	add.w     w8, w0, w0
    5d9e:	40 5b 88    	mov.w     w0, 0xb68
    5da0:	31 5b 80    	mov.w     0xb66, w1
    5da2:	70 73 80    	mov.w     0xe6e, w0
    5da4:	00 00 40    	add.w     w0, w0, w0
    5da6:	00 80 40    	add.w     w1, w0, w0
    5da8:	30 5b 88    	mov.w     w0, 0xb66
    5daa:	4f 04 78    	mov.w     [--w15], w8
    5dac:	00 80 fa    	ulnk      
    5dae:	00 00 06    	return    

00005db0 <_rupdate>:
    5db0:	00 00 fa    	lnk       #0x0
    5db2:	10 c0 b3    	mov.b     #0x1, w0
    5db4:	51 0f 07    	rcall     0x7c58 <_udb_setDSPLibInUse>
    5db6:	a3 b3 20    	mov.w     #0xb3a, w3
    5db8:	82 b2 20    	mov.w     #0xb28, w2
    5dba:	e1 b5 20    	mov.w     #0xb5e, w1
    5dbc:	30 00 20    	mov.w     #0x3, w0
    5dbe:	18 e1 07    	rcall     0x1ff0 <_VectorAdd>
    5dc0:	43 b3 20    	mov.w     #0xb34, w3
    5dc2:	e2 b5 20    	mov.w     #0xb5e, w2
    5dc4:	e1 b2 20    	mov.w     #0xb2e, w1
    5dc6:	30 00 20    	mov.w     #0x3, w0
    5dc8:	13 e1 07    	rcall     0x1ff0 <_VectorAdd>
    5dca:	10 58 80    	mov.w     0xb02, w0
    5dcc:	80 01 78    	mov.w     w0, w3
    5dce:	e2 b2 20    	mov.w     #0xb2e, w2
    5dd0:	61 b7 20    	mov.w     #0xb76, w1
    5dd2:	30 00 20    	mov.w     #0x3, w0
    5dd4:	1c e1 07    	rcall     0x200e <_VectorScale>
    5dd6:	d0 5b 80    	mov.w     0xb7a, w0
    5dd8:	00 00 ea    	neg.w     w0, w0
    5dda:	c0 58 88    	mov.w     w0, 0xb18
    5ddc:	c0 5b 80    	mov.w     0xb78, w0
    5dde:	d0 58 88    	mov.w     w0, 0xb1a
    5de0:	d0 5b 80    	mov.w     0xb7a, w0
    5de2:	e0 58 88    	mov.w     w0, 0xb1c
    5de4:	b0 5b 80    	mov.w     0xb76, w0
    5de6:	00 00 ea    	neg.w     w0, w0
    5de8:	00 59 88    	mov.w     w0, 0xb20
    5dea:	c0 5b 80    	mov.w     0xb78, w0
    5dec:	00 00 ea    	neg.w     w0, w0
    5dee:	10 59 88    	mov.w     w0, 0xb22
    5df0:	b0 5b 80    	mov.w     0xb76, w0
    5df2:	20 59 88    	mov.w     w0, 0xb24
    5df4:	65 b1 20    	mov.w     #0xb16, w5
    5df6:	44 b0 20    	mov.w     #0xb04, w4
    5df8:	c3 b7 20    	mov.w     #0xb7c, w3
    5dfa:	32 00 20    	mov.w     #0x3, w2
    5dfc:	31 00 20    	mov.w     #0x3, w1
    5dfe:	30 00 20    	mov.w     #0x3, w0
    5e00:	14 e1 07    	rcall     0x202a <_MatrixMultiply>
    5e02:	c4 b7 20    	mov.w     #0xb7c, w4
    5e04:	c3 b7 20    	mov.w     #0xb7c, w3
    5e06:	42 b0 20    	mov.w     #0xb04, w2
    5e08:	31 00 20    	mov.w     #0x3, w1
    5e0a:	30 00 20    	mov.w     #0x3, w0
    5e0c:	31 e1 07    	rcall     0x2070 <_MatrixAdd>
    5e0e:	00 40 eb    	clr.b     w0
    5e10:	23 0f 07    	rcall     0x7c58 <_udb_setDSPLibInUse>
    5e12:	00 80 fa    	ulnk      
    5e14:	00 00 06    	return    

00005e16 <_normalize>:
    5e16:	04 00 fa    	lnk       #0x4
    5e18:	10 c0 b3    	mov.b     #0x1, w0
    5e1a:	1e 0f 07    	rcall     0x7c58 <_udb_setDSPLibInUse>
    5e1c:	a2 b0 20    	mov.w     #0xb0a, w2
    5e1e:	41 b0 20    	mov.w     #0xb04, w1
    5e20:	30 00 20    	mov.w     #0x3, w0
    5e22:	d9 e0 07    	rcall     0x1fd6 <_VectorDotProduct>
    5e24:	00 00 ea    	neg.w     w0, w0
    5e26:	00 5d 88    	mov.w     w0, 0xba0
    5e28:	00 5d 80    	mov.w     0xba0, w0
    5e2a:	a2 b0 20    	mov.w     #0xb0a, w2
    5e2c:	80 01 78    	mov.w     w0, w3
    5e2e:	c1 b7 20    	mov.w     #0xb7c, w1
    5e30:	30 00 20    	mov.w     #0x3, w0
    5e32:	ed e0 07    	rcall     0x200e <_VectorScale>
    5e34:	00 5d 80    	mov.w     0xba0, w0
    5e36:	21 b8 20    	mov.w     #0xb82, w1
    5e38:	80 01 78    	mov.w     w0, w3
    5e3a:	42 b0 20    	mov.w     #0xb04, w2
    5e3c:	30 00 20    	mov.w     #0x3, w0
    5e3e:	e7 e0 07    	rcall     0x200e <_VectorScale>
    5e40:	43 b0 20    	mov.w     #0xb04, w3
    5e42:	c2 b7 20    	mov.w     #0xb7c, w2
    5e44:	c1 b7 20    	mov.w     #0xb7c, w1
    5e46:	30 00 20    	mov.w     #0x3, w0
    5e48:	d3 e0 07    	rcall     0x1ff0 <_VectorAdd>
    5e4a:	a0 b0 20    	mov.w     #0xb0a, w0
    5e4c:	22 b8 20    	mov.w     #0xb82, w2
    5e4e:	21 b8 20    	mov.w     #0xb82, w1
    5e50:	80 01 78    	mov.w     w0, w3
    5e52:	30 00 20    	mov.w     #0x3, w0
    5e54:	cd e0 07    	rcall     0x1ff0 <_VectorAdd>
    5e56:	22 b8 20    	mov.w     #0xb82, w2
    5e58:	80 b8 20    	mov.w     #0xb88, w0
    5e5a:	c1 b7 20    	mov.w     #0xb7c, w1
    5e5c:	86 fe 07    	rcall     0x5b6a <_VectorCross>
    5e5e:	c1 b7 20    	mov.w     #0xb7c, w1
    5e60:	30 00 20    	mov.w     #0x3, w0
    5e62:	16 e1 07    	rcall     0x2090 <_VectorPower>
    5e64:	10 07 98    	mov.w     w0, [w14+2]
    5e66:	01 00 26    	mov.w     #0x6000, w1
    5e68:	1e 00 90    	mov.w     [w14+2], w0
    5e6a:	00 8f 50    	sub.w     w1, w0, [w14]
    5e6c:	9e 01 78    	mov.w     [w14], w3
    5e6e:	c2 b7 20    	mov.w     #0xb7c, w2
    5e70:	c1 b7 20    	mov.w     #0xb7c, w1
    5e72:	30 00 20    	mov.w     #0x3, w0
    5e74:	cc e0 07    	rcall     0x200e <_VectorScale>
    5e76:	c3 b7 20    	mov.w     #0xb7c, w3
    5e78:	c2 b7 20    	mov.w     #0xb7c, w2
    5e7a:	41 b0 20    	mov.w     #0xb04, w1
    5e7c:	30 00 20    	mov.w     #0x3, w0
    5e7e:	b8 e0 07    	rcall     0x1ff0 <_VectorAdd>
    5e80:	21 b8 20    	mov.w     #0xb82, w1
    5e82:	30 00 20    	mov.w     #0x3, w0
    5e84:	05 e1 07    	rcall     0x2090 <_VectorPower>
    5e86:	10 07 98    	mov.w     w0, [w14+2]
    5e88:	01 00 26    	mov.w     #0x6000, w1
    5e8a:	1e 00 90    	mov.w     [w14+2], w0
    5e8c:	00 8f 50    	sub.w     w1, w0, [w14]
    5e8e:	22 b8 20    	mov.w     #0xb82, w2
    5e90:	21 b8 20    	mov.w     #0xb82, w1
    5e92:	9e 01 78    	mov.w     [w14], w3
    5e94:	30 00 20    	mov.w     #0x3, w0
    5e96:	bb e0 07    	rcall     0x200e <_VectorScale>
    5e98:	20 b8 20    	mov.w     #0xb82, w0
    5e9a:	22 b8 20    	mov.w     #0xb82, w2
    5e9c:	a1 b0 20    	mov.w     #0xb0a, w1
    5e9e:	80 01 78    	mov.w     w0, w3
    5ea0:	30 00 20    	mov.w     #0x3, w0
    5ea2:	a6 e0 07    	rcall     0x1ff0 <_VectorAdd>
    5ea4:	81 b8 20    	mov.w     #0xb88, w1
    5ea6:	30 00 20    	mov.w     #0x3, w0
    5ea8:	f3 e0 07    	rcall     0x2090 <_VectorPower>
    5eaa:	10 07 98    	mov.w     w0, [w14+2]
    5eac:	01 00 26    	mov.w     #0x6000, w1
    5eae:	1e 00 90    	mov.w     [w14+2], w0
    5eb0:	00 8f 50    	sub.w     w1, w0, [w14]
    5eb2:	82 b8 20    	mov.w     #0xb88, w2
    5eb4:	81 b8 20    	mov.w     #0xb88, w1
    5eb6:	9e 01 78    	mov.w     [w14], w3
    5eb8:	30 00 20    	mov.w     #0x3, w0
    5eba:	a9 e0 07    	rcall     0x200e <_VectorScale>
    5ebc:	80 b8 20    	mov.w     #0xb88, w0
    5ebe:	82 b8 20    	mov.w     #0xb88, w2
    5ec0:	01 b1 20    	mov.w     #0xb10, w1
    5ec2:	80 01 78    	mov.w     w0, w3
    5ec4:	30 00 20    	mov.w     #0x3, w0
    5ec6:	94 e0 07    	rcall     0x1ff0 <_VectorAdd>
    5ec8:	00 40 eb    	clr.b     w0
    5eca:	c6 0e 07    	rcall     0x7c58 <_udb_setDSPLibInUse>
    5ecc:	00 80 fa    	ulnk      
    5ece:	00 00 06    	return    

00005ed0 <_roll_pitch_drift>:
    5ed0:	00 00 fa    	lnk       #0x0
    5ed2:	10 c0 b3    	mov.b     #0x1, w0
    5ed4:	c1 0e 07    	rcall     0x7c58 <_udb_setDSPLibInUse>
    5ed6:	02 b1 20    	mov.w     #0xb10, w2
    5ed8:	41 b6 20    	mov.w     #0xb64, w1
    5eda:	e0 b8 20    	mov.w     #0xb8e, w0
    5edc:	46 fe 07    	rcall     0x5b6a <_VectorCross>
    5ede:	00 40 eb    	clr.b     w0
    5ee0:	bb 0e 07    	rcall     0x7c58 <_udb_setDSPLibInUse>
    5ee2:	00 80 fa    	ulnk      
    5ee4:	00 00 06    	return    

00005ee6 <_yaw_drift>:
    5ee6:	00 00 fa    	lnk       #0x0
    5ee8:	b0 76 80    	mov.w     0xed6, w0
    5eea:	70 00 60    	and.w     w0, #0x10, w0
    5eec:	00 00 e0    	cp0.w     w0
    5eee:	1b 00 32    	bra       Z, 0x5f26 <.L30>
    5ef0:	61 73 80    	mov.w     0xe6c, w1
    5ef2:	60 09 20    	mov.w     #0x96, w0
    5ef4:	80 8f 50    	sub.w     w1, w0, [w15]
    5ef6:	10 00 34    	bra       LE, 0x5f18 <.L27>
    5ef8:	10 c0 b3    	mov.b     #0x1, w0
    5efa:	ae 0e 07    	rcall     0x7c58 <_udb_setDSPLibInUse>
    5efc:	a2 b6 20    	mov.w     #0xb6a, w2
    5efe:	01 b7 20    	mov.w     #0xb70, w1
    5f00:	40 b9 20    	mov.w     #0xb94, w0
    5f02:	33 fe 07    	rcall     0x5b6a <_VectorCross>
    5f04:	45 b0 20    	mov.w     #0xb04, w5
    5f06:	44 b9 20    	mov.w     #0xb94, w4
    5f08:	a3 b9 20    	mov.w     #0xb9a, w3
    5f0a:	32 00 20    	mov.w     #0x3, w2
    5f0c:	31 00 20    	mov.w     #0x3, w1
    5f0e:	10 00 20    	mov.w     #0x1, w0
    5f10:	8c e0 07    	rcall     0x202a <_MatrixMultiply>
    5f12:	00 40 eb    	clr.b     w0
    5f14:	a1 0e 07    	rcall     0x7c58 <_udb_setDSPLibInUse>
    5f16:	06 00 37    	bra       0x5f24 <.L29>

00005f18 <.L27>:
    5f18:	00 00 eb    	clr.w     w0
    5f1a:	f0 5c 88    	mov.w     w0, 0xb9e
    5f1c:	f0 5c 80    	mov.w     0xb9e, w0
    5f1e:	e0 5c 88    	mov.w     w0, 0xb9c
    5f20:	e0 5c 80    	mov.w     0xb9c, w0
    5f22:	d0 5c 88    	mov.w     w0, 0xb9a

00005f24 <.L29>:
    5f24:	d6 8e a9    	bclr.b    0xed6, #0x4

00005f26 <.L30>:
    5f26:	00 80 fa    	ulnk      
    5f28:	00 00 06    	return    

00005f2a <_PI_feedback>:
    5f2a:	06 00 fa    	lnk       #0x6
    5f2c:	10 c0 b3    	mov.b     #0x1, w0
    5f2e:	94 0e 07    	rcall     0x7c58 <_udb_setDSPLibInUse>
    5f30:	03 40 20    	mov.w     #0x400, w3
    5f32:	a2 b9 20    	mov.w     #0xb9a, w2
    5f34:	41 b3 20    	mov.w     #0xb34, w1
    5f36:	30 00 20    	mov.w     #0x3, w0
    5f38:	6a e0 07    	rcall     0x200e <_VectorScale>
    5f3a:	03 a0 20    	mov.w     #0xa00, w3
    5f3c:	e2 b8 20    	mov.w     #0xb8e, w2
    5f3e:	8e 00 78    	mov.w     w14, w1
    5f40:	30 00 20    	mov.w     #0x3, w0
    5f42:	65 e0 07    	rcall     0x200e <_VectorScale>
    5f44:	8e 01 78    	mov.w     w14, w3
    5f46:	42 b3 20    	mov.w     #0xb34, w2
    5f48:	41 b3 20    	mov.w     #0xb34, w1
    5f4a:	30 00 20    	mov.w     #0x3, w0
    5f4c:	51 e0 07    	rcall     0x1ff0 <_VectorAdd>
    5f4e:	00 40 eb    	clr.b     w0
    5f50:	83 0e 07    	rcall     0x7c58 <_udb_setDSPLibInUse>
    5f52:	92 5a 80    	mov.w     0xb52, w2
    5f54:	a3 5a 80    	mov.w     0xb54, w3
    5f56:	71 5c 80    	mov.w     0xb8e, w1
    5f58:	00 20 20    	mov.w     #0x200, w0
    5f5a:	00 88 b9    	mul.ss    w1, w0, w0
    5f5c:	4d 0a dd    	sl.w      w1, #0xd, w4
    5f5e:	43 00 de    	lsr.w     w0, #0x3, w0
    5f60:	00 00 72    	ior.w     w4, w0, w0
    5f62:	c3 88 de    	asr.w     w1, #0x3, w1
    5f64:	02 00 40    	add.w     w0, w2, w0
    5f66:	83 80 48    	addc.w    w1, w3, w1
    5f68:	90 5a 88    	mov.w     w0, 0xb52
    5f6a:	a1 5a 88    	mov.w     w1, 0xb54
    5f6c:	b2 5a 80    	mov.w     0xb56, w2
    5f6e:	c3 5a 80    	mov.w     0xb58, w3
    5f70:	81 5c 80    	mov.w     0xb90, w1
    5f72:	00 20 20    	mov.w     #0x200, w0
    5f74:	00 88 b9    	mul.ss    w1, w0, w0
    5f76:	4d 0a dd    	sl.w      w1, #0xd, w4
    5f78:	43 00 de    	lsr.w     w0, #0x3, w0
    5f7a:	00 00 72    	ior.w     w4, w0, w0
    5f7c:	c3 88 de    	asr.w     w1, #0x3, w1
    5f7e:	02 00 40    	add.w     w0, w2, w0
    5f80:	83 80 48    	addc.w    w1, w3, w1
    5f82:	b0 5a 88    	mov.w     w0, 0xb56
    5f84:	c1 5a 88    	mov.w     w1, 0xb58
    5f86:	d2 5a 80    	mov.w     0xb5a, w2
    5f88:	e3 5a 80    	mov.w     0xb5c, w3
    5f8a:	91 5c 80    	mov.w     0xb92, w1
    5f8c:	00 20 20    	mov.w     #0x200, w0
    5f8e:	00 88 b9    	mul.ss    w1, w0, w0
    5f90:	4d 0a dd    	sl.w      w1, #0xd, w4
    5f92:	43 00 de    	lsr.w     w0, #0x3, w0
    5f94:	00 00 72    	ior.w     w4, w0, w0
    5f96:	c3 88 de    	asr.w     w1, #0x3, w1
    5f98:	02 00 40    	add.w     w0, w2, w0
    5f9a:	83 80 48    	addc.w    w1, w3, w1
    5f9c:	d0 5a 88    	mov.w     w0, 0xb5a
    5f9e:	e1 5a 88    	mov.w     w1, 0xb5c
    5fa0:	92 5a 80    	mov.w     0xb52, w2
    5fa2:	a3 5a 80    	mov.w     0xb54, w3
    5fa4:	d1 5c 80    	mov.w     0xb9a, w1
    5fa6:	00 02 20    	mov.w     #0x20, w0
    5fa8:	00 88 b9    	mul.ss    w1, w0, w0
    5faa:	4d 0a dd    	sl.w      w1, #0xd, w4
    5fac:	43 00 de    	lsr.w     w0, #0x3, w0
    5fae:	00 00 72    	ior.w     w4, w0, w0
    5fb0:	c3 88 de    	asr.w     w1, #0x3, w1
    5fb2:	02 00 40    	add.w     w0, w2, w0
    5fb4:	83 80 48    	addc.w    w1, w3, w1
    5fb6:	90 5a 88    	mov.w     w0, 0xb52
    5fb8:	a1 5a 88    	mov.w     w1, 0xb54
    5fba:	b2 5a 80    	mov.w     0xb56, w2
    5fbc:	c3 5a 80    	mov.w     0xb58, w3
    5fbe:	e1 5c 80    	mov.w     0xb9c, w1
    5fc0:	00 02 20    	mov.w     #0x20, w0
    5fc2:	00 88 b9    	mul.ss    w1, w0, w0
    5fc4:	4d 0a dd    	sl.w      w1, #0xd, w4
    5fc6:	43 00 de    	lsr.w     w0, #0x3, w0
    5fc8:	00 00 72    	ior.w     w4, w0, w0
    5fca:	c3 88 de    	asr.w     w1, #0x3, w1
    5fcc:	02 00 40    	add.w     w0, w2, w0
    5fce:	83 80 48    	addc.w    w1, w3, w1
    5fd0:	b0 5a 88    	mov.w     w0, 0xb56
    5fd2:	c1 5a 88    	mov.w     w1, 0xb58
    5fd4:	d2 5a 80    	mov.w     0xb5a, w2
    5fd6:	e3 5a 80    	mov.w     0xb5c, w3
    5fd8:	f1 5c 80    	mov.w     0xb9e, w1
    5fda:	00 02 20    	mov.w     #0x20, w0
    5fdc:	00 88 b9    	mul.ss    w1, w0, w0
    5fde:	4d 0a dd    	sl.w      w1, #0xd, w4
    5fe0:	43 00 de    	lsr.w     w0, #0x3, w0
    5fe2:	00 00 72    	ior.w     w4, w0, w0
    5fe4:	c3 88 de    	asr.w     w1, #0x3, w1
    5fe6:	02 00 40    	add.w     w0, w2, w0
    5fe8:	83 80 48    	addc.w    w1, w3, w1
    5fea:	d0 5a 88    	mov.w     w0, 0xb5a
    5fec:	e1 5a 88    	mov.w     w1, 0xb5c
    5fee:	a0 5a 80    	mov.w     0xb54, w0
    5ff0:	43 80 de    	asr.w     w0, #0x3, w0
    5ff2:	d0 59 88    	mov.w     w0, 0xb3a
    5ff4:	c0 5a 80    	mov.w     0xb58, w0
    5ff6:	43 80 de    	asr.w     w0, #0x3, w0
    5ff8:	e0 59 88    	mov.w     w0, 0xb3c
    5ffa:	e0 5a 80    	mov.w     0xb5c, w0
    5ffc:	43 80 de    	asr.w     w0, #0x3, w0
    5ffe:	f0 59 88    	mov.w     w0, 0xb3e
    6000:	00 80 fa    	ulnk      
    6002:	00 00 06    	return    

00006004 <_dcm_run_imu_step>:
    6004:	00 00 fa    	lnk       #0x0
    6006:	09 fe 07    	rcall     0x5c1a <_read_gyros>
    6008:	2b fe 07    	rcall     0x5c60 <_read_accel>
    600a:	a8 11 07    	rcall     0x835c <_dead_reckon>
    600c:	b9 fe 07    	rcall     0x5d80 <_adj_accel>
    600e:	d0 fe 07    	rcall     0x5db0 <_rupdate>
    6010:	02 ff 07    	rcall     0x5e16 <_normalize>
    6012:	5e ff 07    	rcall     0x5ed0 <_roll_pitch_drift>
    6014:	68 ff 07    	rcall     0x5ee6 <_yaw_drift>
    6016:	89 ff 07    	rcall     0x5f2a <_PI_feedback>
    6018:	00 80 fa    	ulnk      
    601a:	00 00 06    	return    

0000601c <_udb_init_gyros>:
    601c:	04 00 fa    	lnk       #0x4
    601e:	e5 a2 a9    	bclr.b    0x2e5, #0x5
    6020:	e5 c2 bf    	mov.b     0x2e5, WREG
    6022:	00 80 fb    	ze        w0, w0
    6024:	45 00 de    	lsr.w     w0, #0x5, w0
    6026:	61 40 60    	and.b     w0, #0x1, w0
    6028:	61 40 60    	and.b     w0, #0x1, w0
    602a:	44 01 dd    	sl.w      w0, #0x4, w2
    602c:	51 2e 20    	mov.w     #0x2e5, w1
    602e:	91 40 78    	mov.b     [w1], w1
    6030:	f0 ce b3    	mov.b     #0xef, w0
    6032:	00 c0 60    	and.b     w1, w0, w0
    6034:	02 40 70    	ior.b     w0, w2, w0
    6036:	e5 e2 b7    	mov.b     WREG, 0x2e5
    6038:	e9 a2 a9    	bclr.b    0x2e9, #0x5
    603a:	e9 c2 bf    	mov.b     0x2e9, WREG
    603c:	00 80 fb    	ze        w0, w0
    603e:	45 00 de    	lsr.w     w0, #0x5, w0
    6040:	61 40 60    	and.b     w0, #0x1, w0
    6042:	61 40 60    	and.b     w0, #0x1, w0
    6044:	44 01 dd    	sl.w      w0, #0x4, w2
    6046:	91 2e 20    	mov.w     #0x2e9, w1
    6048:	91 40 78    	mov.b     [w1], w1
    604a:	f0 ce b3    	mov.b     #0xef, w0
    604c:	00 c0 60    	and.b     w1, w0, w0
    604e:	02 40 70    	ior.b     w0, w2, w0
    6050:	e9 e2 b7    	mov.b     WREG, 0x2e9
    6052:	00 7c 27    	mov.w     #0x77c0, w0
    6054:	03 18 07    	rcall     0x905c <_MDSFIRDelayInit>
    6056:	e0 7c 27    	mov.w     #0x77ce, w0
    6058:	01 18 07    	rcall     0x905c <_MDSFIRDelayInit>
    605a:	c0 7d 27    	mov.w     #0x77dc, w0
    605c:	ff 17 07    	rcall     0x905c <_MDSFIRDelayInit>
    605e:	00 00 eb    	clr.w     w0
    6060:	10 07 98    	mov.w     w0, [w14+2]
    6062:	49 00 37    	bra       0x60f6 <.L2>

00006064 <.L3>:
    6064:	1e 00 90    	mov.w     [w14+2], w0
    6066:	74 00 b9    	mul.su    w0, #0x14, w0
    6068:	80 00 78    	mov.w     w0, w1
    606a:	00 c0 27    	mov.w     #0x7c00, w0
    606c:	80 80 40    	add.w     w1, w0, w1
    606e:	00 00 eb    	clr.w     w0
    6070:	80 08 78    	mov.w     w0, [w1]
    6072:	1e 00 90    	mov.w     [w14+2], w0
    6074:	74 00 b9    	mul.su    w0, #0x14, w0
    6076:	80 80 e8    	inc2.w    w0, w1
    6078:	00 c0 27    	mov.w     #0x7c00, w0
    607a:	80 80 40    	add.w     w1, w0, w1
    607c:	a0 00 20    	mov.w     #0xa, w0
    607e:	80 08 78    	mov.w     w0, [w1]
    6080:	1e 00 90    	mov.w     [w14+2], w0
    6082:	74 00 b9    	mul.su    w0, #0x14, w0
    6084:	e4 00 40    	add.w     w0, #0x4, w1
    6086:	00 c0 27    	mov.w     #0x7c00, w0
    6088:	80 80 40    	add.w     w1, w0, w1
    608a:	50 ff 20    	mov.w     #0xff5, w0
    608c:	80 08 78    	mov.w     w0, [w1]
    608e:	1e 00 90    	mov.w     [w14+2], w0
    6090:	74 00 b9    	mul.su    w0, #0x14, w0
    6092:	e6 00 40    	add.w     w0, #0x6, w1
    6094:	00 c0 27    	mov.w     #0x7c00, w0
    6096:	80 80 40    	add.w     w1, w0, w1
    6098:	f0 ff 20    	mov.w     #0xfff, w0
    609a:	80 08 78    	mov.w     w0, [w1]
    609c:	1e 00 90    	mov.w     [w14+2], w0
    609e:	74 00 b9    	mul.su    w0, #0x14, w0
    60a0:	e8 00 40    	add.w     w0, #0x8, w1
    60a2:	00 c0 27    	mov.w     #0x7c00, w0
    60a4:	80 80 40    	add.w     w1, w0, w1
    60a6:	90 19 20    	mov.w     #0x199, w0
    60a8:	80 08 78    	mov.w     w0, [w1]
    60aa:	1e 00 90    	mov.w     [w14+2], w0
    60ac:	74 00 b9    	mul.su    w0, #0x14, w0
    60ae:	ea 00 40    	add.w     w0, #0xa, w1
    60b0:	00 c0 27    	mov.w     #0x7c00, w0
    60b2:	80 80 40    	add.w     w1, w0, w1
    60b4:	00 40 20    	mov.w     #0x400, w0
    60b6:	80 08 78    	mov.w     w0, [w1]
    60b8:	1e 00 90    	mov.w     [w14+2], w0
    60ba:	74 00 b9    	mul.su    w0, #0x14, w0
    60bc:	ec 00 40    	add.w     w0, #0xc, w1
    60be:	00 c0 27    	mov.w     #0x7c00, w0
    60c0:	80 80 40    	add.w     w1, w0, w1
    60c2:	00 80 20    	mov.w     #0x800, w0
    60c4:	80 08 78    	mov.w     w0, [w1]
    60c6:	1e 00 90    	mov.w     [w14+2], w0
    60c8:	74 00 b9    	mul.su    w0, #0x14, w0
    60ca:	ee 00 40    	add.w     w0, #0xe, w1
    60cc:	00 c0 27    	mov.w     #0x7c00, w0
    60ce:	80 80 40    	add.w     w1, w0, w1
    60d0:	00 c0 20    	mov.w     #0xc00, w0
    60d2:	80 08 78    	mov.w     w0, [w1]
    60d4:	1e 00 90    	mov.w     [w14+2], w0
    60d6:	74 00 b9    	mul.su    w0, #0x14, w0
    60d8:	f0 00 40    	add.w     w0, #0x10, w1
    60da:	00 c0 27    	mov.w     #0x7c00, w0
    60dc:	80 80 40    	add.w     w1, w0, w1
    60de:	70 e6 20    	mov.w     #0xe67, w0
    60e0:	80 08 78    	mov.w     w0, [w1]
    60e2:	1e 00 90    	mov.w     [w14+2], w0
    60e4:	74 00 b9    	mul.su    w0, #0x14, w0
    60e6:	f2 00 40    	add.w     w0, #0x12, w1
    60e8:	00 c0 27    	mov.w     #0x7c00, w0
    60ea:	80 80 40    	add.w     w1, w0, w1
    60ec:	00 00 eb    	clr.w     w0
    60ee:	80 08 78    	mov.w     w0, [w1]
    60f0:	1e 00 90    	mov.w     [w14+2], w0
    60f2:	00 00 e8    	inc.w     w0, w0
    60f4:	10 07 98    	mov.w     w0, [w14+2]

000060f6 <.L2>:
    60f6:	1e 00 90    	mov.w     [w14+2], w0
    60f8:	ef 0f 50    	sub.w     w0, #0xf, [w15]
    60fa:	b4 ff 34    	bra       LE, 0x6064 <.L3>
    60fc:	00 80 fa    	ulnk      
    60fe:	00 00 06    	return    

00006100 <_udb_init_accelerometer>:
    6100:	00 00 fa    	lnk       #0x0
    6102:	00 d6 22    	mov.w     #0x2d60, w0
    6104:	ab 17 07    	rcall     0x905c <_MDSFIRDelayInit>
    6106:	e0 d6 22    	mov.w     #0x2d6e, w0
    6108:	a9 17 07    	rcall     0x905c <_MDSFIRDelayInit>
    610a:	c0 d7 22    	mov.w     #0x2d7c, w0
    610c:	a7 17 07    	rcall     0x905c <_MDSFIRDelayInit>
    610e:	00 80 fa    	ulnk      
    6110:	00 00 06    	return    

00006112 <_udb_init_ADC>:
    6112:	00 00 fa    	lnk       #0x0
    6114:	83 ff 07    	rcall     0x601c <_udb_init_gyros>
    6116:	f4 ff 07    	rcall     0x6100 <_udb_init_accelerometer>
    6118:	ba ce a8    	bset.b    0xeba, #0x6
    611a:	00 00 eb    	clr.w     w0
    611c:	80 1b 88    	mov.w     w0, 0x370
    611e:	80 1b 80    	mov.w     0x370, w0
    6120:	70 19 88    	mov.w     w0, 0x32e
    6122:	70 19 80    	mov.w     0x32e, w0
    6124:	80 19 88    	mov.w     w0, 0x330
    6126:	40 f2 2f    	mov.w     #0xff24, w0
    6128:	60 19 88    	mov.w     w0, 0x32c
    612a:	60 19 80    	mov.w     0x32c, w0
    612c:	60 1b 88    	mov.w     w0, 0x36c
    612e:	f0 03 20    	mov.w     #0x3f, w0
    6130:	50 19 88    	mov.w     w0, 0x32a
    6132:	00 fc 2f    	mov.w     #0xffc0, w0
    6134:	70 19 88    	mov.w     w0, 0x32e
    6136:	21 43 a8    	bset.b    0x321, #0x2
    6138:	11 32 20    	mov.w     #0x321, w1
    613a:	91 40 78    	mov.b     [w1], w1
    613c:	c0 cf b3    	mov.b     #0xfc, w0
    613e:	00 c0 60    	and.b     w1, w0, w0
    6140:	21 e3 b7    	mov.b     WREG, 0x321
    6142:	01 32 20    	mov.w     #0x320, w1
    6144:	91 40 78    	mov.b     [w1], w1
    6146:	00 ce b3    	mov.b     #0xe0, w0
    6148:	00 c0 70    	ior.b     w1, w0, w0
    614a:	20 e3 b7    	mov.b     WREG, 0x320
    614c:	20 43 a8    	bset.b    0x320, #0x2
    614e:	20 63 a9    	bclr.b    0x320, #0x3
    6150:	23 c3 bf    	mov.b     0x323, WREG
    6152:	7f 40 60    	and.b     w0, #0x1f, w0
    6154:	23 e3 b7    	mov.b     WREG, 0x323
    6156:	23 43 a8    	bset.b    0x323, #0x2
    6158:	22 03 a9    	bclr.b    0x322, #0x0
    615a:	22 23 a8    	bset.b    0x322, #0x1
    615c:	51 32 20    	mov.w     #0x325, w1
    615e:	91 40 78    	mov.b     [w1], w1
    6160:	00 ce b3    	mov.b     #0xe0, w0
    6162:	00 c0 60    	and.b     w1, w0, w0
    6164:	60 40 b3    	ior.b     #0x6, w0
    6166:	25 e3 b7    	mov.b     WREG, 0x325
    6168:	40 c0 b3    	mov.b     #0x4, w0
    616a:	24 e3 b7    	mov.b     WREG, 0x324
    616c:	21 83 a8    	bset.b    0x321, #0x4
    616e:	21 32 20    	mov.w     #0x322, w1
    6170:	91 40 78    	mov.b     [w1], w1
    6172:	30 cc b3    	mov.b     #0xc3, w0
    6174:	00 c0 60    	and.b     w1, w0, w0
    6176:	41 c2 b3    	mov.b     #0x24, w1
    6178:	01 40 70    	ior.b     w0, w1, w0
    617a:	22 e3 b7    	mov.b     WREG, 0x322
    617c:	21 33 20    	mov.w     #0x332, w1
    617e:	91 40 78    	mov.b     [w1], w1
    6180:	80 cf b3    	mov.b     #0xf8, w0
    6182:	00 c0 60    	and.b     w1, w0, w0
    6184:	00 24 a0    	bset.b    w0, #0x2
    6186:	32 e3 b7    	mov.b     WREG, 0x332
    6188:	01 38 20    	mov.w     #0x380, w1
    618a:	91 40 78    	mov.b     [w1], w1
    618c:	f0 cc b3    	mov.b     #0xcf, w0
    618e:	00 c0 60    	and.b     w1, w0, w0
    6190:	80 e3 b7    	mov.b     WREG, 0x380
    6192:	01 38 20    	mov.w     #0x380, w1
    6194:	91 40 78    	mov.b     [w1], w1
    6196:	c0 cf b3    	mov.b     #0xfc, w0
    6198:	00 c0 60    	and.b     w1, w0, w0
    619a:	00 14 a0    	bset.b    w0, #0x1
    619c:	80 e3 b7    	mov.b     WREG, 0x380
    619e:	81 c3 a9    	bclr.b    0x381, #0x6
    61a0:	81 a3 a9    	bclr.b    0x381, #0x5
    61a2:	81 83 a9    	bclr.b    0x381, #0x4
    61a4:	d0 00 20    	mov.w     #0xd, w0
    61a6:	10 1c 88    	mov.w     w0, 0x382
    61a8:	00 00 20    	mov.w     #0x0, w0
    61aa:	20 1c 88    	mov.w     w0, 0x384
    61ac:	00 20 20    	mov.w     #0x200, w0
    61ae:	30 1c 88    	mov.w     w0, 0x386
    61b0:	00 30 20    	mov.w     #0x300, w0
    61b2:	40 1c 88    	mov.w     w0, 0x388
    61b4:	f0 09 20    	mov.w     #0x9f, w0
    61b6:	50 1c 88    	mov.w     w0, 0x38a
    61b8:	84 80 a9    	bclr.b    0x84, #0x4
    61ba:	94 80 a8    	bset.b    0x94, #0x4
    61bc:	81 e3 a8    	bset.b    0x381, #0x7
    61be:	85 a0 a9    	bclr.b    0x85, #0x5
    61c0:	a1 0a 20    	mov.w     #0xaa, w1
    61c2:	91 40 78    	mov.b     [w1], w1
    61c4:	f0 c8 b3    	mov.b     #0x8f, w0
    61c6:	00 c0 60    	and.b     w1, w0, w0
    61c8:	01 c5 b3    	mov.b     #0x50, w1
    61ca:	01 40 70    	ior.b     w0, w1, w0
    61cc:	aa e0 b7    	mov.b     WREG, 0xaa
    61ce:	95 a0 a9    	bclr.b    0x95, #0x5
    61d0:	21 e3 a8    	bset.b    0x321, #0x7
    61d2:	00 80 fa    	ulnk      
    61d4:	00 00 06    	return    

000061d6 <__DMA0Interrupt>:
    61d6:	36 00 f8    	push      0x36
    61d8:	80 9f be    	mov.d     w0, [w15++]
    61da:	82 9f be    	mov.d     w2, [w15++]
    61dc:	84 9f be    	mov.d     w4, [w15++]
    61de:	86 9f be    	mov.d     w6, [w15++]
    61e0:	06 00 fa    	lnk       #0x6
    61e2:	21 e1 a8    	bset.b    0x121, #0x7
    61e4:	90 74 80    	mov.w     0xe92, w0
    61e6:	00 00 e0    	cp0.w     w0
    61e8:	1a 00 32    	bra       Z, 0x621e <.L11>

000061ea <.bb>:
    61ea:	44 00 f8    	push      0x44
    61ec:	42 00 f8    	push      0x42
    61ee:	46 00 f8    	push      0x46
    61f0:	50 00 f8    	push      0x50
    61f2:	22 00 f8    	push      0x22
    61f4:	24 00 f8    	push      0x24
    61f6:	26 00 f8    	push      0x26
    61f8:	28 00 f8    	push      0x28
    61fa:	2a 00 f8    	push      0x2a
    61fc:	2c 00 f8    	push      0x2c
    61fe:	36 00 f8    	push      0x36
    6200:	38 00 f8    	push      0x38
    6202:	3a 00 f8    	push      0x3a
    6204:	3c 00 f8    	push      0x3c
    6206:	3e 00 f8    	push      0x3e
    6208:	40 00 f8    	push      0x40
    620a:	10 00 20    	mov.w     #0x1, w0
    620c:	20 07 98    	mov.w     w0, [w14+4]
    620e:	2e 00 90    	mov.w     [w14+4], w0
    6210:	80 1f 78    	mov.w     w0, [w15++]
    6212:	20 07 98    	mov.w     w0, [w14+4]
    6214:	a0 74 80    	mov.w     0xe94, w0
    6216:	20 02 88    	mov.w     w0, 0x44
    6218:	00 00 eb    	clr.w     w0
    621a:	90 74 88    	mov.w     w0, 0xe92
    621c:	05 00 37    	bra       0x6228 <.L13>

0000621e <.L11>:
    621e:	00 00 eb    	clr.w     w0
    6220:	10 07 98    	mov.w     w0, [w14+2]
    6222:	1e 00 90    	mov.w     [w14+2], w0
    6224:	80 1f 78    	mov.w     w0, [w15++]
    6226:	10 07 98    	mov.w     w0, [w14+2]

00006228 <.L13>:
    6228:	10 c0 b3    	mov.b     #0x1, w0
    622a:	16 0d 07    	rcall     0x7c58 <_udb_setDSPLibInUse>
    622c:	60 76 80    	mov.w     0xecc, w0
    622e:	00 00 e0    	cp0.w     w0
    6230:	04 00 3a    	bra       NZ, 0x623a <.L14>
    6232:	00 80 27    	mov.w     #0x7800, w0
    6234:	01 d0 22    	mov.w     #0x2d00, w1
    6236:	18 17 07    	rcall     0x9068 <_superSample>
    6238:	03 00 37    	bra       0x6240 <.L16>

0000623a <.L14>:
    623a:	00 a0 27    	mov.w     #0x7a00, w0
    623c:	01 d0 22    	mov.w     #0x2d00, w1
    623e:	14 17 07    	rcall     0x9068 <_superSample>

00006240 <.L16>:
    6240:	00 40 eb    	clr.b     w0
    6242:	0a 0d 07    	rcall     0x7c58 <_udb_setDSPLibInUse>
    6244:	60 76 80    	mov.w     0xecc, w0
    6246:	00 00 a2    	btg.w     w0, #0x0
    6248:	60 76 88    	mov.w     w0, 0xecc
    624a:	84 80 a9    	bclr.b    0x84, #0x4
    624c:	32 63 80    	mov.w     0xc66, w2
    624e:	11 68 81    	mov.w     0x2d02, w1
    6250:	30 68 81    	mov.w     0x2d06, w0
    6252:	80 81 50    	sub.w     w1, w0, w3
    6254:	02 00 41    	add.w     w2, w2, w0
    6256:	01 10 20    	mov.w     #0x100, w1
    6258:	80 80 40    	add.w     w1, w0, w1
    625a:	00 e0 22    	mov.w     #0x2e00, w0
    625c:	00 80 40    	add.w     w1, w0, w0
    625e:	03 08 78    	mov.w     w3, [w0]
    6260:	32 63 80    	mov.w     0xc66, w2
    6262:	41 68 81    	mov.w     0x2d08, w1
    6264:	70 68 81    	mov.w     0x2d0e, w0
    6266:	80 81 50    	sub.w     w1, w0, w3
    6268:	02 00 41    	add.w     w2, w2, w0
    626a:	01 08 20    	mov.w     #0x80, w1
    626c:	80 80 40    	add.w     w1, w0, w1
    626e:	00 e0 22    	mov.w     #0x2e00, w0
    6270:	00 80 40    	add.w     w1, w0, w0
    6272:	03 08 78    	mov.w     w3, [w0]
    6274:	32 63 80    	mov.w     0xc66, w2
    6276:	91 68 81    	mov.w     0x2d12, w1
    6278:	70 68 81    	mov.w     0x2d0e, w0
    627a:	80 81 50    	sub.w     w1, w0, w3
    627c:	02 00 41    	add.w     w2, w2, w0
    627e:	01 18 20    	mov.w     #0x180, w1
    6280:	80 80 40    	add.w     w1, w0, w1
    6282:	00 e0 22    	mov.w     #0x2e00, w0
    6284:	00 80 40    	add.w     w1, w0, w0
    6286:	03 08 78    	mov.w     w3, [w0]
    6288:	30 63 80    	mov.w     0xc66, w0
    628a:	00 00 e8    	inc.w     w0, w0
    628c:	30 63 88    	mov.w     w0, 0xc66
    628e:	31 63 80    	mov.w     0xc66, w1
    6290:	00 04 20    	mov.w     #0x40, w0
    6292:	80 8f 50    	sub.w     w1, w0, [w15]
    6294:	02 00 34    	bra       LE, 0x629a <.L17>
    6296:	00 00 eb    	clr.w     w0
    6298:	30 63 88    	mov.w     w0, 0xc66

0000629a <.L17>:
    629a:	1e 00 78    	mov.w     [w14], w0
    629c:	4f 00 78    	mov.w     [--w15], w0
    629e:	00 0f 78    	mov.w     w0, [w14]
    62a0:	1e 00 e0    	cp0.w     [w14]
    62a2:	12 00 32    	bra       Z, 0x62c8 <.L21>
    62a4:	40 00 f9    	pop       0x40
    62a6:	3e 00 f9    	pop       0x3e
    62a8:	3c 00 f9    	pop       0x3c
    62aa:	3a 00 f9    	pop       0x3a
    62ac:	38 00 f9    	pop       0x38
    62ae:	36 00 f9    	pop       0x36
    62b0:	2c 00 f9    	pop       0x2c
    62b2:	2a 00 f9    	pop       0x2a
    62b4:	28 00 f9    	pop       0x28
    62b6:	26 00 f9    	pop       0x26
    62b8:	24 00 f9    	pop       0x24
    62ba:	22 00 f9    	pop       0x22
    62bc:	50 00 f9    	pop       0x50
    62be:	46 00 f9    	pop       0x46
    62c0:	42 00 f9    	pop       0x42
    62c2:	44 00 f9    	pop       0x44
    62c4:	10 00 20    	mov.w     #0x1, w0
    62c6:	90 74 88    	mov.w     w0, 0xe92

000062c8 <.L21>:
    62c8:	00 80 fa    	ulnk      
    62ca:	4f 03 be    	mov.d     [--w15], w6
    62cc:	4f 02 be    	mov.d     [--w15], w4
    62ce:	4f 01 be    	mov.d     [--w15], w2
    62d0:	4f 00 be    	mov.d     [--w15], w0
    62d2:	36 00 f9    	pop       0x36
    62d4:	00 40 06    	retfie    

000062d6 <__ADC2Interrupt>:
    62d6:	80 9f be    	mov.d     w0, [w15++]
    62d8:	82 1f 78    	mov.w     w2, [w15++]
    62da:	08 00 fa    	lnk       #0x8
    62dc:	90 74 80    	mov.w     0xe92, w0
    62de:	00 00 e0    	cp0.w     w0
    62e0:	1a 00 32    	bra       Z, 0x6316 <.L23>

000062e2 <.bb>:
    62e2:	44 00 f8    	push      0x44
    62e4:	42 00 f8    	push      0x42
    62e6:	46 00 f8    	push      0x46
    62e8:	50 00 f8    	push      0x50
    62ea:	22 00 f8    	push      0x22
    62ec:	24 00 f8    	push      0x24
    62ee:	26 00 f8    	push      0x26
    62f0:	28 00 f8    	push      0x28
    62f2:	2a 00 f8    	push      0x2a
    62f4:	2c 00 f8    	push      0x2c
    62f6:	36 00 f8    	push      0x36
    62f8:	38 00 f8    	push      0x38
    62fa:	3a 00 f8    	push      0x3a
    62fc:	3c 00 f8    	push      0x3c
    62fe:	3e 00 f8    	push      0x3e
    6300:	40 00 f8    	push      0x40
    6302:	10 00 20    	mov.w     #0x1, w0
    6304:	20 07 98    	mov.w     w0, [w14+4]
    6306:	2e 00 90    	mov.w     [w14+4], w0
    6308:	80 1f 78    	mov.w     w0, [w15++]
    630a:	20 07 98    	mov.w     w0, [w14+4]
    630c:	a0 74 80    	mov.w     0xe94, w0
    630e:	20 02 88    	mov.w     w0, 0x44
    6310:	00 00 eb    	clr.w     w0
    6312:	90 74 88    	mov.w     w0, 0xe92
    6314:	05 00 37    	bra       0x6320 <.L25>

00006316 <.L23>:
    6316:	00 00 eb    	clr.w     w0
    6318:	10 07 98    	mov.w     w0, [w14+2]
    631a:	1e 00 90    	mov.w     [w14+2], w0
    631c:	80 1f 78    	mov.w     w0, [w15++]
    631e:	10 07 98    	mov.w     w0, [w14+2]

00006320 <.L25>:
    6320:	21 e1 a8    	bset.b    0x121, #0x7
    6322:	86 a0 a9    	bclr.b    0x86, #0x5
    6324:	50 76 80    	mov.w     0xeca, w0
    6326:	30 07 98    	mov.w     w0, [w14+6]
    6328:	3e 00 90    	mov.w     [w14+6], w0
    632a:	e1 0f 40    	add.w     w0, #0x1, [w15]
    632c:	64 00 32    	bra       Z, 0x63f6 <.L29>
    632e:	3e 00 90    	mov.w     [w14+6], w0
    6330:	e1 0f 40    	add.w     w0, #0x1, [w15]
    6332:	07 00 3c    	bra       GT, 0x6342 <.L33>
    6334:	3e 00 90    	mov.w     [w14+6], w0
    6336:	e3 0f 40    	add.w     w0, #0x3, [w15]
    6338:	4a 00 32    	bra       Z, 0x63ce <.L27>
    633a:	3e 00 90    	mov.w     [w14+6], w0
    633c:	e2 0f 40    	add.w     w0, #0x2, [w15]
    633e:	70 00 32    	bra       Z, 0x6420 <.L28>
    6340:	84 00 37    	bra       0x644a <.L26>

00006342 <.L33>:
    6342:	3e 00 90    	mov.w     [w14+6], w0
    6344:	e6 0f 50    	sub.w     w0, #0x6, [w15]
    6346:	2f 00 32    	bra       Z, 0x63a6 <.L31>
    6348:	3e 00 90    	mov.w     [w14+6], w0
    634a:	ea 0f 50    	sub.w     w0, #0xa, [w15]
    634c:	18 00 32    	bra       Z, 0x637e <.L32>
    634e:	3e 00 90    	mov.w     [w14+6], w0
    6350:	e2 0f 50    	sub.w     w0, #0x2, [w15]
    6352:	01 00 32    	bra       Z, 0x6356 <.L30>
    6354:	7a 00 37    	bra       0x644a <.L26>

00006356 <.L30>:
    6356:	00 1a 80    	mov.w     0x340, w0
    6358:	a0 62 88    	mov.w     w0, 0xc54
    635a:	d1 75 80    	mov.w     0xeba, w1
    635c:	00 04 20    	mov.w     #0x40, w0
    635e:	00 80 60    	and.w     w1, w0, w0
    6360:	00 00 e0    	cp0.w     w0
    6362:	03 00 32    	bra       Z, 0x636a <.L34>
    6364:	a0 62 80    	mov.w     0xc54, w0
    6366:	b0 62 88    	mov.w     w0, 0xc56
    6368:	70 00 37    	bra       0x644a <.L26>

0000636a <.L34>:
    636a:	b2 62 80    	mov.w     0xc56, w2
    636c:	a0 62 80    	mov.w     0xc54, w0
    636e:	80 80 d1    	asr.w     w0, w1
    6370:	b0 62 80    	mov.w     0xc56, w0
    6372:	00 80 d1    	asr.w     w0, w0
    6374:	00 80 50    	sub.w     w1, w0, w0
    6376:	43 80 de    	asr.w     w0, #0x3, w0
    6378:	00 00 41    	add.w     w2, w0, w0
    637a:	b0 62 88    	mov.w     w0, 0xc56
    637c:	66 00 37    	bra       0x644a <.L26>

0000637e <.L32>:
    637e:	00 1a 80    	mov.w     0x340, w0
    6380:	d0 62 88    	mov.w     w0, 0xc5a
    6382:	d1 75 80    	mov.w     0xeba, w1
    6384:	00 04 20    	mov.w     #0x40, w0
    6386:	00 80 60    	and.w     w1, w0, w0
    6388:	00 00 e0    	cp0.w     w0
    638a:	03 00 32    	bra       Z, 0x6392 <.L37>
    638c:	d0 62 80    	mov.w     0xc5a, w0
    638e:	e0 62 88    	mov.w     w0, 0xc5c
    6390:	5c 00 37    	bra       0x644a <.L26>

00006392 <.L37>:
    6392:	e2 62 80    	mov.w     0xc5c, w2
    6394:	d0 62 80    	mov.w     0xc5a, w0
    6396:	80 80 d1    	asr.w     w0, w1
    6398:	e0 62 80    	mov.w     0xc5c, w0
    639a:	00 80 d1    	asr.w     w0, w0
    639c:	00 80 50    	sub.w     w1, w0, w0
    639e:	43 80 de    	asr.w     w0, #0x3, w0
    63a0:	00 00 41    	add.w     w2, w0, w0
    63a2:	e0 62 88    	mov.w     w0, 0xc5c
    63a4:	52 00 37    	bra       0x644a <.L26>

000063a6 <.L31>:
    63a6:	00 1a 80    	mov.w     0x340, w0
    63a8:	70 62 88    	mov.w     w0, 0xc4e
    63aa:	d1 75 80    	mov.w     0xeba, w1
    63ac:	00 04 20    	mov.w     #0x40, w0
    63ae:	00 80 60    	and.w     w1, w0, w0
    63b0:	00 00 e0    	cp0.w     w0
    63b2:	03 00 32    	bra       Z, 0x63ba <.L40>
    63b4:	70 62 80    	mov.w     0xc4e, w0
    63b6:	80 62 88    	mov.w     w0, 0xc50
    63b8:	48 00 37    	bra       0x644a <.L26>

000063ba <.L40>:
    63ba:	82 62 80    	mov.w     0xc50, w2
    63bc:	70 62 80    	mov.w     0xc4e, w0
    63be:	80 80 d1    	asr.w     w0, w1
    63c0:	80 62 80    	mov.w     0xc50, w0
    63c2:	00 80 d1    	asr.w     w0, w0
    63c4:	00 80 50    	sub.w     w1, w0, w0
    63c6:	43 80 de    	asr.w     w0, #0x3, w0
    63c8:	00 00 41    	add.w     w2, w0, w0
    63ca:	80 62 88    	mov.w     w0, 0xc50
    63cc:	3e 00 37    	bra       0x644a <.L26>

000063ce <.L27>:
    63ce:	00 1a 80    	mov.w     0x340, w0
    63d0:	40 62 88    	mov.w     w0, 0xc48
    63d2:	d1 75 80    	mov.w     0xeba, w1
    63d4:	00 04 20    	mov.w     #0x40, w0
    63d6:	00 80 60    	and.w     w1, w0, w0
    63d8:	00 00 e0    	cp0.w     w0
    63da:	03 00 32    	bra       Z, 0x63e2 <.L43>
    63dc:	40 62 80    	mov.w     0xc48, w0
    63de:	50 62 88    	mov.w     w0, 0xc4a
    63e0:	34 00 37    	bra       0x644a <.L26>

000063e2 <.L43>:
    63e2:	52 62 80    	mov.w     0xc4a, w2
    63e4:	40 62 80    	mov.w     0xc48, w0
    63e6:	80 80 d1    	asr.w     w0, w1
    63e8:	50 62 80    	mov.w     0xc4a, w0
    63ea:	00 80 d1    	asr.w     w0, w0
    63ec:	00 80 50    	sub.w     w1, w0, w0
    63ee:	43 80 de    	asr.w     w0, #0x3, w0
    63f0:	00 00 41    	add.w     w2, w0, w0
    63f2:	50 62 88    	mov.w     w0, 0xc4a
    63f4:	2a 00 37    	bra       0x644a <.L26>

000063f6 <.L29>:
    63f6:	00 1a 80    	mov.w     0x340, w0
    63f8:	00 00 ea    	neg.w     w0, w0
    63fa:	e0 61 88    	mov.w     w0, 0xc3c
    63fc:	d1 75 80    	mov.w     0xeba, w1
    63fe:	00 04 20    	mov.w     #0x40, w0
    6400:	00 80 60    	and.w     w1, w0, w0
    6402:	00 00 e0    	cp0.w     w0
    6404:	03 00 32    	bra       Z, 0x640c <.L46>
    6406:	e0 61 80    	mov.w     0xc3c, w0
    6408:	f0 61 88    	mov.w     w0, 0xc3e
    640a:	1f 00 37    	bra       0x644a <.L26>

0000640c <.L46>:
    640c:	f2 61 80    	mov.w     0xc3e, w2
    640e:	e0 61 80    	mov.w     0xc3c, w0
    6410:	80 80 d1    	asr.w     w0, w1
    6412:	f0 61 80    	mov.w     0xc3e, w0
    6414:	00 80 d1    	asr.w     w0, w0
    6416:	00 80 50    	sub.w     w1, w0, w0
    6418:	43 80 de    	asr.w     w0, #0x3, w0
    641a:	00 00 41    	add.w     w2, w0, w0
    641c:	f0 61 88    	mov.w     w0, 0xc3e
    641e:	15 00 37    	bra       0x644a <.L26>

00006420 <.L28>:
    6420:	00 1a 80    	mov.w     0x340, w0
    6422:	00 00 ea    	neg.w     w0, w0
    6424:	10 62 88    	mov.w     w0, 0xc42
    6426:	d1 75 80    	mov.w     0xeba, w1
    6428:	00 04 20    	mov.w     #0x40, w0
    642a:	00 80 60    	and.w     w1, w0, w0
    642c:	00 00 e0    	cp0.w     w0
    642e:	04 00 32    	bra       Z, 0x6438 <.L49>
    6430:	10 62 80    	mov.w     0xc42, w0
    6432:	20 62 88    	mov.w     w0, 0xc44
    6434:	ba ce a9    	bclr.b    0xeba, #0x6
    6436:	09 00 37    	bra       0x644a <.L26>

00006438 <.L49>:
    6438:	22 62 80    	mov.w     0xc44, w2
    643a:	10 62 80    	mov.w     0xc42, w0
    643c:	80 80 d1    	asr.w     w0, w1
    643e:	20 62 80    	mov.w     0xc44, w0
    6440:	00 80 d1    	asr.w     w0, w0
    6442:	00 80 50    	sub.w     w1, w0, w0
    6444:	43 80 de    	asr.w     w0, #0x3, w0
    6446:	00 00 41    	add.w     w2, w0, w0
    6448:	20 62 88    	mov.w     w0, 0xc44

0000644a <.L26>:
    644a:	50 76 80    	mov.w     0xeca, w0
    644c:	00 00 e8    	inc.w     w0, w0
    644e:	50 76 88    	mov.w     w0, 0xeca
    6450:	50 76 80    	mov.w     0xeca, w0
    6452:	e6 0f 50    	sub.w     w0, #0x6, [w15]
    6454:	02 00 34    	bra       LE, 0x645a <.L51>
    6456:	10 00 20    	mov.w     #0x1, w0
    6458:	50 76 88    	mov.w     w0, 0xeca

0000645a <.L51>:
    645a:	1e 00 78    	mov.w     [w14], w0
    645c:	4f 00 78    	mov.w     [--w15], w0
    645e:	00 0f 78    	mov.w     w0, [w14]
    6460:	1e 00 e0    	cp0.w     [w14]
    6462:	12 00 32    	bra       Z, 0x6488 <.L55>
    6464:	40 00 f9    	pop       0x40
    6466:	3e 00 f9    	pop       0x3e
    6468:	3c 00 f9    	pop       0x3c
    646a:	3a 00 f9    	pop       0x3a
    646c:	38 00 f9    	pop       0x38
    646e:	36 00 f9    	pop       0x36
    6470:	2c 00 f9    	pop       0x2c
    6472:	2a 00 f9    	pop       0x2a
    6474:	28 00 f9    	pop       0x28
    6476:	26 00 f9    	pop       0x26
    6478:	24 00 f9    	pop       0x24
    647a:	22 00 f9    	pop       0x22
    647c:	50 00 f9    	pop       0x50
    647e:	46 00 f9    	pop       0x46
    6480:	42 00 f9    	pop       0x42
    6482:	44 00 f9    	pop       0x44
    6484:	10 00 20    	mov.w     #0x1, w0
    6486:	90 74 88    	mov.w     w0, 0xe92

00006488 <.L55>:
    6488:	00 80 fa    	ulnk      
    648a:	4f 01 78    	mov.w     [--w15], w2
    648c:	4f 00 be    	mov.d     [--w15], w0
    648e:	00 40 06    	retfie    

00006490 <_wp_to_relative>:
    6490:	16 00 fa    	lnk       #0x16
    6492:	88 1f 78    	mov.w     w8, [w15++]
    6494:	20 0f 98    	mov.w     w0, [w14+20]
    6496:	7c 00 57    	sub.w     w14, #0x1c, w0
    6498:	50 00 90    	mov.w     [w0+10], w0
    649a:	48 00 de    	lsr.w     w0, #0x8, w0
    649c:	61 00 60    	and.w     w0, #0x1, w0
    649e:	00 04 e0    	cp0.b     w0
    64a0:	24 00 32    	bra       Z, 0x64ea <.L2>
    64a2:	6e 03 47    	add.w     w14, #0xe, w6
    64a4:	7c 00 57    	sub.w     w14, #0x1c, w0
    64a6:	90 00 78    	mov.w     [w0], w1
    64a8:	10 01 90    	mov.w     [w0+2], w2
    64aa:	a0 01 90    	mov.w     [w0+4], w3
    64ac:	30 02 90    	mov.w     [w0+6], w4
    64ae:	c0 02 90    	mov.w     [w0+8], w5
    64b0:	06 00 78    	mov.w     w6, w0
    64b2:	1f 0e 07    	rcall     0x80f2 <_dcm_absolute_to_relative>
    64b4:	6e 00 47    	add.w     w14, #0xe, w0
    64b6:	10 01 be    	mov.d     [w0], w2
    64b8:	02 8f be    	mov.d     w2, [w14]
    64ba:	a0 01 90    	mov.w     [w0+4], w3
    64bc:	23 07 98    	mov.w     w3, [w14+4]
    64be:	68 04 47    	add.w     w14, #0x8, w8
    64c0:	6e 03 47    	add.w     w14, #0xe, w6
    64c2:	7c 00 57    	sub.w     w14, #0x1c, w0
    64c4:	6c 00 40    	add.w     w0, #0xc, w0
    64c6:	90 00 78    	mov.w     [w0], w1
    64c8:	10 01 90    	mov.w     [w0+2], w2
    64ca:	a0 01 90    	mov.w     [w0+4], w3
    64cc:	30 02 90    	mov.w     [w0+6], w4
    64ce:	c0 02 90    	mov.w     [w0+8], w5
    64d0:	06 00 78    	mov.w     w6, w0
    64d2:	0f 0e 07    	rcall     0x80f2 <_dcm_absolute_to_relative>
    64d4:	6e 00 47    	add.w     w14, #0xe, w0
    64d6:	10 01 be    	mov.d     [w0], w2
    64d8:	02 8c be    	mov.d     w2, [w8]
    64da:	a0 01 90    	mov.w     [w0+4], w3
    64dc:	23 04 98    	mov.w     w3, [w8+4]
    64de:	7c 00 57    	sub.w     w14, #0x1c, w0
    64e0:	d0 00 90    	mov.w     [w0+10], w1
    64e2:	00 f0 2f    	mov.w     #0xff00, w0
    64e4:	00 80 40    	add.w     w1, w0, w0
    64e6:	30 07 98    	mov.w     w0, [w14+6]
    64e8:	18 00 37    	bra       0x651a <.L4>

000064ea <.L2>:
    64ea:	7c 00 57    	sub.w     w14, #0x1c, w0
    64ec:	10 00 be    	mov.d     [w0], w0
    64ee:	00 0f 78    	mov.w     w0, [w14]
    64f0:	7c 00 57    	sub.w     w14, #0x1c, w0
    64f2:	b0 00 90    	mov.w     [w0+6], w1
    64f4:	20 00 90    	mov.w     [w0+4], w0
    64f6:	10 07 98    	mov.w     w0, [w14+2]
    64f8:	7c 00 57    	sub.w     w14, #0x1c, w0
    64fa:	40 00 90    	mov.w     [w0+8], w0
    64fc:	20 07 98    	mov.w     w0, [w14+4]
    64fe:	7c 00 57    	sub.w     w14, #0x1c, w0
    6500:	f0 00 90    	mov.w     [w0+14], w1
    6502:	60 00 90    	mov.w     [w0+12], w0
    6504:	40 07 98    	mov.w     w0, [w14+8]
    6506:	7c 00 57    	sub.w     w14, #0x1c, w0
    6508:	90 08 90    	mov.w     [w0+18], w1
    650a:	00 08 90    	mov.w     [w0+16], w0
    650c:	50 07 98    	mov.w     w0, [w14+10]
    650e:	7c 00 57    	sub.w     w14, #0x1c, w0
    6510:	20 08 90    	mov.w     [w0+20], w0
    6512:	60 07 98    	mov.w     w0, [w14+12]
    6514:	7c 00 57    	sub.w     w14, #0x1c, w0
    6516:	50 00 90    	mov.w     [w0+10], w0
    6518:	30 07 98    	mov.w     w0, [w14+6]

0000651a <.L4>:
    651a:	2e 08 90    	mov.w     [w14+20], w0
    651c:	06 00 09    	repeat    #0x6
    651e:	3e 18 78    	mov.w     [w14++], [w0++]
    6520:	e0 00 b1    	sub.w     #0xe, w0
    6522:	ee 00 b1    	sub.w     #0xe, w14
    6524:	2e 08 90    	mov.w     [w14+20], w0
    6526:	4f 04 78    	mov.w     [--w15], w8
    6528:	00 80 fa    	ulnk      
    652a:	00 00 06    	return    

0000652c <_init_flightplan>:
    652c:	1e 00 fa    	lnk       #0x1e
    652e:	70 07 98    	mov.w     w0, [w14+14]
    6530:	7e 00 90    	mov.w     [w14+14], w0
    6532:	e1 0f 50    	sub.w     w0, #0x1, [w15]
    6534:	05 00 3a    	bra       NZ, 0x6540 <.L7>
    6536:	40 63 2a    	mov.w     #0xa634, w0
    6538:	d0 74 88    	mov.w     w0, 0xe9a
    653a:	10 00 20    	mov.w     #0x1, w0
    653c:	e0 74 88    	mov.w     w0, 0xe9c
    653e:	07 00 37    	bra       0x654e <.L9>

00006540 <.L7>:
    6540:	7e 00 90    	mov.w     [w14+14], w0
    6542:	00 00 e0    	cp0.w     w0
    6544:	04 00 3a    	bra       NZ, 0x654e <.L9>
    6546:	e0 61 2a    	mov.w     #0xa61e, w0
    6548:	d0 74 88    	mov.w     w0, 0xe9a
    654a:	10 00 20    	mov.w     #0x1, w0
    654c:	e0 74 88    	mov.w     w0, 0xe9c

0000654e <.L9>:
    654e:	00 00 eb    	clr.w     w0
    6550:	c0 74 88    	mov.w     w0, 0xe98
    6552:	d1 74 80    	mov.w     0xe9a, w1
    6554:	70 01 47    	add.w     w14, #0x10, w2
    6556:	f6 87 47    	add.w     w15, #0x16, w15
    6558:	76 80 57    	sub.w     w15, #0x16, w0
    655a:	0a 00 09    	repeat    #0xa
    655c:	31 18 78    	mov.w     [w1++], [w0++]
    655e:	60 01 b1    	sub.w     #0x16, w0
    6560:	61 01 b1    	sub.w     #0x16, w1
    6562:	02 00 78    	mov.w     w2, w0
    6564:	95 ff 07    	rcall     0x6490 <_wp_to_relative>
    6566:	f6 87 57    	sub.w     w15, #0x16, w15
    6568:	70 00 47    	add.w     w14, #0x10, w0
    656a:	06 00 09    	repeat    #0x6
    656c:	30 1f 78    	mov.w     [w0++], [w14++]
    656e:	ee 00 b1    	sub.w     #0xe, w14
    6570:	e0 00 b1    	sub.w     #0xe, w0
    6572:	9e 01 78    	mov.w     [w14], w3
    6574:	1e 02 90    	mov.w     [w14+2], w4
    6576:	ae 02 90    	mov.w     [w14+4], w5
    6578:	f0 6f 80    	mov.w     0xdfe, w0
    657a:	01 70 80    	mov.w     0xe00, w1
    657c:	12 70 80    	mov.w     0xe02, w2
    657e:	b3 05 07    	rcall     0x70e6 <_set_goal>
    6580:	68 01 47    	add.w     w14, #0x8, w2
    6582:	12 00 78    	mov.w     [w2], w0
    6584:	92 00 90    	mov.w     [w2+2], w1
    6586:	22 01 90    	mov.w     [w2+4], w2
    6588:	12 15 07    	rcall     0x8fae <_set_camera_view>
    658a:	3e 00 90    	mov.w     [w14+6], w0
    658c:	99 11 07    	rcall     0x88c0 <_setBehavior>
    658e:	00 80 fa    	ulnk      
    6590:	00 00 06    	return    

00006592 <_use_fixed_origin>:
    6592:	00 00 fa    	lnk       #0x0
    6594:	00 00 eb    	clr.w     w0
    6596:	00 80 fa    	ulnk      
    6598:	00 00 06    	return    

0000659a <_get_fixed_origin>:
    659a:	18 00 fa    	lnk       #0x18
    659c:	88 1f 78    	mov.w     w8, [w15++]
    659e:	00 04 78    	mov.w     w0, w8
    65a0:	d0 87 20    	mov.w     #0x87d, w0
    65a2:	91 74 2b    	mov.w     #0xb749, w1
    65a4:	00 8f be    	mov.d     w0, [w14]
    65a6:	80 07 2b    	mov.w     #0xb078, w0
    65a8:	c1 64 21    	mov.w     #0x164c, w1
    65aa:	20 07 98    	mov.w     w0, [w14+4]
    65ac:	31 07 98    	mov.w     w1, [w14+6]
    65ae:	00 00 20    	mov.w     #0x0, w0
    65b0:	01 1f 24    	mov.w     #0x41f0, w1
    65b2:	40 07 98    	mov.w     w0, [w14+8]
    65b4:	51 07 98    	mov.w     w1, [w14+10]
    65b6:	1e 00 be    	mov.d     [w14], w0
    65b8:	6c 01 47    	add.w     w14, #0xc, w2
    65ba:	00 89 be    	mov.d     w0, [w2]
    65bc:	2e 00 90    	mov.w     [w14+4], w0
    65be:	be 00 90    	mov.w     [w14+6], w1
    65c0:	6c 01 47    	add.w     w14, #0xc, w2
    65c2:	20 01 98    	mov.w     w0, [w2+4]
    65c4:	31 01 98    	mov.w     w1, [w2+6]
    65c6:	4e 00 90    	mov.w     [w14+8], w0
    65c8:	de 00 90    	mov.w     [w14+10], w1
    65ca:	02 00 20    	mov.w     #0x0, w2
    65cc:	83 2c 24    	mov.w     #0x42c8, w3
    65ce:	19 d8 07    	rcall     0x1602 <___mulsf3>
    65d0:	4c d8 07    	rcall     0x166a <___fixsfsi>
    65d2:	6c 01 47    	add.w     w14, #0xc, w2
    65d4:	40 01 98    	mov.w     w0, [w2+8]
    65d6:	51 01 98    	mov.w     w1, [w2+10]
    65d8:	6c 00 47    	add.w     w14, #0xc, w0
    65da:	80 00 78    	mov.w     w0, w1
    65dc:	08 00 78    	mov.w     w8, w0
    65de:	11 01 be    	mov.d     [w1], w2
    65e0:	02 88 be    	mov.d     w2, [w0]
    65e2:	64 00 40    	add.w     w0, #0x4, w0
    65e4:	e4 80 40    	add.w     w1, #0x4, w1
    65e6:	11 01 be    	mov.d     [w1], w2
    65e8:	02 88 be    	mov.d     w2, [w0]
    65ea:	64 00 40    	add.w     w0, #0x4, w0
    65ec:	e4 80 40    	add.w     w1, #0x4, w1
    65ee:	11 01 be    	mov.d     [w1], w2
    65f0:	02 88 be    	mov.d     w2, [w0]
    65f2:	08 00 78    	mov.w     w8, w0
    65f4:	4f 04 78    	mov.w     [--w15], w8
    65f6:	00 80 fa    	ulnk      
    65f8:	00 00 06    	return    

000065fa <_next_waypoint>:
    65fa:	8c 00 fa    	lnk       #0x8c
    65fc:	88 1f 78    	mov.w     w8, [w15++]
    65fe:	c0 74 80    	mov.w     0xe98, w0
    6600:	00 00 e8    	inc.w     w0, w0
    6602:	c0 74 88    	mov.w     w0, 0xe98
    6604:	c1 74 80    	mov.w     0xe98, w1
    6606:	e0 74 80    	mov.w     0xe9c, w0
    6608:	80 8f 50    	sub.w     w1, w0, [w15]
    660a:	02 00 35    	bra       LT, 0x6610 <.L17>
    660c:	00 00 eb    	clr.w     w0
    660e:	c0 74 88    	mov.w     w0, 0xe98

00006610 <.L17>:
    6610:	c0 74 80    	mov.w     0xe98, w0
    6612:	00 00 e0    	cp0.w     w0
    6614:	61 00 3a    	bra       NZ, 0x66d8 <.L19>
    6616:	e0 74 80    	mov.w     0xe9c, w0
    6618:	e1 0f 50    	sub.w     w0, #0x1, [w15]
    661a:	39 00 34    	bra       LE, 0x668e <.L21>

0000661c <.bb>:
    661c:	e0 74 80    	mov.w     0xe9c, w0
    661e:	76 00 b9    	mul.su    w0, #0x16, w0
    6620:	80 00 78    	mov.w     w0, w1
    6622:	d0 74 80    	mov.w     0xe9a, w0
    6624:	00 80 40    	add.w     w1, w0, w0
    6626:	f6 00 50    	sub.w     w0, #0x16, w1
    6628:	62 04 20    	mov.w     #0x46, w2
    662a:	0e 01 41    	add.w     w2, w14, w2
    662c:	f6 87 47    	add.w     w15, #0x16, w15
    662e:	76 80 57    	sub.w     w15, #0x16, w0
    6630:	0a 00 09    	repeat    #0xa
    6632:	31 18 78    	mov.w     [w1++], [w0++]
    6634:	60 01 b1    	sub.w     #0x16, w0
    6636:	61 01 b1    	sub.w     #0x16, w1
    6638:	02 00 78    	mov.w     w2, w0
    663a:	2a ff 07    	rcall     0x6490 <_wp_to_relative>
    663c:	f6 87 57    	sub.w     w15, #0x16, w15
    663e:	60 04 20    	mov.w     #0x46, w0
    6640:	0e 00 40    	add.w     w0, w14, w0
    6642:	06 00 09    	repeat    #0x6
    6644:	30 1f 78    	mov.w     [w0++], [w14++]
    6646:	ee 00 b1    	sub.w     #0xe, w14
    6648:	e0 00 b1    	sub.w     #0xe, w0
    664a:	d1 74 80    	mov.w     0xe9a, w1
    664c:	6e 04 47    	add.w     w14, #0xe, w8
    664e:	42 05 20    	mov.w     #0x54, w2
    6650:	0e 01 41    	add.w     w2, w14, w2
    6652:	f6 87 47    	add.w     w15, #0x16, w15
    6654:	76 80 57    	sub.w     w15, #0x16, w0
    6656:	0a 00 09    	repeat    #0xa
    6658:	31 18 78    	mov.w     [w1++], [w0++]
    665a:	60 01 b1    	sub.w     #0x16, w0
    665c:	61 01 b1    	sub.w     #0x16, w1
    665e:	02 00 78    	mov.w     w2, w0
    6660:	17 ff 07    	rcall     0x6490 <_wp_to_relative>
    6662:	f6 87 57    	sub.w     w15, #0x16, w15
    6664:	40 05 20    	mov.w     #0x54, w0
    6666:	0e 00 40    	add.w     w0, w14, w0
    6668:	06 00 09    	repeat    #0x6
    666a:	30 1c 78    	mov.w     [w0++], [w8++]
    666c:	e8 00 b1    	sub.w     #0xe, w8
    666e:	e0 00 b1    	sub.w     #0xe, w0
    6670:	6e 00 47    	add.w     w14, #0xe, w0
    6672:	90 01 78    	mov.w     [w0], w3
    6674:	10 02 90    	mov.w     [w0+2], w4
    6676:	a0 02 90    	mov.w     [w0+4], w5
    6678:	1e 00 78    	mov.w     [w14], w0
    667a:	9e 00 90    	mov.w     [w14+2], w1
    667c:	2e 01 90    	mov.w     [w14+4], w2
    667e:	33 05 07    	rcall     0x70e6 <_set_goal>
    6680:	6e 00 47    	add.w     w14, #0xe, w0
    6682:	68 01 40    	add.w     w0, #0x8, w2
    6684:	12 00 78    	mov.w     [w2], w0
    6686:	92 00 90    	mov.w     [w2+2], w1
    6688:	22 01 90    	mov.w     [w2+4], w2
    668a:	91 14 07    	rcall     0x8fae <_set_camera_view>
    668c:	21 00 37    	bra       0x66d0 <.L23>

0000668e <.L21>:
    668e:	d1 74 80    	mov.w     0xe9a, w1
    6690:	7c 04 47    	add.w     w14, #0x1c, w8
    6692:	22 06 20    	mov.w     #0x62, w2
    6694:	0e 01 41    	add.w     w2, w14, w2
    6696:	f6 87 47    	add.w     w15, #0x16, w15
    6698:	76 80 57    	sub.w     w15, #0x16, w0
    669a:	0a 00 09    	repeat    #0xa
    669c:	31 18 78    	mov.w     [w1++], [w0++]
    669e:	60 01 b1    	sub.w     #0x16, w0
    66a0:	61 01 b1    	sub.w     #0x16, w1
    66a2:	02 00 78    	mov.w     w2, w0
    66a4:	f5 fe 07    	rcall     0x6490 <_wp_to_relative>
    66a6:	f6 87 57    	sub.w     w15, #0x16, w15
    66a8:	20 06 20    	mov.w     #0x62, w0
    66aa:	0e 00 40    	add.w     w0, w14, w0
    66ac:	06 00 09    	repeat    #0x6
    66ae:	30 1c 78    	mov.w     [w0++], [w8++]
    66b0:	e8 00 b1    	sub.w     #0xe, w8
    66b2:	e0 00 b1    	sub.w     #0xe, w0
    66b4:	7c 00 47    	add.w     w14, #0x1c, w0
    66b6:	90 01 78    	mov.w     [w0], w3
    66b8:	10 02 90    	mov.w     [w0+2], w4
    66ba:	a0 02 90    	mov.w     [w0+4], w5
    66bc:	f0 6f 80    	mov.w     0xdfe, w0
    66be:	01 70 80    	mov.w     0xe00, w1
    66c0:	12 70 80    	mov.w     0xe02, w2
    66c2:	11 05 07    	rcall     0x70e6 <_set_goal>
    66c4:	7c 00 47    	add.w     w14, #0x1c, w0
    66c6:	68 01 40    	add.w     w0, #0x8, w2
    66c8:	12 00 78    	mov.w     [w2], w0
    66ca:	92 00 90    	mov.w     [w2+2], w1
    66cc:	22 01 90    	mov.w     [w2+4], w2
    66ce:	6f 14 07    	rcall     0x8fae <_set_camera_view>

000066d0 <.L23>:
    66d0:	d0 74 80    	mov.w     0xe9a, w0
    66d2:	50 00 90    	mov.w     [w0+10], w0
    66d4:	f5 10 07    	rcall     0x88c0 <_setBehavior>
    66d6:	47 00 37    	bra       0x6766 <.L25>

000066d8 <.L19>:
    66d8:	c0 74 80    	mov.w     0xe98, w0
    66da:	76 00 b9    	mul.su    w0, #0x16, w0
    66dc:	80 00 78    	mov.w     w0, w1
    66de:	d0 74 80    	mov.w     0xe9a, w0
    66e0:	00 80 40    	add.w     w1, w0, w0
    66e2:	f6 00 50    	sub.w     w0, #0x16, w1
    66e4:	a8 02 20    	mov.w     #0x2a, w8
    66e6:	0e 04 44    	add.w     w8, w14, w8
    66e8:	02 07 20    	mov.w     #0x70, w2
    66ea:	0e 01 41    	add.w     w2, w14, w2
    66ec:	f6 87 47    	add.w     w15, #0x16, w15
    66ee:	76 80 57    	sub.w     w15, #0x16, w0
    66f0:	0a 00 09    	repeat    #0xa
    66f2:	31 18 78    	mov.w     [w1++], [w0++]
    66f4:	60 01 b1    	sub.w     #0x16, w0
    66f6:	61 01 b1    	sub.w     #0x16, w1
    66f8:	02 00 78    	mov.w     w2, w0
    66fa:	ca fe 07    	rcall     0x6490 <_wp_to_relative>
    66fc:	f6 87 57    	sub.w     w15, #0x16, w15
    66fe:	00 07 20    	mov.w     #0x70, w0
    6700:	0e 00 40    	add.w     w0, w14, w0
    6702:	06 00 09    	repeat    #0x6
    6704:	30 1c 78    	mov.w     [w0++], [w8++]
    6706:	e8 00 b1    	sub.w     #0xe, w8
    6708:	e0 00 b1    	sub.w     #0xe, w0
    670a:	c0 74 80    	mov.w     0xe98, w0
    670c:	76 00 b9    	mul.su    w0, #0x16, w0
    670e:	80 00 78    	mov.w     w0, w1
    6710:	d0 74 80    	mov.w     0xe9a, w0
    6712:	80 80 40    	add.w     w1, w0, w1
    6714:	88 03 20    	mov.w     #0x38, w8
    6716:	0e 04 44    	add.w     w8, w14, w8
    6718:	e2 07 20    	mov.w     #0x7e, w2
    671a:	0e 01 41    	add.w     w2, w14, w2
    671c:	f6 87 47    	add.w     w15, #0x16, w15
    671e:	76 80 57    	sub.w     w15, #0x16, w0
    6720:	0a 00 09    	repeat    #0xa
    6722:	31 18 78    	mov.w     [w1++], [w0++]
    6724:	60 01 b1    	sub.w     #0x16, w0
    6726:	61 01 b1    	sub.w     #0x16, w1
    6728:	02 00 78    	mov.w     w2, w0
    672a:	b2 fe 07    	rcall     0x6490 <_wp_to_relative>
    672c:	f6 87 57    	sub.w     w15, #0x16, w15
    672e:	e0 07 20    	mov.w     #0x7e, w0
    6730:	0e 00 40    	add.w     w0, w14, w0
    6732:	06 00 09    	repeat    #0x6
    6734:	30 1c 78    	mov.w     [w0++], [w8++]
    6736:	e8 00 b1    	sub.w     #0xe, w8
    6738:	e0 00 b1    	sub.w     #0xe, w0
    673a:	80 03 20    	mov.w     #0x38, w0
    673c:	0e 00 40    	add.w     w0, w14, w0
    673e:	a2 02 20    	mov.w     #0x2a, w2
    6740:	0e 01 41    	add.w     w2, w14, w2
    6742:	90 01 78    	mov.w     [w0], w3
    6744:	10 02 90    	mov.w     [w0+2], w4
    6746:	a0 02 90    	mov.w     [w0+4], w5
    6748:	12 00 78    	mov.w     [w2], w0
    674a:	92 00 90    	mov.w     [w2+2], w1
    674c:	22 01 90    	mov.w     [w2+4], w2
    674e:	cb 04 07    	rcall     0x70e6 <_set_goal>
    6750:	80 03 20    	mov.w     #0x38, w0
    6752:	0e 00 40    	add.w     w0, w14, w0
    6754:	68 01 40    	add.w     w0, #0x8, w2
    6756:	12 00 78    	mov.w     [w2], w0
    6758:	92 00 90    	mov.w     [w2+2], w1
    675a:	22 01 90    	mov.w     [w2+4], w2
    675c:	28 14 07    	rcall     0x8fae <_set_camera_view>
    675e:	80 03 20    	mov.w     #0x38, w0
    6760:	0e 00 40    	add.w     w0, w14, w0
    6762:	30 00 90    	mov.w     [w0+6], w0
    6764:	ad 10 07    	rcall     0x88c0 <_setBehavior>

00006766 <.L25>:
    6766:	4f 04 78    	mov.w     [--w15], w8
    6768:	00 80 fa    	ulnk      
    676a:	00 00 06    	return    

0000676c <_run_flightplan>:
    676c:	54 00 fa    	lnk       #0x54
    676e:	88 1f 78    	mov.w     w8, [w15++]
    6770:	9e ce bf    	mov.b     0xe9e, WREG
    6772:	e1 4f 40    	add.b     w0, #0x1, [w15]
    6774:	27 00 3a    	bra       NZ, 0x67c4 <.L27>
    6776:	7c 04 47    	add.w     w14, #0x1c, w8
    6778:	a1 02 20    	mov.w     #0x2a, w1
    677a:	8e 80 40    	add.w     w1, w14, w1
    677c:	f6 87 47    	add.w     w15, #0x16, w15
    677e:	76 80 57    	sub.w     w15, #0x16, w0
    6780:	42 dd 20    	mov.w     #0xdd4, w2
    6782:	0a 00 09    	repeat    #0xa
    6784:	32 18 78    	mov.w     [w2++], [w0++]
    6786:	60 01 b1    	sub.w     #0x16, w0
    6788:	01 00 78    	mov.w     w1, w0
    678a:	82 fe 07    	rcall     0x6490 <_wp_to_relative>
    678c:	f6 87 57    	sub.w     w15, #0x16, w15
    678e:	a0 02 20    	mov.w     #0x2a, w0
    6790:	0e 00 40    	add.w     w0, w14, w0
    6792:	06 00 09    	repeat    #0x6
    6794:	30 1c 78    	mov.w     [w0++], [w8++]
    6796:	e8 00 b1    	sub.w     #0xe, w8
    6798:	e0 00 b1    	sub.w     #0xe, w0
    679a:	7c 00 47    	add.w     w14, #0x1c, w0
    679c:	90 01 78    	mov.w     [w0], w3
    679e:	10 02 90    	mov.w     [w0+2], w4
    67a0:	a0 02 90    	mov.w     [w0+4], w5
    67a2:	f0 6f 80    	mov.w     0xdfe, w0
    67a4:	01 70 80    	mov.w     0xe00, w1
    67a6:	12 70 80    	mov.w     0xe02, w2
    67a8:	9e 04 07    	rcall     0x70e6 <_set_goal>
    67aa:	7c 00 47    	add.w     w14, #0x1c, w0
    67ac:	68 01 40    	add.w     w0, #0x8, w2
    67ae:	12 00 78    	mov.w     [w2], w0
    67b0:	92 00 90    	mov.w     [w2+2], w1
    67b2:	22 01 90    	mov.w     [w2+4], w2
    67b4:	fc 13 07    	rcall     0x8fae <_set_camera_view>
    67b6:	7c 00 47    	add.w     w14, #0x1c, w0
    67b8:	30 00 90    	mov.w     [w0+6], w0
    67ba:	82 10 07    	rcall     0x88c0 <_setBehavior>
    67bc:	d0 04 07    	rcall     0x715e <_compute_bearing_to_goal>
    67be:	00 40 eb    	clr.b     w0
    67c0:	9e ee b7    	mov.b     WREG, 0xe9e
    67c2:	6a 00 37    	bra       0x6898 <.L46>

000067c4 <.L27>:
    67c4:	a0 75 80    	mov.w     0xeb4, w0
    67c6:	01 20 20    	mov.w     #0x200, w1
    67c8:	01 00 60    	and.w     w0, w1, w0
    67ca:	00 00 e0    	cp0.w     w0
    67cc:	0c 00 32    	bra       Z, 0x67e6 <.L30>
    67ce:	a0 67 80    	mov.w     0xcf4, w0
    67d0:	e1 71 80    	mov.w     0xe3c, w1
    67d2:	01 00 50    	sub.w     w0, w1, w0
    67d4:	e9 0f 40    	add.w     w0, #0x9, [w15]
    67d6:	60 00 35    	bra       LT, 0x6898 <.L46>
    67d8:	a0 67 80    	mov.w     0xcf4, w0
    67da:	e1 71 80    	mov.w     0xe3c, w1
    67dc:	01 00 50    	sub.w     w0, w1, w0
    67de:	e9 0f 50    	sub.w     w0, #0x9, [w15]
    67e0:	5b 00 3c    	bra       GT, 0x6898 <.L46>
    67e2:	0b ff 07    	rcall     0x65fa <_next_waypoint>
    67e4:	59 00 37    	bra       0x6898 <.L46>

000067e6 <.L30>:
    67e6:	a0 75 80    	mov.w     0xeb4, w0
    67e8:	01 40 20    	mov.w     #0x400, w1
    67ea:	01 00 60    	and.w     w0, w1, w0
    67ec:	00 00 e0    	cp0.w     w0
    67ee:	2a 00 32    	bra       Z, 0x6844 <.L36>
    67f0:	c0 73 80    	mov.w     0xe78, w0
    67f2:	f8 0f 50    	sub.w     w0, #0x18, [w15]
    67f4:	51 00 3c    	bra       GT, 0x6898 <.L46>
    67f6:	a0 75 80    	mov.w     0xeb4, w0
    67f8:	01 04 20    	mov.w     #0x40, w1
    67fa:	01 00 60    	and.w     w0, w1, w0
    67fc:	00 00 e0    	cp0.w     w0
    67fe:	20 00 32    	bra       Z, 0x6840 <.L40>
    6800:	c0 74 80    	mov.w     0xe98, w0
    6802:	76 00 b9    	mul.su    w0, #0x16, w0
    6804:	80 00 78    	mov.w     w0, w1
    6806:	d0 74 80    	mov.w     0xe9a, w0
    6808:	80 80 40    	add.w     w1, w0, w1
    680a:	6e 04 47    	add.w     w14, #0xe, w8
    680c:	82 03 20    	mov.w     #0x38, w2
    680e:	0e 01 41    	add.w     w2, w14, w2
    6810:	f6 87 47    	add.w     w15, #0x16, w15
    6812:	76 80 57    	sub.w     w15, #0x16, w0
    6814:	0a 00 09    	repeat    #0xa
    6816:	31 18 78    	mov.w     [w1++], [w0++]
    6818:	60 01 b1    	sub.w     #0x16, w0
    681a:	61 01 b1    	sub.w     #0x16, w1
    681c:	02 00 78    	mov.w     w2, w0
    681e:	38 fe 07    	rcall     0x6490 <_wp_to_relative>
    6820:	f6 87 57    	sub.w     w15, #0x16, w15
    6822:	80 03 20    	mov.w     #0x38, w0
    6824:	0e 00 40    	add.w     w0, w14, w0
    6826:	06 00 09    	repeat    #0x6
    6828:	30 1c 78    	mov.w     [w0++], [w8++]
    682a:	e8 00 b1    	sub.w     #0xe, w8
    682c:	e0 00 b1    	sub.w     #0xe, w0
    682e:	6e 00 47    	add.w     w14, #0xe, w0
    6830:	90 01 78    	mov.w     [w0], w3
    6832:	10 02 90    	mov.w     [w0+2], w4
    6834:	a0 02 90    	mov.w     [w0+4], w5
    6836:	f0 6f 80    	mov.w     0xdfe, w0
    6838:	01 70 80    	mov.w     0xe00, w1
    683a:	12 70 80    	mov.w     0xe02, w2
    683c:	54 04 07    	rcall     0x70e6 <_set_goal>
    683e:	2c 00 37    	bra       0x6898 <.L46>

00006840 <.L40>:
    6840:	dc fe 07    	rcall     0x65fa <_next_waypoint>
    6842:	2a 00 37    	bra       0x6898 <.L46>

00006844 <.L36>:
    6844:	c0 73 80    	mov.w     0xe78, w0
    6846:	f8 0f 50    	sub.w     w0, #0x18, [w15]
    6848:	03 00 34    	bra       LE, 0x6850 <.L42>
    684a:	a0 73 80    	mov.w     0xe74, w0
    684c:	f8 0f 50    	sub.w     w0, #0x18, [w15]
    684e:	24 00 3c    	bra       GT, 0x6898 <.L46>

00006850 <.L42>:
    6850:	a0 75 80    	mov.w     0xeb4, w0
    6852:	01 04 20    	mov.w     #0x40, w1
    6854:	01 00 60    	and.w     w0, w1, w0
    6856:	00 00 e0    	cp0.w     w0
    6858:	1e 00 32    	bra       Z, 0x6896 <.L44>
    685a:	c0 74 80    	mov.w     0xe98, w0
    685c:	76 00 b9    	mul.su    w0, #0x16, w0
    685e:	80 00 78    	mov.w     w0, w1
    6860:	d0 74 80    	mov.w     0xe9a, w0
    6862:	80 80 40    	add.w     w1, w0, w1
    6864:	62 04 20    	mov.w     #0x46, w2
    6866:	0e 01 41    	add.w     w2, w14, w2
    6868:	f6 87 47    	add.w     w15, #0x16, w15
    686a:	76 80 57    	sub.w     w15, #0x16, w0
    686c:	0a 00 09    	repeat    #0xa
    686e:	31 18 78    	mov.w     [w1++], [w0++]
    6870:	60 01 b1    	sub.w     #0x16, w0
    6872:	61 01 b1    	sub.w     #0x16, w1
    6874:	02 00 78    	mov.w     w2, w0
    6876:	0c fe 07    	rcall     0x6490 <_wp_to_relative>
    6878:	f6 87 57    	sub.w     w15, #0x16, w15
    687a:	60 04 20    	mov.w     #0x46, w0
    687c:	0e 00 40    	add.w     w0, w14, w0
    687e:	06 00 09    	repeat    #0x6
    6880:	30 1f 78    	mov.w     [w0++], [w14++]
    6882:	ee 00 b1    	sub.w     #0xe, w14
    6884:	e0 00 b1    	sub.w     #0xe, w0
    6886:	9e 01 78    	mov.w     [w14], w3
    6888:	1e 02 90    	mov.w     [w14+2], w4
    688a:	ae 02 90    	mov.w     [w14+4], w5
    688c:	f0 6f 80    	mov.w     0xdfe, w0
    688e:	01 70 80    	mov.w     0xe00, w1
    6890:	12 70 80    	mov.w     0xe02, w2
    6892:	29 04 07    	rcall     0x70e6 <_set_goal>
    6894:	01 00 37    	bra       0x6898 <.L46>

00006896 <.L44>:
    6896:	b1 fe 07    	rcall     0x65fa <_next_waypoint>

00006898 <.L46>:
    6898:	4f 04 78    	mov.w     [--w15], w8
    689a:	00 80 fa    	ulnk      
    689c:	00 00 06    	return    

0000689e <_flightplan_live_begin>:
    689e:	00 00 fa    	lnk       #0x0
    68a0:	00 40 eb    	clr.b     w0
    68a2:	9e ee b7    	mov.b     WREG, 0xe9e
    68a4:	00 80 fa    	ulnk      
    68a6:	00 00 06    	return    

000068a8 <_flightplan_live_received_byte>:
    68a8:	02 00 fa    	lnk       #0x2
    68aa:	00 4f 78    	mov.b     w0, [w14]
    68ac:	9e ce bf    	mov.b     0xe9e, WREG
    68ae:	f5 4f 50    	sub.b     w0, #0x15, [w15]
    68b0:	0e 00 3e    	bra       GTU, 0x68ce <.L50>
    68b2:	e2 e9 20    	mov.w     #0xe9e, w2
    68b4:	12 41 78    	mov.b     [w2], w2
    68b6:	82 80 fb    	ze        w2, w1
    68b8:	a0 64 2a    	mov.w     #0xa64a, w0
    68ba:	00 80 40    	add.w     w1, w0, w0
    68bc:	10 40 78    	mov.b     [w0], w0
    68be:	00 80 fb    	ze        w0, w0
    68c0:	80 00 78    	mov.w     w0, w1
    68c2:	40 dd 20    	mov.w     #0xdd4, w0
    68c4:	00 80 40    	add.w     w1, w0, w0
    68c6:	1e 48 78    	mov.b     [w14], [w0]
    68c8:	02 40 e8    	inc.b     w2, w0
    68ca:	9e ee b7    	mov.b     WREG, 0xe9e
    68cc:	06 00 37    	bra       0x68da <.L54>

000068ce <.L50>:
    68ce:	9e ce bf    	mov.b     0xe9e, WREG
    68d0:	f6 4f 50    	sub.b     w0, #0x16, [w15]
    68d2:	03 00 3a    	bra       NZ, 0x68da <.L54>
    68d4:	9e ce bf    	mov.b     0xe9e, WREG
    68d6:	00 40 e8    	inc.b     w0, w0
    68d8:	9e ee b7    	mov.b     WREG, 0xe9e

000068da <.L54>:
    68da:	00 80 fa    	ulnk      
    68dc:	00 00 06    	return    

000068de <_flightplan_live_commit>:
    68de:	00 00 fa    	lnk       #0x0
    68e0:	9e ce bf    	mov.b     0xe9e, WREG
    68e2:	f6 4f 50    	sub.b     w0, #0x16, [w15]
    68e4:	03 00 3a    	bra       NZ, 0x68ec <.L56>
    68e6:	00 c0 eb    	setm.b    w0
    68e8:	9e ee b7    	mov.b     WREG, 0xe9e
    68ea:	02 00 37    	bra       0x68f0 <.L59>

000068ec <.L56>:
    68ec:	00 40 eb    	clr.b     w0
    68ee:	9e ee b7    	mov.b     WREG, 0xe9e

000068f0 <.L59>:
    68f0:	00 80 fa    	ulnk      
    68f2:	00 00 06    	return    

000068f4 <_udb_init_GPS>:
    68f4:	00 00 fa    	lnk       #0x0
    68f6:	21 e2 a9    	bclr.b    0x221, #0x7
    68f8:	21 a2 a9    	bclr.b    0x221, #0x5
    68fa:	21 82 a9    	bclr.b    0x221, #0x4
    68fc:	21 62 a9    	bclr.b    0x221, #0x3
    68fe:	11 22 20    	mov.w     #0x221, w1
    6900:	91 40 78    	mov.b     [w1], w1
    6902:	c0 cf b3    	mov.b     #0xfc, w0
    6904:	00 c0 60    	and.b     w1, w0, w0
    6906:	21 e2 b7    	mov.b     WREG, 0x221
    6908:	20 e2 a9    	bclr.b    0x220, #0x7
    690a:	20 c2 a9    	bclr.b    0x220, #0x6
    690c:	20 a2 a9    	bclr.b    0x220, #0x5
    690e:	20 82 a9    	bclr.b    0x220, #0x4
    6910:	20 62 a8    	bset.b    0x220, #0x3
    6912:	01 22 20    	mov.w     #0x220, w1
    6914:	91 40 78    	mov.b     [w1], w1
    6916:	90 cf b3    	mov.b     #0xf9, w0
    6918:	00 c0 60    	and.b     w1, w0, w0
    691a:	20 e2 b7    	mov.b     WREG, 0x220
    691c:	20 02 a9    	bclr.b    0x220, #0x0
    691e:	23 e2 a9    	bclr.b    0x223, #0x7
    6920:	23 c2 a9    	bclr.b    0x223, #0x6
    6922:	23 a2 a8    	bset.b    0x223, #0x5
    6924:	23 62 a9    	bclr.b    0x223, #0x3
    6926:	22 c2 bf    	mov.b     0x222, WREG
    6928:	f0 43 b2    	and.b     #0x3f, w0
    692a:	22 e2 b7    	mov.b     WREG, 0x222
    692c:	22 a2 a9    	bclr.b    0x222, #0x5
    692e:	22 22 a9    	bclr.b    0x222, #0x1
    6930:	91 0a 20    	mov.w     #0xa9, w1
    6932:	91 40 78    	mov.b     [w1], w1
    6934:	f0 c8 b3    	mov.b     #0x8f, w0
    6936:	00 c0 60    	and.b     w1, w0, w0
    6938:	01 c3 b3    	mov.b     #0x30, w1
    693a:	01 40 70    	ior.b     w0, w1, w0
    693c:	a9 e0 b7    	mov.b     WREG, 0xa9
    693e:	85 80 a9    	bclr.b    0x85, #0x4
    6940:	95 80 a9    	bclr.b    0x95, #0x4
    6942:	85 60 a9    	bclr.b    0x85, #0x3
    6944:	95 60 a8    	bset.b    0x95, #0x3
    6946:	21 e2 a8    	bset.b    0x221, #0x7
    6948:	23 42 a8    	bset.b    0x223, #0x2
    694a:	00 80 fa    	ulnk      
    694c:	00 00 06    	return    

0000694e <_udb_gps_set_rate>:
    694e:	02 00 fa    	lnk       #0x2
    6950:	00 0f 78    	mov.w     w0, [w14]
    6952:	1e 00 78    	mov.w     [w14], w0
    6954:	cf 80 de    	asr.w     w0, #0xf, w1
    6956:	42 09 dd    	sl.w      w1, #0x2, w2
    6958:	ce 01 de    	lsr.w     w0, #0xe, w3
    695a:	83 01 71    	ior.w     w2, w3, w3
    695c:	42 01 dd    	sl.w      w0, #0x2, w2
    695e:	00 a0 25    	mov.w     #0x5a00, w0
    6960:	21 26 20    	mov.w     #0x262, w1
    6962:	15 d6 07    	rcall     0x158e <___divsi3>
    6964:	00 00 e9    	dec.w     w0, w0
    6966:	40 11 88    	mov.w     w0, 0x228
    6968:	00 80 fa    	ulnk      
    696a:	00 00 06    	return    

0000696c <_udb_gps_check_rate>:
    696c:	04 00 fa    	lnk       #0x4
    696e:	00 0f 78    	mov.w     w0, [w14]
    6970:	1e 00 78    	mov.w     [w14], w0
    6972:	cf 80 de    	asr.w     w0, #0xf, w1
    6974:	42 09 dd    	sl.w      w1, #0x2, w2
    6976:	ce 01 de    	lsr.w     w0, #0xe, w3
    6978:	83 01 71    	ior.w     w2, w3, w3
    697a:	42 01 dd    	sl.w      w0, #0x2, w2
    697c:	00 a0 25    	mov.w     #0x5a00, w0
    697e:	21 26 20    	mov.w     #0x262, w1
    6980:	06 d6 07    	rcall     0x158e <___divsi3>
    6982:	00 00 e9    	dec.w     w0, w0
    6984:	80 00 78    	mov.w     w0, w1
    6986:	40 11 80    	mov.w     0x228, w0
    6988:	00 01 eb    	clr.w     w2
    698a:	12 07 98    	mov.w     w2, [w14+2]
    698c:	80 8f 50    	sub.w     w1, w0, [w15]
    698e:	02 00 3a    	bra       NZ, 0x6994 <.L6>
    6990:	10 00 20    	mov.w     #0x1, w0
    6992:	10 07 98    	mov.w     w0, [w14+2]

00006994 <.L6>:
    6994:	1e 00 90    	mov.w     [w14+2], w0
    6996:	00 80 fa    	ulnk      
    6998:	00 00 06    	return    

0000699a <__U1RXInterrupt>:
    699a:	36 00 f8    	push      0x36
    699c:	80 9f be    	mov.d     w0, [w15++]
    699e:	82 9f be    	mov.d     w2, [w15++]
    69a0:	84 9f be    	mov.d     w4, [w15++]
    69a2:	86 9f be    	mov.d     w6, [w15++]
    69a4:	08 00 fa    	lnk       #0x8
    69a6:	90 74 80    	mov.w     0xe92, w0
    69a8:	00 00 e0    	cp0.w     w0
    69aa:	1a 00 32    	bra       Z, 0x69e0 <.L9>

000069ac <.bb>:
    69ac:	44 00 f8    	push      0x44
    69ae:	42 00 f8    	push      0x42
    69b0:	46 00 f8    	push      0x46
    69b2:	50 00 f8    	push      0x50
    69b4:	22 00 f8    	push      0x22
    69b6:	24 00 f8    	push      0x24
    69b8:	26 00 f8    	push      0x26
    69ba:	28 00 f8    	push      0x28
    69bc:	2a 00 f8    	push      0x2a
    69be:	2c 00 f8    	push      0x2c
    69c0:	36 00 f8    	push      0x36
    69c2:	38 00 f8    	push      0x38
    69c4:	3a 00 f8    	push      0x3a
    69c6:	3c 00 f8    	push      0x3c
    69c8:	3e 00 f8    	push      0x3e
    69ca:	40 00 f8    	push      0x40
    69cc:	10 00 20    	mov.w     #0x1, w0
    69ce:	30 07 98    	mov.w     w0, [w14+6]
    69d0:	3e 00 90    	mov.w     [w14+6], w0
    69d2:	80 1f 78    	mov.w     w0, [w15++]
    69d4:	30 07 98    	mov.w     w0, [w14+6]
    69d6:	a0 74 80    	mov.w     0xe94, w0
    69d8:	20 02 88    	mov.w     w0, 0x44
    69da:	00 00 eb    	clr.w     w0
    69dc:	90 74 88    	mov.w     w0, 0xe92
    69de:	05 00 37    	bra       0x69ea <.L11>

000069e0 <.L9>:
    69e0:	00 00 eb    	clr.w     w0
    69e2:	20 07 98    	mov.w     w0, [w14+4]
    69e4:	2e 00 90    	mov.w     [w14+4], w0
    69e6:	80 1f 78    	mov.w     w0, [w15++]
    69e8:	20 07 98    	mov.w     w0, [w14+4]

000069ea <.L11>:
    69ea:	21 e1 a8    	bset.b    0x121, #0x7
    69ec:	04 00 37    	bra       0x69f6 <.L12>

000069ee <.L13>:
    69ee:	30 11 80    	mov.w     0x226, w0
    69f0:	20 47 98    	mov.b     w0, [w14+2]
    69f2:	2e 40 90    	mov.b     [w14+2], w0
    69f4:	71 12 07    	rcall     0x8ed8 <_udb_gps_callback_received_char>

000069f6 <.L12>:
    69f6:	22 c2 bf    	mov.b     0x222, WREG
    69f8:	61 40 60    	and.b     w0, #0x1, w0
    69fa:	00 04 e0    	cp0.b     w0
    69fc:	f8 ff 3a    	bra       NZ, 0x69ee <.L13>
    69fe:	85 60 a9    	bclr.b    0x85, #0x3
    6a00:	22 c2 bf    	mov.b     0x222, WREG
    6a02:	62 40 60    	and.b     w0, #0x2, w0
    6a04:	00 04 e0    	cp0.b     w0
    6a06:	01 00 32    	bra       Z, 0x6a0a <.L15>
    6a08:	22 22 a9    	bclr.b    0x222, #0x1

00006a0a <.L15>:
    6a0a:	1e 00 78    	mov.w     [w14], w0
    6a0c:	4f 00 78    	mov.w     [--w15], w0
    6a0e:	00 0f 78    	mov.w     w0, [w14]
    6a10:	1e 00 e0    	cp0.w     [w14]
    6a12:	12 00 32    	bra       Z, 0x6a38 <.L19>
    6a14:	40 00 f9    	pop       0x40
    6a16:	3e 00 f9    	pop       0x3e
    6a18:	3c 00 f9    	pop       0x3c
    6a1a:	3a 00 f9    	pop       0x3a
    6a1c:	38 00 f9    	pop       0x38
    6a1e:	36 00 f9    	pop       0x36
    6a20:	2c 00 f9    	pop       0x2c
    6a22:	2a 00 f9    	pop       0x2a
    6a24:	28 00 f9    	pop       0x28
    6a26:	26 00 f9    	pop       0x26
    6a28:	24 00 f9    	pop       0x24
    6a2a:	22 00 f9    	pop       0x22
    6a2c:	50 00 f9    	pop       0x50
    6a2e:	46 00 f9    	pop       0x46
    6a30:	42 00 f9    	pop       0x42
    6a32:	44 00 f9    	pop       0x44
    6a34:	10 00 20    	mov.w     #0x1, w0
    6a36:	90 74 88    	mov.w     w0, 0xe92

00006a38 <.L19>:
    6a38:	00 80 fa    	ulnk      
    6a3a:	4f 03 be    	mov.d     [--w15], w6
    6a3c:	4f 02 be    	mov.d     [--w15], w4
    6a3e:	4f 01 be    	mov.d     [--w15], w2
    6a40:	4f 00 be    	mov.d     [--w15], w0
    6a42:	36 00 f9    	pop       0x36
    6a44:	00 40 06    	retfie    

00006a46 <_udb_gps_send_packet>:
    6a46:	04 00 fa    	lnk       #0x4
    6a48:	00 0f 78    	mov.w     w0, [w14]
    6a4a:	11 07 98    	mov.w     w1, [w14+2]
    6a4c:	21 e1 a8    	bset.b    0x121, #0x7
    6a4e:	9e 00 90    	mov.w     [w14+2], w1
    6a50:	f0 1f 20    	mov.w     #0x1ff, w0
    6a52:	80 8f 50    	sub.w     w1, w0, [w15]
    6a54:	02 00 34    	bra       LE, 0x6a5a <.L21>
    6a56:	f0 1f 20    	mov.w     #0x1ff, w0
    6a58:	10 07 98    	mov.w     w0, [w14+2]

00006a5a <.L21>:
    6a5a:	11 76 80    	mov.w     0xec2, w1
    6a5c:	f0 75 80    	mov.w     0xebe, w0
    6a5e:	80 8f 50    	sub.w     w1, w0, [w15]
    6a60:	06 00 3a    	bra       NZ, 0x6a6e <.L23>
    6a62:	ff 0f fc    	disi      #0xfff
    6a64:	00 00 eb    	clr.w     w0
    6a66:	10 76 88    	mov.w     w0, 0xec2
    6a68:	00 00 eb    	clr.w     w0
    6a6a:	f0 75 88    	mov.w     w0, 0xebe
    6a6c:	00 00 fc    	disi      #0x0

00006a6e <.L23>:
    6a6e:	12 76 80    	mov.w     0xec2, w2
    6a70:	1e 00 78    	mov.w     [w14], w0
    6a72:	10 40 78    	mov.b     [w0], w0
    6a74:	80 40 78    	mov.b     w0, w1
    6a76:	00 30 22    	mov.w     #0x2300, w0
    6a78:	00 00 41    	add.w     w2, w0, w0
    6a7a:	01 48 78    	mov.b     w1, [w0]
    6a7c:	10 76 80    	mov.w     0xec2, w0
    6a7e:	00 00 e8    	inc.w     w0, w0
    6a80:	10 76 88    	mov.w     w0, 0xec2
    6a82:	1e 0f e8    	inc.w     [w14], [w14]
    6a84:	1e 00 90    	mov.w     [w14+2], w0
    6a86:	00 00 e9    	dec.w     w0, w0
    6a88:	10 07 98    	mov.w     w0, [w14+2]
    6a8a:	11 76 80    	mov.w     0xec2, w1
    6a8c:	00 20 20    	mov.w     #0x200, w0
    6a8e:	80 8f 50    	sub.w     w1, w0, [w15]
    6a90:	02 00 34    	bra       LE, 0x6a96 <.L25>
    6a92:	00 00 eb    	clr.w     w0
    6a94:	10 76 88    	mov.w     w0, 0xec2

00006a96 <.L25>:
    6a96:	1e 00 90    	mov.w     [w14+2], w0
    6a98:	00 00 e0    	cp0.w     w0
    6a9a:	e9 ff 3c    	bra       GT, 0x6a6e <.L23>
    6a9c:	85 80 a8    	bset.b    0x85, #0x4
    6a9e:	00 80 fa    	ulnk      
    6aa0:	00 00 06    	return    

00006aa2 <_udb_gps_send_char>:
    6aa2:	04 00 fa    	lnk       #0x4
    6aa4:	20 47 98    	mov.b     w0, [w14+2]
    6aa6:	2e 40 90    	mov.b     [w14+2], w0
    6aa8:	00 4f 78    	mov.b     w0, [w14]
    6aaa:	11 00 20    	mov.w     #0x1, w1
    6aac:	0e 00 78    	mov.w     w14, w0
    6aae:	cb ff 07    	rcall     0x6a46 <_udb_gps_send_packet>
    6ab0:	00 80 fa    	ulnk      
    6ab2:	00 00 06    	return    

00006ab4 <__U1TXInterrupt>:
    6ab4:	80 9f be    	mov.d     w0, [w15++]
    6ab6:	02 00 fa    	lnk       #0x2
    6ab8:	21 e1 a8    	bset.b    0x121, #0x7
    6aba:	11 76 80    	mov.w     0xec2, w1
    6abc:	f0 75 80    	mov.w     0xebe, w0
    6abe:	80 8f 50    	sub.w     w1, w0, [w15]
    6ac0:	17 00 32    	bra       Z, 0x6af0 <.L32>

00006ac2 <.L33>:
    6ac2:	f1 75 80    	mov.w     0xebe, w1
    6ac4:	00 30 22    	mov.w     #0x2300, w0
    6ac6:	00 80 40    	add.w     w1, w0, w0
    6ac8:	10 40 78    	mov.b     [w0], w0
    6aca:	00 4f 78    	mov.b     w0, [w14]
    6acc:	01 00 e8    	inc.w     w1, w0
    6ace:	f0 75 88    	mov.w     w0, 0xebe
    6ad0:	f1 75 80    	mov.w     0xebe, w1
    6ad2:	00 20 20    	mov.w     #0x200, w0
    6ad4:	80 8f 50    	sub.w     w1, w0, [w15]
    6ad6:	02 00 34    	bra       LE, 0x6adc <.L34>
    6ad8:	00 00 eb    	clr.w     w0
    6ada:	f0 75 88    	mov.w     w0, 0xebe

00006adc <.L34>:
    6adc:	1e 80 fb    	ze        [w14], w0
    6ade:	20 11 88    	mov.w     w0, 0x224
    6ae0:	23 c2 bf    	mov.b     0x223, WREG
    6ae2:	62 40 60    	and.b     w0, #0x2, w0
    6ae4:	00 04 e0    	cp0.b     w0
    6ae6:	04 00 3a    	bra       NZ, 0x6af0 <.L32>
    6ae8:	11 76 80    	mov.w     0xec2, w1
    6aea:	f0 75 80    	mov.w     0xebe, w0
    6aec:	80 8f 50    	sub.w     w1, w0, [w15]
    6aee:	e9 ff 3a    	bra       NZ, 0x6ac2 <.L33>

00006af0 <.L32>:
    6af0:	85 80 a9    	bclr.b    0x85, #0x4
    6af2:	00 80 fa    	ulnk      
    6af4:	4f 00 be    	mov.d     [--w15], w0
    6af6:	00 40 06    	retfie    

00006af8 <_udb_init_USART>:
    6af8:	00 00 fa    	lnk       #0x0
    6afa:	31 e2 a9    	bclr.b    0x231, #0x7
    6afc:	31 a2 a9    	bclr.b    0x231, #0x5
    6afe:	31 82 a9    	bclr.b    0x231, #0x4
    6b00:	31 62 a9    	bclr.b    0x231, #0x3
    6b02:	11 23 20    	mov.w     #0x231, w1
    6b04:	91 40 78    	mov.b     [w1], w1
    6b06:	c0 cf b3    	mov.b     #0xfc, w0
    6b08:	00 c0 60    	and.b     w1, w0, w0
    6b0a:	31 e2 b7    	mov.b     WREG, 0x231
    6b0c:	30 e2 a9    	bclr.b    0x230, #0x7
    6b0e:	30 c2 a9    	bclr.b    0x230, #0x6
    6b10:	30 a2 a9    	bclr.b    0x230, #0x5
    6b12:	30 82 a8    	bset.b    0x230, #0x4
    6b14:	30 62 a8    	bset.b    0x230, #0x3
    6b16:	01 23 20    	mov.w     #0x230, w1
    6b18:	91 40 78    	mov.b     [w1], w1
    6b1a:	90 cf b3    	mov.b     #0xf9, w0
    6b1c:	00 c0 60    	and.b     w1, w0, w0
    6b1e:	30 e2 b7    	mov.b     WREG, 0x230
    6b20:	30 02 a9    	bclr.b    0x230, #0x0
    6b22:	33 e2 a8    	bset.b    0x233, #0x7
    6b24:	33 c2 a8    	bset.b    0x233, #0x6
    6b26:	33 a2 a9    	bclr.b    0x233, #0x5
    6b28:	33 62 a9    	bclr.b    0x233, #0x3
    6b2a:	32 c2 bf    	mov.b     0x232, WREG
    6b2c:	f0 43 b2    	and.b     #0x3f, w0
    6b2e:	32 e2 b7    	mov.b     WREG, 0x232
    6b30:	32 a2 a9    	bclr.b    0x232, #0x5
    6b32:	32 22 a9    	bclr.b    0x232, #0x1
    6b34:	31 0b 20    	mov.w     #0xb3, w1
    6b36:	91 40 78    	mov.b     [w1], w1
    6b38:	f0 c8 b3    	mov.b     #0x8f, w0
    6b3a:	00 c0 60    	and.b     w1, w0, w0
    6b3c:	01 c3 b3    	mov.b     #0x30, w1
    6b3e:	01 40 70    	ior.b     w0, w1, w0
    6b40:	b3 e0 b7    	mov.b     WREG, 0xb3
    6b42:	31 0b 20    	mov.w     #0xb3, w1
    6b44:	91 40 78    	mov.b     [w1], w1
    6b46:	80 cf b3    	mov.b     #0xf8, w0
    6b48:	00 c0 60    	and.b     w1, w0, w0
    6b4a:	30 40 b3    	ior.b     #0x3, w0
    6b4c:	b3 e0 b7    	mov.b     WREG, 0xb3
    6b4e:	87 e0 a9    	bclr.b    0x87, #0x7
    6b50:	97 e0 a8    	bset.b    0x97, #0x7
    6b52:	87 c0 a9    	bclr.b    0x87, #0x6
    6b54:	97 c0 a8    	bset.b    0x97, #0x6
    6b56:	31 e2 a8    	bset.b    0x231, #0x7
    6b58:	33 42 a8    	bset.b    0x233, #0x2
    6b5a:	00 80 fa    	ulnk      
    6b5c:	00 00 06    	return    

00006b5e <_udb_serial_set_rate>:
    6b5e:	04 00 fa    	lnk       #0x4
    6b60:	00 8f be    	mov.d     w0, [w14]
    6b62:	1e 00 be    	mov.d     [w14], w0
    6b64:	42 09 dd    	sl.w      w1, #0x2, w2
    6b66:	ce 01 de    	lsr.w     w0, #0xe, w3
    6b68:	83 01 71    	ior.w     w2, w3, w3
    6b6a:	42 01 dd    	sl.w      w0, #0x2, w2
    6b6c:	00 a0 25    	mov.w     #0x5a00, w0
    6b6e:	21 26 20    	mov.w     #0x262, w1
    6b70:	0e d5 07    	rcall     0x158e <___divsi3>
    6b72:	00 00 e9    	dec.w     w0, w0
    6b74:	c0 11 88    	mov.w     w0, 0x238
    6b76:	00 80 fa    	ulnk      
    6b78:	00 00 06    	return    

00006b7a <_udb_serial_start_sending>:
    6b7a:	00 00 fa    	lnk       #0x0
    6b7c:	87 e0 a8    	bset.b    0x87, #0x7
    6b7e:	00 80 fa    	ulnk      
    6b80:	00 00 06    	return    

00006b82 <__U2RXInterrupt>:
    6b82:	36 00 f8    	push      0x36
    6b84:	80 9f be    	mov.d     w0, [w15++]
    6b86:	82 9f be    	mov.d     w2, [w15++]
    6b88:	84 9f be    	mov.d     w4, [w15++]
    6b8a:	86 9f be    	mov.d     w6, [w15++]
    6b8c:	02 00 fa    	lnk       #0x2
    6b8e:	21 e1 a8    	bset.b    0x121, #0x7
    6b90:	04 00 37    	bra       0x6b9a <.L45>

00006b92 <.L46>:
    6b92:	b0 11 80    	mov.w     0x236, w0
    6b94:	00 4f 78    	mov.b     w0, [w14]
    6b96:	1e 40 78    	mov.b     [w14], w0
    6b98:	67 f5 07    	rcall     0x5668 <_udb_serial_callback_received_char>

00006b9a <.L45>:
    6b9a:	32 c2 bf    	mov.b     0x232, WREG
    6b9c:	61 40 60    	and.b     w0, #0x1, w0
    6b9e:	00 04 e0    	cp0.b     w0
    6ba0:	f8 ff 3a    	bra       NZ, 0x6b92 <.L46>
    6ba2:	87 c0 a9    	bclr.b    0x87, #0x6
    6ba4:	32 c2 bf    	mov.b     0x232, WREG
    6ba6:	62 40 60    	and.b     w0, #0x2, w0
    6ba8:	00 04 e0    	cp0.b     w0
    6baa:	01 00 32    	bra       Z, 0x6bae <.L50>
    6bac:	32 22 a9    	bclr.b    0x232, #0x1

00006bae <.L50>:
    6bae:	00 80 fa    	ulnk      
    6bb0:	4f 03 be    	mov.d     [--w15], w6
    6bb2:	4f 02 be    	mov.d     [--w15], w4
    6bb4:	4f 01 be    	mov.d     [--w15], w2
    6bb6:	4f 00 be    	mov.d     [--w15], w0
    6bb8:	36 00 f9    	pop       0x36
    6bba:	00 40 06    	retfie    

00006bbc <_udb_serial_send_packet>:
    6bbc:	04 00 fa    	lnk       #0x4
    6bbe:	00 0f 78    	mov.w     w0, [w14]
    6bc0:	11 07 98    	mov.w     w1, [w14+2]
    6bc2:	9e 00 90    	mov.w     [w14+2], w1
    6bc4:	f0 1f 20    	mov.w     #0x1ff, w0
    6bc6:	80 8f 50    	sub.w     w1, w0, [w15]
    6bc8:	02 00 34    	bra       LE, 0x6bce <.L52>
    6bca:	f0 1f 20    	mov.w     #0x1ff, w0
    6bcc:	10 07 98    	mov.w     w0, [w14+2]

00006bce <.L52>:
    6bce:	21 76 80    	mov.w     0xec4, w1
    6bd0:	00 76 80    	mov.w     0xec0, w0
    6bd2:	80 8f 50    	sub.w     w1, w0, [w15]
    6bd4:	06 00 3a    	bra       NZ, 0x6be2 <.L54>
    6bd6:	ff 0f fc    	disi      #0xfff
    6bd8:	00 00 eb    	clr.w     w0
    6bda:	20 76 88    	mov.w     w0, 0xec4
    6bdc:	00 00 eb    	clr.w     w0
    6bde:	00 76 88    	mov.w     w0, 0xec0
    6be0:	00 00 fc    	disi      #0x0

00006be2 <.L54>:
    6be2:	22 76 80    	mov.w     0xec4, w2
    6be4:	1e 00 78    	mov.w     [w14], w0
    6be6:	10 40 78    	mov.b     [w0], w0
    6be8:	80 40 78    	mov.b     w0, w1
    6bea:	00 50 22    	mov.w     #0x2500, w0
    6bec:	00 00 41    	add.w     w2, w0, w0
    6bee:	01 48 78    	mov.b     w1, [w0]
    6bf0:	20 76 80    	mov.w     0xec4, w0
    6bf2:	00 00 e8    	inc.w     w0, w0
    6bf4:	20 76 88    	mov.w     w0, 0xec4
    6bf6:	1e 0f e8    	inc.w     [w14], [w14]
    6bf8:	1e 00 90    	mov.w     [w14+2], w0
    6bfa:	00 00 e9    	dec.w     w0, w0
    6bfc:	10 07 98    	mov.w     w0, [w14+2]
    6bfe:	21 76 80    	mov.w     0xec4, w1
    6c00:	00 20 20    	mov.w     #0x200, w0
    6c02:	80 8f 50    	sub.w     w1, w0, [w15]
    6c04:	02 00 34    	bra       LE, 0x6c0a <.L56>
    6c06:	00 00 eb    	clr.w     w0
    6c08:	20 76 88    	mov.w     w0, 0xec4

00006c0a <.L56>:
    6c0a:	1e 00 90    	mov.w     [w14+2], w0
    6c0c:	00 00 e0    	cp0.w     w0
    6c0e:	e9 ff 3c    	bra       GT, 0x6be2 <.L54>
    6c10:	87 e0 a8    	bset.b    0x87, #0x7
    6c12:	00 80 fa    	ulnk      
    6c14:	00 00 06    	return    

00006c16 <_udb_serial_send_string>:
    6c16:	04 00 fa    	lnk       #0x4
    6c18:	10 07 98    	mov.w     w0, [w14+2]
    6c1a:	00 00 eb    	clr.w     w0
    6c1c:	00 0f 78    	mov.w     w0, [w14]
    6c1e:	21 76 80    	mov.w     0xec4, w1
    6c20:	00 76 80    	mov.w     0xec0, w0
    6c22:	80 8f 50    	sub.w     w1, w0, [w15]
    6c24:	1b 00 3a    	bra       NZ, 0x6c5c <.L63>
    6c26:	ff 0f fc    	disi      #0xfff
    6c28:	00 00 eb    	clr.w     w0
    6c2a:	20 76 88    	mov.w     w0, 0xec4
    6c2c:	00 00 eb    	clr.w     w0
    6c2e:	00 76 88    	mov.w     w0, 0xec0
    6c30:	00 00 fc    	disi      #0x0
    6c32:	14 00 37    	bra       0x6c5c <.L63>

00006c34 <.L64>:
    6c34:	22 76 80    	mov.w     0xec4, w2
    6c36:	1e 00 90    	mov.w     [w14+2], w0
    6c38:	10 40 78    	mov.b     [w0], w0
    6c3a:	80 40 78    	mov.b     w0, w1
    6c3c:	00 50 22    	mov.w     #0x2500, w0
    6c3e:	00 00 41    	add.w     w2, w0, w0
    6c40:	01 48 78    	mov.b     w1, [w0]
    6c42:	20 76 80    	mov.w     0xec4, w0
    6c44:	00 00 e8    	inc.w     w0, w0
    6c46:	20 76 88    	mov.w     w0, 0xec4
    6c48:	1e 00 90    	mov.w     [w14+2], w0
    6c4a:	00 00 e8    	inc.w     w0, w0
    6c4c:	10 07 98    	mov.w     w0, [w14+2]
    6c4e:	1e 0f e8    	inc.w     [w14], [w14]
    6c50:	21 76 80    	mov.w     0xec4, w1
    6c52:	00 20 20    	mov.w     #0x200, w0
    6c54:	80 8f 50    	sub.w     w1, w0, [w15]
    6c56:	02 00 34    	bra       LE, 0x6c5c <.L63>
    6c58:	00 00 eb    	clr.w     w0
    6c5a:	20 76 88    	mov.w     w0, 0xec4

00006c5c <.L63>:
    6c5c:	e0 1f 20    	mov.w     #0x1fe, w0
    6c5e:	9e 0f 10    	subr.w    w0, [w14], [w15]
    6c60:	04 00 3c    	bra       GT, 0x6c6a <.L66>
    6c62:	1e 00 90    	mov.w     [w14+2], w0
    6c64:	10 40 78    	mov.b     [w0], w0
    6c66:	00 04 e0    	cp0.b     w0
    6c68:	e5 ff 3a    	bra       NZ, 0x6c34 <.L64>

00006c6a <.L66>:
    6c6a:	87 e0 a8    	bset.b    0x87, #0x7
    6c6c:	00 80 fa    	ulnk      
    6c6e:	00 00 06    	return    

00006c70 <_udb_serial_send_char>:
    6c70:	04 00 fa    	lnk       #0x4
    6c72:	20 47 98    	mov.b     w0, [w14+2]
    6c74:	2e 40 90    	mov.b     [w14+2], w0
    6c76:	00 4f 78    	mov.b     w0, [w14]
    6c78:	11 00 20    	mov.w     #0x1, w1
    6c7a:	0e 00 78    	mov.w     w14, w0
    6c7c:	9f ff 07    	rcall     0x6bbc <_udb_serial_send_packet>
    6c7e:	00 80 fa    	ulnk      
    6c80:	00 00 06    	return    

00006c82 <__U2TXInterrupt>:
    6c82:	80 9f be    	mov.d     w0, [w15++]
    6c84:	02 00 fa    	lnk       #0x2
    6c86:	21 76 80    	mov.w     0xec4, w1
    6c88:	00 76 80    	mov.w     0xec0, w0
    6c8a:	80 8f 50    	sub.w     w1, w0, [w15]
    6c8c:	18 00 32    	bra       Z, 0x6cbe <.L73>
    6c8e:	0f 00 37    	bra       0x6cae <.L75>

00006c90 <.L76>:
    6c90:	01 76 80    	mov.w     0xec0, w1
    6c92:	00 50 22    	mov.w     #0x2500, w0
    6c94:	00 80 40    	add.w     w1, w0, w0
    6c96:	10 40 78    	mov.b     [w0], w0
    6c98:	00 4f 78    	mov.b     w0, [w14]
    6c9a:	01 00 e8    	inc.w     w1, w0
    6c9c:	00 76 88    	mov.w     w0, 0xec0
    6c9e:	01 76 80    	mov.w     0xec0, w1
    6ca0:	00 20 20    	mov.w     #0x200, w0
    6ca2:	80 8f 50    	sub.w     w1, w0, [w15]
    6ca4:	02 00 34    	bra       LE, 0x6caa <.L77>
    6ca6:	00 00 eb    	clr.w     w0
    6ca8:	00 76 88    	mov.w     w0, 0xec0

00006caa <.L77>:
    6caa:	1e 80 fb    	ze        [w14], w0
    6cac:	a0 11 88    	mov.w     w0, 0x234

00006cae <.L75>:
    6cae:	33 c2 bf    	mov.b     0x233, WREG
    6cb0:	62 40 60    	and.b     w0, #0x2, w0
    6cb2:	00 04 e0    	cp0.b     w0
    6cb4:	04 00 3a    	bra       NZ, 0x6cbe <.L73>
    6cb6:	21 76 80    	mov.w     0xec4, w1
    6cb8:	00 76 80    	mov.w     0xec0, w0
    6cba:	80 8f 50    	sub.w     w1, w0, [w15]
    6cbc:	e9 ff 3a    	bra       NZ, 0x6c90 <.L76>

00006cbe <.L73>:
    6cbe:	87 e0 a9    	bclr.b    0x87, #0x7
    6cc0:	00 80 fa    	ulnk      
    6cc2:	4f 00 be    	mov.d     [--w15], w0
    6cc4:	00 40 06    	retfie    

00006cc6 <_init_states>:
    6cc6:	00 00 fa    	lnk       #0x0
    6cc8:	00 00 eb    	clr.w     w0
    6cca:	80 72 88    	mov.w     w0, 0xe50
    6ccc:	00 00 eb    	clr.w     w0
    6cce:	b0 75 88    	mov.w     w0, 0xeb6
    6cd0:	a0 00 20    	mov.w     #0xa, w0
    6cd2:	f0 64 88    	mov.w     w0, 0xc9e
    6cd4:	d6 0e a9    	bclr.b    0xed6, #0x0
    6cd6:	80 eb 26    	mov.w     #0x6eb8, w0
    6cd8:	c0 75 88    	mov.w     w0, 0xeb8
    6cda:	00 80 fa    	ulnk      
    6cdc:	00 00 06    	return    

00006cde <_udb_background_callback_periodic>:
    6cde:	02 00 fa    	lnk       #0x2
    6ce0:	d0 75 80    	mov.w     0xeba, w0
    6ce2:	01 08 20    	mov.w     #0x80, w1
    6ce4:	01 00 60    	and.w     w0, w1, w0
    6ce6:	00 00 e0    	cp0.w     w0
    6ce8:	67 00 32    	bra       Z, 0x6db8 <.L4>
    6cea:	81 4b 80    	mov.w     0x970, w1
    6cec:	80 a9 23    	mov.w     #0x3a98, w0
    6cee:	80 8f 50    	sub.w     w1, w0, [w15]
    6cf0:	13 00 34    	bra       LE, 0x6d18 <.L6>
    6cf2:	51 6e a9    	bclr.b    0xe51, #0x3
    6cf4:	51 8e a9    	bclr.b    0xe51, #0x4
    6cf6:	51 ae a8    	bset.b    0xe51, #0x5
    6cf8:	c1 72 80    	mov.w     0xe58, w1
    6cfa:	00 fc 2f    	mov.w     #0xffc0, w0
    6cfc:	00 80 60    	and.w     w1, w0, w0
    6cfe:	f0 01 b3    	ior.w     #0x1f, w0
    6d00:	c0 72 88    	mov.w     w0, 0xe58
    6d02:	c1 72 80    	mov.w     0xe58, w1
    6d04:	f0 03 2f    	mov.w     #0xf03f, w0
    6d06:	00 80 60    	and.w     w1, w0, w0
    6d08:	01 7c 20    	mov.w     #0x7c0, w1
    6d0a:	01 00 70    	ior.w     w0, w1, w0
    6d0c:	c0 72 88    	mov.w     w0, 0xe58
    6d0e:	59 8e a8    	bset.b    0xe59, #0x4
    6d10:	59 ae a8    	bset.b    0xe59, #0x5
    6d12:	59 ce a8    	bset.b    0xe59, #0x6
    6d14:	59 ee a9    	bclr.b    0xe59, #0x7
    6d16:	2b 00 37    	bra       0x6d6e <.L8>

00006d18 <.L6>:
    6d18:	80 4b 80    	mov.w     0x970, w0
    6d1a:	00 00 e0    	cp0.w     w0
    6d1c:	13 00 34    	bra       LE, 0x6d44 <.L9>
    6d1e:	51 6e a9    	bclr.b    0xe51, #0x3
    6d20:	51 8e a8    	bset.b    0xe51, #0x4
    6d22:	51 ae a9    	bclr.b    0xe51, #0x5
    6d24:	c1 72 80    	mov.w     0xe58, w1
    6d26:	00 fc 2f    	mov.w     #0xffc0, w0
    6d28:	00 80 60    	and.w     w1, w0, w0
    6d2a:	f0 01 b3    	ior.w     #0x1f, w0
    6d2c:	c0 72 88    	mov.w     w0, 0xe58
    6d2e:	c1 72 80    	mov.w     0xe58, w1
    6d30:	f0 03 2f    	mov.w     #0xf03f, w0
    6d32:	00 80 60    	and.w     w1, w0, w0
    6d34:	01 7c 20    	mov.w     #0x7c0, w1
    6d36:	01 00 70    	ior.w     w0, w1, w0
    6d38:	c0 72 88    	mov.w     w0, 0xe58
    6d3a:	59 8e a8    	bset.b    0xe59, #0x4
    6d3c:	59 ae a8    	bset.b    0xe59, #0x5
    6d3e:	59 ce a8    	bset.b    0xe59, #0x6
    6d40:	59 ee a8    	bset.b    0xe59, #0x7
    6d42:	15 00 37    	bra       0x6d6e <.L8>

00006d44 <.L9>:
    6d44:	51 6e a8    	bset.b    0xe51, #0x3
    6d46:	51 8e a9    	bclr.b    0xe51, #0x4
    6d48:	51 ae a9    	bclr.b    0xe51, #0x5
    6d4a:	59 8e a9    	bclr.b    0xe59, #0x4
    6d4c:	59 ae a9    	bclr.b    0xe59, #0x5
    6d4e:	59 ce a8    	bset.b    0xe59, #0x6
    6d50:	59 ee a9    	bclr.b    0xe59, #0x7
    6d52:	80 4b 80    	mov.w     0x970, w0
    6d54:	02 80 20    	mov.w     #0x800, w2
    6d56:	11 00 09    	repeat    #0x11
    6d58:	02 00 d8    	div.sw    w0, w2
    6d5a:	70 40 40    	add.b     w0, #0x10, w0
    6d5c:	f0 43 b2    	and.b     #0x3f, w0
    6d5e:	80 80 fb    	ze        w0, w1
    6d60:	f0 03 20    	mov.w     #0x3f, w0
    6d62:	00 81 60    	and.w     w1, w0, w2
    6d64:	c1 72 80    	mov.w     0xe58, w1
    6d66:	00 fc 2f    	mov.w     #0xffc0, w0
    6d68:	00 80 60    	and.w     w1, w0, w0
    6d6a:	02 00 70    	ior.w     w0, w2, w0
    6d6c:	c0 72 88    	mov.w     w0, 0xe58

00006d6e <.L8>:
    6d6e:	80 72 80    	mov.w     0xe50, w0
    6d70:	01 00 24    	mov.w     #0x4000, w1
    6d72:	01 00 60    	and.w     w0, w1, w0
    6d74:	00 00 e0    	cp0.w     w0
    6d76:	32 00 32    	bra       Z, 0x6ddc <.L17>
    6d78:	80 72 80    	mov.w     0xe50, w0
    6d7a:	4b 00 de    	lsr.w     w0, #0xb, w0
    6d7c:	e1 40 60    	and.b     w0, #0x1, w1
    6d7e:	90 72 80    	mov.w     0xe52, w0
    6d80:	4b 00 de    	lsr.w     w0, #0xb, w0
    6d82:	61 40 60    	and.b     w0, #0x1, w0
    6d84:	80 cf 50    	sub.b     w1, w0, [w15]
    6d86:	14 00 3a    	bra       NZ, 0x6db0 <.L13>
    6d88:	80 72 80    	mov.w     0xe50, w0
    6d8a:	4c 00 de    	lsr.w     w0, #0xc, w0
    6d8c:	e1 40 60    	and.b     w0, #0x1, w1
    6d8e:	90 72 80    	mov.w     0xe52, w0
    6d90:	4c 00 de    	lsr.w     w0, #0xc, w0
    6d92:	61 40 60    	and.b     w0, #0x1, w0
    6d94:	80 cf 50    	sub.b     w1, w0, [w15]
    6d96:	0c 00 3a    	bra       NZ, 0x6db0 <.L13>
    6d98:	80 72 80    	mov.w     0xe50, w0
    6d9a:	4d 00 de    	lsr.w     w0, #0xd, w0
    6d9c:	e1 40 60    	and.b     w0, #0x1, w1
    6d9e:	90 72 80    	mov.w     0xe52, w0
    6da0:	4d 00 de    	lsr.w     w0, #0xd, w0
    6da2:	61 40 60    	and.b     w0, #0x1, w0
    6da4:	80 cf 50    	sub.b     w1, w0, [w15]
    6da6:	04 00 3a    	bra       NZ, 0x6db0 <.L13>
    6da8:	51 6e a9    	bclr.b    0xe51, #0x3
    6daa:	51 8e a9    	bclr.b    0xe51, #0x4
    6dac:	51 ae a9    	bclr.b    0xe51, #0x5
    6dae:	16 00 37    	bra       0x6ddc <.L17>

00006db0 <.L13>:
    6db0:	80 72 80    	mov.w     0xe50, w0
    6db2:	90 72 88    	mov.w     w0, 0xe52
    6db4:	51 ce a9    	bclr.b    0xe51, #0x6
    6db6:	12 00 37    	bra       0x6ddc <.L17>

00006db8 <.L4>:
    6db8:	51 6e a9    	bclr.b    0xe51, #0x3
    6dba:	51 8e a9    	bclr.b    0xe51, #0x4
    6dbc:	51 ae a8    	bset.b    0xe51, #0x5
    6dbe:	c1 72 80    	mov.w     0xe58, w1
    6dc0:	00 fc 2f    	mov.w     #0xffc0, w0
    6dc2:	00 80 60    	and.w     w1, w0, w0
    6dc4:	00 40 a0    	bset.w    w0, #0x4
    6dc6:	c0 72 88    	mov.w     w0, 0xe58
    6dc8:	c1 72 80    	mov.w     0xe58, w1
    6dca:	f0 03 2f    	mov.w     #0xf03f, w0
    6dcc:	00 80 60    	and.w     w1, w0, w0
    6dce:	01 40 20    	mov.w     #0x400, w1
    6dd0:	01 00 70    	ior.w     w0, w1, w0
    6dd2:	c0 72 88    	mov.w     w0, 0xe58
    6dd4:	59 8e a8    	bset.b    0xe59, #0x4
    6dd6:	59 ae a8    	bset.b    0xe59, #0x5
    6dd8:	59 ce a8    	bset.b    0xe59, #0x6
    6dda:	59 ee a9    	bclr.b    0xe59, #0x7

00006ddc <.L17>:
    6ddc:	f0 64 80    	mov.w     0xc9e, w0
    6dde:	e8 0f 50    	sub.w     w0, #0x8, [w15]
    6de0:	03 00 3c    	bra       GT, 0x6de8 <.L18>
    6de2:	f0 64 80    	mov.w     0xc9e, w0
    6de4:	00 00 e8    	inc.w     w0, w0
    6de6:	f0 64 88    	mov.w     w0, 0xc9e

00006de8 <.L18>:
    6de8:	f0 64 80    	mov.w     0xc9e, w0
    6dea:	80 40 eb    	clr.b     w1
    6dec:	01 4f 78    	mov.b     w1, [w14]
    6dee:	e8 0f 50    	sub.w     w0, #0x8, [w15]
    6df0:	02 00 3c    	bra       GT, 0x6df6 <.L20>
    6df2:	10 c0 b3    	mov.b     #0x1, w0
    6df4:	00 4f 78    	mov.b     w0, [w14]

00006df6 <.L20>:
    6df6:	9e 40 78    	mov.b     [w14], w1
    6df8:	01 80 fb    	ze        w1, w0
    6dfa:	61 00 60    	and.w     w0, #0x1, w0
    6dfc:	46 01 dd    	sl.w      w0, #0x6, w2
    6dfe:	b1 76 80    	mov.w     0xed6, w1
    6e00:	f0 fb 2f    	mov.w     #0xffbf, w0
    6e02:	00 80 60    	and.w     w1, w0, w0
    6e04:	02 00 70    	ior.w     w0, w2, w0
    6e06:	b0 76 88    	mov.w     w0, 0xed6
    6e08:	c0 75 80    	mov.w     0xeb8, w0
    6e0a:	00 00 01    	call      w0
    6e0c:	00 80 fa    	ulnk      
    6e0e:	00 00 06    	return    

00006e10 <_ent_calibrateS>:
    6e10:	00 00 fa    	lnk       #0x0
    6e12:	50 ee a9    	bclr.b    0xe50, #0x7
    6e14:	51 0e a9    	bclr.b    0xe51, #0x0
    6e16:	51 2e a9    	bclr.b    0xe51, #0x1
    6e18:	51 4e a9    	bclr.b    0xe51, #0x2
    6e1a:	00 00 eb    	clr.w     w0
    6e1c:	b0 75 88    	mov.w     w0, 0xeb6
    6e1e:	00 ec 26    	mov.w     #0x6ec0, w0
    6e20:	c0 75 88    	mov.w     w0, 0xeb8
    6e22:	50 01 20    	mov.w     #0x15, w0
    6e24:	a0 72 88    	mov.w     w0, 0xe54
    6e26:	cb 62 a9    	bclr.b    0x2cb, #0x3
    6e28:	00 80 fa    	ulnk      
    6e2a:	00 00 06    	return    

00006e2c <_ent_acquiringS>:
    6e2c:	00 00 fa    	lnk       #0x0
    6e2e:	50 ee a9    	bclr.b    0xe50, #0x7
    6e30:	51 0e a9    	bclr.b    0xe51, #0x0
    6e32:	51 2e a9    	bclr.b    0xe51, #0x1
    6e34:	51 4e a9    	bclr.b    0xe51, #0x2
    6e36:	2e 07 07    	rcall     0x7c94 <_udb_servo_record_trims>
    6e38:	38 09 07    	rcall     0x80aa <_dcm_calibrate>
    6e3a:	c0 12 20    	mov.w     #0x12c, w0
    6e3c:	b0 75 88    	mov.w     w0, 0xeb6
    6e3e:	00 00 eb    	clr.w     w0
    6e40:	50 74 88    	mov.w     w0, 0xe8a
    6e42:	00 f0 26    	mov.w     #0x6f00, w0
    6e44:	c0 75 88    	mov.w     w0, 0xeb8
    6e46:	00 03 20    	mov.w     #0x30, w0
    6e48:	b0 72 88    	mov.w     w0, 0xe56
    6e4a:	cb 62 a8    	bset.b    0x2cb, #0x3
    6e4c:	00 80 fa    	ulnk      
    6e4e:	00 00 06    	return    

00006e50 <_ent_manualS>:
    6e50:	00 00 fa    	lnk       #0x0
    6e52:	50 ee a9    	bclr.b    0xe50, #0x7
    6e54:	51 0e a9    	bclr.b    0xe51, #0x0
    6e56:	51 2e a9    	bclr.b    0xe51, #0x1
    6e58:	51 4e a9    	bclr.b    0xe51, #0x2
    6e5a:	00 00 eb    	clr.w     w0
    6e5c:	b0 75 88    	mov.w     w0, 0xeb6
    6e5e:	cb 62 a8    	bset.b    0x2cb, #0x3
    6e60:	60 f6 26    	mov.w     #0x6f66, w0
    6e62:	c0 75 88    	mov.w     w0, 0xeb8
    6e64:	00 80 fa    	ulnk      
    6e66:	00 00 06    	return    

00006e68 <_ent_stabilizedS>:
    6e68:	00 00 fa    	lnk       #0x0
    6e6a:	50 ee a9    	bclr.b    0xe50, #0x7
    6e6c:	51 0e a8    	bset.b    0xe51, #0x0
    6e6e:	51 2e a9    	bclr.b    0xe51, #0x1
    6e70:	51 4e a9    	bclr.b    0xe51, #0x2
    6e72:	00 00 eb    	clr.w     w0
    6e74:	b0 75 88    	mov.w     w0, 0xeb6
    6e76:	cb 62 a9    	bclr.b    0x2cb, #0x3
    6e78:	e0 fa 26    	mov.w     #0x6fae, w0
    6e7a:	c0 75 88    	mov.w     w0, 0xeb8
    6e7c:	00 80 fa    	ulnk      
    6e7e:	00 00 06    	return    

00006e80 <_ent_waypointS>:
    6e80:	00 00 fa    	lnk       #0x0
    6e82:	50 ee a8    	bset.b    0xe50, #0x7
    6e84:	51 0e a8    	bset.b    0xe51, #0x0
    6e86:	51 2e a8    	bset.b    0xe51, #0x1
    6e88:	51 4e a8    	bset.b    0xe51, #0x2
    6e8a:	00 00 eb    	clr.w     w0
    6e8c:	b0 75 88    	mov.w     w0, 0xeb6
    6e8e:	00 00 eb    	clr.w     w0
    6e90:	4d fb 07    	rcall     0x652c <_init_flightplan>
    6e92:	cb 62 a9    	bclr.b    0x2cb, #0x3
    6e94:	20 ff 26    	mov.w     #0x6ff2, w0
    6e96:	c0 75 88    	mov.w     w0, 0xeb8
    6e98:	00 80 fa    	ulnk      
    6e9a:	00 00 06    	return    

00006e9c <_ent_returnS>:
    6e9c:	00 00 fa    	lnk       #0x0
    6e9e:	50 ee a8    	bset.b    0xe50, #0x7
    6ea0:	51 0e a8    	bset.b    0xe51, #0x0
    6ea2:	51 2e a8    	bset.b    0xe51, #0x1
    6ea4:	51 4e a8    	bset.b    0xe51, #0x2
    6ea6:	10 00 20    	mov.w     #0x1, w0
    6ea8:	41 fb 07    	rcall     0x652c <_init_flightplan>
    6eaa:	00 00 eb    	clr.w     w0
    6eac:	b0 75 88    	mov.w     w0, 0xeb6
    6eae:	cb 62 a9    	bclr.b    0x2cb, #0x3
    6eb0:	e0 03 27    	mov.w     #0x703e, w0
    6eb2:	c0 75 88    	mov.w     w0, 0xeb8
    6eb4:	00 80 fa    	ulnk      
    6eb6:	00 00 06    	return    

00006eb8 <_startS>:
    6eb8:	00 00 fa    	lnk       #0x0
    6eba:	aa ff 07    	rcall     0x6e10 <_ent_calibrateS>
    6ebc:	00 80 fa    	ulnk      
    6ebe:	00 00 06    	return    

00006ec0 <_calibrateS>:
    6ec0:	00 00 fa    	lnk       #0x0
    6ec2:	d0 75 80    	mov.w     0xeba, w0
    6ec4:	01 08 20    	mov.w     #0x80, w1
    6ec6:	01 00 60    	and.w     w0, w1, w0
    6ec8:	00 00 e0    	cp0.w     w0
    6eca:	17 00 32    	bra       Z, 0x6efa <.L37>
    6ecc:	cb c2 bf    	mov.b     0x2cb, WREG
    6ece:	00 80 fb    	ze        w0, w0
    6ed0:	43 00 de    	lsr.w     w0, #0x3, w0
    6ed2:	00 04 a2    	btg.b     w0, #0x0
    6ed4:	61 40 60    	and.b     w0, #0x1, w0
    6ed6:	61 40 60    	and.b     w0, #0x1, w0
    6ed8:	61 40 60    	and.b     w0, #0x1, w0
    6eda:	61 40 60    	and.b     w0, #0x1, w0
    6edc:	43 01 dd    	sl.w      w0, #0x3, w2
    6ede:	b1 2c 20    	mov.w     #0x2cb, w1
    6ee0:	91 40 78    	mov.b     [w1], w1
    6ee2:	70 cf b3    	mov.b     #0xf7, w0
    6ee4:	00 c0 60    	and.b     w1, w0, w0
    6ee6:	02 40 70    	ior.b     w0, w2, w0
    6ee8:	cb e2 b7    	mov.b     WREG, 0x2cb
    6eea:	a0 72 80    	mov.w     0xe54, w0
    6eec:	00 00 e9    	dec.w     w0, w0
    6eee:	a0 72 88    	mov.w     w0, 0xe54
    6ef0:	a0 72 80    	mov.w     0xe54, w0
    6ef2:	00 00 e0    	cp0.w     w0
    6ef4:	03 00 3c    	bra       GT, 0x6efc <.L42>
    6ef6:	9a ff 07    	rcall     0x6e2c <_ent_acquiringS>
    6ef8:	01 00 37    	bra       0x6efc <.L42>

00006efa <.L37>:
    6efa:	8a ff 07    	rcall     0x6e10 <_ent_calibrateS>

00006efc <.L42>:
    6efc:	00 80 fa    	ulnk      
    6efe:	00 00 06    	return    

00006f00 <_acquiringS>:
    6f00:	00 00 fa    	lnk       #0x0
    6f02:	b0 76 80    	mov.w     0xed6, w0
    6f04:	01 04 20    	mov.w     #0x40, w1
    6f06:	01 00 60    	and.w     w0, w1, w0
    6f08:	00 00 e0    	cp0.w     w0
    6f0a:	29 00 32    	bra       Z, 0x6f5e <.L44>
    6f0c:	d0 75 80    	mov.w     0xeba, w0
    6f0e:	01 08 20    	mov.w     #0x80, w1
    6f10:	01 00 60    	and.w     w0, w1, w0
    6f12:	00 00 e0    	cp0.w     w0
    6f14:	21 00 32    	bra       Z, 0x6f58 <.L46>
    6f16:	b0 72 80    	mov.w     0xe56, w0
    6f18:	e5 0f 50    	sub.w     w0, #0x5, [w15]
    6f1a:	03 00 3a    	bra       NZ, 0x6f22 <.L48>
    6f1c:	c0 12 20    	mov.w     #0x12c, w0
    6f1e:	b0 75 88    	mov.w     w0, 0xeb6
    6f20:	09 00 37    	bra       0x6f34 <.L50>

00006f22 <.L48>:
    6f22:	b0 72 80    	mov.w     0xe56, w0
    6f24:	e4 0f 50    	sub.w     w0, #0x4, [w15]
    6f26:	04 00 3c    	bra       GT, 0x6f30 <.L51>
    6f28:	b0 75 80    	mov.w     0xeb6, w0
    6f2a:	00 00 ea    	neg.w     w0, w0
    6f2c:	b0 75 88    	mov.w     w0, 0xeb6
    6f2e:	02 00 37    	bra       0x6f34 <.L50>

00006f30 <.L51>:
    6f30:	00 00 eb    	clr.w     w0
    6f32:	b0 75 88    	mov.w     w0, 0xeb6

00006f34 <.L50>:
    6f34:	b0 72 80    	mov.w     0xe56, w0
    6f36:	00 00 e9    	dec.w     w0, w0
    6f38:	b0 72 88    	mov.w     w0, 0xe56
    6f3a:	b0 72 80    	mov.w     0xe56, w0
    6f3c:	e6 0f 50    	sub.w     w0, #0x6, [w15]
    6f3e:	02 00 3a    	bra       NZ, 0x6f44 <.L53>
    6f40:	50 ce a8    	bset.b    0xe50, #0x6
    6f42:	0f 00 37    	bra       0x6f62 <.L61>

00006f44 <.L53>:
    6f44:	b0 72 80    	mov.w     0xe56, w0
    6f46:	e2 0f 50    	sub.w     w0, #0x2, [w15]
    6f48:	02 00 3a    	bra       NZ, 0x6f4e <.L56>
    6f4a:	d6 0e a8    	bset.b    0xed6, #0x0
    6f4c:	0a 00 37    	bra       0x6f62 <.L61>

00006f4e <.L56>:
    6f4e:	b0 72 80    	mov.w     0xe56, w0
    6f50:	00 00 e0    	cp0.w     w0
    6f52:	07 00 3c    	bra       GT, 0x6f62 <.L61>
    6f54:	7d ff 07    	rcall     0x6e50 <_ent_manualS>
    6f56:	05 00 37    	bra       0x6f62 <.L61>

00006f58 <.L46>:
    6f58:	00 00 eb    	clr.w     w0
    6f5a:	b0 75 88    	mov.w     w0, 0xeb6
    6f5c:	02 00 37    	bra       0x6f62 <.L61>

00006f5e <.L44>:
    6f5e:	00 00 eb    	clr.w     w0
    6f60:	b0 75 88    	mov.w     w0, 0xeb6

00006f62 <.L61>:
    6f62:	00 80 fa    	ulnk      
    6f64:	00 00 06    	return    

00006f66 <_manualS>:
    6f66:	00 00 fa    	lnk       #0x0
    6f68:	d0 75 80    	mov.w     0xeba, w0
    6f6a:	01 08 20    	mov.w     #0x80, w1
    6f6c:	01 00 60    	and.w     w0, w1, w0
    6f6e:	00 00 e0    	cp0.w     w0
    6f70:	14 00 32    	bra       Z, 0x6f9a <.L63>
    6f72:	80 72 80    	mov.w     0xe50, w0
    6f74:	4d 00 de    	lsr.w     w0, #0xd, w0
    6f76:	61 40 60    	and.b     w0, #0x1, w0
    6f78:	80 80 fb    	ze        w0, w1
    6f7a:	b0 76 80    	mov.w     0xed6, w0
    6f7c:	46 00 de    	lsr.w     w0, #0x6, w0
    6f7e:	61 40 60    	and.b     w0, #0x1, w0
    6f80:	00 80 fb    	ze        w0, w0
    6f82:	00 80 60    	and.w     w1, w0, w0
    6f84:	00 00 e0    	cp0.w     w0
    6f86:	02 00 32    	bra       Z, 0x6f8c <.L65>
    6f88:	7b ff 07    	rcall     0x6e80 <_ent_waypointS>
    6f8a:	0f 00 37    	bra       0x6faa <.L72>

00006f8c <.L65>:
    6f8c:	80 72 80    	mov.w     0xe50, w0
    6f8e:	01 00 21    	mov.w     #0x1000, w1
    6f90:	01 00 60    	and.w     w0, w1, w0
    6f92:	00 00 e0    	cp0.w     w0
    6f94:	0a 00 32    	bra       Z, 0x6faa <.L72>
    6f96:	68 ff 07    	rcall     0x6e68 <_ent_stabilizedS>
    6f98:	08 00 37    	bra       0x6faa <.L72>

00006f9a <.L63>:
    6f9a:	b0 76 80    	mov.w     0xed6, w0
    6f9c:	01 04 20    	mov.w     #0x40, w1
    6f9e:	01 00 60    	and.w     w0, w1, w0
    6fa0:	00 00 e0    	cp0.w     w0
    6fa2:	02 00 32    	bra       Z, 0x6fa8 <.L70>
    6fa4:	7b ff 07    	rcall     0x6e9c <_ent_returnS>
    6fa6:	01 00 37    	bra       0x6faa <.L72>

00006fa8 <.L70>:
    6fa8:	5f ff 07    	rcall     0x6e68 <_ent_stabilizedS>

00006faa <.L72>:
    6faa:	00 80 fa    	ulnk      
    6fac:	00 00 06    	return    

00006fae <_stabilizedS>:
    6fae:	00 00 fa    	lnk       #0x0
    6fb0:	d0 75 80    	mov.w     0xeba, w0
    6fb2:	01 08 20    	mov.w     #0x80, w1
    6fb4:	01 00 60    	and.w     w0, w1, w0
    6fb6:	00 00 e0    	cp0.w     w0
    6fb8:	14 00 32    	bra       Z, 0x6fe2 <.L74>
    6fba:	80 72 80    	mov.w     0xe50, w0
    6fbc:	4d 00 de    	lsr.w     w0, #0xd, w0
    6fbe:	61 40 60    	and.b     w0, #0x1, w0
    6fc0:	80 80 fb    	ze        w0, w1
    6fc2:	b0 76 80    	mov.w     0xed6, w0
    6fc4:	46 00 de    	lsr.w     w0, #0x6, w0
    6fc6:	61 40 60    	and.b     w0, #0x1, w0
    6fc8:	00 80 fb    	ze        w0, w0
    6fca:	00 80 60    	and.w     w1, w0, w0
    6fcc:	00 00 e0    	cp0.w     w0
    6fce:	02 00 32    	bra       Z, 0x6fd4 <.L76>
    6fd0:	57 ff 07    	rcall     0x6e80 <_ent_waypointS>
    6fd2:	0d 00 37    	bra       0x6fee <.L82>

00006fd4 <.L76>:
    6fd4:	80 72 80    	mov.w     0xe50, w0
    6fd6:	01 80 20    	mov.w     #0x800, w1
    6fd8:	01 00 60    	and.w     w0, w1, w0
    6fda:	00 00 e0    	cp0.w     w0
    6fdc:	08 00 32    	bra       Z, 0x6fee <.L82>
    6fde:	38 ff 07    	rcall     0x6e50 <_ent_manualS>
    6fe0:	06 00 37    	bra       0x6fee <.L82>

00006fe2 <.L74>:
    6fe2:	b0 76 80    	mov.w     0xed6, w0
    6fe4:	01 04 20    	mov.w     #0x40, w1
    6fe6:	01 00 60    	and.w     w0, w1, w0
    6fe8:	00 00 e0    	cp0.w     w0
    6fea:	01 00 32    	bra       Z, 0x6fee <.L82>
    6fec:	57 ff 07    	rcall     0x6e9c <_ent_returnS>

00006fee <.L82>:
    6fee:	00 80 fa    	ulnk      
    6ff0:	00 00 06    	return    

00006ff2 <_waypointS>:
    6ff2:	00 00 fa    	lnk       #0x0
    6ff4:	cb c2 bf    	mov.b     0x2cb, WREG
    6ff6:	00 80 fb    	ze        w0, w0
    6ff8:	43 00 de    	lsr.w     w0, #0x3, w0
    6ffa:	00 04 a2    	btg.b     w0, #0x0
    6ffc:	61 40 60    	and.b     w0, #0x1, w0
    6ffe:	61 40 60    	and.b     w0, #0x1, w0
    7000:	61 40 60    	and.b     w0, #0x1, w0
    7002:	61 40 60    	and.b     w0, #0x1, w0
    7004:	43 01 dd    	sl.w      w0, #0x3, w2
    7006:	b1 2c 20    	mov.w     #0x2cb, w1
    7008:	91 40 78    	mov.b     [w1], w1
    700a:	70 cf b3    	mov.b     #0xf7, w0
    700c:	00 c0 60    	and.b     w1, w0, w0
    700e:	02 40 70    	ior.b     w0, w2, w0
    7010:	cb e2 b7    	mov.b     WREG, 0x2cb
    7012:	d1 75 80    	mov.w     0xeba, w1
    7014:	00 08 20    	mov.w     #0x80, w0
    7016:	00 80 60    	and.w     w1, w0, w0
    7018:	00 00 e0    	cp0.w     w0
    701a:	0e 00 32    	bra       Z, 0x7038 <.L84>
    701c:	80 72 80    	mov.w     0xe50, w0
    701e:	01 80 20    	mov.w     #0x800, w1
    7020:	01 00 60    	and.w     w0, w1, w0
    7022:	00 00 e0    	cp0.w     w0
    7024:	02 00 32    	bra       Z, 0x702a <.L86>
    7026:	14 ff 07    	rcall     0x6e50 <_ent_manualS>
    7028:	08 00 37    	bra       0x703a <.L91>

0000702a <.L86>:
    702a:	80 72 80    	mov.w     0xe50, w0
    702c:	01 00 21    	mov.w     #0x1000, w1
    702e:	01 00 60    	and.w     w0, w1, w0
    7030:	00 00 e0    	cp0.w     w0
    7032:	03 00 32    	bra       Z, 0x703a <.L91>
    7034:	19 ff 07    	rcall     0x6e68 <_ent_stabilizedS>
    7036:	01 00 37    	bra       0x703a <.L91>

00007038 <.L84>:
    7038:	31 ff 07    	rcall     0x6e9c <_ent_returnS>

0000703a <.L91>:
    703a:	00 80 fa    	ulnk      
    703c:	00 00 06    	return    

0000703e <_returnS>:
    703e:	00 00 fa    	lnk       #0x0
    7040:	d0 75 80    	mov.w     0xeba, w0
    7042:	01 08 20    	mov.w     #0x80, w1
    7044:	01 00 60    	and.w     w0, w1, w0
    7046:	00 00 e0    	cp0.w     w0
    7048:	1a 00 32    	bra       Z, 0x707e <.L100>
    704a:	80 72 80    	mov.w     0xe50, w0
    704c:	01 80 20    	mov.w     #0x800, w1
    704e:	01 00 60    	and.w     w0, w1, w0
    7050:	00 00 e0    	cp0.w     w0
    7052:	02 00 32    	bra       Z, 0x7058 <.L95>
    7054:	fd fe 07    	rcall     0x6e50 <_ent_manualS>
    7056:	13 00 37    	bra       0x707e <.L100>

00007058 <.L95>:
    7058:	80 72 80    	mov.w     0xe50, w0
    705a:	01 00 21    	mov.w     #0x1000, w1
    705c:	01 00 60    	and.w     w0, w1, w0
    705e:	00 00 e0    	cp0.w     w0
    7060:	02 00 32    	bra       Z, 0x7066 <.L97>
    7062:	02 ff 07    	rcall     0x6e68 <_ent_stabilizedS>
    7064:	0c 00 37    	bra       0x707e <.L100>

00007066 <.L97>:
    7066:	80 72 80    	mov.w     0xe50, w0
    7068:	4d 00 de    	lsr.w     w0, #0xd, w0
    706a:	61 40 60    	and.b     w0, #0x1, w0
    706c:	80 80 fb    	ze        w0, w1
    706e:	b0 76 80    	mov.w     0xed6, w0
    7070:	46 00 de    	lsr.w     w0, #0x6, w0
    7072:	61 40 60    	and.b     w0, #0x1, w0
    7074:	00 80 fb    	ze        w0, w0
    7076:	00 80 60    	and.w     w1, w0, w0
    7078:	00 00 e0    	cp0.w     w0
    707a:	01 00 32    	bra       Z, 0x707e <.L100>
    707c:	01 ff 07    	rcall     0x6e80 <_ent_waypointS>

0000707e <.L100>:
    707e:	00 80 fa    	ulnk      
    7080:	00 00 06    	return    

00007082 <_setup_origin>:
    7082:	18 00 fa    	lnk       #0x18
    7084:	86 fa 07    	rcall     0x6592 <_use_fixed_origin>
    7086:	00 04 e0    	cp0.b     w0
    7088:	18 00 32    	bra       Z, 0x70ba <.L2>
    708a:	6c 00 47    	add.w     w14, #0xc, w0
    708c:	86 fa 07    	rcall     0x659a <_get_fixed_origin>
    708e:	6c 00 47    	add.w     w14, #0xc, w0
    7090:	80 00 78    	mov.w     w0, w1
    7092:	0e 00 78    	mov.w     w14, w0
    7094:	11 01 be    	mov.d     [w1], w2
    7096:	02 88 be    	mov.d     w2, [w0]
    7098:	64 00 40    	add.w     w0, #0x4, w0
    709a:	e4 80 40    	add.w     w1, #0x4, w1
    709c:	11 01 be    	mov.d     [w1], w2
    709e:	02 88 be    	mov.d     w2, [w0]
    70a0:	64 00 40    	add.w     w0, #0x4, w0
    70a2:	e4 80 40    	add.w     w1, #0x4, w1
    70a4:	11 01 be    	mov.d     [w1], w2
    70a6:	02 88 be    	mov.d     w2, [w0]
    70a8:	4e 00 90    	mov.w     [w14+8], w0
    70aa:	de 00 90    	mov.w     [w14+10], w1
    70ac:	2e 01 90    	mov.w     [w14+4], w2
    70ae:	be 01 90    	mov.w     [w14+6], w3
    70b0:	1e 03 be    	mov.d     [w14], w6
    70b2:	00 02 be    	mov.d     w0, w4
    70b4:	06 00 be    	mov.d     w6, w0
    70b6:	ff 07 07    	rcall     0x80b6 <_dcm_set_origin_location>
    70b8:	09 00 37    	bra       0x70cc <.L4>

000070ba <.L2>:
    70ba:	40 65 80    	mov.w     0xca8, w0
    70bc:	51 65 80    	mov.w     0xcaa, w1
    70be:	02 65 80    	mov.w     0xca0, w2
    70c0:	13 65 80    	mov.w     0xca2, w3
    70c2:	26 65 80    	mov.w     0xca4, w6
    70c4:	37 65 80    	mov.w     0xca6, w7
    70c6:	00 02 be    	mov.d     w0, w4
    70c8:	06 00 be    	mov.d     w6, w0
    70ca:	f5 07 07    	rcall     0x80b6 <_dcm_set_origin_location>

000070cc <.L4>:
    70cc:	51 ee a8    	bset.b    0xe51, #0x7
    70ce:	00 80 fa    	ulnk      
    70d0:	00 00 06    	return    

000070d2 <_dcm_callback_gps_location_updated>:
    70d2:	00 00 fa    	lnk       #0x0
    70d4:	80 72 80    	mov.w     0xe50, w0
    70d6:	01 04 20    	mov.w     #0x40, w1
    70d8:	01 00 60    	and.w     w0, w1, w0
    70da:	00 00 e0    	cp0.w     w0
    70dc:	02 00 32    	bra       Z, 0x70e2 <.L9>
    70de:	50 ce a9    	bclr.b    0xe50, #0x6
    70e0:	d0 ff 07    	rcall     0x7082 <_setup_origin>

000070e2 <.L9>:
    70e2:	00 80 fa    	ulnk      
    70e4:	00 00 06    	return    

000070e6 <_set_goal>:
    70e6:	10 00 fa    	lnk       #0x10
    70e8:	64 03 47    	add.w     w14, #0x4, w6
    70ea:	00 0b 78    	mov.w     w0, [w6]
    70ec:	11 03 98    	mov.w     w1, [w6+2]
    70ee:	22 03 98    	mov.w     w2, [w6+4]
    70f0:	6a 00 47    	add.w     w14, #0xa, w0
    70f2:	03 08 78    	mov.w     w3, [w0]
    70f4:	14 00 98    	mov.w     w4, [w0+2]
    70f6:	25 00 98    	mov.w     w5, [w0+4]
    70f8:	6a 00 47    	add.w     w14, #0xa, w0
    70fa:	10 00 78    	mov.w     [w0], w0
    70fc:	90 71 88    	mov.w     w0, 0xe32
    70fe:	6a 00 47    	add.w     w14, #0xa, w0
    7100:	10 00 90    	mov.w     [w0+2], w0
    7102:	a0 71 88    	mov.w     w0, 0xe34
    7104:	6a 00 47    	add.w     w14, #0xa, w0
    7106:	20 00 90    	mov.w     [w0+4], w0
    7108:	e0 71 88    	mov.w     w0, 0xe3c
    710a:	64 00 47    	add.w     w14, #0x4, w0
    710c:	20 00 90    	mov.w     [w0+4], w0
    710e:	f0 71 88    	mov.w     w0, 0xe3e
    7110:	6a 00 47    	add.w     w14, #0xa, w0
    7112:	90 00 78    	mov.w     [w0], w1
    7114:	64 00 47    	add.w     w14, #0x4, w0
    7116:	10 00 78    	mov.w     [w0], w0
    7118:	00 80 50    	sub.w     w1, w0, w0
    711a:	00 0f 78    	mov.w     w0, [w14]
    711c:	6a 00 47    	add.w     w14, #0xa, w0
    711e:	90 00 90    	mov.w     [w0+2], w1
    7120:	64 00 47    	add.w     w14, #0x4, w0
    7122:	10 00 90    	mov.w     [w0+2], w0
    7124:	00 80 50    	sub.w     w1, w0, w0
    7126:	10 07 98    	mov.w     w0, [w14+2]
    7128:	0e 00 78    	mov.w     w14, w0
    712a:	db 03 07    	rcall     0x78e2 <_rect_to_polar>
    712c:	3a ee b7    	mov.b     WREG, 0xe3a
    712e:	1e 00 78    	mov.w     [w14], w0
    7130:	00 72 88    	mov.w     w0, 0xe40
    7132:	3a ce bf    	mov.b     0xe3a, WREG
    7134:	9a 03 07    	rcall     0x786a <_cosine>
    7136:	b0 71 88    	mov.w     w0, 0xe36
    7138:	3a ce bf    	mov.b     0xe3a, WREG
    713a:	13 03 07    	rcall     0x7762 <_sine>
    713c:	c0 71 88    	mov.w     w0, 0xe38
    713e:	00 80 fa    	ulnk      
    7140:	00 00 06    	return    

00007142 <_process_flightplan>:
    7142:	00 00 fa    	lnk       #0x0
    7144:	0b 08 07    	rcall     0x815c <_gps_nav_valid>
    7146:	00 04 e0    	cp0.b     w0
    7148:	08 00 32    	bra       Z, 0x715a <.L16>
    714a:	80 72 80    	mov.w     0xe50, w0
    714c:	01 08 20    	mov.w     #0x80, w1
    714e:	01 00 60    	and.w     w0, w1, w0
    7150:	00 00 e0    	cp0.w     w0
    7152:	03 00 32    	bra       Z, 0x715a <.L16>
    7154:	04 00 07    	rcall     0x715e <_compute_bearing_to_goal>
    7156:	0a fb 07    	rcall     0x676c <_run_flightplan>
    7158:	36 0f 07    	rcall     0x8fc6 <_compute_camera_view>

0000715a <.L16>:
    715a:	00 80 fa    	ulnk      
    715c:	00 00 06    	return    

0000715e <_compute_bearing_to_goal>:
    715e:	10 00 fa    	lnk       #0x10
    7160:	88 9f be    	mov.d     w8, [w15++]
    7162:	91 71 80    	mov.w     0xe32, w1
    7164:	60 67 80    	mov.w     0xcec, w0
    7166:	00 80 50    	sub.w     w1, w0, w0
    7168:	a0 73 88    	mov.w     w0, 0xe74
    716a:	a1 71 80    	mov.w     0xe34, w1
    716c:	80 67 80    	mov.w     0xcf0, w0
    716e:	00 80 50    	sub.w     w1, w0, w0
    7170:	b0 73 88    	mov.w     w0, 0xe76
    7172:	b1 71 80    	mov.w     0xe36, w1
    7174:	a0 73 80    	mov.w     0xe74, w0
    7176:	01 81 b9    	mul.ss    w0, w1, w2
    7178:	c1 71 80    	mov.w     0xe38, w1
    717a:	b0 73 80    	mov.w     0xe76, w0
    717c:	01 80 b9    	mul.ss    w0, w1, w0
    717e:	02 00 40    	add.w     w0, w2, w0
    7180:	83 80 48    	addc.w    w1, w3, w1
    7182:	42 09 dd    	sl.w      w1, #0x2, w2
    7184:	ce 00 de    	lsr.w     w0, #0xe, w1
    7186:	81 00 71    	ior.w     w2, w1, w1
    7188:	42 00 dd    	sl.w      w0, #0x2, w0
    718a:	20 07 98    	mov.w     w0, [w14+4]
    718c:	31 07 98    	mov.w     w1, [w14+6]
    718e:	3e 00 90    	mov.w     [w14+6], w0
    7190:	c0 73 88    	mov.w     w0, 0xe78
    7192:	a1 75 80    	mov.w     0xeb4, w1
    7194:	00 40 20    	mov.w     #0x400, w0
    7196:	00 80 60    	and.w     w1, w0, w0
    7198:	00 00 e0    	cp0.w     w0
    719a:	6c 00 32    	bra       Z, 0x7274 <.L18>
    719c:	b1 71 80    	mov.w     0xe36, w1
    719e:	b0 73 80    	mov.w     0xe76, w0
    71a0:	01 81 b9    	mul.ss    w0, w1, w2
    71a2:	c1 71 80    	mov.w     0xe38, w1
    71a4:	a0 73 80    	mov.w     0xe74, w0
    71a6:	01 80 b9    	mul.ss    w0, w1, w0
    71a8:	00 00 51    	sub.w     w2, w0, w0
    71aa:	81 80 59    	subb.w    w3, w1, w1
    71ac:	42 09 dd    	sl.w      w1, #0x2, w2
    71ae:	ce 00 de    	lsr.w     w0, #0xe, w1
    71b0:	81 00 71    	ior.w     w2, w1, w1
    71b2:	42 00 dd    	sl.w      w0, #0x2, w0
    71b4:	20 07 98    	mov.w     w0, [w14+4]
    71b6:	31 07 98    	mov.w     w1, [w14+6]
    71b8:	3e 00 90    	mov.w     [w14+6], w0
    71ba:	00 0f 78    	mov.w     w0, [w14]
    71bc:	11 ff 2f    	mov.w     #0xfff1, w1
    71be:	9e 8f 10    	subr.w    w1, [w14], [w15]
    71c0:	13 00 35    	bra       LT, 0x71e8 <.L20>
    71c2:	f2 00 20    	mov.w     #0xf, w2
    71c4:	9e 0f 11    	subr.w    w2, [w14], [w15]
    71c6:	10 00 3c    	bra       GT, 0x71e8 <.L20>
    71c8:	1e 00 e0    	cp0.w     [w14]
    71ca:	07 00 34    	bra       LE, 0x71da <.L23>
    71cc:	a1 e3 20    	mov.w     #0xe3a, w1
    71ce:	91 40 78    	mov.b     [w1], w1
    71d0:	1e 00 78    	mov.w     [w14], w0
    71d2:	00 00 40    	add.w     w0, w0, w0
    71d4:	00 c0 40    	add.b     w1, w0, w0
    71d6:	20 47 98    	mov.b     w0, [w14+2]
    71d8:	11 00 37    	bra       0x71fc <.L26>

000071da <.L23>:
    71da:	a1 e3 20    	mov.w     #0xe3a, w1
    71dc:	91 40 78    	mov.b     [w1], w1
    71de:	1e 00 78    	mov.w     [w14], w0
    71e0:	00 00 40    	add.w     w0, w0, w0
    71e2:	00 c0 40    	add.b     w1, w0, w0
    71e4:	20 47 98    	mov.b     w0, [w14+2]
    71e6:	0a 00 37    	bra       0x71fc <.L26>

000071e8 <.L20>:
    71e8:	1e 00 e0    	cp0.w     [w14]
    71ea:	04 00 34    	bra       LE, 0x71f4 <.L27>
    71ec:	3a ce bf    	mov.b     0xe3a, WREG
    71ee:	00 42 b0    	add.b     #0x20, w0
    71f0:	20 47 98    	mov.b     w0, [w14+2]
    71f2:	04 00 37    	bra       0x71fc <.L26>

000071f4 <.L27>:
    71f4:	3a ce bf    	mov.b     0xe3a, WREG
    71f6:	01 ce b3    	mov.b     #0xe0, w1
    71f8:	01 40 40    	add.b     w0, w1, w0
    71fa:	20 47 98    	mov.b     w0, [w14+2]

000071fc <.L26>:
    71fc:	c0 6f 80    	mov.w     0xdf8, w0
    71fe:	00 00 e0    	cp0.w     w0
    7200:	03 00 3a    	bra       NZ, 0x7208 <.L29>
    7202:	d0 6f 80    	mov.w     0xdfa, w0
    7204:	00 00 e0    	cp0.w     w0
    7206:	04 00 32    	bra       Z, 0x7210 <.L31>

00007208 <.L29>:
    7208:	91 73 80    	mov.w     0xe72, w1
    720a:	70 0c 20    	mov.w     #0xc7, w0
    720c:	80 8f 50    	sub.w     w1, w0, [w15]
    720e:	03 00 3c    	bra       GT, 0x7216 <.L32>

00007210 <.L31>:
    7210:	2e 40 90    	mov.b     [w14+2], w0
    7212:	30 47 98    	mov.b     w0, [w14+3]
    7214:	6e 00 37    	bra       0x72f2 <.L37>

00007216 <.L32>:
    7216:	2e 40 90    	mov.b     [w14+2], w0
    7218:	a4 02 07    	rcall     0x7762 <_sine>
    721a:	80 00 78    	mov.w     w0, w1
    721c:	c0 6f 80    	mov.w     0xdf8, w0
    721e:	01 84 b9    	mul.ss    w0, w1, w8
    7220:	2e 40 90    	mov.b     [w14+2], w0
    7222:	23 03 07    	rcall     0x786a <_cosine>
    7224:	80 00 78    	mov.w     w0, w1
    7226:	d0 6f 80    	mov.w     0xdfa, w0
    7228:	01 80 b9    	mul.ss    w0, w1, w0
    722a:	00 00 54    	sub.w     w8, w0, w0
    722c:	81 80 5c    	subb.w    w9, w1, w1
    722e:	42 09 dd    	sl.w      w1, #0x2, w2
    7230:	ce 00 de    	lsr.w     w0, #0xe, w1
    7232:	81 00 71    	ior.w     w2, w1, w1
    7234:	42 00 dd    	sl.w      w0, #0x2, w0
    7236:	40 07 98    	mov.w     w0, [w14+8]
    7238:	51 07 98    	mov.w     w1, [w14+10]
    723a:	5e 00 90    	mov.w     [w14+10], w0
    723c:	70 07 98    	mov.w     w0, [w14+14]
    723e:	7e 00 90    	mov.w     [w14+14], w0
    7240:	00 00 e0    	cp0.w     w0
    7242:	03 00 3d    	bra       GE, 0x724a <.L34>
    7244:	fe 00 90    	mov.w     [w14+14], w1
    7246:	81 00 ea    	neg.w     w1, w1
    7248:	71 07 98    	mov.w     w1, [w14+14]

0000724a <.L34>:
    724a:	90 73 80    	mov.w     0xe72, w0
    724c:	7e 01 90    	mov.w     [w14+14], w2
    724e:	80 0f 51    	sub.w     w2, w0, [w15]
    7250:	0e 00 3d    	bra       GE, 0x726e <.L35>
    7252:	92 73 80    	mov.w     0xe72, w2
    7254:	4e 00 90    	mov.w     [w14+8], w0
    7256:	de 00 90    	mov.w     [w14+10], w1
    7258:	81 1f 78    	mov.w     w1, [w15++]
    725a:	11 00 09    	repeat    #0x11
    725c:	42 08 d8    	div.sd    w0, w2
    725e:	cf 00 78    	mov.w     [--w15], w1
    7260:	42 80 de    	asr.w     w0, #0x2, w0
    7262:	af 02 07    	rcall     0x77c2 <_arcsine>
    7264:	80 40 78    	mov.b     w0, w1
    7266:	2e 40 90    	mov.b     [w14+2], w0
    7268:	00 c0 40    	add.b     w1, w0, w0
    726a:	30 47 98    	mov.b     w0, [w14+3]
    726c:	42 00 37    	bra       0x72f2 <.L37>

0000726e <.L35>:
    726e:	2e 40 90    	mov.b     [w14+2], w0
    7270:	30 47 98    	mov.b     w0, [w14+3]
    7272:	3f 00 37    	bra       0x72f2 <.L37>

00007274 <.L18>:
    7274:	c0 6f 80    	mov.w     0xdf8, w0
    7276:	00 00 e0    	cp0.w     w0
    7278:	03 00 3a    	bra       NZ, 0x7280 <.L38>
    727a:	d0 6f 80    	mov.w     0xdfa, w0
    727c:	00 00 e0    	cp0.w     w0
    727e:	04 00 32    	bra       Z, 0x7288 <.L40>

00007280 <.L38>:
    7280:	91 73 80    	mov.w     0xe72, w1
    7282:	70 0c 20    	mov.w     #0xc7, w0
    7284:	80 8f 50    	sub.w     w1, w0, [w15]
    7286:	04 00 3c    	bra       GT, 0x7290 <.L41>

00007288 <.L40>:
    7288:	40 e7 20    	mov.w     #0xe74, w0
    728a:	2b 03 07    	rcall     0x78e2 <_rect_to_polar>
    728c:	30 47 98    	mov.b     w0, [w14+3]
    728e:	31 00 37    	bra       0x72f2 <.L37>

00007290 <.L41>:
    7290:	40 e7 20    	mov.w     #0xe74, w0
    7292:	27 03 07    	rcall     0x78e2 <_rect_to_polar>
    7294:	20 47 98    	mov.b     w0, [w14+2]
    7296:	2e 40 90    	mov.b     [w14+2], w0
    7298:	64 02 07    	rcall     0x7762 <_sine>
    729a:	80 00 78    	mov.w     w0, w1
    729c:	c0 6f 80    	mov.w     0xdf8, w0
    729e:	01 84 b9    	mul.ss    w0, w1, w8
    72a0:	2e 40 90    	mov.b     [w14+2], w0
    72a2:	e3 02 07    	rcall     0x786a <_cosine>
    72a4:	80 00 78    	mov.w     w0, w1
    72a6:	d0 6f 80    	mov.w     0xdfa, w0
    72a8:	01 80 b9    	mul.ss    w0, w1, w0
    72aa:	00 00 54    	sub.w     w8, w0, w0
    72ac:	81 80 5c    	subb.w    w9, w1, w1
    72ae:	42 09 dd    	sl.w      w1, #0x2, w2
    72b0:	ce 00 de    	lsr.w     w0, #0xe, w1
    72b2:	81 00 71    	ior.w     w2, w1, w1
    72b4:	42 00 dd    	sl.w      w0, #0x2, w0
    72b6:	40 07 98    	mov.w     w0, [w14+8]
    72b8:	51 07 98    	mov.w     w1, [w14+10]
    72ba:	5e 00 90    	mov.w     [w14+10], w0
    72bc:	60 07 98    	mov.w     w0, [w14+12]
    72be:	6e 00 90    	mov.w     [w14+12], w0
    72c0:	00 00 e0    	cp0.w     w0
    72c2:	03 00 3d    	bra       GE, 0x72ca <.L42>
    72c4:	ee 00 90    	mov.w     [w14+12], w1
    72c6:	81 00 ea    	neg.w     w1, w1
    72c8:	61 07 98    	mov.w     w1, [w14+12]

000072ca <.L42>:
    72ca:	90 73 80    	mov.w     0xe72, w0
    72cc:	6e 01 90    	mov.w     [w14+12], w2
    72ce:	80 0f 51    	sub.w     w2, w0, [w15]
    72d0:	0e 00 3d    	bra       GE, 0x72ee <.L43>
    72d2:	92 73 80    	mov.w     0xe72, w2
    72d4:	4e 00 90    	mov.w     [w14+8], w0
    72d6:	de 00 90    	mov.w     [w14+10], w1
    72d8:	81 1f 78    	mov.w     w1, [w15++]
    72da:	11 00 09    	repeat    #0x11
    72dc:	42 08 d8    	div.sd    w0, w2
    72de:	cf 00 78    	mov.w     [--w15], w1
    72e0:	42 80 de    	asr.w     w0, #0x2, w0
    72e2:	6f 02 07    	rcall     0x77c2 <_arcsine>
    72e4:	80 40 78    	mov.b     w0, w1
    72e6:	2e 40 90    	mov.b     [w14+2], w0
    72e8:	00 c0 40    	add.b     w1, w0, w0
    72ea:	30 47 98    	mov.b     w0, [w14+3]
    72ec:	02 00 37    	bra       0x72f2 <.L37>

000072ee <.L43>:
    72ee:	2e 40 90    	mov.b     [w14+2], w0
    72f0:	30 47 98    	mov.b     w0, [w14+3]

000072f2 <.L37>:
    72f2:	80 72 80    	mov.w     0xe50, w0
    72f4:	01 08 20    	mov.w     #0x80, w1
    72f6:	01 00 60    	and.w     w0, w1, w0
    72f8:	00 00 e0    	cp0.w     w0
    72fa:	2a 00 32    	bra       Z, 0x7350 <.L45>
    72fc:	3e 40 90    	mov.b     [w14+3], w0
    72fe:	7c ee b7    	mov.b     WREG, 0xe7c
    7300:	00 72 80    	mov.w     0xe40, w0
    7302:	00 00 e0    	cp0.w     w0
    7304:	22 00 34    	bra       LE, 0x734a <.L47>
    7306:	00 72 80    	mov.w     0xe40, w0
    7308:	61 01 b9    	mul.su    w0, #0x1, w2
    730a:	c0 73 80    	mov.w     0xe78, w0
    730c:	cf 80 de    	asr.w     w0, #0xf, w1
    730e:	00 02 51    	sub.w     w2, w0, w4
    7310:	81 82 59    	subb.w    w3, w1, w5
    7312:	60 73 80    	mov.w     0xe6c, w0
    7314:	42 06 20    	mov.w     #0x64, w2
    7316:	11 00 09    	repeat    #0x11
    7318:	02 00 d8    	div.sw    w0, w2
    731a:	cf 80 de    	asr.w     w0, #0xf, w1
    731c:	04 00 40    	add.w     w0, w4, w0
    731e:	85 80 48    	addc.w    w1, w5, w1
    7320:	4c 0a dd    	sl.w      w1, #0xc, w4
    7322:	c4 02 de    	lsr.w     w0, #0x4, w5
    7324:	85 02 72    	ior.w     w4, w5, w5
    7326:	4c 02 dd    	sl.w      w0, #0xc, w4
    7328:	00 72 80    	mov.w     0xe40, w0
    732a:	61 01 b9    	mul.su    w0, #0x1, w2
    732c:	04 00 be    	mov.d     w4, w0
    732e:	2f d1 07    	rcall     0x158e <___divsi3>
    7330:	d0 73 88    	mov.w     w0, 0xe7a
    7332:	d0 73 80    	mov.w     0xe7a, w0
    7334:	00 00 e0    	cp0.w     w0
    7336:	02 00 3d    	bra       GE, 0x733c <.L49>
    7338:	00 00 eb    	clr.w     w0
    733a:	d0 73 88    	mov.w     w0, 0xe7a

0000733c <.L49>:
    733c:	d1 73 80    	mov.w     0xe7a, w1
    733e:	00 00 21    	mov.w     #0x1000, w0
    7340:	80 8f 50    	sub.w     w1, w0, [w15]
    7342:	0b 00 34    	bra       LE, 0x735a <.L56>
    7344:	00 00 21    	mov.w     #0x1000, w0
    7346:	d0 73 88    	mov.w     w0, 0xe7a
    7348:	08 00 37    	bra       0x735a <.L56>

0000734a <.L47>:
    734a:	00 00 21    	mov.w     #0x1000, w0
    734c:	d0 73 88    	mov.w     w0, 0xe7a
    734e:	05 00 37    	bra       0x735a <.L56>

00007350 <.L45>:
    7350:	90 75 80    	mov.w     0xeb2, w0
    7352:	e4 0f 50    	sub.w     w0, #0x4, [w15]
    7354:	02 00 32    	bra       Z, 0x735a <.L56>
    7356:	d2 ce bf    	mov.b     0xed2, WREG
    7358:	7c ee b7    	mov.b     WREG, 0xe7c

0000735a <.L56>:
    735a:	4f 04 be    	mov.d     [--w15], w8
    735c:	00 80 fa    	ulnk      
    735e:	00 00 06    	return    

00007360 <_determine_navigation_deflection>:
    7360:	1a 00 fa    	lnk       #0x1a
    7362:	60 57 98    	mov.b     w0, [w14+22]
    7364:	ee 50 90    	mov.b     [w14+22], w1
    7366:	90 c7 b3    	mov.b     #0x79, w0
    7368:	80 cf 50    	sub.b     w1, w0, [w15]
    736a:	07 00 3a    	bra       NZ, 0x737a <.L58>
    736c:	30 37 85    	mov.w     0xa6e6, w0
    736e:	00 0f 78    	mov.w     w0, [w14]
    7370:	32 58 80    	mov.w     0xb06, w2
    7372:	22 07 98    	mov.w     w2, [w14+4]
    7374:	60 58 80    	mov.w     0xb0c, w0
    7376:	10 07 98    	mov.w     w0, [w14+2]
    7378:	19 00 37    	bra       0x73ac <.L60>

0000737a <.L58>:
    737a:	ee 50 90    	mov.b     [w14+22], w1
    737c:	10 c6 b3    	mov.b     #0x61, w0
    737e:	80 cf 50    	sub.b     w1, w0, [w15]
    7380:	07 00 3a    	bra       NZ, 0x7390 <.L61>
    7382:	22 37 85    	mov.w     0xa6e4, w2
    7384:	02 0f 78    	mov.w     w2, [w14]
    7386:	30 58 80    	mov.w     0xb06, w0
    7388:	20 07 98    	mov.w     w0, [w14+4]
    738a:	62 58 80    	mov.w     0xb0c, w2
    738c:	12 07 98    	mov.w     w2, [w14+2]
    738e:	0e 00 37    	bra       0x73ac <.L60>

00007390 <.L61>:
    7390:	ee 50 90    	mov.b     [w14+22], w1
    7392:	80 c6 b3    	mov.b     #0x68, w0
    7394:	80 cf 50    	sub.b     w1, w0, [w15]
    7396:	07 00 3a    	bra       NZ, 0x73a6 <.L63>
    7398:	20 37 85    	mov.w     0xa6e4, w0
    739a:	00 0f 78    	mov.w     w0, [w14]
    739c:	42 58 80    	mov.w     0xb08, w2
    739e:	22 07 98    	mov.w     w2, [w14+4]
    73a0:	70 58 80    	mov.w     0xb0e, w0
    73a2:	10 07 98    	mov.w     w0, [w14+2]
    73a4:	03 00 37    	bra       0x73ac <.L60>

000073a6 <.L63>:
    73a6:	00 01 eb    	clr.w     w2
    73a8:	42 0f 98    	mov.w     w2, [w14+24]
    73aa:	45 00 37    	bra       0x7436 <.L65>

000073ac <.L60>:
    73ac:	7c ce bf    	mov.b     0xe7c, WREG
    73ae:	5d 02 07    	rcall     0x786a <_cosine>
    73b0:	00 00 ea    	neg.w     w0, w0
    73b2:	40 07 98    	mov.w     w0, [w14+8]
    73b4:	7c ce bf    	mov.b     0xe7c, WREG
    73b6:	d5 01 07    	rcall     0x7762 <_sine>
    73b8:	30 07 98    	mov.w     w0, [w14+6]
    73ba:	ae 00 90    	mov.w     [w14+4], w1
    73bc:	4e 00 90    	mov.w     [w14+8], w0
    73be:	00 89 b9    	mul.ss    w1, w0, w2
    73c0:	9e 00 90    	mov.w     [w14+2], w1
    73c2:	3e 00 90    	mov.w     [w14+6], w0
    73c4:	00 88 b9    	mul.ss    w1, w0, w0
    73c6:	02 00 40    	add.w     w0, w2, w0
    73c8:	83 80 48    	addc.w    w1, w3, w1
    73ca:	70 07 98    	mov.w     w0, [w14+14]
    73cc:	01 0f 98    	mov.w     w1, [w14+16]
    73ce:	ae 00 90    	mov.w     [w14+4], w1
    73d0:	3e 00 90    	mov.w     [w14+6], w0
    73d2:	00 89 b9    	mul.ss    w1, w0, w2
    73d4:	9e 00 90    	mov.w     [w14+2], w1
    73d6:	4e 00 90    	mov.w     [w14+8], w0
    73d8:	00 88 b9    	mul.ss    w1, w0, w0
    73da:	00 00 51    	sub.w     w2, w0, w0
    73dc:	81 80 59    	subb.w    w3, w1, w1
    73de:	10 0f 98    	mov.w     w0, [w14+18]
    73e0:	21 0f 98    	mov.w     w1, [w14+20]
    73e2:	1e 08 90    	mov.w     [w14+18], w0
    73e4:	ae 08 90    	mov.w     [w14+20], w1
    73e6:	42 09 dd    	sl.w      w1, #0x2, w2
    73e8:	ce 00 de    	lsr.w     w0, #0xe, w1
    73ea:	81 00 71    	ior.w     w2, w1, w1
    73ec:	42 00 dd    	sl.w      w0, #0x2, w0
    73ee:	10 0f 98    	mov.w     w0, [w14+18]
    73f0:	21 0f 98    	mov.w     w1, [w14+20]
    73f2:	0e 08 90    	mov.w     [w14+16], w0
    73f4:	00 00 e0    	cp0.w     w0
    73f6:	05 00 34    	bra       LE, 0x7402 <.L66>
    73f8:	2e 08 90    	mov.w     [w14+20], w0
    73fa:	1e 80 b9    	mul.ss    w0, [w14], w0
    73fc:	50 07 98    	mov.w     w0, [w14+10]
    73fe:	61 07 98    	mov.w     w1, [w14+12]
    7400:	0e 00 37    	bra       0x741e <.L68>

00007402 <.L66>:
    7402:	2e 08 90    	mov.w     [w14+20], w0
    7404:	00 00 e0    	cp0.w     w0
    7406:	06 00 34    	bra       LE, 0x7414 <.L69>
    7408:	1e 00 78    	mov.w     [w14], w0
    740a:	42 00 20    	mov.w     #0x4, w2
    740c:	11 00 09    	repeat    #0x11
    740e:	02 00 d8    	div.sw    w0, w2
    7410:	60 07 98    	mov.w     w0, [w14+12]
    7412:	05 00 37    	bra       0x741e <.L68>

00007414 <.L69>:
    7414:	1e 00 ea    	neg.w     [w14], w0
    7416:	42 00 20    	mov.w     #0x4, w2
    7418:	11 00 09    	repeat    #0x11
    741a:	02 00 d8    	div.sw    w0, w2
    741c:	60 07 98    	mov.w     w0, [w14+12]

0000741e <.L68>:
    741e:	ee 50 90    	mov.b     [w14+22], w1
    7420:	80 c6 b3    	mov.b     #0x68, w0
    7422:	80 cf 50    	sub.b     w1, w0, [w15]
    7424:	06 00 3a    	bra       NZ, 0x7432 <.L71>
    7426:	5e 00 90    	mov.w     [w14+10], w0
    7428:	ee 00 90    	mov.w     [w14+12], w1
    742a:	60 00 10    	subr.w    w0, #0x0, w0
    742c:	e0 80 18    	subbr.w   w1, #0x0, w1
    742e:	50 07 98    	mov.w     w0, [w14+10]
    7430:	61 07 98    	mov.w     w1, [w14+12]

00007432 <.L71>:
    7432:	6e 00 90    	mov.w     [w14+12], w0
    7434:	40 0f 98    	mov.w     w0, [w14+24]

00007436 <.L65>:
    7436:	4e 08 90    	mov.w     [w14+24], w0
    7438:	00 80 fa    	ulnk      
    743a:	00 00 06    	return    

0000743c <_altitudeCntrl>:
void hoverAltitudeCntrl(void) ;


void altitudeCntrl(void)
{
    743c:	00 00 fa    	lnk       #0x0
	if ( canStabilizeHover() && current_orientation == F_HOVER )
    743e:	57 0a 07    	rcall     0x88ee <_canStabilizeHover>
    7440:	00 04 e0    	cp0.b     w0
    7442:	05 00 32    	bra       Z, 0x744e <.L2>
    7444:	90 75 80    	mov.w     0xeb2, w0
    7446:	e4 0f 50    	sub.w     w0, #0x4, [w15]
    7448:	02 00 3a    	bra       NZ, 0x744e <.L2>
	{
		hoverAltitudeCntrl() ;
    744a:	5f 01 07    	rcall     0x770a <_hoverAltitudeCntrl>
    744c:	01 00 37    	bra       0x7450 <.L6>

0000744e <.L2>:
	}
	else
	{
		normalAltitudeCntrl() ;
    744e:	2c 00 07    	rcall     0x74a8 <_normalAltitudeCntrl>

00007450 <.L6>:
	}
	
	return ;
}
    7450:	00 80 fa    	ulnk      
    7452:	00 00 06    	return    

00007454 <_set_throttle_control>:


void set_throttle_control(int throttle)
{
    7454:	06 00 fa    	lnk       #0x6
    7456:	20 07 98    	mov.w     w0, [w14+4]
	int throttleIn ;
	
	if ( flags._.altitude_hold_throttle || flags._.altitude_hold_pitch || filterManual )
    7458:	80 72 80    	mov.w     0xe50, w0
    745a:	01 20 20    	mov.w     #0x200, w1
    745c:	01 00 60    	and.w     w0, w1, w0
    745e:	00 00 e0    	cp0.w     w0
    7460:	08 00 3a    	bra       NZ, 0x7472 <.L8>
    7462:	80 72 80    	mov.w     0xe50, w0
    7464:	01 40 20    	mov.w     #0x400, w1
    7466:	01 00 60    	and.w     w0, w1, w0
    7468:	00 00 e0    	cp0.w     w0
    746a:	03 00 3a    	bra       NZ, 0x7472 <.L8>
    746c:	8e ce bf    	mov.b     0xe8e, WREG
    746e:	00 04 e0    	cp0.b     w0
    7470:	17 00 32    	bra       Z, 0x74a0 <.L11>

00007472 <.L8>:
	{
		if ( udb_flags._.radio_on == 1 )
    7472:	d0 75 80    	mov.w     0xeba, w0
    7474:	01 08 20    	mov.w     #0x80, w1
    7476:	01 00 60    	and.w     w0, w1, w0
    7478:	00 00 e0    	cp0.w     w0
    747a:	03 00 32    	bra       Z, 0x7482 <.L12>
		{
			throttleIn = udb_pwIn[THROTTLE_INPUT_CHANNEL] ;
    747c:	d0 4a 80    	mov.w     0x95a, w0
    747e:	10 07 98    	mov.w     w0, [w14+2]
    7480:	02 00 37    	bra       0x7486 <.L14>

00007482 <.L12>:
		}
		else
		{
			throttleIn = udb_pwTrim[THROTTLE_INPUT_CHANNEL] ;
    7482:	e0 4e 80    	mov.w     0x9dc, w0
    7484:	10 07 98    	mov.w     w0, [w14+2]

00007486 <.L14>:
		}
		
		int temp = throttleIn + REVERSE_IF_NEEDED(THROTTLE_CHANNEL_REVERSED, throttle) ;
    7486:	1e 00 90    	mov.w     [w14+2], w0
    7488:	ae 00 90    	mov.w     [w14+4], w1
    748a:	01 0f 40    	add.w     w0, w1, [w14]
		
		if ( THROTTLE_CHANNEL_REVERSED )
		{
			if (temp > udb_pwTrim[THROTTLE_INPUT_CHANNEL]) throttle = throttleIn - udb_pwTrim[THROTTLE_INPUT_CHANNEL] ;
		}
		else
		{
			if (temp < udb_pwTrim[THROTTLE_INPUT_CHANNEL]) throttle = udb_pwTrim[THROTTLE_INPUT_CHANNEL] - throttleIn ;
    748c:	e0 4e 80    	mov.w     0x9dc, w0
    748e:	9e 0f 50    	sub.w     w0, [w14], [w15]
    7490:	04 00 34    	bra       LE, 0x749a <.L15>
    7492:	e0 4e 80    	mov.w     0x9dc, w0
    7494:	9e 00 90    	mov.w     [w14+2], w1
    7496:	01 00 50    	sub.w     w0, w1, w0
    7498:	20 07 98    	mov.w     w0, [w14+4]

0000749a <.L15>:
		}
		
		throttle_control = throttle ;
    749a:	2e 00 90    	mov.w     [w14+4], w0
    749c:	10 73 88    	mov.w     w0, 0xe62
    749e:	02 00 37    	bra       0x74a4 <.L18>

000074a0 <.L11>:
	}
	else
	{
		throttle_control = 0 ;
    74a0:	00 00 eb    	clr.w     w0
    74a2:	10 73 88    	mov.w     w0, 0xe62

000074a4 <.L18>:
	}
	
	return ;
}
    74a4:	00 80 fa    	ulnk      
    74a6:	00 00 06    	return    

000074a8 <_normalAltitudeCntrl>:


void normalAltitudeCntrl(void)
{
    74a8:	12 00 fa    	lnk       #0x12
    74aa:	88 9f be    	mov.d     w8, [w15++]
	union longww throttleAccum ;
	union longww pitchAccum ;
	int throttleIn ;
	int throttleInOffset ;
	union longww heightError = { 0 } ;
    74ac:	60 00 b8    	mul.uu    w0, #0x0, w0
    74ae:	70 07 98    	mov.w     w0, [w14+14]
    74b0:	01 0f 98    	mov.w     w1, [w14+16]
	
	if ( udb_flags._.radio_on == 1 )
    74b2:	d1 75 80    	mov.w     0xeba, w1
    74b4:	00 08 20    	mov.w     #0x80, w0
    74b6:	00 80 60    	and.w     w1, w0, w0
    74b8:	00 00 e0    	cp0.w     w0
    74ba:	0c 00 32    	bra       Z, 0x74d4 <.L20>
	{
		throttleIn = udb_pwIn[THROTTLE_INPUT_CHANNEL] ;
    74bc:	d0 4a 80    	mov.w     0x95a, w0
    74be:	20 07 98    	mov.w     w0, [w14+4]
		// keep the In and Trim throttle values within 2000-4000 to account for
		// Spektrum receivers using failsafe values below 2000.
		throttleInOffset = udb_servo_pulsesat( udb_pwIn[THROTTLE_INPUT_CHANNEL] ) - udb_servo_pulsesat( udb_pwTrim[THROTTLE_INPUT_CHANNEL] ) ;
    74c0:	d0 4a 80    	mov.w     0x95a, w0
    74c2:	cf 80 de    	asr.w     w0, #0xf, w1
    74c4:	fb 03 07    	rcall     0x7cbc <_udb_servo_pulsesat>
    74c6:	00 04 78    	mov.w     w0, w8
    74c8:	e0 4e 80    	mov.w     0x9dc, w0
    74ca:	cf 80 de    	asr.w     w0, #0xf, w1
    74cc:	f7 03 07    	rcall     0x7cbc <_udb_servo_pulsesat>
    74ce:	00 00 54    	sub.w     w8, w0, w0
    74d0:	10 07 98    	mov.w     w0, [w14+2]
    74d2:	04 00 37    	bra       0x74dc <.L22>

000074d4 <.L20>:
	}
	else
	{
		throttleIn = udb_pwTrim[THROTTLE_INPUT_CHANNEL] ;
    74d4:	e2 4e 80    	mov.w     0x9dc, w2
    74d6:	22 07 98    	mov.w     w2, [w14+4]
		throttleInOffset = 0 ;
    74d8:	00 00 eb    	clr.w     w0
    74da:	10 07 98    	mov.w     w0, [w14+2]

000074dc <.L22>:
	}
	
	if ( flags._.altitude_hold_throttle || flags._.altitude_hold_pitch )
    74dc:	80 72 80    	mov.w     0xe50, w0
    74de:	01 20 20    	mov.w     #0x200, w1
    74e0:	01 00 60    	and.w     w0, w1, w0
    74e2:	00 00 e0    	cp0.w     w0
    74e4:	05 00 3a    	bra       NZ, 0x74f0 <.L23>
    74e6:	80 72 80    	mov.w     0xe50, w0
    74e8:	01 40 20    	mov.w     #0x400, w1
    74ea:	01 00 60    	and.w     w0, w1, w0
    74ec:	00 00 e0    	cp0.w     w0
    74ee:	e4 00 32    	bra       Z, 0x76b8 <.L25>

000074f0 <.L23>:
	{
		if ( THROTTLE_CHANNEL_REVERSED ) throttleInOffset = - throttleInOffset ;
		
		if ( flags._.GPS_steering )
    74f0:	80 72 80    	mov.w     0xe50, w0
    74f2:	01 08 20    	mov.w     #0x80, w1
    74f4:	01 00 60    	and.w     w0, w1, w0
    74f6:	00 00 e0    	cp0.w     w0
    74f8:	23 00 32    	bra       Z, 0x7540 <.L26>
		{
			if ( desired_behavior._.takeoff || desired_behavior._.altitude )
    74fa:	a0 75 80    	mov.w     0xeb4, w0
    74fc:	61 00 60    	and.w     w0, #0x1, w0
    74fe:	00 00 e0    	cp0.w     w0
    7500:	05 00 3a    	bra       NZ, 0x750c <.L28>
    7502:	a0 75 80    	mov.w     0xeb4, w0
    7504:	01 20 20    	mov.w     #0x200, w1
    7506:	01 00 60    	and.w     w0, w1, w0
    7508:	00 00 e0    	cp0.w     w0
    750a:	03 00 32    	bra       Z, 0x7512 <.L30>

0000750c <.L28>:
			{
				desiredHeight = goal.height ;
    750c:	e0 71 80    	mov.w     0xe3c, w0
    750e:	70 76 88    	mov.w     w0, 0xece
    7510:	24 00 37    	bra       0x755a <.L32>

00007512 <.L30>:
			}
			else
			{
				desiredHeight = goal.fromHeight + (((goal.height - goal.fromHeight) * (long)progress_to_goal)>>12)  ;
    7512:	f3 71 80    	mov.w     0xe3e, w3
    7514:	e1 71 80    	mov.w     0xe3c, w1
    7516:	f0 71 80    	mov.w     0xe3e, w0
    7518:	00 80 50    	sub.w     w1, w0, w0
    751a:	61 04 b9    	mul.su    w0, #0x1, w8
    751c:	d0 73 80    	mov.w     0xe7a, w0
    751e:	61 03 b9    	mul.su    w0, #0x1, w6
    7520:	88 00 78    	mov.w     w8, w1
    7522:	06 00 78    	mov.w     w6, w0
    7524:	00 0a b8    	mul.uu    w1, w0, w4
    7526:	07 c0 b9    	mul.ss    w8, w7, w0
    7528:	05 01 78    	mov.w     w5, w2
    752a:	00 01 41    	add.w     w2, w0, w2
    752c:	09 b0 b9    	mul.ss    w6, w9, w0
    752e:	00 01 41    	add.w     w2, w0, w2
    7530:	82 02 78    	mov.w     w2, w5
    7532:	44 29 dd    	sl.w      w5, #0x4, w2
    7534:	4c 20 de    	lsr.w     w4, #0xc, w0
    7536:	00 00 71    	ior.w     w2, w0, w0
    7538:	cc a8 de    	asr.w     w5, #0xc, w1
    753a:	00 80 41    	add.w     w3, w0, w0
    753c:	70 76 88    	mov.w     w0, 0xece
    753e:	0d 00 37    	bra       0x755a <.L32>

00007540 <.L26>:
			}
		}
		else
		{
			desiredHeight =(( __builtin_mulss( (int)( HEIGHTTHROTTLEGAIN ), throttleInOffset )) >> 11) ;
    7540:	d1 03 20    	mov.w     #0x3d, w1
    7542:	1e 00 90    	mov.w     [w14+2], w0
    7544:	00 88 b9    	mul.ss    w1, w0, w0
    7546:	45 0a dd    	sl.w      w1, #0x5, w4
    7548:	4b 00 de    	lsr.w     w0, #0xb, w0
    754a:	00 00 72    	ior.w     w4, w0, w0
    754c:	cb 88 de    	asr.w     w1, #0xb, w1
    754e:	70 76 88    	mov.w     w0, 0xece
			if (desiredHeight < (int)( HEIGHT_TARGET_MIN )) desiredHeight = (int)( HEIGHT_TARGET_MIN ) ;
    7550:	70 76 80    	mov.w     0xece, w0
    7552:	f8 0f 50    	sub.w     w0, #0x18, [w15]
    7554:	02 00 3c    	bra       GT, 0x755a <.L32>
    7556:	90 01 20    	mov.w     #0x19, w0
    7558:	70 76 88    	mov.w     w0, 0xece

0000755a <.L32>:
		}
		
		if ( throttleInOffset < (int)( DEADBAND ) && udb_flags._.radio_on )
    755a:	9e 00 90    	mov.w     [w14+2], w1
    755c:	50 09 20    	mov.w     #0x95, w0
    755e:	80 8f 50    	sub.w     w1, w0, [w15]
    7560:	0b 00 3c    	bra       GT, 0x7578 <.L34>
    7562:	d0 75 80    	mov.w     0xeba, w0
    7564:	01 08 20    	mov.w     #0x80, w1
    7566:	01 00 60    	and.w     w0, w1, w0
    7568:	00 00 e0    	cp0.w     w0
    756a:	06 00 32    	bra       Z, 0x7578 <.L34>
		{
			pitchAltitudeAdjust = 0 ;
    756c:	00 00 eb    	clr.w     w0
    756e:	60 74 88    	mov.w     w0, 0xe8c
			throttleAccum.WW  = 0 ;
    7570:	60 00 b8    	mul.uu    w0, #0x0, w0
    7572:	30 07 98    	mov.w     w0, [w14+6]
    7574:	41 07 98    	mov.w     w1, [w14+8]
    7576:	53 00 37    	bra       0x761e <.L37>

00007578 <.L34>:
		}
		else
		{
			heightError._.W1 = - desiredHeight ;
    7578:	70 76 80    	mov.w     0xece, w0
    757a:	00 00 ea    	neg.w     w0, w0
    757c:	00 0f 98    	mov.w     w0, [w14+16]
			heightError.WW += IMUlocationz.WW ;
    757e:	7e 01 90    	mov.w     [w14+14], w2
    7580:	8e 09 90    	mov.w     [w14+16], w3
    7582:	90 67 80    	mov.w     0xcf2, w0
    7584:	a1 67 80    	mov.w     0xcf4, w1
    7586:	02 00 40    	add.w     w0, w2, w0
    7588:	83 80 48    	addc.w    w1, w3, w1
    758a:	70 07 98    	mov.w     w0, [w14+14]
    758c:	01 0f 98    	mov.w     w1, [w14+16]
			heightError.WW = heightError.WW >> 13 ;
    758e:	7e 00 90    	mov.w     [w14+14], w0
    7590:	8e 08 90    	mov.w     [w14+16], w1
    7592:	43 09 dd    	sl.w      w1, #0x3, w2
    7594:	4d 00 de    	lsr.w     w0, #0xd, w0
    7596:	00 00 71    	ior.w     w2, w0, w0
    7598:	cd 88 de    	asr.w     w1, #0xd, w1
    759a:	70 07 98    	mov.w     w0, [w14+14]
    759c:	01 0f 98    	mov.w     w1, [w14+16]
			if ( heightError._.W0 < ( - (int)(HEIGHT_MARGIN*8.0)) )
    759e:	fe 00 90    	mov.w     [w14+14], w1
    75a0:	00 fb 2f    	mov.w     #0xffb0, w0
    75a2:	80 8f 50    	sub.w     w1, w0, [w15]
    75a4:	07 00 3d    	bra       GE, 0x75b4 <.L38>
			{
				throttleAccum.WW = (int)(MAXTHROTTLE) ;
    75a6:	80 38 21    	mov.w     #0x1388, w0
    75a8:	01 00 20    	mov.w     #0x0, w1
    75aa:	30 07 98    	mov.w     w0, [w14+6]
    75ac:	41 07 98    	mov.w     w1, [w14+8]
				pitchAltitudeAdjust = (int)(PITCHATMAX) ;
    75ae:	10 0c 21    	mov.w     #0x10c1, w0
    75b0:	60 74 88    	mov.w     w0, 0xe8c
    75b2:	35 00 37    	bra       0x761e <.L37>

000075b4 <.L38>:
			}
			else if (  heightError._.W0 > (int)(HEIGHT_MARGIN*8.0) )
    75b4:	fe 00 90    	mov.w     [w14+14], w1
    75b6:	00 05 20    	mov.w     #0x50, w0
    75b8:	80 8f 50    	sub.w     w1, w0, [w15]
    75ba:	06 00 34    	bra       LE, 0x75c8 <.L40>
			{
				throttleAccum.WW = 0 ;
    75bc:	60 00 b8    	mul.uu    w0, #0x0, w0
    75be:	30 07 98    	mov.w     w0, [w14+6]
    75c0:	41 07 98    	mov.w     w1, [w14+8]
				pitchAltitudeAdjust = (int)( PITCHATZERO ) ;
    75c2:	f0 f3 2e    	mov.w     #0xef3f, w0
    75c4:	60 74 88    	mov.w     w0, 0xe8c
    75c6:	2b 00 37    	bra       0x761e <.L37>

000075c8 <.L40>:
			}
			else
			{
				throttleAccum.WW = (int)(MAXTHROTTLE) + (__builtin_mulss( (int)(THROTTLEHEIGHTGAIN), ( -heightError._.W0 - (int)(HEIGHT_MARGIN*8.0) ) )>>3) ;
    75c8:	7e 00 90    	mov.w     [w14+14], w0
    75ca:	80 00 ea    	neg.w     w0, w1
    75cc:	00 fb 2f    	mov.w     #0xffb0, w0
    75ce:	80 80 40    	add.w     w1, w0, w1
    75d0:	20 0a 20    	mov.w     #0xa2, w0
    75d2:	01 80 b9    	mul.ss    w0, w1, w0
    75d4:	c3 89 de    	asr.w     w1, #0x3, w3
    75d6:	4d 0a dd    	sl.w      w1, #0xd, w4
    75d8:	43 01 de    	lsr.w     w0, #0x3, w2
    75da:	02 01 72    	ior.w     w4, w2, w2
    75dc:	80 38 21    	mov.w     #0x1388, w0
    75de:	01 00 20    	mov.w     #0x0, w1
    75e0:	02 00 40    	add.w     w0, w2, w0
    75e2:	83 80 48    	addc.w    w1, w3, w1
    75e4:	30 07 98    	mov.w     w0, [w14+6]
    75e6:	41 07 98    	mov.w     w1, [w14+8]
				if ( throttleAccum.WW > (int)(MAXTHROTTLE) ) throttleAccum.WW = (int)(MAXTHROTTLE) ;
    75e8:	3e 01 90    	mov.w     [w14+6], w2
    75ea:	ce 01 90    	mov.w     [w14+8], w3
    75ec:	80 38 21    	mov.w     #0x1388, w0
    75ee:	01 00 20    	mov.w     #0x0, w1
    75f0:	80 0f 51    	sub.w     w2, w0, [w15]
    75f2:	81 8f 59    	subb.w    w3, w1, [w15]
    75f4:	04 00 34    	bra       LE, 0x75fe <.L42>
    75f6:	80 38 21    	mov.w     #0x1388, w0
    75f8:	01 00 20    	mov.w     #0x0, w1
    75fa:	30 07 98    	mov.w     w0, [w14+6]
    75fc:	41 07 98    	mov.w     w1, [w14+8]

000075fe <.L42>:
				pitchAccum.WW = __builtin_mulss( (int)(PITCHHEIGHTGAIN) , - heightError._.W0 - (int)(HEIGHT_MARGIN*8.0 ))>>3 ;
    75fe:	7e 00 90    	mov.w     [w14+14], w0
    7600:	80 00 ea    	neg.w     w0, w1
    7602:	00 fb 2f    	mov.w     #0xffb0, w0
    7604:	80 80 40    	add.w     w1, w0, w1
    7606:	c0 1a 20    	mov.w     #0x1ac, w0
    7608:	01 80 b9    	mul.ss    w0, w1, w0
    760a:	4d 09 dd    	sl.w      w1, #0xd, w2
    760c:	43 00 de    	lsr.w     w0, #0x3, w0
    760e:	00 00 71    	ior.w     w2, w0, w0
    7610:	c3 88 de    	asr.w     w1, #0x3, w1
    7612:	50 07 98    	mov.w     w0, [w14+10]
    7614:	61 07 98    	mov.w     w1, [w14+12]
				pitchAltitudeAdjust = (int)(PITCHATMAX) + pitchAccum._.W0 ;
    7616:	de 00 90    	mov.w     [w14+10], w1
    7618:	10 0c 21    	mov.w     #0x10c1, w0
    761a:	00 80 40    	add.w     w1, w0, w0
    761c:	60 74 88    	mov.w     w0, 0xe8c

0000761e <.L37>:
			}
			
#if (RACING_MODE == 1)
			if ( flags._.GPS_steering )
			{
				throttleAccum.WW = (long)(FIXED_WP_THROTTLE) ;
			}
#endif
		}
		
		if ( !flags._.altitude_hold_throttle )
    761e:	80 72 80    	mov.w     0xe50, w0
    7620:	01 20 20    	mov.w     #0x200, w1
    7622:	01 00 60    	and.w     w0, w1, w0
    7624:	00 00 e0    	cp0.w     w0
    7626:	03 00 3a    	bra       NZ, 0x762e <.L44>
		{
			manualThrottle(throttleIn) ;
    7628:	2e 00 90    	mov.w     [w14+4], w0
    762a:	4d 00 07    	rcall     0x76c6 <_manualThrottle>
    762c:	3b 00 37    	bra       0x76a4 <.L46>

0000762e <.L44>:
		}
		else if ( flags._.GPS_steering && desired_behavior._.land )
    762e:	80 72 80    	mov.w     0xe50, w0
    7630:	01 08 20    	mov.w     #0x80, w1
    7632:	01 00 60    	and.w     w0, w1, w0
    7634:	00 00 e0    	cp0.w     w0
    7636:	1d 00 32    	bra       Z, 0x7672 <.L47>
    7638:	a0 75 80    	mov.w     0xeb4, w0
    763a:	01 08 20    	mov.w     #0x80, w1
    763c:	01 00 60    	and.w     w0, w1, w0
    763e:	00 00 e0    	cp0.w     w0
    7640:	18 00 32    	bra       Z, 0x7672 <.L47>
		{
			// place a ceiling, in other words, go down, but not up.
			if ( pitchAltitudeAdjust > 0 )
    7642:	60 74 80    	mov.w     0xe8c, w0
    7644:	00 00 e0    	cp0.w     w0
    7646:	02 00 34    	bra       LE, 0x764c <.L50>
			{
				pitchAltitudeAdjust = 0 ;
    7648:	00 00 eb    	clr.w     w0
    764a:	60 74 88    	mov.w     w0, 0xe8c

0000764c <.L50>:
			}
			
			throttleFiltered.WW += (((long)(udb_pwTrim[THROTTLE_INPUT_CHANNEL] - throttleFiltered._.W1 ))<<THROTTLEFILTSHIFT ) ;
    764c:	42 74 80    	mov.w     0xe88, w2
    764e:	53 74 80    	mov.w     0xe8a, w3
    7650:	e1 4e 80    	mov.w     0x9dc, w1
    7652:	50 74 80    	mov.w     0xe8a, w0
    7654:	00 80 50    	sub.w     w1, w0, w0
    7656:	cf 80 de    	asr.w     w0, #0xf, w1
    7658:	4c 0a dd    	sl.w      w1, #0xc, w4
    765a:	c4 00 de    	lsr.w     w0, #0x4, w1
    765c:	81 00 72    	ior.w     w4, w1, w1
    765e:	4c 00 dd    	sl.w      w0, #0xc, w0
    7660:	02 00 40    	add.w     w0, w2, w0
    7662:	83 80 48    	addc.w    w1, w3, w1
    7664:	40 74 88    	mov.w     w0, 0xe88
    7666:	51 74 88    	mov.w     w1, 0xe8a
			set_throttle_control(throttleFiltered._.W1 - throttleIn) ;
    7668:	51 74 80    	mov.w     0xe8a, w1
    766a:	2e 00 90    	mov.w     [w14+4], w0
    766c:	00 80 50    	sub.w     w1, w0, w0
    766e:	f2 fe 07    	rcall     0x7454 <_set_throttle_control>
    7670:	19 00 37    	bra       0x76a4 <.L46>

00007672 <.L47>:
		}
		else
		{
			// Servo reversing is handled in servoMix.c
			int throttleOut = udb_servo_pulsesat( udb_pwTrim[THROTTLE_INPUT_CHANNEL] + throttleAccum.WW ) ;
    7672:	e0 4e 80    	mov.w     0x9dc, w0
    7674:	61 01 b9    	mul.su    w0, #0x1, w2
    7676:	3e 00 90    	mov.w     [w14+6], w0
    7678:	ce 00 90    	mov.w     [w14+8], w1
    767a:	02 00 40    	add.w     w0, w2, w0
    767c:	83 80 48    	addc.w    w1, w3, w1
    767e:	1e 03 07    	rcall     0x7cbc <_udb_servo_pulsesat>
    7680:	00 0f 78    	mov.w     w0, [w14]
			throttleFiltered.WW += (((long)( throttleOut - throttleFiltered._.W1 )) << THROTTLEFILTSHIFT ) ;
    7682:	42 74 80    	mov.w     0xe88, w2
    7684:	53 74 80    	mov.w     0xe8a, w3
    7686:	50 74 80    	mov.w     0xe8a, w0
    7688:	1e 00 10    	subr.w    w0, [w14], w0
    768a:	cf 80 de    	asr.w     w0, #0xf, w1
    768c:	4c 0a dd    	sl.w      w1, #0xc, w4
    768e:	c4 00 de    	lsr.w     w0, #0x4, w1
    7690:	81 00 72    	ior.w     w4, w1, w1
    7692:	4c 00 dd    	sl.w      w0, #0xc, w0
    7694:	02 00 40    	add.w     w0, w2, w0
    7696:	83 80 48    	addc.w    w1, w3, w1
    7698:	40 74 88    	mov.w     w0, 0xe88
    769a:	51 74 88    	mov.w     w1, 0xe8a
			set_throttle_control(throttleFiltered._.W1 - throttleIn) ;
    769c:	51 74 80    	mov.w     0xe8a, w1
    769e:	2e 00 90    	mov.w     [w14+4], w0
    76a0:	00 80 50    	sub.w     w1, w0, w0
    76a2:	d8 fe 07    	rcall     0x7454 <_set_throttle_control>

000076a4 <.L46>:
		}
		
		if ( !flags._.altitude_hold_pitch )
    76a4:	80 72 80    	mov.w     0xe50, w0
    76a6:	01 40 20    	mov.w     #0x400, w1
    76a8:	01 00 60    	and.w     w0, w1, w0
    76aa:	00 00 e0    	cp0.w     w0
    76ac:	02 00 3a    	bra       NZ, 0x76b2 <.L52>
		{
			pitchAltitudeAdjust = 0 ;
    76ae:	00 00 eb    	clr.w     w0
    76b0:	60 74 88    	mov.w     w0, 0xe8c

000076b2 <.L52>:
		}
		
		filterManual = true;
    76b2:	10 c0 b3    	mov.b     #0x1, w0
    76b4:	8e ee b7    	mov.b     WREG, 0xe8e
    76b6:	04 00 37    	bra       0x76c0

000076b8 <.L25>:
	}
	else
	{
		pitchAltitudeAdjust = 0 ;
    76b8:	00 00 eb    	clr.w     w0
    76ba:	60 74 88    	mov.w     w0, 0xe8c
		manualThrottle(throttleIn) ;
    76bc:	2e 00 90    	mov.w     [w14+4], w0
    76be:	03 00 07    	rcall     0x76c6 <_manualThrottle>

000076c0 <.L55>:
	}
	
	return ;
}
    76c0:	4f 04 be    	mov.d     [--w15], w8
    76c2:	00 80 fa    	ulnk      
    76c4:	00 00 06    	return    

000076c6 <_manualThrottle>:


void manualThrottle( int throttleIn )
{
    76c6:	04 00 fa    	lnk       #0x4
    76c8:	10 07 98    	mov.w     w0, [w14+2]
	int throttle_control_pre ;
	
	throttleFiltered.WW += (((long)( throttleIn - throttleFiltered._.W1 )) << THROTTLEFILTSHIFT ) ;
    76ca:	42 74 80    	mov.w     0xe88, w2
    76cc:	53 74 80    	mov.w     0xe8a, w3
    76ce:	51 74 80    	mov.w     0xe8a, w1
    76d0:	1e 00 90    	mov.w     [w14+2], w0
    76d2:	01 00 50    	sub.w     w0, w1, w0
    76d4:	cf 80 de    	asr.w     w0, #0xf, w1
    76d6:	4c 0a dd    	sl.w      w1, #0xc, w4
    76d8:	c4 00 de    	lsr.w     w0, #0x4, w1
    76da:	81 00 72    	ior.w     w4, w1, w1
    76dc:	4c 00 dd    	sl.w      w0, #0xc, w0
    76de:	02 00 40    	add.w     w0, w2, w0
    76e0:	83 80 48    	addc.w    w1, w3, w1
    76e2:	40 74 88    	mov.w     w0, 0xe88
    76e4:	51 74 88    	mov.w     w1, 0xe8a
	
	if (filterManual) {
    76e6:	8e ce bf    	mov.b     0xe8e, WREG
    76e8:	00 04 e0    	cp0.b     w0
    76ea:	09 00 32    	bra       Z, 0x76fe <.L57>
		// Continue to filter the throttle control value in manual mode to avoid large, instant
		// changes to throttle value, which can burn out a brushed motor.  But after fading over
		// to the new throttle value, stop applying the filter to the throttle out to allow
		// faster control.
		throttle_control_pre = throttleFiltered._.W1 - throttleIn ;
    76ec:	51 74 80    	mov.w     0xe8a, w1
    76ee:	1e 00 90    	mov.w     [w14+2], w0
    76f0:	00 8f 50    	sub.w     w1, w0, [w14]
		if (throttle_control_pre < 10) filterManual = false ;
    76f2:	90 00 20    	mov.w     #0x9, w0
    76f4:	9e 0f 10    	subr.w    w0, [w14], [w15]
    76f6:	05 00 3c    	bra       GT, 0x7702 <.L61>
    76f8:	00 40 eb    	clr.b     w0
    76fa:	8e ee b7    	mov.b     WREG, 0xe8e
    76fc:	02 00 37    	bra       0x7702 <.L61>

000076fe <.L57>:
	}
	else {
		throttle_control_pre = 0 ;
    76fe:	00 00 eb    	clr.w     w0
    7700:	00 0f 78    	mov.w     w0, [w14]

00007702 <.L61>:
	}
	
	set_throttle_control(throttle_control_pre) ;
    7702:	1e 00 78    	mov.w     [w14], w0
    7704:	a7 fe 07    	rcall     0x7454 <_set_throttle_control>
	
	return ;
}
    7706:	00 80 fa    	ulnk      
    7708:	00 00 06    	return    

0000770a <_hoverAltitudeCntrl>:


// For now, hovering does not attempt to control the throttle, and instead
// gives manual throttle control back to the pilot.
void hoverAltitudeCntrl(void)
{
    770a:	06 00 fa    	lnk       #0x6
	int throttle_control_pre ;
	int throttleIn = ( udb_flags._.radio_on == 1 ) ? udb_pwIn[THROTTLE_INPUT_CHANNEL] : udb_pwTrim[THROTTLE_INPUT_CHANNEL] ;
    770c:	d0 75 80    	mov.w     0xeba, w0
    770e:	01 08 20    	mov.w     #0x80, w1
    7710:	01 00 60    	and.w     w0, w1, w0
    7712:	00 00 e0    	cp0.w     w0
    7714:	03 00 32    	bra       Z, 0x771c <.L64>
    7716:	d0 4a 80    	mov.w     0x95a, w0
    7718:	20 07 98    	mov.w     w0, [w14+4]
    771a:	02 00 37    	bra       0x7720 <.L66>

0000771c <.L64>:
    771c:	e4 4e 80    	mov.w     0x9dc, w4
    771e:	24 07 98    	mov.w     w4, [w14+4]

00007720 <.L66>:
    7720:	2e 00 90    	mov.w     [w14+4], w0
    7722:	00 0f 78    	mov.w     w0, [w14]
	
	throttleFiltered.WW += (((long)( throttleIn - throttleFiltered._.W1 )) << THROTTLEFILTSHIFT ) ;
    7724:	42 74 80    	mov.w     0xe88, w2
    7726:	53 74 80    	mov.w     0xe8a, w3
    7728:	50 74 80    	mov.w     0xe8a, w0
    772a:	1e 00 10    	subr.w    w0, [w14], w0
    772c:	cf 80 de    	asr.w     w0, #0xf, w1
    772e:	4c 0a dd    	sl.w      w1, #0xc, w4
    7730:	c4 00 de    	lsr.w     w0, #0x4, w1
    7732:	81 00 72    	ior.w     w4, w1, w1
    7734:	4c 00 dd    	sl.w      w0, #0xc, w0
    7736:	02 00 40    	add.w     w0, w2, w0
    7738:	83 80 48    	addc.w    w1, w3, w1
    773a:	40 74 88    	mov.w     w0, 0xe88
    773c:	51 74 88    	mov.w     w1, 0xe8a
	
	if (filterManual) {
    773e:	8e ce bf    	mov.b     0xe8e, WREG
    7740:	00 04 e0    	cp0.b     w0
    7742:	09 00 32    	bra       Z, 0x7756 <.L67>
		// Continue to filter the throttle control value in manual mode to avoid large, instant
		// changes to throttle value, which can burn out a brushed motor.  But after fading over
		// to the new throttle value, stop applying the filter to the throttle out to allow
		// faster control.
		throttle_control_pre = throttleFiltered._.W1 - throttleIn ;
    7744:	50 74 80    	mov.w     0xe8a, w0
    7746:	1e 00 50    	sub.w     w0, [w14], w0
    7748:	10 07 98    	mov.w     w0, [w14+2]
		if (throttle_control_pre < 10) filterManual = false ;
    774a:	1e 00 90    	mov.w     [w14+2], w0
    774c:	e9 0f 50    	sub.w     w0, #0x9, [w15]
    774e:	05 00 3c    	bra       GT, 0x775a <.L71>
    7750:	00 40 eb    	clr.b     w0
    7752:	8e ee b7    	mov.b     WREG, 0xe8e
    7754:	02 00 37    	bra       0x775a <.L71>

00007756 <.L67>:
	}
	else {
		throttle_control_pre = 0 ;
    7756:	00 00 eb    	clr.w     w0
    7758:	10 07 98    	mov.w     w0, [w14+2]

0000775a <.L71>:
	}
	
	set_throttle_control(throttle_control_pre) ;
    775a:	1e 00 90    	mov.w     [w14+2], w0
    775c:	7b fe 07    	rcall     0x7454 <_set_throttle_control>
	
	return ;
}
    775e:	00 80 fa    	ulnk      
    7760:	00 00 06    	return    

00007762 <_sine>:
    7762:	06 00 fa    	lnk       #0x6
    7764:	20 47 98    	mov.b     w0, [w14+2]
    7766:	2e 40 90    	mov.b     [w14+2], w0
    7768:	00 00 fb    	se        w0, w0
    776a:	00 0f 78    	mov.w     w0, [w14]
    776c:	1e 00 e0    	cp0.w     [w14]
    776e:	12 00 35    	bra       LT, 0x7794 <.L2>
    7770:	00 04 20    	mov.w     #0x40, w0
    7772:	9e 0f 10    	subr.w    w0, [w14], [w15]
    7774:	08 00 34    	bra       LE, 0x7786 <.L4>
    7776:	00 08 20    	mov.w     #0x80, w0
    7778:	1e 00 50    	sub.w     w0, [w14], w0
    777a:	80 00 40    	add.w     w0, w0, w1
    777c:	c0 59 2a    	mov.w     #0xa59c, w0
    777e:	00 80 40    	add.w     w1, w0, w0
    7780:	10 00 78    	mov.w     [w0], w0
    7782:	20 07 98    	mov.w     w0, [w14+4]
    7784:	1b 00 37    	bra       0x77bc <.L6>

00007786 <.L4>:
    7786:	1e 00 78    	mov.w     [w14], w0
    7788:	80 00 40    	add.w     w0, w0, w1
    778a:	c0 59 2a    	mov.w     #0xa59c, w0
    778c:	00 80 40    	add.w     w1, w0, w0
    778e:	10 00 78    	mov.w     [w0], w0
    7790:	20 07 98    	mov.w     w0, [w14+4]
    7792:	14 00 37    	bra       0x77bc <.L6>

00007794 <.L2>:
    7794:	1e 0f ea    	neg.w     [w14], [w14]
    7796:	00 04 20    	mov.w     #0x40, w0
    7798:	9e 0f 10    	subr.w    w0, [w14], [w15]
    779a:	09 00 34    	bra       LE, 0x77ae <.L7>
    779c:	00 08 20    	mov.w     #0x80, w0
    779e:	1e 00 50    	sub.w     w0, [w14], w0
    77a0:	80 00 40    	add.w     w0, w0, w1
    77a2:	c0 59 2a    	mov.w     #0xa59c, w0
    77a4:	00 80 40    	add.w     w1, w0, w0
    77a6:	10 00 78    	mov.w     [w0], w0
    77a8:	00 00 ea    	neg.w     w0, w0
    77aa:	20 07 98    	mov.w     w0, [w14+4]
    77ac:	07 00 37    	bra       0x77bc <.L6>

000077ae <.L7>:
    77ae:	1e 00 78    	mov.w     [w14], w0
    77b0:	80 00 40    	add.w     w0, w0, w1
    77b2:	c0 59 2a    	mov.w     #0xa59c, w0
    77b4:	00 80 40    	add.w     w1, w0, w0
    77b6:	10 00 78    	mov.w     [w0], w0
    77b8:	00 00 ea    	neg.w     w0, w0
    77ba:	20 07 98    	mov.w     w0, [w14+4]

000077bc <.L6>:
    77bc:	2e 00 90    	mov.w     [w14+4], w0
    77be:	00 80 fa    	ulnk      
    77c0:	00 00 06    	return    

000077c2 <_arcsine>:
    77c2:	08 00 fa    	lnk       #0x8
    77c4:	88 1f 78    	mov.w     w8, [w15++]
    77c6:	20 07 98    	mov.w     w0, [w14+4]
    77c8:	00 c2 b3    	mov.b     #0x20, w0
    77ca:	30 47 98    	mov.b     w0, [w14+3]
    77cc:	00 c4 b3    	mov.b     #0x40, w0
    77ce:	20 47 98    	mov.b     w0, [w14+2]
    77d0:	00 c2 b3    	mov.b     #0x20, w0
    77d2:	10 47 98    	mov.b     w0, [w14+1]
    77d4:	2e 00 90    	mov.w     [w14+4], w0
    77d6:	00 00 e0    	cp0.w     w0
    77d8:	03 00 34    	bra       LE, 0x77e0 <.L11>
    77da:	10 c0 b3    	mov.b     #0x1, w0
    77dc:	00 4f 78    	mov.b     w0, [w14]
    77de:	05 00 37    	bra       0x77ea

000077e0 <.L11>:
    77e0:	00 c0 eb    	setm.b    w0
    77e2:	00 4f 78    	mov.b     w0, [w14]
    77e4:	2e 00 90    	mov.w     [w14+4], w0
    77e6:	00 00 ea    	neg.w     w0, w0
    77e8:	20 07 98    	mov.w     w0, [w14+4]

000077ea <.L13>:
    77ea:	ae 00 90    	mov.w     [w14+4], w1
    77ec:	00 00 24    	mov.w     #0x4000, w0
    77ee:	80 8f 50    	sub.w     w1, w0, [w15]
    77f0:	2d 00 3a    	bra       NZ, 0x784c <.L17>
    77f2:	1e 00 fb    	se        [w14], w0
    77f4:	46 00 dd    	sl.w      w0, #0x6, w0
    77f6:	00 00 fb    	se        w0, w0
    77f8:	30 07 98    	mov.w     w0, [w14+6]
    77fa:	33 00 37    	bra       0x7862 <.L16>

000077fc <.L18>:
    77fc:	2e 40 90    	mov.b     [w14+2], w0
    77fe:	00 00 fb    	se        w0, w0
    7800:	00 80 d1    	asr.w     w0, w0
    7802:	30 47 98    	mov.b     w0, [w14+3]
    7804:	3e 40 90    	mov.b     [w14+3], w0
    7806:	ad ff 07    	rcall     0x7762 <_sine>
    7808:	80 00 78    	mov.w     w0, w1
    780a:	2e 00 90    	mov.w     [w14+4], w0
    780c:	80 8f 50    	sub.w     w1, w0, [w15]
    780e:	06 00 3a    	bra       NZ, 0x781c <.L19>
    7810:	9e 40 78    	mov.b     [w14], w1
    7812:	3e 40 90    	mov.b     [w14+3], w0
    7814:	00 88 b9    	mul.ss    w1, w0, w0
    7816:	00 00 fb    	se        w0, w0
    7818:	30 07 98    	mov.w     w0, [w14+6]
    781a:	23 00 37    	bra       0x7862 <.L16>

0000781c <.L19>:
    781c:	3e 40 90    	mov.b     [w14+3], w0
    781e:	a1 ff 07    	rcall     0x7762 <_sine>
    7820:	00 04 78    	mov.w     w0, w8
    7822:	3e 40 90    	mov.b     [w14+3], w0
    7824:	00 40 e9    	dec.b     w0, w0
    7826:	9d ff 07    	rcall     0x7762 <_sine>
    7828:	00 00 44    	add.w     w8, w0, w0
    782a:	80 80 d1    	asr.w     w0, w1
    782c:	2e 00 90    	mov.w     [w14+4], w0
    782e:	80 8f 50    	sub.w     w1, w0, [w15]
    7830:	05 00 3d    	bra       GE, 0x783c <.L21>
    7832:	2e 40 90    	mov.b     [w14+2], w0
    7834:	9e 40 90    	mov.b     [w14+1], w1
    7836:	01 40 40    	add.b     w0, w1, w0
    7838:	20 47 98    	mov.b     w0, [w14+2]
    783a:	04 00 37    	bra       0x7844 <.L23>

0000783c <.L21>:
    783c:	2e 40 90    	mov.b     [w14+2], w0
    783e:	9e 40 90    	mov.b     [w14+1], w1
    7840:	01 40 50    	sub.b     w0, w1, w0
    7842:	20 47 98    	mov.b     w0, [w14+2]

00007844 <.L23>:
    7844:	1e 40 90    	mov.b     [w14+1], w0
    7846:	00 00 fb    	se        w0, w0
    7848:	00 80 d1    	asr.w     w0, w0
    784a:	10 47 98    	mov.b     w0, [w14+1]

0000784c <.L17>:
    784c:	1e 40 90    	mov.b     [w14+1], w0
    784e:	00 04 e0    	cp0.b     w0
    7850:	d5 ff 3c    	bra       GT, 0x77fc
    7852:	2e 40 90    	mov.b     [w14+2], w0
    7854:	00 00 fb    	se        w0, w0
    7856:	00 80 d1    	asr.w     w0, w0
    7858:	80 40 78    	mov.b     w0, w1
    785a:	1e 40 78    	mov.b     [w14], w0
    785c:	00 88 b9    	mul.ss    w1, w0, w0
    785e:	00 00 fb    	se        w0, w0
    7860:	30 07 98    	mov.w     w0, [w14+6]

00007862 <.L16>:
    7862:	3e 00 90    	mov.w     [w14+6], w0
    7864:	4f 04 78    	mov.w     [--w15], w8
    7866:	00 80 fa    	ulnk      
    7868:	00 00 06    	return    

0000786a <_cosine>:
    786a:	02 00 fa    	lnk       #0x2
    786c:	00 4f 78    	mov.b     w0, [w14]
    786e:	01 c4 b3    	mov.b     #0x40, w1
    7870:	1e c0 40    	add.b     w1, [w14], w0
    7872:	77 ff 07    	rcall     0x7762 <_sine>
    7874:	00 80 fa    	ulnk      
    7876:	00 00 06    	return    

00007878 <_rotate>:
    7878:	10 00 fa    	lnk       #0x10
    787a:	60 07 98    	mov.w     w0, [w14+12]
    787c:	61 4f 98    	mov.b     w1, [w14+14]
    787e:	6e 48 90    	mov.b     [w14+14], w0
    7880:	70 ff 07    	rcall     0x7762 <_sine>
    7882:	20 07 98    	mov.w     w0, [w14+4]
    7884:	6e 48 90    	mov.b     [w14+14], w0
    7886:	f1 ff 07    	rcall     0x786a <_cosine>
    7888:	30 07 98    	mov.w     w0, [w14+6]
    788a:	6e 00 90    	mov.w     [w14+12], w0
    788c:	90 00 78    	mov.w     [w0], w1
    788e:	3e 00 90    	mov.w     [w14+6], w0
    7890:	01 81 b9    	mul.ss    w0, w1, w2
    7892:	6e 00 90    	mov.w     [w14+12], w0
    7894:	90 00 90    	mov.w     [w0+2], w1
    7896:	2e 00 90    	mov.w     [w14+4], w0
    7898:	01 80 b9    	mul.ss    w0, w1, w0
    789a:	00 00 51    	sub.w     w2, w0, w0
    789c:	81 80 59    	subb.w    w3, w1, w1
    789e:	42 09 dd    	sl.w      w1, #0x2, w2
    78a0:	ce 00 de    	lsr.w     w0, #0xe, w1
    78a2:	81 00 71    	ior.w     w2, w1, w1
    78a4:	42 00 dd    	sl.w      w0, #0x2, w0
    78a6:	40 07 98    	mov.w     w0, [w14+8]
    78a8:	51 07 98    	mov.w     w1, [w14+10]
    78aa:	5e 00 90    	mov.w     [w14+10], w0
    78ac:	10 07 98    	mov.w     w0, [w14+2]
    78ae:	6e 00 90    	mov.w     [w14+12], w0
    78b0:	90 00 78    	mov.w     [w0], w1
    78b2:	2e 00 90    	mov.w     [w14+4], w0
    78b4:	01 81 b9    	mul.ss    w0, w1, w2
    78b6:	6e 00 90    	mov.w     [w14+12], w0
    78b8:	90 00 90    	mov.w     [w0+2], w1
    78ba:	3e 00 90    	mov.w     [w14+6], w0
    78bc:	01 80 b9    	mul.ss    w0, w1, w0
    78be:	02 00 40    	add.w     w0, w2, w0
    78c0:	83 80 48    	addc.w    w1, w3, w1
    78c2:	42 09 dd    	sl.w      w1, #0x2, w2
    78c4:	ce 00 de    	lsr.w     w0, #0xe, w1
    78c6:	81 00 71    	ior.w     w2, w1, w1
    78c8:	42 00 dd    	sl.w      w0, #0x2, w0
    78ca:	40 07 98    	mov.w     w0, [w14+8]
    78cc:	51 07 98    	mov.w     w1, [w14+10]
    78ce:	5e 00 90    	mov.w     [w14+10], w0
    78d0:	00 0f 78    	mov.w     w0, [w14]
    78d2:	6e 00 90    	mov.w     [w14+12], w0
    78d4:	9e 00 90    	mov.w     [w14+2], w1
    78d6:	01 08 78    	mov.w     w1, [w0]
    78d8:	6e 00 90    	mov.w     [w14+12], w0
    78da:	1e 01 78    	mov.w     [w14], w2
    78dc:	12 00 98    	mov.w     w2, [w0+2]
    78de:	00 80 fa    	ulnk      
    78e0:	00 00 06    	return    

000078e2 <_rect_to_polar>:
    78e2:	08 00 fa    	lnk       #0x8
    78e4:	30 07 98    	mov.w     w0, [w14+6]
    78e6:	00 40 eb    	clr.b     w0
    78e8:	50 47 98    	mov.b     w0, [w14+5]
    78ea:	00 c4 b3    	mov.b     #0x40, w0
    78ec:	40 47 98    	mov.b     w0, [w14+4]
    78ee:	70 c0 b3    	mov.b     #0x7, w0
    78f0:	20 47 98    	mov.b     w0, [w14+2]
    78f2:	3e 00 90    	mov.w     [w14+6], w0
    78f4:	90 00 78    	mov.w     [w0], w1
    78f6:	e0 0f 20    	mov.w     #0xfe, w0
    78f8:	80 8f 50    	sub.w     w1, w0, [w15]
    78fa:	1c 00 3c    	bra       GT, 0x7934 <.L31>
    78fc:	3e 00 90    	mov.w     [w14+6], w0
    78fe:	90 00 78    	mov.w     [w0], w1
    7900:	10 f0 2f    	mov.w     #0xff01, w0
    7902:	80 8f 50    	sub.w     w1, w0, [w15]
    7904:	17 00 34    	bra       LE, 0x7934 <.L31>
    7906:	3e 00 90    	mov.w     [w14+6], w0
    7908:	90 00 90    	mov.w     [w0+2], w1
    790a:	e0 0f 20    	mov.w     #0xfe, w0
    790c:	80 8f 50    	sub.w     w1, w0, [w15]
    790e:	12 00 3c    	bra       GT, 0x7934 <.L31>
    7910:	3e 00 90    	mov.w     [w14+6], w0
    7912:	90 00 90    	mov.w     [w0+2], w1
    7914:	10 f0 2f    	mov.w     #0xff01, w0
    7916:	80 8f 50    	sub.w     w1, w0, [w15]
    7918:	0d 00 34    	bra       LE, 0x7934 <.L31>
    791a:	60 00 20    	mov.w     #0x6, w0
    791c:	00 0f 78    	mov.w     w0, [w14]
    791e:	3e 00 90    	mov.w     [w14+6], w0
    7920:	10 00 78    	mov.w     [w0], w0
    7922:	c6 00 dd    	sl.w      w0, #0x6, w1
    7924:	3e 00 90    	mov.w     [w14+6], w0
    7926:	01 08 78    	mov.w     w1, [w0]
    7928:	3e 00 90    	mov.w     [w14+6], w0
    792a:	10 00 90    	mov.w     [w0+2], w0
    792c:	c6 00 dd    	sl.w      w0, #0x6, w1
    792e:	3e 00 90    	mov.w     [w14+6], w0
    7930:	11 00 98    	mov.w     w1, [w0+2]
    7932:	1a 00 37    	bra       0x7968 <.L37>

00007934 <.L31>:
    7934:	00 00 eb    	clr.w     w0
    7936:	00 0f 78    	mov.w     w0, [w14]
    7938:	17 00 37    	bra       0x7968 <.L37>

0000793a <.L38>:
    793a:	4e 40 90    	mov.b     [w14+4], w0
    793c:	30 47 98    	mov.b     w0, [w14+3]
    793e:	3e 00 90    	mov.w     [w14+6], w0
    7940:	10 00 90    	mov.w     [w0+2], w0
    7942:	00 00 e0    	cp0.w     w0
    7944:	03 00 34    	bra       LE, 0x794c <.L39>
    7946:	3e 40 90    	mov.b     [w14+3], w0
    7948:	00 40 ea    	neg.b     w0, w0
    794a:	30 47 98    	mov.b     w0, [w14+3]

0000794c <.L39>:
    794c:	be 40 90    	mov.b     [w14+3], w1
    794e:	3e 00 90    	mov.w     [w14+6], w0
    7950:	93 ff 07    	rcall     0x7878 <_rotate>
    7952:	de 40 90    	mov.b     [w14+5], w1
    7954:	3e 40 90    	mov.b     [w14+3], w0
    7956:	00 c0 40    	add.b     w1, w0, w0
    7958:	50 47 98    	mov.b     w0, [w14+5]
    795a:	4e 40 90    	mov.b     [w14+4], w0
    795c:	00 00 fb    	se        w0, w0
    795e:	00 80 d1    	asr.w     w0, w0
    7960:	40 47 98    	mov.b     w0, [w14+4]
    7962:	2e 40 90    	mov.b     [w14+2], w0
    7964:	00 40 e9    	dec.b     w0, w0
    7966:	20 47 98    	mov.b     w0, [w14+2]

00007968 <.L37>:
    7968:	2e 40 90    	mov.b     [w14+2], w0
    796a:	00 04 e0    	cp0.b     w0
    796c:	e6 ff 3c    	bra       GT, 0x793a <.L38>
    796e:	3e 00 90    	mov.w     [w14+6], w0
    7970:	10 00 90    	mov.w     [w0+2], w0
    7972:	00 00 e0    	cp0.w     w0
    7974:	03 00 34    	bra       LE, 0x797c <.L42>
    7976:	5e 40 90    	mov.b     [w14+5], w0
    7978:	00 40 e9    	dec.b     w0, w0
    797a:	50 47 98    	mov.b     w0, [w14+5]

0000797c <.L42>:
    797c:	3e 00 90    	mov.w     [w14+6], w0
    797e:	90 00 78    	mov.w     [w0], w1
    7980:	1e 00 78    	mov.w     [w14], w0
    7982:	80 88 de    	asr.w     w1, w0, w1
    7984:	3e 00 90    	mov.w     [w14+6], w0
    7986:	01 08 78    	mov.w     w1, [w0]
    7988:	3e 00 90    	mov.w     [w14+6], w0
    798a:	90 00 90    	mov.w     [w0+2], w1
    798c:	1e 00 78    	mov.w     [w14], w0
    798e:	80 88 de    	asr.w     w1, w0, w1
    7990:	3e 00 90    	mov.w     [w14+6], w0
    7992:	11 00 98    	mov.w     w1, [w0+2]
    7994:	5e 40 90    	mov.b     [w14+5], w0
    7996:	00 40 ea    	neg.b     w0, w0
    7998:	00 00 fb    	se        w0, w0
    799a:	00 80 fa    	ulnk      
    799c:	00 00 06    	return    

0000799e <_rect_to_polar16>:
    799e:	0a 00 fa    	lnk       #0xa
    79a0:	40 07 98    	mov.w     w0, [w14+8]
    79a2:	00 40 eb    	clr.b     w0
    79a4:	30 47 98    	mov.b     w0, [w14+3]
    79a6:	00 c4 b3    	mov.b     #0x40, w0
    79a8:	20 47 98    	mov.b     w0, [w14+2]
    79aa:	70 c0 b3    	mov.b     #0x7, w0
    79ac:	00 4f 78    	mov.b     w0, [w14]
    79ae:	4e 00 90    	mov.w     [w14+8], w0
    79b0:	90 00 78    	mov.w     [w0], w1
    79b2:	e0 0f 20    	mov.w     #0xfe, w0
    79b4:	80 8f 50    	sub.w     w1, w0, [w15]
    79b6:	1c 00 3c    	bra       GT, 0x79f0 <.L46>
    79b8:	4e 00 90    	mov.w     [w14+8], w0
    79ba:	90 00 78    	mov.w     [w0], w1
    79bc:	10 f0 2f    	mov.w     #0xff01, w0
    79be:	80 8f 50    	sub.w     w1, w0, [w15]
    79c0:	17 00 34    	bra       LE, 0x79f0 <.L46>
    79c2:	4e 00 90    	mov.w     [w14+8], w0
    79c4:	90 00 90    	mov.w     [w0+2], w1
    79c6:	e0 0f 20    	mov.w     #0xfe, w0
    79c8:	80 8f 50    	sub.w     w1, w0, [w15]
    79ca:	12 00 3c    	bra       GT, 0x79f0 <.L46>
    79cc:	4e 00 90    	mov.w     [w14+8], w0
    79ce:	90 00 90    	mov.w     [w0+2], w1
    79d0:	10 f0 2f    	mov.w     #0xff01, w0
    79d2:	80 8f 50    	sub.w     w1, w0, [w15]
    79d4:	0d 00 34    	bra       LE, 0x79f0 <.L46>
    79d6:	60 00 20    	mov.w     #0x6, w0
    79d8:	30 07 98    	mov.w     w0, [w14+6]
    79da:	4e 00 90    	mov.w     [w14+8], w0
    79dc:	10 00 78    	mov.w     [w0], w0
    79de:	c6 00 dd    	sl.w      w0, #0x6, w1
    79e0:	4e 00 90    	mov.w     [w14+8], w0
    79e2:	01 08 78    	mov.w     w1, [w0]
    79e4:	4e 00 90    	mov.w     [w14+8], w0
    79e6:	10 00 90    	mov.w     [w0+2], w0
    79e8:	c6 00 dd    	sl.w      w0, #0x6, w1
    79ea:	4e 00 90    	mov.w     [w14+8], w0
    79ec:	11 00 98    	mov.w     w1, [w0+2]
    79ee:	18 00 37    	bra       0x7a20 <.L52>

000079f0 <.L46>:
    79f0:	00 00 eb    	clr.w     w0
    79f2:	30 07 98    	mov.w     w0, [w14+6]
    79f4:	15 00 37    	bra       0x7a20 <.L52>

000079f6 <.L53>:
    79f6:	2e 40 90    	mov.b     [w14+2], w0
    79f8:	10 47 98    	mov.b     w0, [w14+1]
    79fa:	4e 00 90    	mov.w     [w14+8], w0
    79fc:	10 00 90    	mov.w     [w0+2], w0
    79fe:	00 00 e0    	cp0.w     w0
    7a00:	03 00 34    	bra       LE, 0x7a08 <.L54>
    7a02:	1e 40 90    	mov.b     [w14+1], w0
    7a04:	00 40 ea    	neg.b     w0, w0
    7a06:	10 47 98    	mov.b     w0, [w14+1]

00007a08 <.L54>:
    7a08:	9e 40 90    	mov.b     [w14+1], w1
    7a0a:	4e 00 90    	mov.w     [w14+8], w0
    7a0c:	35 ff 07    	rcall     0x7878 <_rotate>
    7a0e:	be 40 90    	mov.b     [w14+3], w1
    7a10:	1e 40 90    	mov.b     [w14+1], w0
    7a12:	00 c0 40    	add.b     w1, w0, w0
    7a14:	30 47 98    	mov.b     w0, [w14+3]
    7a16:	2e 40 90    	mov.b     [w14+2], w0
    7a18:	00 00 fb    	se        w0, w0
    7a1a:	00 80 d1    	asr.w     w0, w0
    7a1c:	20 47 98    	mov.b     w0, [w14+2]
    7a1e:	1e 4f e9    	dec.b     [w14], [w14]

00007a20 <.L52>:
    7a20:	1e 04 e0    	cp0.b     [w14]
    7a22:	e9 ff 3c    	bra       GT, 0x79f6 <.L53>
    7a24:	3e 40 90    	mov.b     [w14+3], w0
    7a26:	00 40 ea    	neg.b     w0, w0
    7a28:	30 47 98    	mov.b     w0, [w14+3]
    7a2a:	3e 40 90    	mov.b     [w14+3], w0
    7a2c:	00 00 fb    	se        w0, w0
    7a2e:	48 00 dd    	sl.w      w0, #0x8, w0
    7a30:	20 07 98    	mov.w     w0, [w14+4]
    7a32:	4e 00 90    	mov.w     [w14+8], w0
    7a34:	10 00 78    	mov.w     [w0], w0
    7a36:	00 00 e0    	cp0.w     w0
    7a38:	0e 00 34    	bra       LE, 0x7a56 <.L57>
    7a3a:	4e 00 90    	mov.w     [w14+8], w0
    7a3c:	10 01 78    	mov.w     [w0], w2
    7a3e:	4e 00 90    	mov.w     [w14+8], w0
    7a40:	90 00 90    	mov.w     [w0+2], w1
    7a42:	e0 8b 22    	mov.w     #0x28be, w0
    7a44:	01 80 b9    	mul.ss    w0, w1, w0
    7a46:	80 1f 78    	mov.w     w0, [w15++]
    7a48:	11 00 09    	repeat    #0x11
    7a4a:	42 08 d8    	div.sd    w0, w2
    7a4c:	80 00 78    	mov.w     w0, w1
    7a4e:	4f 00 78    	mov.w     [--w15], w0
    7a50:	2e 00 90    	mov.w     [w14+4], w0
    7a52:	01 00 40    	add.w     w0, w1, w0
    7a54:	20 07 98    	mov.w     w0, [w14+4]

00007a56 <.L57>:
    7a56:	4e 00 90    	mov.w     [w14+8], w0
    7a58:	90 00 78    	mov.w     [w0], w1
    7a5a:	3e 00 90    	mov.w     [w14+6], w0
    7a5c:	80 88 de    	asr.w     w1, w0, w1
    7a5e:	4e 00 90    	mov.w     [w14+8], w0
    7a60:	01 08 78    	mov.w     w1, [w0]
    7a62:	4e 00 90    	mov.w     [w14+8], w0
    7a64:	90 00 90    	mov.w     [w0+2], w1
    7a66:	3e 00 90    	mov.w     [w14+6], w0
    7a68:	80 88 de    	asr.w     w1, w0, w1
    7a6a:	4e 00 90    	mov.w     [w14+8], w0
    7a6c:	11 00 98    	mov.w     w1, [w0+2]
    7a6e:	2e 00 90    	mov.w     [w14+4], w0
    7a70:	00 80 fa    	ulnk      
    7a72:	00 00 06    	return    

00007a74 <__DefaultInterrupt>:
    7a74:	80 9f be    	mov.d     w0, [w15++]
    7a76:	02 00 fa    	lnk       #0x2
    7a78:	80 c0 bf    	mov.b     0x80, WREG
    7a7a:	64 40 60    	and.b     w0, #0x4, w0
    7a7c:	00 04 e0    	cp0.b     w0
    7a7e:	01 00 32    	bra       Z, 0x7a82 <.L2>
    7a80:	96 0e a8    	bset.b    0xe96, #0x0

00007a82 <.L2>:
    7a82:	81 c0 bf    	mov.b     0x81, WREG
    7a84:	00 44 b2    	and.b     #0x40, w0
    7a86:	00 04 e0    	cp0.b     w0
    7a88:	01 00 32    	bra       Z, 0x7a8c <.L4>
    7a8a:	96 2e a8    	bset.b    0xe96, #0x1

00007a8c <.L4>:
    7a8c:	81 c0 bf    	mov.b     0x81, WREG
    7a8e:	70 40 60    	and.b     w0, #0x10, w0
    7a90:	00 04 e0    	cp0.b     w0
    7a92:	01 00 32    	bra       Z, 0x7a96 <.L6>
    7a94:	96 4e a8    	bset.b    0xe96, #0x2

00007a96 <.L6>:
    7a96:	81 c0 bf    	mov.b     0x81, WREG
    7a98:	00 42 b2    	and.b     #0x20, w0
    7a9a:	00 04 e0    	cp0.b     w0
    7a9c:	01 00 32    	bra       Z, 0x7aa0 <.L8>
    7a9e:	96 6e a8    	bset.b    0xe96, #0x3

00007aa0 <.L8>:
    7aa0:	81 c0 bf    	mov.b     0x81, WREG
    7aa2:	68 40 60    	and.b     w0, #0x8, w0
    7aa4:	00 04 e0    	cp0.b     w0
    7aa6:	01 00 32    	bra       Z, 0x7aaa <.L10>
    7aa8:	96 8e a8    	bset.b    0xe96, #0x4

00007aaa <.L10>:
    7aaa:	80 c0 bf    	mov.b     0x80, WREG
    7aac:	01 c8 b3    	mov.b     #0x80, w1
    7aae:	01 40 60    	and.b     w0, w1, w0
    7ab0:	00 04 e0    	cp0.b     w0
    7ab2:	01 00 32    	bra       Z, 0x7ab6 <.L12>
    7ab4:	96 ce a8    	bset.b    0xe96, #0x6

00007ab6 <.L12>:
    7ab6:	80 c0 bf    	mov.b     0x80, WREG
    7ab8:	70 40 60    	and.b     w0, #0x10, w0
    7aba:	00 04 e0    	cp0.b     w0
    7abc:	01 00 32    	bra       Z, 0x7ac0 <.L14>
    7abe:	96 ee a8    	bset.b    0xe96, #0x7

00007ac0 <.L14>:
    7ac0:	80 c0 bf    	mov.b     0x80, WREG
    7ac2:	00 42 b2    	and.b     #0x20, w0
    7ac4:	00 04 e0    	cp0.b     w0
    7ac6:	01 00 32    	bra       Z, 0x7aca <.L16>
    7ac8:	97 0e a8    	bset.b    0xe97, #0x0

00007aca <.L16>:
    7aca:	80 c0 bf    	mov.b     0x80, WREG
    7acc:	62 40 60    	and.b     w0, #0x2, w0
    7ace:	00 04 e0    	cp0.b     w0
    7ad0:	04 00 3a    	bra       NZ, 0x7ada <.L18>
    7ad2:	42 c7 bf    	mov.b     0x742, WREG
    7ad4:	68 40 60    	and.b     w0, #0x8, w0
    7ad6:	00 04 e0    	cp0.b     w0
    7ad8:	01 00 32    	bra       Z, 0x7adc <.L20>

00007ada <.L18>:
    7ada:	97 2e a8    	bset.b    0xe97, #0x1

00007adc <.L20>:
    7adc:	80 c0 bf    	mov.b     0x80, WREG
    7ade:	68 40 60    	and.b     w0, #0x8, w0
    7ae0:	00 04 e0    	cp0.b     w0
    7ae2:	01 00 32    	bra       Z, 0x7ae6 <.L21>
    7ae4:	97 4e a8    	bset.b    0xe97, #0x2

00007ae6 <.L21>:
    7ae6:	1e 00 78    	mov.w     [w14], w0
    7ae8:	e0 75 88    	mov.w     w0, 0xebc
    7aea:	00 00 fe    	reset     
    7aec:	00 80 fa    	ulnk      
    7aee:	4f 00 be    	mov.d     [--w15], w0
    7af0:	00 40 06    	retfie    

00007af2 <_udb_init>:
    7af2:	00 00 fa    	lnk       #0x0
    7af4:	20 02 80    	mov.w     0x44, w0
    7af6:	a0 74 88    	mov.w     w0, 0xe94
    7af8:	40 a7 a9    	bclr.b    0x740, #0x5
    7afa:	00 60 fe    	clrwdt    
    7afc:	81 74 20    	mov.w     #0x748, w1
    7afe:	91 40 78    	mov.b     [w1], w1
    7b00:	00 cc b3    	mov.b     #0xc0, w0
    7b02:	00 c0 60    	and.b     w1, w0, w0
    7b04:	50 41 b3    	ior.b     #0x15, w0
    7b06:	48 e7 b7    	mov.b     WREG, 0x748
    7b08:	41 74 20    	mov.w     #0x744, w1
    7b0a:	91 40 78    	mov.b     [w1], w1
    7b0c:	00 ce b3    	mov.b     #0xe0, w0
    7b0e:	00 c0 60    	and.b     w1, w0, w0
    7b10:	00 04 a0    	bset.b    w0, #0x0
    7b12:	44 e7 b7    	mov.b     WREG, 0x744
    7b14:	31 3a 80    	mov.w     0x746, w1
    7b16:	00 e0 2f    	mov.w     #0xfe00, w0
    7b18:	00 80 60    	and.w     w1, w0, w0
    7b1a:	61 02 20    	mov.w     #0x26, w1
    7b1c:	01 00 70    	ior.w     w0, w1, w0
    7b1e:	30 3a 88    	mov.w     w0, 0x746
    7b20:	44 c7 bf    	mov.b     0x744, WREG
    7b22:	f0 43 b2    	and.b     #0x3f, w0
    7b24:	44 e7 b7    	mov.b     WREG, 0x744
    7b26:	32 00 20    	mov.w     #0x3, w2
    7b28:	81 07 20    	mov.w     #0x78, w1
    7b2a:	a0 09 20    	mov.w     #0x9a, w0
    7b2c:	33 74 20    	mov.w     #0x743, w3
    7b2e:	81 49 78    	mov.b     w1, [w3]
    7b30:	80 49 78    	mov.b     w0, [w3]
    7b32:	82 49 78    	mov.b     w2, [w3]
    7b34:	12 00 20    	mov.w     #0x1, w2
    7b36:	61 04 20    	mov.w     #0x46, w1
    7b38:	70 05 20    	mov.w     #0x57, w0
    7b3a:	23 74 20    	mov.w     #0x742, w3
    7b3c:	81 49 78    	mov.b     w1, [w3]
    7b3e:	80 49 78    	mov.b     w0, [w3]
    7b40:	82 49 78    	mov.b     w2, [w3]

00007b42 <.L25>:
    7b42:	42 c7 bf    	mov.b     0x742, WREG
    7b44:	00 42 b2    	and.b     #0x20, w0
    7b46:	00 04 e0    	cp0.b     w0
    7b48:	fc ff 32    	bra       Z, 0x7b42 <.L25>

00007b4a <.L26>:
    7b4a:	43 c7 bf    	mov.b     0x743, WREG
    7b4c:	02 c7 b3    	mov.b     #0x70, w2
    7b4e:	82 40 60    	and.b     w0, w2, w1
    7b50:	00 c3 b3    	mov.b     #0x30, w0
    7b52:	80 cf 50    	sub.b     w1, w0, [w15]
    7b54:	fa ff 3a    	bra       NZ, 0x7b4a <.L26>
    7b56:	00 40 eb    	clr.b     w0
    7b58:	ba ee b7    	mov.b     WREG, 0xeba
    7b5a:	0f 00 07    	rcall     0x7b7a <_udb_init_leds>
    7b5c:	da f2 07    	rcall     0x6112 <_udb_init_ADC>
    7b5e:	ea 05 07    	rcall     0x8734 <_udb_init_clock>
    7b60:	2d e0 07    	rcall     0x3bbc <_udb_init_capture>
    7b62:	eb e3 07    	rcall     0x433a <_udb_init_I2C2>
    7b64:	c7 f6 07    	rcall     0x68f4 <_udb_init_GPS>
    7b66:	c8 f7 07    	rcall     0x6af8 <_udb_init_USART>
    7b68:	bf d5 07    	rcall     0x26e8 <_udb_init_pwm>
    7b6a:	42 c0 bf    	mov.b     0x42, WREG
    7b6c:	7f 40 60    	and.b     w0, #0x1f, w0
    7b6e:	42 e0 b7    	mov.b     WREG, 0x42
    7b70:	00 80 fa    	ulnk      
    7b72:	00 00 06    	return    

00007b74 <_udb_run>:
    7b74:	00 00 fa    	lnk       #0x0

00007b76 <.L30>:
    7b76:	21 e1 a9    	bclr.b    0x121, #0x7
    7b78:	fe ff 37    	bra       0x7b76 <.L30>

00007b7a <_udb_init_leds>:
    7b7a:	00 00 fa    	lnk       #0x0
    7b7c:	c7 62 a9    	bclr.b    0x2c7, #0x3
    7b7e:	c7 c2 bf    	mov.b     0x2c7, WREG
    7b80:	00 80 fb    	ze        w0, w0
    7b82:	43 00 de    	lsr.w     w0, #0x3, w0
    7b84:	61 40 60    	and.b     w0, #0x1, w0
    7b86:	61 40 60    	and.b     w0, #0x1, w0
    7b88:	42 01 dd    	sl.w      w0, #0x2, w2
    7b8a:	71 2c 20    	mov.w     #0x2c7, w1
    7b8c:	91 40 78    	mov.b     [w1], w1
    7b8e:	b0 cf b3    	mov.b     #0xfb, w0
    7b90:	00 c0 60    	and.b     w1, w0, w0
    7b92:	02 40 70    	ior.b     w0, w2, w0
    7b94:	c7 e2 b7    	mov.b     WREG, 0x2c7
    7b96:	c7 c2 bf    	mov.b     0x2c7, WREG
    7b98:	00 80 fb    	ze        w0, w0
    7b9a:	42 00 de    	lsr.w     w0, #0x2, w0
    7b9c:	61 40 60    	and.b     w0, #0x1, w0
    7b9e:	61 40 60    	and.b     w0, #0x1, w0
    7ba0:	00 41 40    	add.b     w0, w0, w2
    7ba2:	71 2c 20    	mov.w     #0x2c7, w1
    7ba4:	91 40 78    	mov.b     [w1], w1
    7ba6:	d0 cf b3    	mov.b     #0xfd, w0
    7ba8:	00 c0 60    	and.b     w1, w0, w0
    7baa:	02 40 70    	ior.b     w0, w2, w0
    7bac:	c7 e2 b7    	mov.b     WREG, 0x2c7
    7bae:	c7 c2 bf    	mov.b     0x2c7, WREG
    7bb0:	00 80 fb    	ze        w0, w0
    7bb2:	00 00 d1    	lsr.w     w0, w0
    7bb4:	61 40 60    	and.b     w0, #0x1, w0
    7bb6:	61 41 60    	and.b     w0, #0x1, w2
    7bb8:	71 2c 20    	mov.w     #0x2c7, w1
    7bba:	91 40 78    	mov.b     [w1], w1
    7bbc:	e0 cf b3    	mov.b     #0xfe, w0
    7bbe:	00 c0 60    	and.b     w1, w0, w0
    7bc0:	02 40 70    	ior.b     w0, w2, w0
    7bc2:	c7 e2 b7    	mov.b     WREG, 0x2c7
    7bc4:	cb 62 a8    	bset.b    0x2cb, #0x3
    7bc6:	cb c2 bf    	mov.b     0x2cb, WREG
    7bc8:	00 80 fb    	ze        w0, w0
    7bca:	43 00 de    	lsr.w     w0, #0x3, w0
    7bcc:	61 40 60    	and.b     w0, #0x1, w0
    7bce:	61 40 60    	and.b     w0, #0x1, w0
    7bd0:	42 01 dd    	sl.w      w0, #0x2, w2
    7bd2:	b1 2c 20    	mov.w     #0x2cb, w1
    7bd4:	91 40 78    	mov.b     [w1], w1
    7bd6:	b0 cf b3    	mov.b     #0xfb, w0
    7bd8:	00 c0 60    	and.b     w1, w0, w0
    7bda:	02 40 70    	ior.b     w0, w2, w0
    7bdc:	cb e2 b7    	mov.b     WREG, 0x2cb
    7bde:	cb c2 bf    	mov.b     0x2cb, WREG
    7be0:	00 80 fb    	ze        w0, w0
    7be2:	42 00 de    	lsr.w     w0, #0x2, w0
    7be4:	61 40 60    	and.b     w0, #0x1, w0
    7be6:	61 40 60    	and.b     w0, #0x1, w0
    7be8:	00 41 40    	add.b     w0, w0, w2
    7bea:	b1 2c 20    	mov.w     #0x2cb, w1
    7bec:	91 40 78    	mov.b     [w1], w1
    7bee:	d0 cf b3    	mov.b     #0xfd, w0
    7bf0:	00 c0 60    	and.b     w1, w0, w0
    7bf2:	02 40 70    	ior.b     w0, w2, w0
    7bf4:	cb e2 b7    	mov.b     WREG, 0x2cb
    7bf6:	cb c2 bf    	mov.b     0x2cb, WREG
    7bf8:	00 80 fb    	ze        w0, w0
    7bfa:	00 00 d1    	lsr.w     w0, w0
    7bfc:	61 40 60    	and.b     w0, #0x1, w0
    7bfe:	61 41 60    	and.b     w0, #0x1, w2
    7c00:	b1 2c 20    	mov.w     #0x2cb, w1
    7c02:	91 40 78    	mov.b     [w1], w1
    7c04:	e0 cf b3    	mov.b     #0xfe, w0
    7c06:	00 c0 60    	and.b     w1, w0, w0
    7c08:	02 40 70    	ior.b     w0, w2, w0
    7c0a:	cb e2 b7    	mov.b     WREG, 0x2cb
    7c0c:	cb 62 a8    	bset.b    0x2cb, #0x3
    7c0e:	cb c2 bf    	mov.b     0x2cb, WREG
    7c10:	00 80 fb    	ze        w0, w0
    7c12:	43 00 de    	lsr.w     w0, #0x3, w0
    7c14:	61 40 60    	and.b     w0, #0x1, w0
    7c16:	61 40 60    	and.b     w0, #0x1, w0
    7c18:	42 01 dd    	sl.w      w0, #0x2, w2
    7c1a:	b1 2c 20    	mov.w     #0x2cb, w1
    7c1c:	91 40 78    	mov.b     [w1], w1
    7c1e:	b0 cf b3    	mov.b     #0xfb, w0
    7c20:	00 c0 60    	and.b     w1, w0, w0
    7c22:	02 40 70    	ior.b     w0, w2, w0
    7c24:	cb e2 b7    	mov.b     WREG, 0x2cb
    7c26:	cb c2 bf    	mov.b     0x2cb, WREG
    7c28:	00 80 fb    	ze        w0, w0
    7c2a:	42 00 de    	lsr.w     w0, #0x2, w0
    7c2c:	61 40 60    	and.b     w0, #0x1, w0
    7c2e:	61 40 60    	and.b     w0, #0x1, w0
    7c30:	00 41 40    	add.b     w0, w0, w2
    7c32:	b1 2c 20    	mov.w     #0x2cb, w1
    7c34:	91 40 78    	mov.b     [w1], w1
    7c36:	d0 cf b3    	mov.b     #0xfd, w0
    7c38:	00 c0 60    	and.b     w1, w0, w0
    7c3a:	02 40 70    	ior.b     w0, w2, w0
    7c3c:	cb e2 b7    	mov.b     WREG, 0x2cb
    7c3e:	cb c2 bf    	mov.b     0x2cb, WREG
    7c40:	00 80 fb    	ze        w0, w0
    7c42:	00 00 d1    	lsr.w     w0, w0
    7c44:	61 40 60    	and.b     w0, #0x1, w0
    7c46:	61 41 60    	and.b     w0, #0x1, w2
    7c48:	b1 2c 20    	mov.w     #0x2cb, w1
    7c4a:	91 40 78    	mov.b     [w1], w1
    7c4c:	e0 cf b3    	mov.b     #0xfe, w0
    7c4e:	00 c0 60    	and.b     w1, w0, w0
    7c50:	02 40 70    	ior.b     w0, w2, w0
    7c52:	cb e2 b7    	mov.b     WREG, 0x2cb
    7c54:	00 80 fa    	ulnk      
    7c56:	00 00 06    	return    

00007c58 <_udb_setDSPLibInUse>:
    7c58:	02 00 fa    	lnk       #0x2
    7c5a:	00 4f 78    	mov.b     w0, [w14]
    7c5c:	1e 04 e0    	cp0.b     [w14]
    7c5e:	04 00 32    	bra       Z, 0x7c68 <.L35>
    7c60:	90 74 80    	mov.w     0xe92, w0
    7c62:	00 00 e8    	inc.w     w0, w0
    7c64:	90 74 88    	mov.w     w0, 0xe92
    7c66:	03 00 37    	bra       0x7c6e <.L38>

00007c68 <.L35>:
    7c68:	90 74 80    	mov.w     0xe92, w0
    7c6a:	00 00 e9    	dec.w     w0, w0
    7c6c:	90 74 88    	mov.w     w0, 0xe92

00007c6e <.L38>:
    7c6e:	00 80 fa    	ulnk      
    7c70:	00 00 06    	return    

00007c72 <_udb_a2d_record_offsets>:
    7c72:	00 00 fa    	lnk       #0x0
    7c74:	f0 61 80    	mov.w     0xc3e, w0
    7c76:	00 62 88    	mov.w     w0, 0xc40
    7c78:	80 62 80    	mov.w     0xc50, w0
    7c7a:	90 62 88    	mov.w     w0, 0xc52
    7c7c:	20 62 80    	mov.w     0xc44, w0
    7c7e:	30 62 88    	mov.w     w0, 0xc46
    7c80:	b0 62 80    	mov.w     0xc56, w0
    7c82:	c0 62 88    	mov.w     w0, 0xc58
    7c84:	51 62 80    	mov.w     0xc4a, w1
    7c86:	20 06 2f    	mov.w     #0xf062, w0
    7c88:	00 80 40    	add.w     w1, w0, w0
    7c8a:	60 62 88    	mov.w     w0, 0xc4c
    7c8c:	e0 62 80    	mov.w     0xc5c, w0
    7c8e:	f0 62 88    	mov.w     w0, 0xc5e
    7c90:	00 80 fa    	ulnk      
    7c92:	00 00 06    	return    

00007c94 <_udb_servo_record_trims>:
    7c94:	02 00 fa    	lnk       #0x2
    7c96:	00 00 eb    	clr.w     w0
    7c98:	00 0f 78    	mov.w     w0, [w14]
    7c9a:	0b 00 37    	bra       0x7cb2 <.L42>

00007c9c <.L43>:
    7c9c:	1e 01 78    	mov.w     [w14], w2
    7c9e:	1e 00 78    	mov.w     [w14], w0
    7ca0:	80 00 40    	add.w     w0, w0, w1
    7ca2:	80 95 20    	mov.w     #0x958, w0
    7ca4:	00 80 40    	add.w     w1, w0, w0
    7ca6:	90 01 78    	mov.w     [w0], w3
    7ca8:	82 00 41    	add.w     w2, w2, w1
    7caa:	a0 9d 20    	mov.w     #0x9da, w0
    7cac:	00 80 40    	add.w     w1, w0, w0
    7cae:	03 08 78    	mov.w     w3, [w0]
    7cb0:	1e 0f e8    	inc.w     [w14], [w14]

00007cb2 <.L42>:
    7cb2:	00 04 20    	mov.w     #0x40, w0
    7cb4:	9e 0f 10    	subr.w    w0, [w14], [w15]
    7cb6:	f2 ff 34    	bra       LE, 0x7c9c <.L43>
    7cb8:	00 80 fa    	ulnk      
    7cba:	00 00 06    	return    

00007cbc <_udb_servo_pulsesat>:
    7cbc:	04 00 fa    	lnk       #0x4
    7cbe:	00 8f be    	mov.d     w0, [w14]
    7cc0:	00 71 22    	mov.w     #0x2710, w0
    7cc2:	01 00 20    	mov.w     #0x0, w1
    7cc4:	be 0f 10    	subr.w    w0, [w14++], [w15]
    7cc6:	ae 8f 18    	subbr.w   w1, [w14--], [w15]
    7cc8:	03 00 34    	bra       LE, 0x7cd0 <.L47>
    7cca:	00 71 22    	mov.w     #0x2710, w0
    7ccc:	01 00 20    	mov.w     #0x0, w1
    7cce:	00 8f be    	mov.d     w0, [w14]

00007cd0 <.L47>:
    7cd0:	70 38 21    	mov.w     #0x1387, w0
    7cd2:	01 00 20    	mov.w     #0x0, w1
    7cd4:	be 0f 10    	subr.w    w0, [w14++], [w15]
    7cd6:	ae 8f 18    	subbr.w   w1, [w14--], [w15]
    7cd8:	03 00 3c    	bra       GT, 0x7ce0 <.L49>
    7cda:	80 38 21    	mov.w     #0x1388, w0
    7cdc:	01 00 20    	mov.w     #0x0, w1
    7cde:	00 8f be    	mov.d     w0, [w14]

00007ce0 <.L49>:
    7ce0:	1e 00 78    	mov.w     [w14], w0
    7ce2:	00 80 fa    	ulnk      
    7ce4:	00 00 06    	return    

00007ce6 <_estimateWind>:
    7ce6:	3e 00 fa    	lnk       #0x3e
    7ce8:	b0 76 80    	mov.w     0xed6, w0
    7cea:	01 02 20    	mov.w     #0x20, w1
    7cec:	01 00 60    	and.w     w0, w1, w0
    7cee:	00 00 e0    	cp0.w     w0
    7cf0:	30 01 3a    	bra       NZ, 0x7f52 <.L11>
    7cf2:	01 67 80    	mov.w     0xce0, w1
    7cf4:	72 00 47    	add.w     w14, #0x12, w0
    7cf6:	01 08 78    	mov.w     w1, [w0]
    7cf8:	21 67 80    	mov.w     0xce4, w1
    7cfa:	72 00 47    	add.w     w14, #0x12, w0
    7cfc:	11 00 98    	mov.w     w1, [w0+2]
    7cfe:	41 67 80    	mov.w     0xce8, w1
    7d00:	72 00 47    	add.w     w14, #0x12, w0
    7d02:	21 00 98    	mov.w     w1, [w0+4]
    7d04:	30 58 80    	mov.w     0xb06, w0
    7d06:	80 00 ea    	neg.w     w0, w1
    7d08:	40 02 20    	mov.w     #0x24, w0
    7d0a:	0e 00 40    	add.w     w0, w14, w0
    7d0c:	01 08 78    	mov.w     w1, [w0]
    7d0e:	61 58 80    	mov.w     0xb0c, w1
    7d10:	40 02 20    	mov.w     #0x24, w0
    7d12:	0e 00 40    	add.w     w0, w14, w0
    7d14:	11 00 98    	mov.w     w1, [w0+2]
    7d16:	90 58 80    	mov.w     0xb12, w0
    7d18:	80 00 ea    	neg.w     w0, w1
    7d1a:	40 02 20    	mov.w     #0x24, w0
    7d1c:	0e 00 40    	add.w     w0, w14, w0
    7d1e:	21 00 98    	mov.w     w1, [w0+4]
    7d20:	00 00 eb    	clr.w     w0
    7d22:	00 0f 98    	mov.w     w0, [w14+16]
    7d24:	53 00 37    	bra       0x7dcc <.L4>

00007d26 <.L5>:
    7d26:	8e 09 90    	mov.w     [w14+16], w3
    7d28:	0e 08 90    	mov.w     [w14+16], w0
    7d2a:	f2 00 47    	add.w     w14, #0x12, w1
    7d2c:	00 00 40    	add.w     w0, w0, w0
    7d2e:	60 80 78    	mov.w     [w0+w1], w0
    7d30:	00 81 d1    	asr.w     w0, w2
    7d32:	f2 00 47    	add.w     w14, #0x12, w1
    7d34:	03 80 41    	add.w     w3, w3, w0
    7d36:	02 b0 78    	mov.w     w2, [w0+w1]
    7d38:	8e 09 90    	mov.w     [w14+16], w3
    7d3a:	0e 08 90    	mov.w     [w14+16], w0
    7d3c:	41 02 20    	mov.w     #0x24, w1
    7d3e:	8e 80 40    	add.w     w1, w14, w1
    7d40:	00 00 40    	add.w     w0, w0, w0
    7d42:	60 80 78    	mov.w     [w0+w1], w0
    7d44:	00 81 d1    	asr.w     w0, w2
    7d46:	41 02 20    	mov.w     #0x24, w1
    7d48:	8e 80 40    	add.w     w1, w14, w1
    7d4a:	03 80 41    	add.w     w3, w3, w0
    7d4c:	02 b0 78    	mov.w     w2, [w0+w1]
    7d4e:	8e 09 90    	mov.w     [w14+16], w3
    7d50:	0e 08 90    	mov.w     [w14+16], w0
    7d52:	f2 00 47    	add.w     w14, #0x12, w1
    7d54:	00 00 40    	add.w     w0, w0, w0
    7d56:	60 81 78    	mov.w     [w0+w1], w2
    7d58:	0e 08 90    	mov.w     [w14+16], w0
    7d5a:	80 00 40    	add.w     w0, w0, w1
    7d5c:	a0 de 20    	mov.w     #0xdea, w0
    7d5e:	00 80 40    	add.w     w1, w0, w0
    7d60:	10 00 78    	mov.w     [w0], w0
    7d62:	00 01 41    	add.w     w2, w0, w2
    7d64:	f8 00 47    	add.w     w14, #0x18, w1
    7d66:	03 80 41    	add.w     w3, w3, w0
    7d68:	02 b0 78    	mov.w     w2, [w0+w1]
    7d6a:	8e 09 90    	mov.w     [w14+16], w3
    7d6c:	0e 08 90    	mov.w     [w14+16], w0
    7d6e:	f2 00 47    	add.w     w14, #0x12, w1
    7d70:	00 00 40    	add.w     w0, w0, w0
    7d72:	60 81 78    	mov.w     [w0+w1], w2
    7d74:	0e 08 90    	mov.w     [w14+16], w0
    7d76:	80 00 40    	add.w     w0, w0, w1
    7d78:	a0 de 20    	mov.w     #0xdea, w0
    7d7a:	00 80 40    	add.w     w1, w0, w0
    7d7c:	10 00 78    	mov.w     [w0], w0
    7d7e:	00 01 51    	sub.w     w2, w0, w2
    7d80:	fe 00 47    	add.w     w14, #0x1e, w1
    7d82:	03 80 41    	add.w     w3, w3, w0
    7d84:	02 b0 78    	mov.w     w2, [w0+w1]
    7d86:	8e 09 90    	mov.w     [w14+16], w3
    7d88:	0e 08 90    	mov.w     [w14+16], w0
    7d8a:	41 02 20    	mov.w     #0x24, w1
    7d8c:	8e 80 40    	add.w     w1, w14, w1
    7d8e:	00 00 40    	add.w     w0, w0, w0
    7d90:	60 81 78    	mov.w     [w0+w1], w2
    7d92:	0e 08 90    	mov.w     [w14+16], w0
    7d94:	80 00 40    	add.w     w0, w0, w1
    7d96:	00 df 20    	mov.w     #0xdf0, w0
    7d98:	00 80 40    	add.w     w1, w0, w0
    7d9a:	10 00 78    	mov.w     [w0], w0
    7d9c:	00 01 41    	add.w     w2, w0, w2
    7d9e:	a1 02 20    	mov.w     #0x2a, w1
    7da0:	8e 80 40    	add.w     w1, w14, w1
    7da2:	03 80 41    	add.w     w3, w3, w0
    7da4:	02 b0 78    	mov.w     w2, [w0+w1]
    7da6:	8e 09 90    	mov.w     [w14+16], w3
    7da8:	0e 08 90    	mov.w     [w14+16], w0
    7daa:	41 02 20    	mov.w     #0x24, w1
    7dac:	8e 80 40    	add.w     w1, w14, w1
    7dae:	00 00 40    	add.w     w0, w0, w0
    7db0:	60 81 78    	mov.w     [w0+w1], w2
    7db2:	0e 08 90    	mov.w     [w14+16], w0
    7db4:	80 00 40    	add.w     w0, w0, w1
    7db6:	00 df 20    	mov.w     #0xdf0, w0
    7db8:	00 80 40    	add.w     w1, w0, w0
    7dba:	10 00 78    	mov.w     [w0], w0
    7dbc:	00 01 51    	sub.w     w2, w0, w2
    7dbe:	01 03 20    	mov.w     #0x30, w1
    7dc0:	8e 80 40    	add.w     w1, w14, w1
    7dc2:	03 80 41    	add.w     w3, w3, w0
    7dc4:	02 b0 78    	mov.w     w2, [w0+w1]
    7dc6:	0e 08 90    	mov.w     [w14+16], w0
    7dc8:	00 00 e8    	inc.w     w0, w0
    7dca:	00 0f 98    	mov.w     w0, [w14+16]

00007dcc <.L4>:
    7dcc:	0e 08 90    	mov.w     [w14+16], w0
    7dce:	e2 0f 50    	sub.w     w0, #0x2, [w15]
    7dd0:	aa ff 34    	bra       LE, 0x7d26 <.L5>
    7dd2:	00 03 20    	mov.w     #0x30, w0
    7dd4:	0e 00 40    	add.w     w0, w14, w0
    7dd6:	10 00 78    	mov.w     [w0], w0
    7dd8:	50 1f 98    	mov.w     w0, [w14+58]
    7dda:	00 03 20    	mov.w     #0x30, w0
    7ddc:	0e 00 40    	add.w     w0, w14, w0
    7dde:	10 00 90    	mov.w     [w0+2], w0
    7de0:	60 1f 98    	mov.w     w0, [w14+60]
    7de2:	a0 03 20    	mov.w     #0x3a, w0
    7de4:	0e 00 40    	add.w     w0, w14, w0
    7de6:	7d fd 07    	rcall     0x78e2 <_rect_to_polar>
    7de8:	50 47 98    	mov.b     w0, [w14+5]
    7dea:	5e 18 90    	mov.w     [w14+58], w0
    7dec:	40 07 98    	mov.w     w0, [w14+8]
    7dee:	7e 00 47    	add.w     w14, #0x1e, w0
    7df0:	10 00 78    	mov.w     [w0], w0
    7df2:	50 1f 98    	mov.w     w0, [w14+58]
    7df4:	7e 00 47    	add.w     w14, #0x1e, w0
    7df6:	10 00 90    	mov.w     [w0+2], w0
    7df8:	60 1f 98    	mov.w     w0, [w14+60]
    7dfa:	a0 03 20    	mov.w     #0x3a, w0
    7dfc:	0e 00 40    	add.w     w0, w14, w0
    7dfe:	71 fd 07    	rcall     0x78e2 <_rect_to_polar>
    7e00:	60 47 98    	mov.b     w0, [w14+6]
    7e02:	5e 18 90    	mov.w     [w14+58], w0
    7e04:	50 07 98    	mov.w     w0, [w14+10]
    7e06:	ee 40 90    	mov.b     [w14+6], w1
    7e08:	5e 40 90    	mov.b     [w14+5], w0
    7e0a:	00 c0 50    	sub.b     w1, w0, w0
    7e0c:	40 47 98    	mov.b     w0, [w14+4]
    7e0e:	4e 40 90    	mov.b     [w14+4], w0
    7e10:	2c fd 07    	rcall     0x786a <_cosine>
    7e12:	10 07 98    	mov.w     w0, [w14+2]
    7e14:	4e 40 90    	mov.b     [w14+4], w0
    7e16:	a5 fc 07    	rcall     0x7762 <_sine>
    7e18:	00 0f 78    	mov.w     w0, [w14]
    7e1a:	4e 00 90    	mov.w     [w14+8], w0
    7e1c:	50 1f 98    	mov.w     w0, [w14+58]
    7e1e:	00 03 20    	mov.w     #0x30, w0
    7e20:	0e 00 40    	add.w     w0, w14, w0
    7e22:	20 00 90    	mov.w     [w0+4], w0
    7e24:	60 1f 98    	mov.w     w0, [w14+60]
    7e26:	a0 03 20    	mov.w     #0x3a, w0
    7e28:	0e 00 40    	add.w     w0, w14, w0
    7e2a:	5b fd 07    	rcall     0x78e2 <_rect_to_polar>
    7e2c:	5e 18 90    	mov.w     [w14+58], w0
    7e2e:	60 07 98    	mov.w     w0, [w14+12]
    7e30:	5e 00 90    	mov.w     [w14+10], w0
    7e32:	50 1f 98    	mov.w     w0, [w14+58]
    7e34:	7e 00 47    	add.w     w14, #0x1e, w0
    7e36:	20 00 90    	mov.w     [w0+4], w0
    7e38:	60 1f 98    	mov.w     w0, [w14+60]
    7e3a:	a0 03 20    	mov.w     #0x3a, w0
    7e3c:	0e 00 40    	add.w     w0, w14, w0
    7e3e:	51 fd 07    	rcall     0x78e2 <_rect_to_polar>
    7e40:	5e 18 90    	mov.w     [w14+58], w0
    7e42:	70 07 98    	mov.w     w0, [w14+14]
    7e44:	ee 00 90    	mov.w     [w14+12], w1
    7e46:	c0 cc 20    	mov.w     #0xccc, w0
    7e48:	80 8f 50    	sub.w     w1, w0, [w15]
    7e4a:	83 00 36    	bra       LEU, 0x7f52 <.L11>
    7e4c:	7e 00 90    	mov.w     [w14+14], w0
    7e4e:	42 00 de    	lsr.w     w0, #0x2, w0
    7e50:	40 1f 98    	mov.w     w0, [w14+56]
    7e52:	00 00 eb    	clr.w     w0
    7e54:	30 1f 98    	mov.w     w0, [w14+54]
    7e56:	3e 18 90    	mov.w     [w14+54], w0
    7e58:	ce 18 90    	mov.w     [w14+56], w1
    7e5a:	6e 01 90    	mov.w     [w14+12], w2
    7e5c:	81 1f 78    	mov.w     w1, [w15++]
    7e5e:	11 00 09    	repeat    #0x11
    7e60:	42 88 d8    	div.ud    w0, w2
    7e62:	cf 00 78    	mov.w     [--w15], w1
    7e64:	b0 6f 88    	mov.w     w0, 0xdf6
    7e66:	a0 02 20    	mov.w     #0x2a, w0
    7e68:	0e 00 40    	add.w     w0, w14, w0
    7e6a:	90 00 78    	mov.w     [w0], w1
    7e6c:	1e 00 90    	mov.w     [w14+2], w0
    7e6e:	01 81 b9    	mul.ss    w0, w1, w2
    7e70:	a0 02 20    	mov.w     #0x2a, w0
    7e72:	0e 00 40    	add.w     w0, w14, w0
    7e74:	90 00 90    	mov.w     [w0+2], w1
    7e76:	1e 00 78    	mov.w     [w14], w0
    7e78:	01 80 b9    	mul.ss    w0, w1, w0
    7e7a:	00 00 51    	sub.w     w2, w0, w0
    7e7c:	81 80 59    	subb.w    w3, w1, w1
    7e7e:	42 09 dd    	sl.w      w1, #0x2, w2
    7e80:	ce 00 de    	lsr.w     w0, #0xe, w1
    7e82:	81 00 71    	ior.w     w2, w1, w1
    7e84:	42 00 dd    	sl.w      w0, #0x2, w0
    7e86:	30 1f 98    	mov.w     w0, [w14+54]
    7e88:	41 1f 98    	mov.w     w1, [w14+56]
    7e8a:	ce 18 90    	mov.w     [w14+56], w1
    7e8c:	b0 6f 80    	mov.w     0xdf6, w0
    7e8e:	01 80 b8    	mul.us    w0, w1, w0
    7e90:	42 09 dd    	sl.w      w1, #0x2, w2
    7e92:	ce 00 de    	lsr.w     w0, #0xe, w1
    7e94:	81 00 71    	ior.w     w2, w1, w1
    7e96:	42 00 dd    	sl.w      w0, #0x2, w0
    7e98:	30 1f 98    	mov.w     w0, [w14+54]
    7e9a:	41 1f 98    	mov.w     w1, [w14+56]
    7e9c:	c2 6f 80    	mov.w     0xdf8, w2
    7e9e:	78 00 47    	add.w     w14, #0x18, w0
    7ea0:	90 00 78    	mov.w     [w0], w1
    7ea2:	4e 18 90    	mov.w     [w14+56], w0
    7ea4:	80 80 50    	sub.w     w1, w0, w1
    7ea6:	c0 6f 80    	mov.w     0xdf8, w0
    7ea8:	00 80 50    	sub.w     w1, w0, w0
    7eaa:	44 80 de    	asr.w     w0, #0x4, w0
    7eac:	00 00 41    	add.w     w2, w0, w0
    7eae:	c0 6f 88    	mov.w     w0, 0xdf8
    7eb0:	a0 02 20    	mov.w     #0x2a, w0
    7eb2:	0e 00 40    	add.w     w0, w14, w0
    7eb4:	90 00 78    	mov.w     [w0], w1
    7eb6:	1e 00 78    	mov.w     [w14], w0
    7eb8:	01 81 b9    	mul.ss    w0, w1, w2
    7eba:	a0 02 20    	mov.w     #0x2a, w0
    7ebc:	0e 00 40    	add.w     w0, w14, w0
    7ebe:	90 00 90    	mov.w     [w0+2], w1
    7ec0:	1e 00 90    	mov.w     [w14+2], w0
    7ec2:	01 80 b9    	mul.ss    w0, w1, w0
    7ec4:	02 00 40    	add.w     w0, w2, w0
    7ec6:	83 80 48    	addc.w    w1, w3, w1
    7ec8:	42 09 dd    	sl.w      w1, #0x2, w2
    7eca:	ce 00 de    	lsr.w     w0, #0xe, w1
    7ecc:	81 00 71    	ior.w     w2, w1, w1
    7ece:	42 00 dd    	sl.w      w0, #0x2, w0
    7ed0:	30 1f 98    	mov.w     w0, [w14+54]
    7ed2:	41 1f 98    	mov.w     w1, [w14+56]
    7ed4:	ce 18 90    	mov.w     [w14+56], w1
    7ed6:	b0 6f 80    	mov.w     0xdf6, w0
    7ed8:	01 80 b8    	mul.us    w0, w1, w0
    7eda:	42 09 dd    	sl.w      w1, #0x2, w2
    7edc:	ce 00 de    	lsr.w     w0, #0xe, w1
    7ede:	81 00 71    	ior.w     w2, w1, w1
    7ee0:	42 00 dd    	sl.w      w0, #0x2, w0
    7ee2:	30 1f 98    	mov.w     w0, [w14+54]
    7ee4:	41 1f 98    	mov.w     w1, [w14+56]
    7ee6:	d2 6f 80    	mov.w     0xdfa, w2
    7ee8:	78 00 47    	add.w     w14, #0x18, w0
    7eea:	90 00 90    	mov.w     [w0+2], w1
    7eec:	4e 18 90    	mov.w     [w14+56], w0
    7eee:	80 80 50    	sub.w     w1, w0, w1
    7ef0:	d0 6f 80    	mov.w     0xdfa, w0
    7ef2:	00 80 50    	sub.w     w1, w0, w0
    7ef4:	44 80 de    	asr.w     w0, #0x4, w0
    7ef6:	00 00 41    	add.w     w2, w0, w0
    7ef8:	d0 6f 88    	mov.w     w0, 0xdfa
    7efa:	a0 02 20    	mov.w     #0x2a, w0
    7efc:	0e 00 40    	add.w     w0, w14, w0
    7efe:	a0 00 90    	mov.w     [w0+4], w1
    7f00:	b0 6f 80    	mov.w     0xdf6, w0
    7f02:	01 80 b8    	mul.us    w0, w1, w0
    7f04:	42 09 dd    	sl.w      w1, #0x2, w2
    7f06:	ce 00 de    	lsr.w     w0, #0xe, w1
    7f08:	81 00 71    	ior.w     w2, w1, w1
    7f0a:	42 00 dd    	sl.w      w0, #0x2, w0
    7f0c:	30 1f 98    	mov.w     w0, [w14+54]
    7f0e:	41 1f 98    	mov.w     w1, [w14+56]
    7f10:	78 00 47    	add.w     w14, #0x18, w0
    7f12:	a0 00 90    	mov.w     [w0+4], w1
    7f14:	4e 18 90    	mov.w     [w14+56], w0
    7f16:	00 80 50    	sub.w     w1, w0, w0
    7f18:	e0 6f 88    	mov.w     w0, 0xdfc
    7f1a:	00 00 eb    	clr.w     w0
    7f1c:	00 0f 98    	mov.w     w0, [w14+16]
    7f1e:	16 00 37    	bra       0x7f4c <.L9>

00007f20 <.L10>:
    7f20:	0e 09 90    	mov.w     [w14+16], w2
    7f22:	0e 08 90    	mov.w     [w14+16], w0
    7f24:	f2 00 47    	add.w     w14, #0x12, w1
    7f26:	00 00 40    	add.w     w0, w0, w0
    7f28:	e0 81 78    	mov.w     [w0+w1], w3
    7f2a:	82 00 41    	add.w     w2, w2, w1
    7f2c:	a0 de 20    	mov.w     #0xdea, w0
    7f2e:	00 80 40    	add.w     w1, w0, w0
    7f30:	03 08 78    	mov.w     w3, [w0]
    7f32:	0e 09 90    	mov.w     [w14+16], w2
    7f34:	0e 08 90    	mov.w     [w14+16], w0
    7f36:	41 02 20    	mov.w     #0x24, w1
    7f38:	8e 80 40    	add.w     w1, w14, w1
    7f3a:	00 00 40    	add.w     w0, w0, w0
    7f3c:	e0 81 78    	mov.w     [w0+w1], w3
    7f3e:	82 00 41    	add.w     w2, w2, w1
    7f40:	00 df 20    	mov.w     #0xdf0, w0
    7f42:	00 80 40    	add.w     w1, w0, w0
    7f44:	03 08 78    	mov.w     w3, [w0]
    7f46:	0e 08 90    	mov.w     [w14+16], w0
    7f48:	00 00 e8    	inc.w     w0, w0
    7f4a:	00 0f 98    	mov.w     w0, [w14+16]

00007f4c <.L9>:
    7f4c:	0e 08 90    	mov.w     [w14+16], w0
    7f4e:	e2 0f 50    	sub.w     w0, #0x2, [w15]
    7f50:	e7 ff 34    	bra       LE, 0x7f20 <.L10>

00007f52 <.L11>:
    7f52:	00 80 fa    	ulnk      
    7f54:	00 00 06    	return    

00007f56 <_dcm_init>:
    7f56:	00 00 fa    	lnk       #0x0
    7f58:	00 40 eb    	clr.b     w0
    7f5a:	d6 ee b7    	mov.b     WREG, 0xed6
    7f5c:	d6 4e a8    	bset.b    0xed6, #0x2
    7f5e:	02 ee 07    	rcall     0x5b64 <_dcm_init_rmat>
    7f60:	00 80 fa    	ulnk      
    7f62:	00 00 06    	return    

00007f64 <_udb_servo_callback_prepare_outputs>:
    7f64:	02 00 fa    	lnk       #0x2
    7f66:	c0 65 80    	mov.w     0xcb8, w0
    7f68:	d1 65 80    	mov.w     0xcba, w1
    7f6a:	79 00 40    	add.w     w0, #0x19, w0
    7f6c:	e0 80 48    	addc.w    w1, #0x0, w1
    7f6e:	c0 65 88    	mov.w     w0, 0xcb8
    7f70:	d1 65 88    	mov.w     w1, 0xcba
    7f72:	d5 ce bf    	mov.b     0xed5, WREG
    7f74:	00 40 e8    	inc.b     w0, w0
    7f76:	d5 ee b7    	mov.b     WREG, 0xed5
    7f78:	d5 ce bf    	mov.b     0xed5, WREG
    7f7a:	e9 4f 50    	sub.b     w0, #0x9, [w15]
    7f7c:	03 00 34    	bra       LE, 0x7f84 <.L4>
    7f7e:	1b ea 07    	rcall     0x53b6 <_rxAccel>
    7f80:	00 40 eb    	clr.b     w0
    7f82:	d5 ee b7    	mov.b     WREG, 0xed5

00007f84 <.L4>:
    7f84:	31 63 80    	mov.w     0xc66, w1
    7f86:	f0 03 20    	mov.w     #0x3f, w0
    7f88:	00 8f 60    	and.w     w1, w0, [w14]
    7f8a:	10 c0 b3    	mov.b     #0x1, w0
    7f8c:	65 fe 07    	rcall     0x7c58 <_udb_setDSPLibInUse>
    7f8e:	a0 00 20    	mov.w     #0xa, w0
    7f90:	9e 0f 10    	subr.w    w0, [w14], [w15]
    7f92:	3b 00 34    	bra       LE, 0x800a <.L6>
    7f94:	00 e0 22    	mov.w     #0x2e00, w0
    7f96:	00 08 b0    	add.w     #0x80, w0
    7f98:	00 01 78    	mov.w     w0, w2
    7f9a:	01 e0 22    	mov.w     #0x2e00, w1
    7f9c:	00 40 20    	mov.w     #0x400, w0
    7f9e:	00 80 40    	add.w     w1, w0, w0
    7fa0:	80 00 78    	mov.w     w0, w1
    7fa2:	03 7c 27    	mov.w     #0x77c0, w3
    7fa4:	1e 00 78    	mov.w     [w14], w0
    7fa6:	21 08 07    	rcall     0x8fea <_MDSFIR>
    7fa8:	00 e0 22    	mov.w     #0x2e00, w0
    7faa:	00 10 b0    	add.w     #0x100, w0
    7fac:	00 01 78    	mov.w     w0, w2
    7fae:	01 e0 22    	mov.w     #0x2e00, w1
    7fb0:	00 48 20    	mov.w     #0x480, w0
    7fb2:	00 80 40    	add.w     w1, w0, w0
    7fb4:	80 00 78    	mov.w     w0, w1
    7fb6:	e3 7c 27    	mov.w     #0x77ce, w3
    7fb8:	1e 00 78    	mov.w     [w14], w0
    7fba:	17 08 07    	rcall     0x8fea <_MDSFIR>
    7fbc:	00 e0 22    	mov.w     #0x2e00, w0
    7fbe:	00 18 b0    	add.w     #0x180, w0
    7fc0:	00 01 78    	mov.w     w0, w2
    7fc2:	01 e0 22    	mov.w     #0x2e00, w1
    7fc4:	00 50 20    	mov.w     #0x500, w0
    7fc6:	00 80 40    	add.w     w1, w0, w0
    7fc8:	80 00 78    	mov.w     w0, w1
    7fca:	c3 7d 27    	mov.w     #0x77dc, w3
    7fcc:	1e 00 78    	mov.w     [w14], w0
    7fce:	0d 08 07    	rcall     0x8fea <_MDSFIR>
    7fd0:	01 e0 22    	mov.w     #0x2e00, w1
    7fd2:	00 40 20    	mov.w     #0x400, w0
    7fd4:	00 80 40    	add.w     w1, w0, w0
    7fd6:	9e 00 78    	mov.w     [w14], w1
    7fd8:	c0 08 07    	rcall     0x915a <_averageSample>
    7fda:	90 69 89    	mov.w     w0, 0x2d32
    7fdc:	01 e0 22    	mov.w     #0x2e00, w1
    7fde:	00 48 20    	mov.w     #0x480, w0
    7fe0:	00 80 40    	add.w     w1, w0, w0
    7fe2:	9e 00 78    	mov.w     [w14], w1
    7fe4:	ba 08 07    	rcall     0x915a <_averageSample>
    7fe6:	a0 69 89    	mov.w     w0, 0x2d34
    7fe8:	01 e0 22    	mov.w     #0x2e00, w1
    7fea:	00 50 20    	mov.w     #0x500, w0
    7fec:	00 80 40    	add.w     w1, w0, w0
    7fee:	9e 00 78    	mov.w     [w14], w1
    7ff0:	b4 08 07    	rcall     0x915a <_averageSample>
    7ff2:	b0 69 89    	mov.w     w0, 0x2d36
    7ff4:	00 00 eb    	clr.w     w0
    7ff6:	90 69 89    	mov.w     w0, 0x2d32
    7ff8:	00 00 eb    	clr.w     w0
    7ffa:	a0 69 89    	mov.w     w0, 0x2d34
    7ffc:	00 00 eb    	clr.w     w0
    7ffe:	b0 69 89    	mov.w     w0, 0x2d36
    8000:	1e 0f e9    	dec.w     [w14], [w14]
    8002:	1e 00 78    	mov.w     [w14], w0
    8004:	f0 73 88    	mov.w     w0, 0xe7e
    8006:	00 00 eb    	clr.w     w0
    8008:	30 63 88    	mov.w     w0, 0xc66

0000800a <.L6>:
    800a:	51 63 80    	mov.w     0xc6a, w1
    800c:	f0 03 20    	mov.w     #0x3f, w0
    800e:	00 8f 60    	and.w     w1, w0, [w14]
    8010:	a0 00 20    	mov.w     #0xa, w0
    8012:	9e 0f 10    	subr.w    w0, [w14], [w15]
    8014:	35 00 34    	bra       LE, 0x8080 <.L8>
    8016:	00 e0 22    	mov.w     #0x2e00, w0
    8018:	00 20 b0    	add.w     #0x200, w0
    801a:	00 01 78    	mov.w     w0, w2
    801c:	01 e0 22    	mov.w     #0x2e00, w1
    801e:	00 58 20    	mov.w     #0x580, w0
    8020:	00 80 40    	add.w     w1, w0, w0
    8022:	80 00 78    	mov.w     w0, w1
    8024:	03 d6 22    	mov.w     #0x2d60, w3
    8026:	1e 00 78    	mov.w     [w14], w0
    8028:	e0 07 07    	rcall     0x8fea <_MDSFIR>
    802a:	00 e0 22    	mov.w     #0x2e00, w0
    802c:	00 28 b0    	add.w     #0x280, w0
    802e:	00 01 78    	mov.w     w0, w2
    8030:	01 e0 22    	mov.w     #0x2e00, w1
    8032:	00 60 20    	mov.w     #0x600, w0
    8034:	00 80 40    	add.w     w1, w0, w0
    8036:	80 00 78    	mov.w     w0, w1
    8038:	e3 d6 22    	mov.w     #0x2d6e, w3
    803a:	1e 00 78    	mov.w     [w14], w0
    803c:	d6 07 07    	rcall     0x8fea <_MDSFIR>
    803e:	00 e0 22    	mov.w     #0x2e00, w0
    8040:	00 30 b0    	add.w     #0x300, w0
    8042:	00 01 78    	mov.w     w0, w2
    8044:	01 e0 22    	mov.w     #0x2e00, w1
    8046:	00 68 20    	mov.w     #0x680, w0
    8048:	00 80 40    	add.w     w1, w0, w0
    804a:	80 00 78    	mov.w     w0, w1
    804c:	c3 d7 22    	mov.w     #0x2d7c, w3
    804e:	1e 00 78    	mov.w     [w14], w0
    8050:	cc 07 07    	rcall     0x8fea <_MDSFIR>
    8052:	01 e0 22    	mov.w     #0x2e00, w1
    8054:	00 58 20    	mov.w     #0x580, w0
    8056:	00 80 40    	add.w     w1, w0, w0
    8058:	9e 00 78    	mov.w     [w14], w1
    805a:	7f 08 07    	rcall     0x915a <_averageSample>
    805c:	c0 69 89    	mov.w     w0, 0x2d38
    805e:	01 e0 22    	mov.w     #0x2e00, w1
    8060:	00 60 20    	mov.w     #0x600, w0
    8062:	00 80 40    	add.w     w1, w0, w0
    8064:	9e 00 78    	mov.w     [w14], w1
    8066:	79 08 07    	rcall     0x915a <_averageSample>
    8068:	d0 69 89    	mov.w     w0, 0x2d3a
    806a:	01 e0 22    	mov.w     #0x2e00, w1
    806c:	00 68 20    	mov.w     #0x680, w0
    806e:	00 80 40    	add.w     w1, w0, w0
    8070:	9e 00 78    	mov.w     [w14], w1
    8072:	73 08 07    	rcall     0x915a <_averageSample>
    8074:	e0 69 89    	mov.w     w0, 0x2d3c
    8076:	1e 0f e9    	dec.w     [w14], [w14]
    8078:	1e 00 78    	mov.w     [w14], w0
    807a:	00 74 88    	mov.w     w0, 0xe80
    807c:	00 00 eb    	clr.w     w0
    807e:	50 63 88    	mov.w     w0, 0xc6a

00008080 <.L8>:
    8080:	00 40 eb    	clr.b     w0
    8082:	ea fd 07    	rcall     0x7c58 <_udb_setDSPLibInUse>
    8084:	90 69 81    	mov.w     0x2d32, w0
    8086:	80 62 88    	mov.w     w0, 0xc50
    8088:	a0 69 81    	mov.w     0x2d34, w0
    808a:	b0 62 88    	mov.w     w0, 0xc56
    808c:	b0 69 81    	mov.w     0x2d36, w0
    808e:	e0 62 88    	mov.w     w0, 0xc5c
    8090:	d0 69 81    	mov.w     0x2d3a, w0
    8092:	f0 61 88    	mov.w     w0, 0xc3e
    8094:	e0 69 81    	mov.w     0x2d3c, w0
    8096:	20 62 88    	mov.w     w0, 0xc44
    8098:	c0 69 81    	mov.w     0x2d38, w0
    809a:	50 62 88    	mov.w     w0, 0xc4a
    809c:	d4 ce bf    	mov.b     0xed4, WREG
    809e:	00 04 e0    	cp0.b     w0
    80a0:	01 00 32    	bra       Z, 0x80a4 <.L10>
    80a2:	b0 ef 07    	rcall     0x6004 <_dcm_run_imu_step>

000080a4 <.L10>:
    80a4:	a1 05 07    	rcall     0x8be8 <_dcm_servo_callback_prepare_outputs>
    80a6:	00 80 fa    	ulnk      
    80a8:	00 00 06    	return    

000080aa <_dcm_calibrate>:
    80aa:	00 00 fa    	lnk       #0x0
    80ac:	e2 fd 07    	rcall     0x7c72 <_udb_a2d_record_offsets>
    80ae:	10 c0 b3    	mov.b     #0x1, w0
    80b0:	d4 ee b7    	mov.b     WREG, 0xed4
    80b2:	00 80 fa    	ulnk      
    80b4:	00 00 06    	return    

000080b6 <_dcm_set_origin_location>:
    80b6:	10 00 fa    	lnk       #0x10
    80b8:	20 07 98    	mov.w     w0, [w14+4]
    80ba:	31 07 98    	mov.w     w1, [w14+6]
    80bc:	42 07 98    	mov.w     w2, [w14+8]
    80be:	53 07 98    	mov.w     w3, [w14+10]
    80c0:	64 07 98    	mov.w     w4, [w14+12]
    80c2:	75 07 98    	mov.w     w5, [w14+14]
    80c4:	4e 00 90    	mov.w     [w14+8], w0
    80c6:	de 00 90    	mov.w     [w14+10], w1
    80c8:	60 65 88    	mov.w     w0, 0xcac
    80ca:	71 65 88    	mov.w     w1, 0xcae
    80cc:	2e 00 90    	mov.w     [w14+4], w0
    80ce:	be 00 90    	mov.w     [w14+6], w1
    80d0:	80 65 88    	mov.w     w0, 0xcb0
    80d2:	91 65 88    	mov.w     w1, 0xcb2
    80d4:	6e 00 90    	mov.w     [w14+12], w0
    80d6:	fe 00 90    	mov.w     [w14+14], w1
    80d8:	a0 65 88    	mov.w     w0, 0xcb4
    80da:	b1 65 88    	mov.w     w1, 0xcb6
    80dc:	71 65 80    	mov.w     0xcae, w1
    80de:	10 13 20    	mov.w     #0x131, w0
    80e0:	01 80 b9    	mul.ss    w0, w1, w0
    80e2:	00 8f be    	mov.d     w0, [w14]
    80e4:	2e 40 90    	mov.b     [w14+2], w0
    80e6:	db ec b7    	mov.b     WREG, 0xcdb
    80e8:	db cc bf    	mov.b     0xcdb, WREG
    80ea:	bf fb 07    	rcall     0x786a <_cosine>
    80ec:	70 70 88    	mov.w     w0, 0xe0e
    80ee:	00 80 fa    	ulnk      
    80f0:	00 00 06    	return    

000080f2 <_dcm_absolute_to_relative>:
    80f2:	14 00 fa    	lnk       #0x14
    80f4:	88 1f 78    	mov.w     w8, [w15++]
    80f6:	00 04 78    	mov.w     w0, w8
    80f8:	6a 00 47    	add.w     w14, #0xa, w0
    80fa:	01 08 78    	mov.w     w1, [w0]
    80fc:	12 00 98    	mov.w     w2, [w0+2]
    80fe:	23 00 98    	mov.w     w3, [w0+4]
    8100:	34 00 98    	mov.w     w4, [w0+6]
    8102:	45 00 98    	mov.w     w5, [w0+8]
    8104:	6a 00 47    	add.w     w14, #0xa, w0
    8106:	40 00 90    	mov.w     [w0+8], w0
    8108:	20 07 98    	mov.w     w0, [w14+4]
    810a:	6a 00 47    	add.w     w14, #0xa, w0
    810c:	20 01 90    	mov.w     [w0+4], w2
    810e:	b0 01 90    	mov.w     [w0+6], w3
    8110:	60 65 80    	mov.w     0xcac, w0
    8112:	71 65 80    	mov.w     0xcae, w1
    8114:	00 00 51    	sub.w     w2, w0, w0
    8116:	81 80 59    	subb.w    w3, w1, w1
    8118:	a2 05 20    	mov.w     #0x5a, w2
    811a:	03 00 20    	mov.w     #0x0, w3
    811c:	38 ca 07    	rcall     0x158e <___divsi3>
    811e:	10 07 98    	mov.w     w0, [w14+2]
    8120:	6a 00 47    	add.w     w14, #0xa, w0
    8122:	10 01 be    	mov.d     [w0], w2
    8124:	80 65 80    	mov.w     0xcb0, w0
    8126:	91 65 80    	mov.w     0xcb2, w1
    8128:	00 00 51    	sub.w     w2, w0, w0
    812a:	81 80 59    	subb.w    w3, w1, w1
    812c:	a2 05 20    	mov.w     #0x5a, w2
    812e:	03 00 20    	mov.w     #0x0, w3
    8130:	2e ca 07    	rcall     0x158e <___divsi3>
    8132:	30 07 98    	mov.w     w0, [w14+6]
    8134:	41 07 98    	mov.w     w1, [w14+8]
    8136:	be 00 90    	mov.w     [w14+6], w1
    8138:	70 70 80    	mov.w     0xe0e, w0
    813a:	01 80 b9    	mul.ss    w0, w1, w0
    813c:	42 09 dd    	sl.w      w1, #0x2, w2
    813e:	ce 00 de    	lsr.w     w0, #0xe, w1
    8140:	81 00 71    	ior.w     w2, w1, w1
    8142:	42 00 dd    	sl.w      w0, #0x2, w0
    8144:	30 07 98    	mov.w     w0, [w14+6]
    8146:	41 07 98    	mov.w     w1, [w14+8]
    8148:	4e 00 90    	mov.w     [w14+8], w0
    814a:	00 0f 78    	mov.w     w0, [w14]
    814c:	1e 00 be    	mov.d     [w14], w0
    814e:	00 8c be    	mov.d     w0, [w8]
    8150:	ae 00 90    	mov.w     [w14+4], w1
    8152:	21 04 98    	mov.w     w1, [w8+4]
    8154:	08 00 78    	mov.w     w8, w0
    8156:	4f 04 78    	mov.w     [--w15], w8
    8158:	00 80 fa    	ulnk      
    815a:	00 00 06    	return    

0000815c <_gps_nav_valid>:
    815c:	02 00 fa    	lnk       #0x2
    815e:	e0 6b 80    	mov.w     0xd7c, w0
    8160:	80 00 eb    	clr.w     w1
    8162:	01 0f 78    	mov.w     w1, [w14]
    8164:	00 00 e0    	cp0.w     w0
    8166:	02 00 3a    	bra       NZ, 0x816c <.L2>
    8168:	10 00 20    	mov.w     #0x1, w0
    816a:	00 0f 78    	mov.w     w0, [w14]

0000816c <.L2>:
    816c:	1e 00 78    	mov.w     [w14], w0
    816e:	00 80 fa    	ulnk      
    8170:	00 00 06    	return    

00008172 <_gps_startup_sequence>:
    8172:	02 00 fa    	lnk       #0x2
    8174:	00 0f 78    	mov.w     w0, [w14]
    8176:	e0 00 20    	mov.w     #0xe, w0
    8178:	9e 0f 10    	subr.w    w0, [w14], [w15]
    817a:	03 00 3a    	bra       NZ, 0x8182 <.L5>
    817c:	00 2c 21    	mov.w     #0x12c0, w0
    817e:	e7 f3 07    	rcall     0x694e <_udb_gps_set_rate>
    8180:	12 00 37    	bra       0x81a6 <.L13>

00008182 <.L5>:
    8182:	c0 00 20    	mov.w     #0xc, w0
    8184:	9e 0f 10    	subr.w    w0, [w14], [w15]
    8186:	03 00 3a    	bra       NZ, 0x818e <.L8>
    8188:	40 3a 2a    	mov.w     #0xa3a4, w0
    818a:	79 06 07    	rcall     0x8e7e <_gpsoutline>
    818c:	0c 00 37    	bra       0x81a6 <.L13>

0000818e <.L8>:
    818e:	a0 00 20    	mov.w     #0xa, w0
    8190:	9e 0f 10    	subr.w    w0, [w14], [w15]
    8192:	04 00 3a    	bra       NZ, 0x819c <.L10>
    8194:	00 1e 85    	mov.w     0xa3c0, w0
    8196:	21 3c 2a    	mov.w     #0xa3c2, w1
    8198:	8d 06 07    	rcall     0x8eb4 <_gpsoutbin>
    819a:	05 00 37    	bra       0x81a6 <.L13>

0000819c <.L10>:
    819c:	80 00 20    	mov.w     #0x8, w0
    819e:	9e 0f 10    	subr.w    w0, [w14], [w15]
    81a0:	02 00 3a    	bra       NZ, 0x81a6 <.L13>
    81a2:	00 b0 24    	mov.w     #0x4b00, w0
    81a4:	d4 f3 07    	rcall     0x694e <_udb_gps_set_rate>

000081a6 <.L13>:
    81a6:	00 80 fa    	ulnk      
    81a8:	00 00 06    	return    

000081aa <_msg_B3>:
    81aa:	02 00 fa    	lnk       #0x2
    81ac:	00 4f 78    	mov.b     w0, [w14]
    81ae:	00 ca b3    	mov.b     #0xa0, w0
    81b0:	9e 4f 10    	subr.b    w0, [w14], [w15]
    81b2:	02 00 3a    	bra       NZ, 0x81b8 <.L17>
    81b4:	c0 1b 28    	mov.w     #0x81bc, w0
    81b6:	60 75 88    	mov.w     w0, 0xeac

000081b8 <.L17>:
    81b8:	00 80 fa    	ulnk      
    81ba:	00 00 06    	return    

000081bc <_msg_A0>:
    81bc:	02 00 fa    	lnk       #0x2
    81be:	00 4f 78    	mov.b     w0, [w14]
    81c0:	20 ca b3    	mov.b     #0xa2, w0
    81c2:	9e 4f 10    	subr.b    w0, [w14], [w15]
    81c4:	05 00 3a    	bra       NZ, 0x81d0 <.L19>
    81c6:	00 00 eb    	clr.w     w0
    81c8:	80 75 88    	mov.w     w0, 0xeb0
    81ca:	80 1d 28    	mov.w     #0x81d8, w0
    81cc:	60 75 88    	mov.w     w0, 0xeac
    81ce:	02 00 37    	bra       0x81d4 <.L22>

000081d0 <.L19>:
    81d0:	a0 1a 28    	mov.w     #0x81aa, w0
    81d2:	60 75 88    	mov.w     w0, 0xeac

000081d4 <.L22>:
    81d4:	00 80 fa    	ulnk      
    81d6:	00 00 06    	return    

000081d8 <_msg_A2>:
    81d8:	02 00 fa    	lnk       #0x2
    81da:	00 4f 78    	mov.b     w0, [w14]
    81dc:	1e 40 78    	mov.b     [w14], w0
    81de:	53 ed b7    	mov.b     WREG, 0xd53
    81e0:	80 1e 28    	mov.w     #0x81e8, w0
    81e2:	60 75 88    	mov.w     w0, 0xeac
    81e4:	00 80 fa    	ulnk      
    81e6:	00 00 06    	return    

000081e8 <_msg_PL1>:
    81e8:	02 00 fa    	lnk       #0x2
    81ea:	00 4f 78    	mov.b     w0, [w14]
    81ec:	1e 40 78    	mov.b     [w14], w0
    81ee:	52 ed b7    	mov.b     WREG, 0xd52
    81f0:	90 6a 80    	mov.w     0xd52, w0
    81f2:	00 00 e8    	inc.w     w0, w0
    81f4:	90 6a 88    	mov.w     w0, 0xd52
    81f6:	e0 1f 28    	mov.w     #0x81fe, w0
    81f8:	60 75 88    	mov.w     w0, 0xeac
    81fa:	00 80 fa    	ulnk      
    81fc:	00 00 06    	return    

000081fe <_msg_PL2>:
    81fe:	04 00 fa    	lnk       #0x4
    8200:	00 4f 78    	mov.b     w0, [w14]
    8202:	1e 80 fb    	ze        [w14], w0
    8204:	10 07 98    	mov.w     w0, [w14+2]
    8206:	9e 00 90    	mov.w     [w14+2], w1
    8208:	e2 8f 50    	sub.w     w1, #0x2, [w15]
    820a:	05 00 32    	bra       Z, 0x8216 <.L29>
    820c:	90 02 20    	mov.w     #0x29, w0
    820e:	9e 00 90    	mov.w     [w14+2], w1
    8210:	80 8f 50    	sub.w     w1, w0, [w15]
    8212:	0b 00 32    	bra       Z, 0x822a <.L30>
    8214:	14 00 37    	bra       0x823e <.L28>

00008216 <.L29>:
    8216:	91 6a 80    	mov.w     0xd52, w1
    8218:	a0 02 20    	mov.w     #0x2a, w0
    821a:	80 8f 50    	sub.w     w1, w0, [w15]
    821c:	03 00 3a    	bra       NZ, 0x8224 <.L31>
    821e:	60 24 28    	mov.w     #0x8246, w0
    8220:	60 75 88    	mov.w     w0, 0xeac
    8222:	0f 00 37    	bra       0x8242 <.L38>

00008224 <.L31>:
    8224:	a0 1a 28    	mov.w     #0x81aa, w0
    8226:	60 75 88    	mov.w     w0, 0xeac
    8228:	0c 00 37    	bra       0x8242 <.L38>

0000822a <.L30>:
    822a:	91 6a 80    	mov.w     0xd52, w1
    822c:	c0 05 20    	mov.w     #0x5c, w0
    822e:	80 8f 50    	sub.w     w1, w0, [w15]
    8230:	03 00 3a    	bra       NZ, 0x8238 <.L35>
    8232:	c0 27 28    	mov.w     #0x827c, w0
    8234:	60 75 88    	mov.w     w0, 0xeac
    8236:	05 00 37    	bra       0x8242 <.L38>

00008238 <.L35>:
    8238:	a0 1a 28    	mov.w     #0x81aa, w0
    823a:	60 75 88    	mov.w     w0, 0xeac
    823c:	02 00 37    	bra       0x8242 <.L38>

0000823e <.L28>:
    823e:	40 2b 28    	mov.w     #0x82b4, w0
    8240:	60 75 88    	mov.w     w0, 0xeac

00008242 <.L38>:
    8242:	00 80 fa    	ulnk      
    8244:	00 00 06    	return    

00008246 <_msg_MSG2>:
    8246:	02 00 fa    	lnk       #0x2
    8248:	00 4f 78    	mov.b     w0, [w14]
    824a:	90 6a 80    	mov.w     0xd52, w0
    824c:	00 00 e0    	cp0.w     w0
    824e:	0c 00 34    	bra       LE, 0x8268 <.L40>
    8250:	81 75 80    	mov.w     0xeb0, w1
    8252:	01 81 40    	add.w     w1, w1, w2
    8254:	c0 3c 2a    	mov.w     #0xa3cc, w0
    8256:	00 00 41    	add.w     w2, w0, w0
    8258:	10 00 78    	mov.w     [w0], w0
    825a:	1e 48 78    	mov.b     [w14], [w0]
    825c:	01 00 e8    	inc.w     w1, w0
    825e:	80 75 88    	mov.w     w0, 0xeb0
    8260:	90 6a 80    	mov.w     0xd52, w0
    8262:	00 00 e9    	dec.w     w0, w0
    8264:	90 6a 88    	mov.w     w0, 0xd52
    8266:	08 00 37    	bra       0x8278 <.L45>

00008268 <.L40>:
    8268:	00 cb b3    	mov.b     #0xb0, w0
    826a:	9e 4f 10    	subr.b    w0, [w14], [w15]
    826c:	03 00 3a    	bra       NZ, 0x8274 <.L43>
    826e:	a0 2d 28    	mov.w     #0x82da, w0
    8270:	60 75 88    	mov.w     w0, 0xeac
    8272:	02 00 37    	bra       0x8278 <.L45>

00008274 <.L43>:
    8274:	a0 1a 28    	mov.w     #0x81aa, w0
    8276:	60 75 88    	mov.w     w0, 0xeac

00008278 <.L45>:
    8278:	00 80 fa    	ulnk      
    827a:	00 00 06    	return    

0000827c <_msg_MSG41>:
    827c:	02 00 fa    	lnk       #0x2
    827e:	00 4f 78    	mov.b     w0, [w14]
    8280:	90 6a 80    	mov.w     0xd52, w0
    8282:	00 00 e0    	cp0.w     w0
    8284:	0c 00 34    	bra       LE, 0x829e <.L47>
    8286:	81 75 80    	mov.w     0xeb0, w1
    8288:	01 81 40    	add.w     w1, w1, w2
    828a:	00 42 2a    	mov.w     #0xa420, w0
    828c:	00 00 41    	add.w     w2, w0, w0
    828e:	10 00 78    	mov.w     [w0], w0
    8290:	1e 48 78    	mov.b     [w14], [w0]
    8292:	01 00 e8    	inc.w     w1, w0
    8294:	80 75 88    	mov.w     w0, 0xeb0
    8296:	90 6a 80    	mov.w     0xd52, w0
    8298:	00 00 e9    	dec.w     w0, w0
    829a:	90 6a 88    	mov.w     w0, 0xd52
    829c:	09 00 37    	bra       0x82b0 <.L52>

0000829e <.L47>:
    829e:	f9 02 07    	rcall     0x8892 <_udb_background_trigger>
    82a0:	00 cb b3    	mov.b     #0xb0, w0
    82a2:	9e 4f 10    	subr.b    w0, [w14], [w15]
    82a4:	03 00 3a    	bra       NZ, 0x82ac <.L50>
    82a6:	a0 2d 28    	mov.w     #0x82da, w0
    82a8:	60 75 88    	mov.w     w0, 0xeac
    82aa:	02 00 37    	bra       0x82b0 <.L52>

000082ac <.L50>:
    82ac:	a0 1a 28    	mov.w     #0x81aa, w0
    82ae:	60 75 88    	mov.w     w0, 0xeac

000082b0 <.L52>:
    82b0:	00 80 fa    	ulnk      
    82b2:	00 00 06    	return    

000082b4 <_msg_MSGU>:
    82b4:	02 00 fa    	lnk       #0x2
    82b6:	00 4f 78    	mov.b     w0, [w14]
    82b8:	90 6a 80    	mov.w     0xd52, w0
    82ba:	00 00 e0    	cp0.w     w0
    82bc:	04 00 34    	bra       LE, 0x82c6 <.L54>
    82be:	90 6a 80    	mov.w     0xd52, w0
    82c0:	00 00 e9    	dec.w     w0, w0
    82c2:	90 6a 88    	mov.w     w0, 0xd52
    82c4:	08 00 37    	bra       0x82d6 <.L59>

000082c6 <.L54>:
    82c6:	00 cb b3    	mov.b     #0xb0, w0
    82c8:	9e 4f 10    	subr.b    w0, [w14], [w15]
    82ca:	03 00 3a    	bra       NZ, 0x82d2 <.L57>
    82cc:	a0 2d 28    	mov.w     #0x82da, w0
    82ce:	60 75 88    	mov.w     w0, 0xeac
    82d0:	02 00 37    	bra       0x82d6 <.L59>

000082d2 <.L57>:
    82d2:	a0 1a 28    	mov.w     #0x81aa, w0
    82d4:	60 75 88    	mov.w     w0, 0xeac

000082d6 <.L59>:
    82d6:	00 80 fa    	ulnk      
    82d8:	00 00 06    	return    

000082da <_msg_B0>:
    82da:	02 00 fa    	lnk       #0x2
    82dc:	00 4f 78    	mov.b     w0, [w14]
    82de:	30 cb b3    	mov.b     #0xb3, w0
    82e0:	9e 4f 10    	subr.b    w0, [w14], [w15]
    82e2:	03 00 3a    	bra       NZ, 0x82ea <.L61>
    82e4:	a0 1a 28    	mov.w     #0x81aa, w0
    82e6:	60 75 88    	mov.w     w0, 0xeac
    82e8:	02 00 37    	bra       0x82ee <.L64>

000082ea <.L61>:
    82ea:	a0 1a 28    	mov.w     #0x81aa, w0
    82ec:	60 75 88    	mov.w     w0, 0xeac

000082ee <.L64>:
    82ee:	00 80 fa    	ulnk      
    82f0:	00 00 06    	return    

000082f2 <_commit_gps_data>:
    82f2:	00 00 fa    	lnk       #0x0
    82f4:	30 6c 80    	mov.w     0xd86, w0
    82f6:	10 66 88    	mov.w     w0, 0xcc2
    82f8:	c0 6b 80    	mov.w     0xd78, w0
    82fa:	d1 6b 80    	mov.w     0xd7a, w1
    82fc:	c0 65 88    	mov.w     w0, 0xcb8
    82fe:	d1 65 88    	mov.w     w1, 0xcba
    8300:	60 6b 80    	mov.w     0xd6c, w0
    8302:	71 6b 80    	mov.w     0xd6e, w1
    8304:	00 65 88    	mov.w     w0, 0xca0
    8306:	11 65 88    	mov.w     w1, 0xca2
    8308:	80 6b 80    	mov.w     0xd70, w0
    830a:	91 6b 80    	mov.w     0xd72, w1
    830c:	20 65 88    	mov.w     w0, 0xca4
    830e:	31 65 88    	mov.w     w1, 0xca6
    8310:	a0 6b 80    	mov.w     0xd74, w0
    8312:	b1 6b 80    	mov.w     0xd76, w1
    8314:	40 65 88    	mov.w     w0, 0xca8
    8316:	51 65 88    	mov.w     w1, 0xcaa
    8318:	01 6c 80    	mov.w     0xd80, w1
    831a:	e1 65 88    	mov.w     w1, 0xcbc
    831c:	10 6c 80    	mov.w     0xd82, w0
    831e:	f0 65 88    	mov.w     w0, 0xcbe
    8320:	21 6c 80    	mov.w     0xd84, w1
    8322:	01 66 88    	mov.w     w1, 0xcc0
    8324:	88 cd bf    	mov.b     0xd88, WREG
    8326:	c4 ec b7    	mov.b     WREG, 0xcc4
    8328:	b0 6a 80    	mov.w     0xd56, w0
    832a:	c1 6a 80    	mov.w     0xd58, w1
    832c:	30 66 88    	mov.w     w0, 0xcc6
    832e:	41 66 88    	mov.w     w1, 0xcc8
    8330:	d0 6a 80    	mov.w     0xd5a, w0
    8332:	e1 6a 80    	mov.w     0xd5c, w1
    8334:	50 66 88    	mov.w     w0, 0xcca
    8336:	61 66 88    	mov.w     w1, 0xccc
    8338:	f0 6a 80    	mov.w     0xd5e, w0
    833a:	01 6b 80    	mov.w     0xd60, w1
    833c:	70 66 88    	mov.w     w0, 0xcce
    833e:	81 66 88    	mov.w     w1, 0xcd0
    8340:	11 6b 80    	mov.w     0xd62, w1
    8342:	91 66 88    	mov.w     w1, 0xcd2
    8344:	20 6b 80    	mov.w     0xd64, w0
    8346:	a0 66 88    	mov.w     w0, 0xcd4
    8348:	31 6b 80    	mov.w     0xd66, w1
    834a:	b1 66 88    	mov.w     w1, 0xcd6
    834c:	68 cd bf    	mov.b     0xd68, WREG
    834e:	d8 ec b7    	mov.b     WREG, 0xcd8
    8350:	69 cd bf    	mov.b     0xd69, WREG
    8352:	d9 ec b7    	mov.b     WREG, 0xcd9
    8354:	6a cd bf    	mov.b     0xd6a, WREG
    8356:	da ec b7    	mov.b     WREG, 0xcda
    8358:	00 80 fa    	ulnk      
    835a:	00 00 06    	return    

0000835c <_dead_reckon>:
    835c:	00 00 fa    	lnk       #0x0
    835e:	b0 76 80    	mov.w     0xed6, w0
    8360:	61 00 60    	and.w     w0, #0x1, w0
    8362:	00 00 e0    	cp0.w     w0
    8364:	e3 00 32    	bra       Z, 0x852c <.L2>
    8366:	f2 66 80    	mov.w     0xcde, w2
    8368:	03 67 80    	mov.w     0xce0, w3
    836a:	01 5a 80    	mov.w     0xb40, w1
    836c:	30 32 20    	mov.w     #0x323, w0
    836e:	01 80 b9    	mul.ss    w0, w1, w0
    8370:	02 00 40    	add.w     w0, w2, w0
    8372:	83 80 48    	addc.w    w1, w3, w1
    8374:	f0 66 88    	mov.w     w0, 0xcde
    8376:	01 67 88    	mov.w     w1, 0xce0
    8378:	12 67 80    	mov.w     0xce2, w2
    837a:	23 67 80    	mov.w     0xce4, w3
    837c:	11 5a 80    	mov.w     0xb42, w1
    837e:	30 32 20    	mov.w     #0x323, w0
    8380:	01 80 b9    	mul.ss    w0, w1, w0
    8382:	02 00 40    	add.w     w0, w2, w0
    8384:	83 80 48    	addc.w    w1, w3, w1
    8386:	10 67 88    	mov.w     w0, 0xce2
    8388:	21 67 88    	mov.w     w1, 0xce4
    838a:	32 67 80    	mov.w     0xce6, w2
    838c:	43 67 80    	mov.w     0xce8, w3
    838e:	21 5a 80    	mov.w     0xb44, w1
    8390:	30 32 20    	mov.w     #0x323, w0
    8392:	01 80 b9    	mul.ss    w0, w1, w0
    8394:	02 00 40    	add.w     w0, w2, w0
    8396:	83 80 48    	addc.w    w1, w3, w1
    8398:	30 67 88    	mov.w     w0, 0xce6
    839a:	41 67 88    	mov.w     w1, 0xce8
    839c:	52 67 80    	mov.w     0xcea, w2
    839e:	63 67 80    	mov.w     0xcec, w3
    83a0:	01 67 80    	mov.w     0xce0, w1
    83a2:	60 10 20    	mov.w     #0x106, w0
    83a4:	01 80 b9    	mul.ss    w0, w1, w0
    83a6:	4c 0a dd    	sl.w      w1, #0xc, w4
    83a8:	44 00 de    	lsr.w     w0, #0x4, w0
    83aa:	00 00 72    	ior.w     w4, w0, w0
    83ac:	c4 88 de    	asr.w     w1, #0x4, w1
    83ae:	02 00 40    	add.w     w0, w2, w0
    83b0:	83 80 48    	addc.w    w1, w3, w1
    83b2:	50 67 88    	mov.w     w0, 0xcea
    83b4:	61 67 88    	mov.w     w1, 0xcec
    83b6:	72 67 80    	mov.w     0xcee, w2
    83b8:	83 67 80    	mov.w     0xcf0, w3
    83ba:	21 67 80    	mov.w     0xce4, w1
    83bc:	60 10 20    	mov.w     #0x106, w0
    83be:	01 80 b9    	mul.ss    w0, w1, w0
    83c0:	4c 0a dd    	sl.w      w1, #0xc, w4
    83c2:	44 00 de    	lsr.w     w0, #0x4, w0
    83c4:	00 00 72    	ior.w     w4, w0, w0
    83c6:	c4 88 de    	asr.w     w1, #0x4, w1
    83c8:	02 00 40    	add.w     w0, w2, w0
    83ca:	83 80 48    	addc.w    w1, w3, w1
    83cc:	70 67 88    	mov.w     w0, 0xcee
    83ce:	81 67 88    	mov.w     w1, 0xcf0
    83d0:	92 67 80    	mov.w     0xcf2, w2
    83d2:	a3 67 80    	mov.w     0xcf4, w3
    83d4:	41 67 80    	mov.w     0xce8, w1
    83d6:	60 10 20    	mov.w     #0x106, w0
    83d8:	01 80 b9    	mul.ss    w0, w1, w0
    83da:	4c 0a dd    	sl.w      w1, #0xc, w4
    83dc:	44 00 de    	lsr.w     w0, #0x4, w0
    83de:	00 00 72    	ior.w     w4, w0, w0
    83e0:	c4 88 de    	asr.w     w1, #0x4, w1
    83e2:	02 00 40    	add.w     w0, w2, w0
    83e4:	83 80 48    	addc.w    w1, w3, w1
    83e6:	90 67 88    	mov.w     w0, 0xcf2
    83e8:	a1 67 88    	mov.w     w1, 0xcf4
    83ea:	b2 67 80    	mov.w     0xcf6, w2
    83ec:	c3 67 80    	mov.w     0xcf8, w3
    83ee:	01 67 80    	mov.w     0xce0, w1
    83f0:	c0 67 80    	mov.w     0xcf8, w0
    83f2:	80 80 50    	sub.w     w1, w0, w1
    83f4:	e0 51 20    	mov.w     #0x51e, w0
    83f6:	01 80 b9    	mul.ss    w0, w1, w0
    83f8:	02 00 40    	add.w     w0, w2, w0
    83fa:	83 80 48    	addc.w    w1, w3, w1
    83fc:	b0 67 88    	mov.w     w0, 0xcf6
    83fe:	c1 67 88    	mov.w     w1, 0xcf8
    8400:	d2 67 80    	mov.w     0xcfa, w2
    8402:	e3 67 80    	mov.w     0xcfc, w3
    8404:	21 67 80    	mov.w     0xce4, w1
    8406:	e0 67 80    	mov.w     0xcfc, w0
    8408:	80 80 50    	sub.w     w1, w0, w1
    840a:	e0 51 20    	mov.w     #0x51e, w0
    840c:	01 80 b9    	mul.ss    w0, w1, w0
    840e:	02 00 40    	add.w     w0, w2, w0
    8410:	83 80 48    	addc.w    w1, w3, w1
    8412:	d0 67 88    	mov.w     w0, 0xcfa
    8414:	e1 67 88    	mov.w     w1, 0xcfc
    8416:	f2 67 80    	mov.w     0xcfe, w2
    8418:	03 68 80    	mov.w     0xd00, w3
    841a:	41 67 80    	mov.w     0xce8, w1
    841c:	00 68 80    	mov.w     0xd00, w0
    841e:	80 80 50    	sub.w     w1, w0, w1
    8420:	e0 51 20    	mov.w     #0x51e, w0
    8422:	01 80 b9    	mul.ss    w0, w1, w0
    8424:	02 00 40    	add.w     w0, w2, w0
    8426:	83 80 48    	addc.w    w1, w3, w1
    8428:	f0 67 88    	mov.w     w0, 0xcfe
    842a:	01 68 88    	mov.w     w1, 0xd00
    842c:	12 68 80    	mov.w     0xd02, w2
    842e:	23 68 80    	mov.w     0xd04, w3
    8430:	61 67 80    	mov.w     0xcec, w1
    8432:	20 68 80    	mov.w     0xd04, w0
    8434:	80 80 50    	sub.w     w1, w0, w1
    8436:	e0 51 20    	mov.w     #0x51e, w0
    8438:	01 80 b9    	mul.ss    w0, w1, w0
    843a:	02 00 40    	add.w     w0, w2, w0
    843c:	83 80 48    	addc.w    w1, w3, w1
    843e:	10 68 88    	mov.w     w0, 0xd02
    8440:	21 68 88    	mov.w     w1, 0xd04
    8442:	32 68 80    	mov.w     0xd06, w2
    8444:	43 68 80    	mov.w     0xd08, w3
    8446:	81 67 80    	mov.w     0xcf0, w1
    8448:	40 68 80    	mov.w     0xd08, w0
    844a:	80 80 50    	sub.w     w1, w0, w1
    844c:	e0 51 20    	mov.w     #0x51e, w0
    844e:	01 80 b9    	mul.ss    w0, w1, w0
    8450:	02 00 40    	add.w     w0, w2, w0
    8452:	83 80 48    	addc.w    w1, w3, w1
    8454:	30 68 88    	mov.w     w0, 0xd06
    8456:	41 68 88    	mov.w     w1, 0xd08
    8458:	52 68 80    	mov.w     0xd0a, w2
    845a:	63 68 80    	mov.w     0xd0c, w3
    845c:	a1 67 80    	mov.w     0xcf4, w1
    845e:	60 68 80    	mov.w     0xd0c, w0
    8460:	80 80 50    	sub.w     w1, w0, w1
    8462:	e0 51 20    	mov.w     #0x51e, w0
    8464:	01 80 b9    	mul.ss    w0, w1, w0
    8466:	02 00 40    	add.w     w0, w2, w0
    8468:	83 80 48    	addc.w    w1, w3, w1
    846a:	50 68 88    	mov.w     w0, 0xd0a
    846c:	61 68 88    	mov.w     w1, 0xd0c
    846e:	e0 66 80    	mov.w     0xcdc, w0
    8470:	00 00 e0    	cp0.w     w0
    8472:	39 00 34    	bra       LE, 0x84e6 <.L4>
    8474:	e0 66 80    	mov.w     0xcdc, w0
    8476:	00 00 e9    	dec.w     w0, w0
    8478:	e0 66 88    	mov.w     w0, 0xcdc
    847a:	f2 66 80    	mov.w     0xcde, w2
    847c:	03 67 80    	mov.w     0xce0, w3
    847e:	a1 68 80    	mov.w     0xd14, w1
    8480:	60 66 20    	mov.w     #0x666, w0
    8482:	01 80 b9    	mul.ss    w0, w1, w0
    8484:	02 00 40    	add.w     w0, w2, w0
    8486:	83 80 48    	addc.w    w1, w3, w1
    8488:	f0 66 88    	mov.w     w0, 0xcde
    848a:	01 67 88    	mov.w     w1, 0xce0
    848c:	12 67 80    	mov.w     0xce2, w2
    848e:	23 67 80    	mov.w     0xce4, w3
    8490:	b1 68 80    	mov.w     0xd16, w1
    8492:	60 66 20    	mov.w     #0x666, w0
    8494:	01 80 b9    	mul.ss    w0, w1, w0
    8496:	02 00 40    	add.w     w0, w2, w0
    8498:	83 80 48    	addc.w    w1, w3, w1
    849a:	10 67 88    	mov.w     w0, 0xce2
    849c:	21 67 88    	mov.w     w1, 0xce4
    849e:	32 67 80    	mov.w     0xce6, w2
    84a0:	43 67 80    	mov.w     0xce8, w3
    84a2:	c1 68 80    	mov.w     0xd18, w1
    84a4:	60 66 20    	mov.w     #0x666, w0
    84a6:	01 80 b9    	mul.ss    w0, w1, w0
    84a8:	02 00 40    	add.w     w0, w2, w0
    84aa:	83 80 48    	addc.w    w1, w3, w1
    84ac:	30 67 88    	mov.w     w0, 0xce6
    84ae:	41 67 88    	mov.w     w1, 0xce8
    84b0:	52 67 80    	mov.w     0xcea, w2
    84b2:	63 67 80    	mov.w     0xcec, w3
    84b4:	71 68 80    	mov.w     0xd0e, w1
    84b6:	60 66 20    	mov.w     #0x666, w0
    84b8:	01 80 b9    	mul.ss    w0, w1, w0
    84ba:	02 00 40    	add.w     w0, w2, w0
    84bc:	83 80 48    	addc.w    w1, w3, w1
    84be:	50 67 88    	mov.w     w0, 0xcea
    84c0:	61 67 88    	mov.w     w1, 0xcec
    84c2:	72 67 80    	mov.w     0xcee, w2
    84c4:	83 67 80    	mov.w     0xcf0, w3
    84c6:	81 68 80    	mov.w     0xd10, w1
    84c8:	60 66 20    	mov.w     #0x666, w0
    84ca:	01 80 b9    	mul.ss    w0, w1, w0
    84cc:	02 00 40    	add.w     w0, w2, w0
    84ce:	83 80 48    	addc.w    w1, w3, w1
    84d0:	70 67 88    	mov.w     w0, 0xcee
    84d2:	81 67 88    	mov.w     w1, 0xcf0
    84d4:	92 67 80    	mov.w     0xcf2, w2
    84d6:	a3 67 80    	mov.w     0xcf4, w3
    84d8:	91 68 80    	mov.w     0xd12, w1
    84da:	60 66 20    	mov.w     #0x666, w0
    84dc:	01 80 b9    	mul.ss    w0, w1, w0
    84de:	02 00 40    	add.w     w0, w2, w0
    84e0:	83 80 48    	addc.w    w1, w3, w1
    84e2:	90 67 88    	mov.w     w0, 0xcf2
    84e4:	a1 67 88    	mov.w     w1, 0xcf4

000084e6 <.L4>:
    84e6:	3a fe 07    	rcall     0x815c <_gps_nav_valid>
    84e8:	00 04 e0    	cp0.b     w0
    84ea:	32 00 32    	bra       Z, 0x8550 <.L10>
    84ec:	b0 76 80    	mov.w     0xed6, w0
    84ee:	62 00 60    	and.w     w0, #0x2, w0
    84f0:	00 00 e0    	cp0.w     w0
    84f2:	2e 00 32    	bra       Z, 0x8550 <.L10>
    84f4:	d6 2e a9    	bclr.b    0xed6, #0x1
    84f6:	80 02 20    	mov.w     #0x28, w0
    84f8:	e0 66 88    	mov.w     w0, 0xcdc
    84fa:	f1 6f 80    	mov.w     0xdfe, w1
    84fc:	20 68 80    	mov.w     0xd04, w0
    84fe:	00 80 50    	sub.w     w1, w0, w0
    8500:	70 68 88    	mov.w     w0, 0xd0e
    8502:	01 70 80    	mov.w     0xe00, w1
    8504:	40 68 80    	mov.w     0xd08, w0
    8506:	00 80 50    	sub.w     w1, w0, w0
    8508:	80 68 88    	mov.w     w0, 0xd10
    850a:	11 70 80    	mov.w     0xe02, w1
    850c:	60 68 80    	mov.w     0xd0c, w0
    850e:	00 80 50    	sub.w     w1, w0, w0
    8510:	90 68 88    	mov.w     w0, 0xd12
    8512:	21 70 80    	mov.w     0xe04, w1
    8514:	c0 67 80    	mov.w     0xcf8, w0
    8516:	00 80 50    	sub.w     w1, w0, w0
    8518:	a0 68 88    	mov.w     w0, 0xd14
    851a:	31 70 80    	mov.w     0xe06, w1
    851c:	e0 67 80    	mov.w     0xcfc, w0
    851e:	00 80 50    	sub.w     w1, w0, w0
    8520:	b0 68 88    	mov.w     w0, 0xd16
    8522:	41 70 80    	mov.w     0xe08, w1
    8524:	00 68 80    	mov.w     0xd00, w0
    8526:	00 80 50    	sub.w     w1, w0, w0
    8528:	c0 68 88    	mov.w     w0, 0xd18
    852a:	12 00 37    	bra       0x8550 <.L10>

0000852c <.L2>:
    852c:	60 00 b8    	mul.uu    w0, #0x0, w0
    852e:	f0 66 88    	mov.w     w0, 0xcde
    8530:	01 67 88    	mov.w     w1, 0xce0
    8532:	60 00 b8    	mul.uu    w0, #0x0, w0
    8534:	10 67 88    	mov.w     w0, 0xce2
    8536:	21 67 88    	mov.w     w1, 0xce4
    8538:	60 00 b8    	mul.uu    w0, #0x0, w0
    853a:	30 67 88    	mov.w     w0, 0xce6
    853c:	41 67 88    	mov.w     w1, 0xce8
    853e:	60 00 b8    	mul.uu    w0, #0x0, w0
    8540:	50 67 88    	mov.w     w0, 0xcea
    8542:	61 67 88    	mov.w     w1, 0xcec
    8544:	60 00 b8    	mul.uu    w0, #0x0, w0
    8546:	70 67 88    	mov.w     w0, 0xcee
    8548:	81 67 88    	mov.w     w1, 0xcf0
    854a:	60 00 b8    	mul.uu    w0, #0x0, w0
    854c:	90 67 88    	mov.w     w0, 0xcf2
    854e:	a1 67 88    	mov.w     w1, 0xcf4

00008550 <.L10>:
    8550:	00 80 fa    	ulnk      
    8552:	00 00 06    	return    

00008554 <_pitchCntrl>:
    8554:	00 00 fa    	lnk       #0x0
    8556:	cb 01 07    	rcall     0x88ee <_canStabilizeHover>
    8558:	00 04 e0    	cp0.b     w0
    855a:	06 00 32    	bra       Z, 0x8568 <.L2>
    855c:	a0 75 80    	mov.w     0xeb4, w0
    855e:	64 00 60    	and.w     w0, #0x4, w0
    8560:	00 00 e0    	cp0.w     w0
    8562:	02 00 32    	bra       Z, 0x8568 <.L2>
    8564:	8a 00 07    	rcall     0x867a <_hoverPitchCntrl>
    8566:	01 00 37    	bra       0x856a <.L6>

00008568 <.L2>:
    8568:	02 00 07    	rcall     0x856e <_normalPitchCntrl>

0000856a <.L6>:
    856a:	00 80 fa    	ulnk      
    856c:	00 00 06    	return    

0000856e <_normalPitchCntrl>:
    856e:	0c 00 fa    	lnk       #0xc
    8570:	ba 01 07    	rcall     0x88e6 <_canStabilizeInverted>
    8572:	00 04 e0    	cp0.b     w0
    8574:	03 00 32    	bra       Z, 0x857c <.L8>
    8576:	90 75 80    	mov.w     0xeb2, w0
    8578:	e2 0f 50    	sub.w     w0, #0x2, [w15]
    857a:	07 00 32    	bra       Z, 0x858a <.L10>

0000857c <.L8>:
    857c:	80 58 80    	mov.w     0xb10, w0
    857e:	20 07 98    	mov.w     w0, [w14+4]
    8580:	92 58 80    	mov.w     0xb12, w2
    8582:	12 07 98    	mov.w     w2, [w14+2]
    8584:	a0 58 80    	mov.w     0xb14, w0
    8586:	00 0f 78    	mov.w     w0, [w14]
    8588:	0d 00 37    	bra       0x85a4 <.L11>

0000858a <.L10>:
    858a:	80 58 80    	mov.w     0xb10, w0
    858c:	00 00 ea    	neg.w     w0, w0
    858e:	20 07 98    	mov.w     w0, [w14+4]
    8590:	90 58 80    	mov.w     0xb12, w0
    8592:	00 00 ea    	neg.w     w0, w0
    8594:	10 07 98    	mov.w     w0, [w14+2]
    8596:	a0 58 80    	mov.w     0xb14, w0
    8598:	00 0f ea    	neg.w     w0, [w14]
    859a:	60 74 80    	mov.w     0xe8c, w0
    859c:	80 00 ea    	neg.w     w0, w1
    859e:	10 71 2f    	mov.w     #0xf711, w0
    85a0:	00 80 40    	add.w     w1, w0, w0
    85a2:	60 74 88    	mov.w     w0, 0xe8c

000085a4 <.L11>:
    85a4:	00 00 eb    	clr.w     w0
    85a6:	40 75 88    	mov.w     w0, 0xea8
    85a8:	81 72 80    	mov.w     0xe50, w1
    85aa:	00 10 20    	mov.w     #0x100, w0
    85ac:	00 80 60    	and.w     w1, w0, w0
    85ae:	00 00 e0    	cp0.w     w0
    85b0:	2a 00 32    	bra       Z, 0x8606 <.L12>
    85b2:	01 36 85    	mov.w     0xa6c0, w1
    85b4:	2e 00 90    	mov.w     [w14+4], w0
    85b6:	01 80 b9    	mul.ss    w0, w1, w0
    85b8:	00 00 40    	add.w     w0, w0, w0
    85ba:	81 80 48    	addc.w    w1, w1, w1
    85bc:	40 07 98    	mov.w     w0, [w14+8]
    85be:	51 07 98    	mov.w     w1, [w14+10]
    85c0:	11 4f 80    	mov.w     0x9e2, w1
    85c2:	50 5d 80    	mov.w     0xbaa, w0
    85c4:	80 80 50    	sub.w     w1, w0, w1
    85c6:	5e 00 90    	mov.w     [w14+10], w0
    85c8:	01 80 b9    	mul.ss    w0, w1, w0
    85ca:	43 09 dd    	sl.w      w1, #0x3, w2
    85cc:	cd 00 de    	lsr.w     w0, #0xd, w1
    85ce:	81 00 71    	ior.w     w2, w1, w1
    85d0:	43 00 dd    	sl.w      w0, #0x3, w0
    85d2:	40 07 98    	mov.w     w0, [w14+8]
    85d4:	51 07 98    	mov.w     w1, [w14+10]
    85d6:	de 00 90    	mov.w     [w14+10], w1
    85d8:	40 75 80    	mov.w     0xea8, w0
    85da:	00 80 40    	add.w     w1, w0, w0
    85dc:	40 75 88    	mov.w     w0, 0xea8
    85de:	11 36 85    	mov.w     0xa6c2, w1
    85e0:	2e 00 90    	mov.w     [w14+4], w0
    85e2:	01 80 b9    	mul.ss    w0, w1, w0
    85e4:	00 00 40    	add.w     w0, w0, w0
    85e6:	81 80 48    	addc.w    w1, w1, w1
    85e8:	40 07 98    	mov.w     w0, [w14+8]
    85ea:	51 07 98    	mov.w     w1, [w14+10]
    85ec:	81 58 80    	mov.w     0xb10, w1
    85ee:	5e 00 90    	mov.w     [w14+10], w0
    85f0:	01 80 b9    	mul.ss    w0, w1, w0
    85f2:	4d 09 dd    	sl.w      w1, #0xd, w2
    85f4:	43 00 de    	lsr.w     w0, #0x3, w0
    85f6:	00 00 71    	ior.w     w2, w0, w0
    85f8:	c3 88 de    	asr.w     w1, #0x3, w1
    85fa:	40 07 98    	mov.w     w0, [w14+8]
    85fc:	51 07 98    	mov.w     w1, [w14+10]
    85fe:	de 00 90    	mov.w     [w14+10], w1
    8600:	40 75 80    	mov.w     0xea8, w0
    8602:	00 80 40    	add.w     w1, w0, w0
    8604:	40 75 88    	mov.w     w0, 0xea8

00008606 <.L12>:
    8606:	41 59 80    	mov.w     0xb28, w1
    8608:	1e 00 78    	mov.w     [w14], w0
    860a:	01 81 b9    	mul.ss    w0, w1, w2
    860c:	61 59 80    	mov.w     0xb2c, w1
    860e:	2e 00 90    	mov.w     [w14+4], w0
    8610:	01 80 b9    	mul.ss    w0, w1, w0
    8612:	00 00 51    	sub.w     w2, w0, w0
    8614:	81 80 59    	subb.w    w3, w1, w1
    8616:	00 00 40    	add.w     w0, w0, w0
    8618:	81 80 48    	addc.w    w1, w1, w1
    861a:	40 07 98    	mov.w     w0, [w14+8]
    861c:	51 07 98    	mov.w     w1, [w14+10]
    861e:	5e 00 90    	mov.w     [w14+10], w0
    8620:	30 75 88    	mov.w     w0, 0xea6
    8622:	d1 75 80    	mov.w     0xeba, w1
    8624:	00 08 20    	mov.w     #0x80, w0
    8626:	00 80 60    	and.w     w1, w0, w0
    8628:	00 00 e0    	cp0.w     w0
    862a:	08 00 3a    	bra       NZ, 0x863c <.L14>
    862c:	80 72 80    	mov.w     0xe50, w0
    862e:	01 08 20    	mov.w     #0x80, w1
    8630:	01 00 60    	and.w     w0, w1, w0
    8632:	00 00 e0    	cp0.w     w0
    8634:	03 00 32    	bra       Z, 0x863c <.L14>
    8636:	00 00 eb    	clr.w     w0
    8638:	30 07 98    	mov.w     w0, [w14+6]
    863a:	02 00 37    	bra       0x8640 <.L17>

0000863c <.L14>:
    863c:	00 00 eb    	clr.w     w0
    863e:	30 07 98    	mov.w     w0, [w14+6]

00008640 <.L17>:
    8640:	80 72 80    	mov.w     0xe50, w0
    8642:	01 10 20    	mov.w     #0x100, w1
    8644:	01 00 60    	and.w     w0, w1, w0
    8646:	00 00 e0    	cp0.w     w0
    8648:	0f 00 32    	bra       Z, 0x8668 <.L18>
    864a:	c2 35 85    	mov.w     0xa6b8, w2
    864c:	9e 00 90    	mov.w     [w14+2], w1
    864e:	3e 00 90    	mov.w     [w14+6], w0
    8650:	80 80 50    	sub.w     w1, w0, w1
    8652:	60 74 80    	mov.w     0xe8c, w0
    8654:	00 80 40    	add.w     w1, w0, w0
    8656:	02 81 b9    	mul.ss    w0, w2, w2
    8658:	31 75 80    	mov.w     0xea6, w1
    865a:	d0 35 85    	mov.w     0xa6ba, w0
    865c:	01 80 b9    	mul.ss    w0, w1, w0
    865e:	02 00 40    	add.w     w0, w2, w0
    8660:	83 80 48    	addc.w    w1, w3, w1
    8662:	40 07 98    	mov.w     w0, [w14+8]
    8664:	51 07 98    	mov.w     w1, [w14+10]
    8666:	03 00 37    	bra       0x866e <.L20>

00008668 <.L18>:
    8668:	60 00 b8    	mul.uu    w0, #0x0, w0
    866a:	40 07 98    	mov.w     w0, [w14+8]
    866c:	51 07 98    	mov.w     w1, [w14+10]

0000866e <.L20>:
    866e:	5e 00 90    	mov.w     [w14+10], w0
    8670:	41 75 80    	mov.w     0xea8, w1
    8672:	01 00 40    	add.w     w0, w1, w0
    8674:	e0 72 88    	mov.w     w0, 0xe5c
    8676:	00 80 fa    	ulnk      
    8678:	00 00 06    	return    

0000867a <_hoverPitchCntrl>:
    867a:	12 00 fa    	lnk       #0x12
    867c:	80 72 80    	mov.w     0xe50, w0
    867e:	01 10 20    	mov.w     #0x100, w1
    8680:	01 00 60    	and.w     w0, w1, w0
    8682:	00 00 e0    	cp0.w     w0
    8684:	50 00 32    	bra       Z, 0x8726 <.L23>
    8686:	41 59 80    	mov.w     0xb28, w1
    8688:	90 58 80    	mov.w     0xb12, w0
    868a:	00 00 ea    	neg.w     w0, w0
    868c:	01 81 b9    	mul.ss    w0, w1, w2
    868e:	51 59 80    	mov.w     0xb2a, w1
    8690:	80 58 80    	mov.w     0xb10, w0
    8692:	01 80 b9    	mul.ss    w0, w1, w0
    8694:	00 00 51    	sub.w     w2, w0, w0
    8696:	81 80 59    	subb.w    w3, w1, w1
    8698:	00 00 40    	add.w     w0, w0, w0
    869a:	81 80 48    	addc.w    w1, w1, w1
    869c:	40 07 98    	mov.w     w0, [w14+8]
    869e:	51 07 98    	mov.w     w1, [w14+10]
    86a0:	5e 00 90    	mov.w     [w14+10], w0
    86a2:	30 75 88    	mov.w     w0, 0xea6
    86a4:	d1 75 80    	mov.w     0xeba, w1
    86a6:	00 08 20    	mov.w     #0x80, w0
    86a8:	00 80 60    	and.w     w1, w0, w0
    86aa:	00 00 e0    	cp0.w     w0
    86ac:	05 00 32    	bra       Z, 0x86b8 <.L25>
    86ae:	f1 4a 80    	mov.w     0x95e, w1
    86b0:	00 4f 80    	mov.w     0x9e0, w0
    86b2:	80 80 50    	sub.w     w1, w0, w1
    86b4:	01 0f 98    	mov.w     w1, [w14+16]
    86b6:	02 00 37    	bra       0x86bc <.L27>

000086b8 <.L25>:
    86b8:	00 00 eb    	clr.w     w0
    86ba:	00 0f 98    	mov.w     w0, [w14+16]

000086bc <.L27>:
    86bc:	8e 08 90    	mov.w     [w14+16], w1
    86be:	31 07 98    	mov.w     w1, [w14+6]
    86c0:	3e 00 90    	mov.w     [w14+6], w0
    86c2:	7b 00 b9    	mul.su    w0, #0x1b, w0
    86c4:	20 07 98    	mov.w     w0, [w14+4]
    86c6:	81 72 80    	mov.w     0xe50, w1
    86c8:	00 08 20    	mov.w     #0x80, w0
    86ca:	00 80 60    	and.w     w1, w0, w0
    86cc:	00 00 e0    	cp0.w     w0
    86ce:	1a 00 32    	bra       Z, 0x8704 <.L28>
    86d0:	c0 73 80    	mov.w     0xe78, w0
    86d2:	f4 0f 50    	sub.w     w0, #0x14, [w15]
    86d4:	0f 00 3c    	bra       GT, 0x86f4 <.L30>
    86d6:	c0 73 80    	mov.w     0xe78, w0
    86d8:	61 02 b9    	mul.su    w0, #0x1, w4
    86da:	84 00 78    	mov.w     w4, w1
    86dc:	c0 1a 20    	mov.w     #0x1ac, w0
    86de:	00 09 b8    	mul.uu    w1, w0, w2
    86e0:	62 07 98    	mov.w     w2, [w14+12]
    86e2:	73 07 98    	mov.w     w3, [w14+14]
    86e4:	60 20 b9    	mul.su    w4, #0x0, w0
    86e6:	7e 01 90    	mov.w     [w14+14], w2
    86e8:	00 01 41    	add.w     w2, w0, w2
    86ea:	c0 1a 20    	mov.w     #0x1ac, w0
    86ec:	00 a8 b9    	mul.ss    w5, w0, w0
    86ee:	00 01 41    	add.w     w2, w0, w2
    86f0:	72 07 98    	mov.w     w2, [w14+14]
    86f2:	04 00 37    	bra       0x86fc <.L32>

000086f4 <.L30>:
    86f4:	20 18 22    	mov.w     #0x2182, w0
    86f6:	01 00 20    	mov.w     #0x0, w1
    86f8:	60 07 98    	mov.w     w0, [w14+12]
    86fa:	71 07 98    	mov.w     w1, [w14+14]

000086fc <.L32>:
    86fc:	6e 01 90    	mov.w     [w14+12], w2
    86fe:	fe 01 90    	mov.w     [w14+14], w3
    8700:	02 8f be    	mov.d     w2, [w14]
    8702:	02 00 37    	bra       0x8708 <.L33>

00008704 <.L28>:
    8704:	60 00 b8    	mul.uu    w0, #0x0, w0
    8706:	00 8f be    	mov.d     w0, [w14]

00008708 <.L33>:
    8708:	e2 35 85    	mov.w     0xa6bc, w2
    870a:	a1 58 80    	mov.w     0xb14, w1
    870c:	1e 00 78    	mov.w     [w14], w0
    870e:	80 80 50    	sub.w     w1, w0, w1
    8710:	2e 00 90    	mov.w     [w14+4], w0
    8712:	00 80 40    	add.w     w1, w0, w0
    8714:	02 81 b9    	mul.ss    w0, w2, w2
    8716:	31 75 80    	mov.w     0xea6, w1
    8718:	f0 35 85    	mov.w     0xa6be, w0
    871a:	01 80 b9    	mul.ss    w0, w1, w0
    871c:	02 00 40    	add.w     w0, w2, w0
    871e:	83 80 48    	addc.w    w1, w3, w1
    8720:	40 07 98    	mov.w     w0, [w14+8]
    8722:	51 07 98    	mov.w     w1, [w14+10]
    8724:	03 00 37    	bra       0x872c <.L34>

00008726 <.L23>:
    8726:	60 00 b8    	mul.uu    w0, #0x0, w0
    8728:	40 07 98    	mov.w     w0, [w14+8]
    872a:	51 07 98    	mov.w     w1, [w14+10]

0000872c <.L34>:
    872c:	5e 00 90    	mov.w     [w14+10], w0
    872e:	e0 72 88    	mov.w     w0, 0xe5c
    8730:	00 80 fa    	ulnk      
    8732:	00 00 06    	return    

00008734 <_udb_init_clock>:
    8734:	00 00 fa    	lnk       #0x0
    8736:	c0 fe 2f    	mov.w     #0xffec, w0
    8738:	f0 16 88    	mov.w     w0, 0x2de
    873a:	00 00 eb    	clr.w     w0
    873c:	00 08 88    	mov.w     w0, 0x100
    873e:	90 d0 23    	mov.w     #0x3d09, w0
    8740:	10 08 88    	mov.w     w0, 0x102
    8742:	41 10 20    	mov.w     #0x104, w1
    8744:	91 40 78    	mov.b     [w1], w1
    8746:	00 c3 b3    	mov.b     #0x30, w0
    8748:	00 c0 70    	ior.b     w1, w0, w0
    874a:	04 e1 b7    	mov.b     WREG, 0x104
    874c:	04 21 a9    	bclr.b    0x104, #0x1
    874e:	51 0a 20    	mov.w     #0xa5, w1
    8750:	91 40 78    	mov.b     [w1], w1
    8752:	f0 c8 b3    	mov.b     #0x8f, w0
    8754:	00 c0 60    	and.b     w1, w0, w0
    8756:	01 c3 b3    	mov.b     #0x30, w1
    8758:	01 40 70    	ior.b     w0, w1, w0
    875a:	a5 e0 b7    	mov.b     WREG, 0xa5
    875c:	84 60 a9    	bclr.b    0x84, #0x3
    875e:	94 60 a8    	bset.b    0x94, #0x3
    8760:	05 e1 a8    	bset.b    0x105, #0x7
    8762:	00 00 eb    	clr.w     w0
    8764:	c0 08 88    	mov.w     w0, 0x118
    8766:	00 80 eb    	setm.w    w0
    8768:	e0 08 88    	mov.w     w0, 0x11c
    876a:	01 12 20    	mov.w     #0x120, w1
    876c:	91 40 78    	mov.b     [w1], w1
    876e:	f0 cc b3    	mov.b     #0xcf, w0
    8770:	00 c0 60    	and.b     w1, w0, w0
    8772:	20 e1 b7    	mov.b     WREG, 0x120
    8774:	20 21 a9    	bclr.b    0x120, #0x1
    8776:	97 80 a8    	bset.b    0x97, #0x4
    8778:	21 e1 a9    	bclr.b    0x121, #0x7
    877a:	00 40 eb    	clr.b     w0
    877c:	90 ee b7    	mov.b     WREG, 0xe90
    877e:	00 00 eb    	clr.w     w0
    8780:	a0 08 88    	mov.w     w0, 0x114
    8782:	00 c4 29    	mov.w     #0x9c40, w0
    8784:	d0 08 88    	mov.w     w0, 0x11a
    8786:	e1 11 20    	mov.w     #0x11e, w1
    8788:	91 40 78    	mov.b     [w1], w1
    878a:	f0 cc b3    	mov.b     #0xcf, w0
    878c:	00 c0 60    	and.b     w1, w0, w0
    878e:	1e e1 b7    	mov.b     WREG, 0x11e
    8790:	1e 21 a9    	bclr.b    0x11e, #0x1
    8792:	1f e1 a8    	bset.b    0x11f, #0x7
    8794:	11 0b 20    	mov.w     #0xb1, w1
    8796:	91 40 78    	mov.b     [w1], w1
    8798:	f0 c8 b3    	mov.b     #0x8f, w0
    879a:	00 c0 60    	and.b     w1, w0, w0
    879c:	01 c2 b3    	mov.b     #0x20, w1
    879e:	01 40 70    	ior.b     w0, w1, w0
    87a0:	b1 e0 b7    	mov.b     WREG, 0xb1
    87a2:	87 60 a9    	bclr.b    0x87, #0x3
    87a4:	97 60 a8    	bset.b    0x97, #0x3
    87a6:	00 80 fa    	ulnk      
    87a8:	00 00 06    	return    

000087aa <__T1Interrupt>:
    87aa:	36 00 f8    	push      0x36
    87ac:	80 9f be    	mov.d     w0, [w15++]
    87ae:	82 9f be    	mov.d     w2, [w15++]
    87b0:	84 9f be    	mov.d     w4, [w15++]
    87b2:	86 9f be    	mov.d     w6, [w15++]
    87b4:	00 00 fa    	lnk       #0x0
    87b6:	84 60 a9    	bclr.b    0x84, #0x3
    87b8:	21 e1 a8    	bset.b    0x121, #0x7
    87ba:	80 70 80    	mov.w     0xe10, w0
    87bc:	00 00 e8    	inc.w     w0, w0
    87be:	80 70 88    	mov.w     w0, 0xe10
    87c0:	80 70 80    	mov.w     0xe10, w0
    87c2:	e4 0f 50    	sub.w     w0, #0x4, [w15]
    87c4:	28 00 34    	bra       LE, 0x8816 <.L9>
    87c6:	00 00 eb    	clr.w     w0
    87c8:	80 70 88    	mov.w     w0, 0xe10
    87ca:	20 ce bf    	mov.b     0xe20, WREG
    87cc:	00 04 e0    	cp0.b     w0
    87ce:	03 00 32    	bra       Z, 0x87d6 <.L6>
    87d0:	00 40 eb    	clr.b     w0
    87d2:	20 ee b7    	mov.b     WREG, 0xe20
    87d4:	1f 00 37    	bra       0x8814 <.L8>

000087d6 <.L6>:
    87d6:	ff 0f fc    	disi      #0xfff
    87d8:	c0 08 80    	mov.w     0x118, w0
    87da:	61 01 b8    	mul.uu    w0, #0x1, w2
    87dc:	a0 70 80    	mov.w     0xe14, w0
    87de:	b1 70 80    	mov.w     0xe16, w1
    87e0:	02 00 40    	add.w     w0, w2, w0
    87e2:	83 80 48    	addc.w    w1, w3, w1
    87e4:	a0 70 88    	mov.w     w0, 0xe14
    87e6:	b1 70 88    	mov.w     w1, 0xe16
    87e8:	a0 70 80    	mov.w     0xe14, w0
    87ea:	b1 70 80    	mov.w     0xe16, w1
    87ec:	02 c4 29    	mov.w     #0x9c40, w2
    87ee:	03 00 20    	mov.w     #0x0, w3
    87f0:	9f c7 07    	rcall     0x1730 <___udivsi3>
    87f2:	90 70 88    	mov.w     w0, 0xe12
    87f4:	a0 70 80    	mov.w     0xe14, w0
    87f6:	b1 70 80    	mov.w     0xe16, w1
    87f8:	c0 70 88    	mov.w     w0, 0xe18
    87fa:	d1 70 88    	mov.w     w1, 0xe1a
    87fc:	60 00 b8    	mul.uu    w0, #0x0, w0
    87fe:	a0 70 88    	mov.w     w0, 0xe14
    8800:	b1 70 88    	mov.w     w1, 0xe16
    8802:	00 00 fc    	disi      #0x0
    8804:	21 e1 a9    	bclr.b    0x121, #0x7
    8806:	00 00 eb    	clr.w     w0
    8808:	c0 08 88    	mov.w     w0, 0x118
    880a:	21 e1 a8    	bset.b    0x121, #0x7
    880c:	10 c0 b3    	mov.b     #0x1, w0
    880e:	90 ee b7    	mov.b     WREG, 0xe90
    8810:	10 c0 b3    	mov.b     #0x1, w0
    8812:	20 ee b7    	mov.b     WREG, 0xe20

00008814 <.L8>:
    8814:	64 f2 07    	rcall     0x6cde <_udb_background_callback_periodic>

00008816 <.L9>:
    8816:	00 80 fa    	ulnk      
    8818:	4f 03 be    	mov.d     [--w15], w6
    881a:	4f 02 be    	mov.d     [--w15], w4
    881c:	4f 01 be    	mov.d     [--w15], w2
    881e:	4f 00 be    	mov.d     [--w15], w0
    8820:	36 00 f9    	pop       0x36
    8822:	00 40 06    	retfie    

00008824 <__T5Interrupt>:
    8824:	80 9f be    	mov.d     w0, [w15++]
    8826:	82 9f be    	mov.d     w2, [w15++]
    8828:	00 00 fa    	lnk       #0x0
    882a:	87 80 a9    	bclr.b    0x87, #0x4
    882c:	a0 70 80    	mov.w     0xe14, w0
    882e:	b1 70 80    	mov.w     0xe16, w1
    8830:	02 00 20    	mov.w     #0x0, w2
    8832:	13 00 20    	mov.w     #0x1, w3
    8834:	00 00 41    	add.w     w2, w0, w0
    8836:	81 80 49    	addc.w    w3, w1, w1
    8838:	a0 70 88    	mov.w     w0, 0xe14
    883a:	b1 70 88    	mov.w     w1, 0xe16
    883c:	00 80 fa    	ulnk      
    883e:	4f 01 be    	mov.d     [--w15], w2
    8840:	4f 00 be    	mov.d     [--w15], w0
    8842:	00 40 06    	retfie    

00008844 <__T4Interrupt>:
    8844:	36 00 f8    	push      0x36
    8846:	80 9f be    	mov.d     w0, [w15++]
    8848:	82 9f be    	mov.d     w2, [w15++]
    884a:	84 9f be    	mov.d     w4, [w15++]
    884c:	86 9f be    	mov.d     w6, [w15++]
    884e:	00 00 fa    	lnk       #0x0
    8850:	21 e1 a8    	bset.b    0x121, #0x7
    8852:	87 60 a9    	bclr.b    0x87, #0x3
    8854:	f0 70 80    	mov.w     0xe1e, w0
    8856:	00 00 e8    	inc.w     w0, w0
    8858:	f0 70 88    	mov.w     w0, 0xe1e
    885a:	f1 70 80    	mov.w     0xe1e, w1
    885c:	30 06 20    	mov.w     #0x63, w0
    885e:	80 8f 50    	sub.w     w1, w0, [w15]
    8860:	02 00 34    	bra       LE, 0x8866 <.L13>
    8862:	00 00 eb    	clr.w     w0
    8864:	f0 70 88    	mov.w     w0, 0xe1e

00008866 <.L13>:
    8866:	e1 70 80    	mov.w     0xe1c, w1
    8868:	00 71 22    	mov.w     #0x2710, w0
    886a:	80 8f 50    	sub.w     w1, w0, [w15]
    886c:	03 00 3a    	bra       NZ, 0x8874 <.L15>
    886e:	3b 03 07    	rcall     0x8ee6 <_udb_background_callback_triggered>
    8870:	00 00 eb    	clr.w     w0
    8872:	e0 70 88    	mov.w     w0, 0xe1c

00008874 <.L15>:
    8874:	f0 70 80    	mov.w     0xe1e, w0
    8876:	92 01 20    	mov.w     #0x19, w2
    8878:	11 00 09    	repeat    #0x11
    887a:	02 00 d8    	div.sw    w0, w2
    887c:	80 00 fd    	exch      w0, w1
    887e:	00 00 e0    	cp0.w     w0
    8880:	01 00 3a    	bra       NZ, 0x8884 <.L19>
    8882:	70 fb 07    	rcall     0x7f64 <_udb_servo_callback_prepare_outputs>

00008884 <.L19>:
    8884:	00 80 fa    	ulnk      
    8886:	4f 03 be    	mov.d     [--w15], w6
    8888:	4f 02 be    	mov.d     [--w15], w4
    888a:	4f 01 be    	mov.d     [--w15], w2
    888c:	4f 00 be    	mov.d     [--w15], w0
    888e:	36 00 f9    	pop       0x36
    8890:	00 40 06    	retfie    

00008892 <_udb_background_trigger>:
    8892:	00 00 fa    	lnk       #0x0
    8894:	00 71 22    	mov.w     #0x2710, w0
    8896:	e0 70 88    	mov.w     w0, 0xe1c
    8898:	00 80 fa    	ulnk      
    889a:	00 00 06    	return    

0000889c <_udb_cpu_load>:
    889c:	00 00 fa    	lnk       #0x0
    889e:	90 70 80    	mov.w     0xe12, w0
    88a0:	00 80 fb    	ze        w0, w0
    88a2:	a2 00 20    	mov.w     #0xa, w2
    88a4:	11 00 09    	repeat    #0x11
    88a6:	02 80 d8    	div.uw    w0, w2
    88a8:	00 80 fb    	ze        w0, w0
    88aa:	00 80 fa    	ulnk      
    88ac:	00 00 06    	return    

000088ae <_init_behavior>:



void init_behavior( void )
{
    88ae:	00 00 fa    	lnk       #0x0
	current_orientation = F_NORMAL ;
    88b0:	00 00 eb    	clr.w     w0
    88b2:	90 75 88    	mov.w     w0, 0xeb2
	desired_behavior.W = current_orientation ;
    88b4:	90 75 80    	mov.w     0xeb2, w0
    88b6:	a0 75 88    	mov.w     w0, 0xeb4
	
	setBehavior( current_orientation ) ;
    88b8:	90 75 80    	mov.w     0xeb2, w0
    88ba:	02 00 07    	rcall     0x88c0 <_setBehavior>
	
	if ( TRIGGER_TYPE != TRIGGER_TYPE_NONE )
	{
		triggerActionSetValue( TRIGGER_ACTION != TRIGGER_PULSE_HIGH ) ;
	}
	
	return ;
}
    88bc:	00 80 fa    	ulnk      
    88be:	00 00 06    	return    

000088c0 <_setBehavior>:


void setBehavior(int newBehavior)
{
    88c0:	02 00 fa    	lnk       #0x2
    88c2:	00 0f 78    	mov.w     w0, [w14]
	desired_behavior.W = newBehavior ;
    88c4:	1e 00 78    	mov.w     [w14], w0
    88c6:	a0 75 88    	mov.w     w0, 0xeb4
	
	if ( desired_behavior.W & F_TRIGGER )
    88c8:	a0 75 80    	mov.w     0xeb4, w0
    88ca:	45 00 de    	lsr.w     w0, #0x5, w0
    88cc:	61 00 60    	and.w     w0, #0x1, w0
    88ce:	00 04 e0    	cp0.b     w0
    88d0:	06 00 32    	bra       Z, 0x88de <.L4>
	{
		if ( cyclesUntilStartTriggerAction == 0 )
    88d2:	00 75 80    	mov.w     0xea0, w0
    88d4:	00 00 e0    	cp0.w     w0
    88d6:	05 00 3a    	bra       NZ, 0x88e2 <.L9>
		{
			cyclesUntilStartTriggerAction = 1 ;
    88d8:	10 00 20    	mov.w     #0x1, w0
    88da:	00 75 88    	mov.w     w0, 0xea0
    88dc:	02 00 37    	bra       0x88e2 <.L9>

000088de <.L4>:
		}
	}
	else
	{
		cyclesUntilStartTriggerAction = 0 ;
    88de:	00 00 eb    	clr.w     w0
    88e0:	00 75 88    	mov.w     w0, 0xea0

000088e2 <.L9>:
	}
	
	return ;
}
    88e2:	00 80 fa    	ulnk      
    88e4:	00 00 06    	return    

000088e6 <_canStabilizeInverted>:


boolean canStabilizeInverted(void)
{
    88e6:	00 00 fa    	lnk       #0x0
	return ( (INVERTED_FLIGHT_STABILIZED_MODE && (flags._.pitch_feedback && !flags._.GPS_steering)) ||
    88e8:	00 00 eb    	clr.w     w0
			(INVERTED_FLIGHT_WAYPOINT_MODE && (flags._.pitch_feedback && flags._.GPS_steering)) );
}
    88ea:	00 80 fa    	ulnk      
    88ec:	00 00 06    	return    

000088ee <_canStabilizeHover>:


boolean canStabilizeHover(void)
{
    88ee:	00 00 fa    	lnk       #0x0
	return ( (HOVERING_STABILIZED_MODE && (flags._.pitch_feedback && !flags._.GPS_steering)) ||
    88f0:	00 00 eb    	clr.w     w0
			(HOVERING_WAYPOINT_MODE && (flags._.pitch_feedback && flags._.GPS_steering)) );
}
    88f2:	00 80 fa    	ulnk      
    88f4:	00 00 06    	return    

000088f6 <_updateBehavior>:


void updateBehavior(void)
{
    88f6:	02 00 fa    	lnk       #0x2
	if ( current_orientation == F_INVERTED )
    88f8:	90 75 80    	mov.w     0xeb2, w0
    88fa:	e2 0f 50    	sub.w     w0, #0x2, [w15]
    88fc:	17 00 3a    	bra       NZ, 0x892c <.L15>
	{
		if ( canStabilizeHover() && rmat[7] < -14000 )
    88fe:	f7 ff 07    	rcall     0x88ee <_canStabilizeHover>
    8900:	00 04 e0    	cp0.b     w0
    8902:	07 00 32    	bra       Z, 0x8912 <.L17>
    8904:	91 58 80    	mov.w     0xb12, w1
    8906:	00 95 2c    	mov.w     #0xc950, w0
    8908:	80 8f 50    	sub.w     w1, w0, [w15]
    890a:	03 00 3d    	bra       GE, 0x8912 <.L17>
		{
			current_orientation = F_HOVER ;
    890c:	40 00 20    	mov.w     #0x4, w0
    890e:	90 75 88    	mov.w     w0, 0xeb2
    8910:	3d 00 37    	bra       0x898c <.L24>

00008912 <.L17>:
		}
		else if ( canStabilizeInverted() && rmat[8] < 6000 )
    8912:	e9 ff 07    	rcall     0x88e6 <_canStabilizeInverted>
    8914:	00 04 e0    	cp0.b     w0
    8916:	07 00 32    	bra       Z, 0x8926 <.L21>
    8918:	a1 58 80    	mov.w     0xb14, w1
    891a:	f0 76 21    	mov.w     #0x176f, w0
    891c:	80 8f 50    	sub.w     w1, w0, [w15]
    891e:	03 00 3c    	bra       GT, 0x8926 <.L21>
		{
			current_orientation = F_INVERTED ;
    8920:	20 00 20    	mov.w     #0x2, w0
    8922:	90 75 88    	mov.w     w0, 0xeb2
    8924:	33 00 37    	bra       0x898c <.L24>

00008926 <.L21>:
		}
		else
		{
			current_orientation = F_NORMAL ;
    8926:	00 00 eb    	clr.w     w0
    8928:	90 75 88    	mov.w     w0, 0xeb2
    892a:	30 00 37    	bra       0x898c <.L24>

0000892c <.L15>:
		}
	}
	else if ( current_orientation == F_HOVER )
    892c:	90 75 80    	mov.w     0xeb2, w0
    892e:	e4 0f 50    	sub.w     w0, #0x4, [w15]
    8930:	17 00 3a    	bra       NZ, 0x8960 <.L25>
	{
		if ( canStabilizeHover() && rmat[7] < -8000 )
    8932:	dd ff 07    	rcall     0x88ee <_canStabilizeHover>
    8934:	00 04 e0    	cp0.b     w0
    8936:	07 00 32    	bra       Z, 0x8946 <.L27>
    8938:	91 58 80    	mov.w     0xb12, w1
    893a:	00 0c 2e    	mov.w     #0xe0c0, w0
    893c:	80 8f 50    	sub.w     w1, w0, [w15]
    893e:	03 00 3d    	bra       GE, 0x8946 <.L27>
		{
			current_orientation = F_HOVER ;
    8940:	40 00 20    	mov.w     #0x4, w0
    8942:	90 75 88    	mov.w     w0, 0xeb2
    8944:	23 00 37    	bra       0x898c <.L24>

00008946 <.L27>:
		}
		else if ( canStabilizeInverted() && rmat[8] < -6000 )
    8946:	cf ff 07    	rcall     0x88e6 <_canStabilizeInverted>
    8948:	00 04 e0    	cp0.b     w0
    894a:	07 00 32    	bra       Z, 0x895a <.L31>
    894c:	a1 58 80    	mov.w     0xb14, w1
    894e:	00 89 2e    	mov.w     #0xe890, w0
    8950:	80 8f 50    	sub.w     w1, w0, [w15]
    8952:	03 00 3d    	bra       GE, 0x895a <.L31>
		{
			current_orientation = F_INVERTED ;
    8954:	20 00 20    	mov.w     #0x2, w0
    8956:	90 75 88    	mov.w     w0, 0xeb2
    8958:	19 00 37    	bra       0x898c <.L24>

0000895a <.L31>:
		}
		else
		{
			current_orientation = F_NORMAL ;
    895a:	00 00 eb    	clr.w     w0
    895c:	90 75 88    	mov.w     w0, 0xeb2
    895e:	16 00 37    	bra       0x898c <.L24>

00008960 <.L25>:
		}
	}
	else
	{
		if ( canStabilizeInverted() && rmat[8] < -6000 )
    8960:	c2 ff 07    	rcall     0x88e6 <_canStabilizeInverted>
    8962:	00 04 e0    	cp0.b     w0
    8964:	07 00 32    	bra       Z, 0x8974 <.L34>
    8966:	a1 58 80    	mov.w     0xb14, w1
    8968:	00 89 2e    	mov.w     #0xe890, w0
    896a:	80 8f 50    	sub.w     w1, w0, [w15]
    896c:	03 00 3d    	bra       GE, 0x8974 <.L34>
		{
			current_orientation = F_INVERTED ;
    896e:	20 00 20    	mov.w     #0x2, w0
    8970:	90 75 88    	mov.w     w0, 0xeb2
    8972:	0c 00 37    	bra       0x898c <.L24>

00008974 <.L34>:
		}
		else if ( canStabilizeHover() && rmat[7] < -14000 )
    8974:	bc ff 07    	rcall     0x88ee <_canStabilizeHover>
    8976:	00 04 e0    	cp0.b     w0
    8978:	07 00 32    	bra       Z, 0x8988 <.L37>
    897a:	91 58 80    	mov.w     0xb12, w1
    897c:	00 95 2c    	mov.w     #0xc950, w0
    897e:	80 8f 50    	sub.w     w1, w0, [w15]
    8980:	03 00 3d    	bra       GE, 0x8988 <.L37>
		{
			current_orientation = F_HOVER ;
    8982:	40 00 20    	mov.w     #0x4, w0
    8984:	90 75 88    	mov.w     w0, 0xeb2
    8986:	02 00 37    	bra       0x898c <.L24>

00008988 <.L37>:
		}
		else
		{
			current_orientation = F_NORMAL ;
    8988:	00 00 eb    	clr.w     w0
    898a:	90 75 88    	mov.w     w0, 0xeb2

0000898c <.L24>:
		}
	}
	
	if (flags._.pitch_feedback && !flags._.GPS_steering)
    898c:	80 72 80    	mov.w     0xe50, w0
    898e:	01 10 20    	mov.w     #0x100, w1
    8990:	01 00 60    	and.w     w0, w1, w0
    8992:	00 00 e0    	cp0.w     w0
    8994:	07 00 32    	bra       Z, 0x89a4 <.L40>
    8996:	80 72 80    	mov.w     0xe50, w0
    8998:	01 08 20    	mov.w     #0x80, w1
    899a:	01 00 60    	and.w     w0, w1, w0
    899c:	00 00 e0    	cp0.w     w0
    899e:	02 00 3a    	bra       NZ, 0x89a4 <.L40>
	{
		desired_behavior.W = current_orientation ;
    89a0:	90 75 80    	mov.w     0xeb2, w0
    89a2:	a0 75 88    	mov.w     w0, 0xeb4

000089a4 <.L40>:
	}
	
	dcm_enable_yaw_drift_correction(current_orientation != F_HOVER) ;
    89a4:	90 75 80    	mov.w     0xeb2, w0
    89a6:	80 40 eb    	clr.b     w1
    89a8:	01 4f 78    	mov.b     w1, [w14]
    89aa:	e4 0f 50    	sub.w     w0, #0x4, [w15]
    89ac:	02 00 32    	bra       Z, 0x89b2 <.L43>
    89ae:	10 c0 b3    	mov.b     #0x1, w0
    89b0:	00 4f 78    	mov.b     w0, [w14]

000089b2 <.L43>:
    89b2:	1e 40 78    	mov.b     [w14], w0
    89b4:	2f 00 07    	rcall     0x8a14 <_dcm_enable_yaw_drift_correction>
	
	return ;
}
    89b6:	00 80 fa    	ulnk      
    89b8:	00 00 06    	return    

000089ba <_updateTriggerAction>:


// This function is called every 25ms
void updateTriggerAction( void )
{
    89ba:	00 00 fa    	lnk       #0x0
	if ( cyclesUntilStopTriggerAction == 1 )
    89bc:	10 75 80    	mov.w     0xea2, w0
    89be:	e1 0f 50    	sub.w     w0, #0x1, [w15]
    89c0:	05 00 3a    	bra       NZ, 0x89cc <.L46>
	{
		triggerActionSetValue( TRIGGER_ACTION != TRIGGER_PULSE_HIGH ) ;
    89c2:	00 40 eb    	clr.b     w0
    89c4:	21 00 07    	rcall     0x8a08 <_triggerActionSetValue>
		cyclesUntilStopTriggerAction = 0 ;
    89c6:	00 00 eb    	clr.w     w0
    89c8:	10 75 88    	mov.w     w0, 0xea2
    89ca:	06 00 37    	bra       0x89d8 <.L48>

000089cc <.L46>:
	}
	else if ( cyclesUntilStopTriggerAction > 0 )
    89cc:	10 75 80    	mov.w     0xea2, w0
    89ce:	00 00 e0    	cp0.w     w0
    89d0:	03 00 34    	bra       LE, 0x89d8 <.L48>
	{
		cyclesUntilStopTriggerAction-- ;
    89d2:	10 75 80    	mov.w     0xea2, w0
    89d4:	00 00 e9    	dec.w     w0, w0
    89d6:	10 75 88    	mov.w     w0, 0xea2

000089d8 <.L48>:
	}
	
	if ( cyclesUntilStartTriggerAction == 1 && ( desired_behavior.W & F_TRIGGER ) )
    89d8:	00 75 80    	mov.w     0xea0, w0
    89da:	e1 0f 50    	sub.w     w0, #0x1, [w15]
    89dc:	0d 00 3a    	bra       NZ, 0x89f8 <.L50>
    89de:	a0 75 80    	mov.w     0xeb4, w0
    89e0:	45 00 de    	lsr.w     w0, #0x5, w0
    89e2:	61 00 60    	and.w     w0, #0x1, w0
    89e4:	00 04 a2    	btg.b     w0, #0x0
    89e6:	00 04 e0    	cp0.b     w0
    89e8:	07 00 3a    	bra       NZ, 0x89f8 <.L50>
	{
		if ( TRIGGER_ACTION == TRIGGER_PULSE_HIGH || TRIGGER_ACTION == TRIGGER_PULSE_LOW )
		{
			triggerActionSetValue( TRIGGER_ACTION == TRIGGER_PULSE_HIGH ) ;
    89ea:	10 c0 b3    	mov.b     #0x1, w0
    89ec:	0d 00 07    	rcall     0x8a08 <_triggerActionSetValue>
			
			cyclesUntilStopTriggerAction = TRIGGER_PULSE_DURATION / (long)25 ;
    89ee:	a0 00 20    	mov.w     #0xa, w0
    89f0:	10 75 88    	mov.w     w0, 0xea2
			cyclesUntilStartTriggerAction = 0 ;
    89f2:	00 00 eb    	clr.w     w0
    89f4:	00 75 88    	mov.w     w0, 0xea0
    89f6:	06 00 37    	bra       0x8a04 <.L55>

000089f8 <.L50>:
		}
		else if ( TRIGGER_ACTION == TRIGGER_TOGGLE )
		{
			triggerActionSetValue( !currentTriggerActionValue ) ;
			
			cyclesUntilStopTriggerAction = 0 ;
			cyclesUntilStartTriggerAction = 0 ;
		}
		else if ( TRIGGER_ACTION == TRIGGER_REPEATING )
		{
			triggerActionSetValue( TRIGGER_ACTION == TRIGGER_PULSE_HIGH ) ;
			
			cyclesUntilStopTriggerAction = TRIGGER_PULSE_DURATION / (long)25 ;
			cyclesUntilStartTriggerAction = TRIGGER_REPEAT_PERIOD / (long)25 ;
		}
	}
	else if ( cyclesUntilStartTriggerAction > 0 )
    89f8:	00 75 80    	mov.w     0xea0, w0
    89fa:	00 00 e0    	cp0.w     w0
    89fc:	03 00 34    	bra       LE, 0x8a04 <.L55>
	{
		cyclesUntilStartTriggerAction-- ;
    89fe:	00 75 80    	mov.w     0xea0, w0
    8a00:	00 00 e9    	dec.w     w0, w0
    8a02:	00 75 88    	mov.w     w0, 0xea0

00008a04 <.L55>:
	}
	
	return ;
}
    8a04:	00 80 fa    	ulnk      
    8a06:	00 00 06    	return    

00008a08 <_triggerActionSetValue>:


void triggerActionSetValue( boolean newValue )
{
    8a08:	02 00 fa    	lnk       #0x2
    8a0a:	00 4f 78    	mov.b     w0, [w14]
	if ( TRIGGER_TYPE == TRIGGER_TYPE_SERVO )
	{
		udb_pwOut[TRIGGER_OUTPUT_CHANNEL] = (newValue) ? TRIGGER_SERVO_HIGH : TRIGGER_SERVO_LOW ;
	}
	else if ( TRIGGER_TYPE == TRIGGER_TYPE_DIGITAL )
	{
		if ( NUM_OUTPUTS < 6 )
		{
			udb_set_action_state(newValue) ;
		}
	}
	
	currentTriggerActionValue = newValue ;
    8a0c:	1e 40 78    	mov.b     [w14], w0
    8a0e:	a4 ee b7    	mov.b     WREG, 0xea4
	
	return ;
}
    8a10:	00 80 fa    	ulnk      
    8a12:	00 00 06    	return    

00008a14 <_dcm_enable_yaw_drift_correction>:
    8a14:	02 00 fa    	lnk       #0x2
    8a16:	00 4f 78    	mov.b     w0, [w14]
    8a18:	00 40 eb    	clr.b     w0
    8a1a:	10 47 98    	mov.b     w0, [w14+1]
    8a1c:	1e 04 e0    	cp0.b     [w14]
    8a1e:	02 00 3a    	bra       NZ, 0x8a24 <.L2>
    8a20:	11 c0 b3    	mov.b     #0x1, w1
    8a22:	11 47 98    	mov.b     w1, [w14+1]

00008a24 <.L2>:
    8a24:	9e 40 90    	mov.b     [w14+1], w1
    8a26:	01 80 fb    	ze        w1, w0
    8a28:	61 00 60    	and.w     w0, #0x1, w0
    8a2a:	45 01 dd    	sl.w      w0, #0x5, w2
    8a2c:	b1 76 80    	mov.w     0xed6, w1
    8a2e:	f0 fd 2f    	mov.w     #0xffdf, w0
    8a30:	00 80 60    	and.w     w1, w0, w0
    8a32:	02 00 70    	ior.w     w0, w2, w0
    8a34:	b0 76 88    	mov.w     w0, 0xed6
    8a36:	00 80 fa    	ulnk      
    8a38:	00 00 06    	return    

00008a3a <_estYawDrift>:
    8a3a:	08 00 fa    	lnk       #0x8
    8a3c:	88 1f 78    	mov.w     w8, [w15++]
    8a3e:	8e fb 07    	rcall     0x815c <_gps_nav_valid>
    8a40:	00 04 e0    	cp0.b     w0
    8a42:	46 00 32    	bra       Z, 0x8ad0 <.L5>
    8a44:	56 fc 07    	rcall     0x82f2 <_commit_gps_data>
    8a46:	f0 65 80    	mov.w     0xcbe, w0
    8a48:	80 00 78    	mov.w     w0, w1
    8a4a:	20 1d 20    	mov.w     #0x1d2, w0
    8a4c:	01 01 b8    	mul.uu    w0, w1, w2
    8a4e:	00 00 28    	mov.w     #0x8000, w0
    8a50:	01 00 20    	mov.w     #0x0, w1
    8a52:	02 00 40    	add.w     w0, w2, w0
    8a54:	83 80 48    	addc.w    w1, w3, w1
    8a56:	00 8f be    	mov.d     w0, [w14]
    8a58:	2e 40 90    	mov.b     [w14+2], w0
    8a5a:	80 40 78    	mov.b     w0, w1
    8a5c:	00 c4 b3    	mov.b     #0x40, w0
    8a5e:	01 40 50    	sub.b     w0, w1, w0
    8a60:	d3 ee b7    	mov.b     WREG, 0xed3
    8a62:	e0 65 80    	mov.w     0xcbc, w0
    8a64:	60 73 88    	mov.w     w0, 0xe6c
    8a66:	68 73 80    	mov.w     0xe6c, w8
    8a68:	d3 ce bf    	mov.b     0xed3, WREG
    8a6a:	ff f6 07    	rcall     0x786a <_cosine>
    8a6c:	08 80 b9    	mul.ss    w0, w8, w0
    8a6e:	42 09 dd    	sl.w      w1, #0x2, w2
    8a70:	ce 01 de    	lsr.w     w0, #0xe, w3
    8a72:	83 01 71    	ior.w     w2, w3, w3
    8a74:	42 01 dd    	sl.w      w0, #0x2, w2
    8a76:	00 00 28    	mov.w     #0x8000, w0
    8a78:	01 00 20    	mov.w     #0x0, w1
    8a7a:	02 00 40    	add.w     w0, w2, w0
    8a7c:	83 80 48    	addc.w    w1, w3, w1
    8a7e:	20 07 98    	mov.w     w0, [w14+4]
    8a80:	31 07 98    	mov.w     w1, [w14+6]
    8a82:	3e 00 90    	mov.w     [w14+6], w0
    8a84:	20 70 88    	mov.w     w0, 0xe04
    8a86:	68 73 80    	mov.w     0xe6c, w8
    8a88:	d3 ce bf    	mov.b     0xed3, WREG
    8a8a:	6b f6 07    	rcall     0x7762 <_sine>
    8a8c:	08 80 b9    	mul.ss    w0, w8, w0
    8a8e:	42 09 dd    	sl.w      w1, #0x2, w2
    8a90:	ce 01 de    	lsr.w     w0, #0xe, w3
    8a92:	83 01 71    	ior.w     w2, w3, w3
    8a94:	42 01 dd    	sl.w      w0, #0x2, w2
    8a96:	00 00 28    	mov.w     #0x8000, w0
    8a98:	01 00 20    	mov.w     #0x0, w1
    8a9a:	02 00 40    	add.w     w0, w2, w0
    8a9c:	83 80 48    	addc.w    w1, w3, w1
    8a9e:	20 07 98    	mov.w     w0, [w14+4]
    8aa0:	31 07 98    	mov.w     w1, [w14+6]
    8aa2:	3e 00 90    	mov.w     [w14+6], w0
    8aa4:	30 70 88    	mov.w     w0, 0xe06
    8aa6:	00 66 80    	mov.w     0xcc0, w0
    8aa8:	40 70 88    	mov.w     w0, 0xe08
    8aaa:	31 70 80    	mov.w     0xe06, w1
    8aac:	d0 6f 80    	mov.w     0xdfa, w0
    8aae:	00 80 50    	sub.w     w1, w0, w0
    8ab0:	60 70 88    	mov.w     w0, 0xe0c
    8ab2:	21 70 80    	mov.w     0xe04, w1
    8ab4:	c0 6f 80    	mov.w     0xdf8, w0
    8ab6:	00 80 50    	sub.w     w1, w0, w0
    8ab8:	50 70 88    	mov.w     w0, 0xe0a
    8aba:	a0 e0 20    	mov.w     #0xe0a, w0
    8abc:	12 f7 07    	rcall     0x78e2 <_rect_to_polar>
    8abe:	d2 ee b7    	mov.b     WREG, 0xed2
    8ac0:	50 70 80    	mov.w     0xe0a, w0
    8ac2:	90 73 88    	mov.w     w0, 0xe72
    8ac4:	61 73 80    	mov.w     0xe6c, w1
    8ac6:	80 73 80    	mov.w     0xe70, w0
    8ac8:	00 80 50    	sub.w     w1, w0, w0
    8aca:	70 73 88    	mov.w     w0, 0xe6e
    8acc:	60 73 80    	mov.w     0xe6c, w0
    8ace:	80 73 88    	mov.w     w0, 0xe70

00008ad0 <.L5>:
    8ad0:	31 58 80    	mov.w     0xb06, w1
    8ad2:	40 73 80    	mov.w     0xe68, w0
    8ad4:	80 80 50    	sub.w     w1, w0, w1
    8ad6:	50 55 25    	mov.w     #0x5555, w0
    8ad8:	01 80 b9    	mul.ss    w0, w1, w0
    8ada:	00 8f be    	mov.d     w0, [w14]
    8adc:	9e 00 90    	mov.w     [w14+2], w1
    8ade:	40 73 80    	mov.w     0xe68, w0
    8ae0:	00 80 40    	add.w     w1, w0, w0
    8ae2:	40 73 88    	mov.w     w0, 0xe68
    8ae4:	61 58 80    	mov.w     0xb0c, w1
    8ae6:	50 73 80    	mov.w     0xe6a, w0
    8ae8:	80 80 50    	sub.w     w1, w0, w1
    8aea:	50 55 25    	mov.w     #0x5555, w0
    8aec:	01 80 b9    	mul.ss    w0, w1, w0
    8aee:	00 8f be    	mov.d     w0, [w14]
    8af0:	9e 00 90    	mov.w     [w14+2], w1
    8af2:	50 73 80    	mov.w     0xe6a, w0
    8af4:	00 80 40    	add.w     w1, w0, w0
    8af6:	50 73 88    	mov.w     w0, 0xe6a
    8af8:	40 73 80    	mov.w     0xe68, w0
    8afa:	80 5b 88    	mov.w     w0, 0xb70
    8afc:	50 73 80    	mov.w     0xe6a, w0
    8afe:	90 5b 88    	mov.w     w0, 0xb72
    8b00:	00 00 eb    	clr.w     w0
    8b02:	a0 5b 88    	mov.w     w0, 0xb74
    8b04:	2b fb 07    	rcall     0x815c <_gps_nav_valid>
    8b06:	00 04 e0    	cp0.b     w0
    8b08:	1f 00 32    	bra       Z, 0x8b48 <.L7>
    8b0a:	b0 76 80    	mov.w     0xed6, w0
    8b0c:	01 02 20    	mov.w     #0x20, w1
    8b0e:	01 00 60    	and.w     w0, w1, w0
    8b10:	00 00 e0    	cp0.w     w0
    8b12:	1a 00 3a    	bra       NZ, 0x8b48 <.L7>
    8b14:	c0 6f 80    	mov.w     0xdf8, w0
    8b16:	00 00 e0    	cp0.w     w0
    8b18:	03 00 3a    	bra       NZ, 0x8b20 <.L10>
    8b1a:	d0 6f 80    	mov.w     0xdfa, w0
    8b1c:	00 00 e0    	cp0.w     w0
    8b1e:	04 00 32    	bra       Z, 0x8b28 <.L12>

00008b20 <.L10>:
    8b20:	91 73 80    	mov.w     0xe72, w1
    8b22:	70 0c 20    	mov.w     #0xc7, w0
    8b24:	80 8f 50    	sub.w     w1, w0, [w15]
    8b26:	08 00 3c    	bra       GT, 0x8b38 <.L13>

00008b28 <.L12>:
    8b28:	d3 ce bf    	mov.b     0xed3, WREG
    8b2a:	9f f6 07    	rcall     0x786a <_cosine>
    8b2c:	00 00 ea    	neg.w     w0, w0
    8b2e:	50 5b 88    	mov.w     w0, 0xb6a
    8b30:	d3 ce bf    	mov.b     0xed3, WREG
    8b32:	17 f6 07    	rcall     0x7762 <_sine>
    8b34:	60 5b 88    	mov.w     w0, 0xb6c
    8b36:	0c 00 37    	bra       0x8b50 <.L15>

00008b38 <.L13>:
    8b38:	d2 ce bf    	mov.b     0xed2, WREG
    8b3a:	97 f6 07    	rcall     0x786a <_cosine>
    8b3c:	00 00 ea    	neg.w     w0, w0
    8b3e:	50 5b 88    	mov.w     w0, 0xb6a
    8b40:	d2 ce bf    	mov.b     0xed2, WREG
    8b42:	0f f6 07    	rcall     0x7762 <_sine>
    8b44:	60 5b 88    	mov.w     w0, 0xb6c
    8b46:	04 00 37    	bra       0x8b50 <.L15>

00008b48 <.L7>:
    8b48:	80 5b 80    	mov.w     0xb70, w0
    8b4a:	50 5b 88    	mov.w     w0, 0xb6a
    8b4c:	90 5b 80    	mov.w     0xb72, w0
    8b4e:	60 5b 88    	mov.w     w0, 0xb6c

00008b50 <.L15>:
    8b50:	00 00 eb    	clr.w     w0
    8b52:	70 5b 88    	mov.w     w0, 0xb6e
    8b54:	d6 8e a8    	bset.b    0xed6, #0x4
    8b56:	d6 2e a8    	bset.b    0xed6, #0x1
    8b58:	4f 04 78    	mov.w     [--w15], w8
    8b5a:	00 80 fa    	ulnk      
    8b5c:	00 00 06    	return    

00008b5e <_init_servoPrepare>:
    8b5e:	0c 00 fa    	lnk       #0xc
    8b60:	00 19 20    	mov.w     #0x190, w0
    8b62:	30 73 88    	mov.w     w0, 0xe66
    8b64:	80 3e 20    	mov.w     #0x3e8, w0
    8b66:	20 73 88    	mov.w     w0, 0xe64
    8b68:	10 00 20    	mov.w     #0x1, w0
    8b6a:	00 0f 78    	mov.w     w0, [w14]
    8b6c:	20 00 37    	bra       0x8bae <.L2>

00008b6e <.L3>:
    8b6e:	1e 00 78    	mov.w     [w14], w0
    8b70:	50 07 98    	mov.w     w0, [w14+10]
    8b72:	9e 00 78    	mov.w     [w14], w1
    8b74:	41 07 98    	mov.w     w1, [w14+8]
    8b76:	12 00 20    	mov.w     #0x1, w2
    8b78:	9e 0f 11    	subr.w    w2, [w14], [w15]
    8b7a:	03 00 3a    	bra       NZ, 0x8b82 <.L4>
    8b7c:	80 01 eb    	clr.w     w3
    8b7e:	33 07 98    	mov.w     w3, [w14+6]
    8b80:	02 00 37    	bra       0x8b86 <.L6>

00008b82 <.L4>:
    8b82:	c0 d4 21    	mov.w     #0x1d4c, w0
    8b84:	30 07 98    	mov.w     w0, [w14+6]

00008b86 <.L6>:
    8b86:	4e 01 90    	mov.w     [w14+8], w2
    8b88:	4e 01 90    	mov.w     [w14+8], w2
    8b8a:	82 00 41    	add.w     w2, w2, w1
    8b8c:	80 95 20    	mov.w     #0x958, w0
    8b8e:	00 80 40    	add.w     w1, w0, w0
    8b90:	be 01 90    	mov.w     [w14+6], w3
    8b92:	03 08 78    	mov.w     w3, [w0]
    8b94:	4e 00 90    	mov.w     [w14+8], w0
    8b96:	4e 00 90    	mov.w     [w14+8], w0
    8b98:	80 00 40    	add.w     w0, w0, w1
    8b9a:	80 95 20    	mov.w     #0x958, w0
    8b9c:	00 80 40    	add.w     w1, w0, w0
    8b9e:	10 01 78    	mov.w     [w0], w2
    8ba0:	de 01 90    	mov.w     [w14+10], w3
    8ba2:	de 01 90    	mov.w     [w14+10], w3
    8ba4:	83 80 41    	add.w     w3, w3, w1
    8ba6:	a0 9d 20    	mov.w     #0x9da, w0
    8ba8:	00 80 40    	add.w     w1, w0, w0
    8baa:	02 08 78    	mov.w     w2, [w0]
    8bac:	1e 0f e8    	inc.w     [w14], [w14]

00008bae <.L2>:
    8bae:	80 00 20    	mov.w     #0x8, w0
    8bb0:	9e 0f 10    	subr.w    w0, [w14], [w15]
    8bb2:	dd ff 34    	bra       LE, 0x8b6e <.L3>
    8bb4:	10 00 20    	mov.w     #0x1, w0
    8bb6:	00 0f 78    	mov.w     w0, [w14]
    8bb8:	12 00 37    	bra       0x8bde <.L8>

00008bba <.L9>:
    8bba:	9e 00 78    	mov.w     [w14], w1
    8bbc:	21 07 98    	mov.w     w1, [w14+4]
    8bbe:	12 00 20    	mov.w     #0x1, w2
    8bc0:	9e 0f 11    	subr.w    w2, [w14], [w15]
    8bc2:	03 00 3a    	bra       NZ, 0x8bca <.L10>
    8bc4:	80 01 eb    	clr.w     w3
    8bc6:	13 07 98    	mov.w     w3, [w14+2]
    8bc8:	02 00 37    	bra       0x8bce <.L12>

00008bca <.L10>:
    8bca:	c0 d4 21    	mov.w     #0x1d4c, w0
    8bcc:	10 07 98    	mov.w     w0, [w14+2]

00008bce <.L12>:
    8bce:	ae 00 90    	mov.w     [w14+4], w1
    8bd0:	ae 00 90    	mov.w     [w14+4], w1
    8bd2:	01 80 40    	add.w     w1, w1, w0
    8bd4:	21 ba 20    	mov.w     #0xba2, w1
    8bd6:	01 00 40    	add.w     w0, w1, w0
    8bd8:	1e 01 90    	mov.w     [w14+2], w2
    8bda:	02 08 78    	mov.w     w2, [w0]
    8bdc:	1e 0f e8    	inc.w     [w14], [w14]

00008bde <.L8>:
    8bde:	83 00 20    	mov.w     #0x8, w3
    8be0:	9e 8f 11    	subr.w    w3, [w14], [w15]
    8be2:	eb ff 34    	bra       LE, 0x8bba <.L9>
    8be4:	00 80 fa    	ulnk      
    8be6:	00 00 06    	return    

00008be8 <_dcm_servo_callback_prepare_outputs>:
    8be8:	02 00 fa    	lnk       #0x2
    8bea:	30 73 80    	mov.w     0xe66, w0
    8bec:	00 0f 78    	mov.w     w0, [w14]
    8bee:	1e 00 78    	mov.w     [w14], w0
    8bf0:	e1 0f 50    	sub.w     w0, #0x1, [w15]
    8bf2:	10 00 32    	bra       Z, 0x8c14 <.L18>
    8bf4:	1e 00 78    	mov.w     [w14], w0
    8bf6:	e2 0f 50    	sub.w     w0, #0x2, [w15]
    8bf8:	12 00 32    	bra       Z, 0x8c1e <.L19>
    8bfa:	1e 00 78    	mov.w     [w14], w0
    8bfc:	00 00 e0    	cp0.w     w0
    8bfe:	01 00 32    	bra       Z, 0x8c02 <.L17>
    8c00:	10 00 37    	bra       0x8c22 <.L16>

00008c02 <.L17>:
    8c02:	9f f2 07    	rcall     0x7142 <_process_flightplan>
    8c04:	78 fe 07    	rcall     0x88f6 <_updateBehavior>
    8c06:	bd 00 07    	rcall     0x8d82 <_rollCntrl>
    8c08:	35 00 07    	rcall     0x8c74 <_yawCntrl>
    8c0a:	18 f4 07    	rcall     0x743c <_altitudeCntrl>
    8c0c:	a3 fc 07    	rcall     0x8554 <_pitchCntrl>
    8c0e:	74 e1 07    	rcall     0x4ef8 <_servoMix>
    8c10:	d4 fe 07    	rcall     0x89ba <_updateTriggerAction>
    8c12:	08 00 37    	bra       0x8c24 <.L20>

00008c14 <.L18>:
    8c14:	4a fa 07    	rcall     0x80aa <_dcm_calibrate>
    8c16:	22 00 07    	rcall     0x8c5c <_manualPassthrough>
    8c18:	10 c0 b3    	mov.b     #0x1, w0
    8c1a:	d1 ee b7    	mov.b     WREG, 0xed1
    8c1c:	03 00 37    	bra       0x8c24 <.L20>

00008c1e <.L19>:
    8c1e:	43 d0 07    	rcall     0x2ca6 <_udb_gyro_autoZero>
    8c20:	01 00 37    	bra       0x8c24 <.L20>

00008c22 <.L16>:
    8c22:	1c 00 07    	rcall     0x8c5c <_manualPassthrough>

00008c24 <.L20>:
    8c24:	30 73 80    	mov.w     0xe66, w0
    8c26:	00 00 e0    	cp0.w     w0
    8c28:	03 00 34    	bra       LE, 0x8c30 <.L21>
    8c2a:	30 73 80    	mov.w     0xe66, w0
    8c2c:	00 00 e9    	dec.w     w0, w0
    8c2e:	30 73 88    	mov.w     w0, 0xe66

00008c30 <.L21>:
    8c30:	20 73 80    	mov.w     0xe64, w0
    8c32:	00 00 e0    	cp0.w     w0
    8c34:	05 00 34    	bra       LE, 0x8c40 <.L23>
    8c36:	20 73 80    	mov.w     0xe64, w0
    8c38:	9c fa 07    	rcall     0x8172 <_gps_startup_sequence>
    8c3a:	20 73 80    	mov.w     0xe64, w0
    8c3c:	00 00 e9    	dec.w     w0, w0
    8c3e:	20 73 88    	mov.w     w0, 0xe64

00008c40 <.L23>:
    8c40:	d0 ce bf    	mov.b     0xed0, WREG
    8c42:	00 40 e8    	inc.b     w0, w0
    8c44:	d0 ee b7    	mov.b     WREG, 0xed0
    8c46:	d0 ce bf    	mov.b     0xed0, WREG
    8c48:	e4 4f 50    	sub.b     w0, #0x4, [w15]
    8c4a:	06 00 34    	bra       LE, 0x8c58 <.L29>
    8c4c:	d1 ce bf    	mov.b     0xed1, WREG
    8c4e:	00 04 e0    	cp0.b     w0
    8c50:	01 00 32    	bra       Z, 0x8c54 <.L27>
    8c52:	db e5 07    	rcall     0x580a <_serial_output_8hz>

00008c54 <.L27>:
    8c54:	00 40 eb    	clr.b     w0
    8c56:	d0 ee b7    	mov.b     WREG, 0xed0

00008c58 <.L29>:
    8c58:	00 80 fa    	ulnk      
    8c5a:	00 00 06    	return    

00008c5c <_manualPassthrough>:
    8c5c:	00 00 fa    	lnk       #0x0
    8c5e:	00 00 eb    	clr.w     w0
    8c60:	10 73 88    	mov.w     w0, 0xe62
    8c62:	10 73 80    	mov.w     0xe62, w0
    8c64:	00 73 88    	mov.w     w0, 0xe60
    8c66:	00 73 80    	mov.w     0xe60, w0
    8c68:	e0 72 88    	mov.w     w0, 0xe5c
    8c6a:	e0 72 80    	mov.w     0xe5c, w0
    8c6c:	f0 72 88    	mov.w     w0, 0xe5e
    8c6e:	44 e1 07    	rcall     0x4ef8 <_servoMix>
    8c70:	00 80 fa    	ulnk      
    8c72:	00 00 06    	return    

00008c74 <_yawCntrl>:
    8c74:	00 00 fa    	lnk       #0x0
    8c76:	3b fe 07    	rcall     0x88ee <_canStabilizeHover>
    8c78:	00 04 e0    	cp0.b     w0
    8c7a:	05 00 32    	bra       Z, 0x8c86 <.L2>
    8c7c:	90 75 80    	mov.w     0xeb2, w0
    8c7e:	e4 0f 50    	sub.w     w0, #0x4, [w15]
    8c80:	02 00 3a    	bra       NZ, 0x8c86 <.L2>
    8c82:	50 00 07    	rcall     0x8d24 <_hoverYawCntrl>
    8c84:	01 00 37    	bra       0x8c88 <.L6>

00008c86 <.L2>:
    8c86:	02 00 07    	rcall     0x8c8c <_normalYawCntrl>

00008c88 <.L6>:
    8c88:	00 80 fa    	ulnk      
    8c8a:	00 00 06    	return    

00008c8c <_normalYawCntrl>:
    8c8c:	0e 00 fa    	lnk       #0xe
    8c8e:	80 72 80    	mov.w     0xe50, w0
    8c90:	01 08 20    	mov.w     #0x80, w1
    8c92:	01 00 60    	and.w     w0, w1, w0
    8c94:	00 00 e0    	cp0.w     w0
    8c96:	0d 00 32    	bra       Z, 0x8cb2 <.L8>
    8c98:	90 c7 b3    	mov.b     #0x79, w0
    8c9a:	62 f3 07    	rcall     0x7360 <_determine_navigation_deflection>
    8c9c:	20 07 98    	mov.w     w0, [w14+4]
    8c9e:	23 fe 07    	rcall     0x88e6 <_canStabilizeInverted>
    8ca0:	00 04 e0    	cp0.b     w0
    8ca2:	09 00 32    	bra       Z, 0x8cb6 <.L13>
    8ca4:	90 75 80    	mov.w     0xeb2, w0
    8ca6:	e2 0f 50    	sub.w     w0, #0x2, [w15]
    8ca8:	06 00 3a    	bra       NZ, 0x8cb6 <.L13>
    8caa:	2e 00 90    	mov.w     [w14+4], w0
    8cac:	00 00 ea    	neg.w     w0, w0
    8cae:	20 07 98    	mov.w     w0, [w14+4]
    8cb0:	02 00 37    	bra       0x8cb6 <.L13>

00008cb2 <.L8>:
    8cb2:	00 00 eb    	clr.w     w0
    8cb4:	20 07 98    	mov.w     w0, [w14+4]

00008cb6 <.L13>:
    8cb6:	80 72 80    	mov.w     0xe50, w0
    8cb8:	01 10 20    	mov.w     #0x100, w1
    8cba:	01 00 60    	and.w     w0, w1, w0
    8cbc:	00 00 e0    	cp0.w     w0
    8cbe:	06 00 32    	bra       Z, 0x8ccc <.L14>
    8cc0:	11 5b 80    	mov.w     0xb62, w1
    8cc2:	70 36 85    	mov.w     0xa6ce, w0
    8cc4:	01 80 b9    	mul.ss    w0, w1, w0
    8cc6:	50 07 98    	mov.w     w0, [w14+10]
    8cc8:	61 07 98    	mov.w     w1, [w14+12]
    8cca:	03 00 37    	bra       0x8cd2 <.L16>

00008ccc <.L14>:
    8ccc:	60 00 b8    	mul.uu    w0, #0x0, w0
    8cce:	50 07 98    	mov.w     w0, [w14+10]
    8cd0:	61 07 98    	mov.w     w1, [w14+12]

00008cd2 <.L16>:
    8cd2:	60 00 b8    	mul.uu    w0, #0x0, w0
    8cd4:	30 07 98    	mov.w     w0, [w14+6]
    8cd6:	41 07 98    	mov.w     w1, [w14+8]
    8cd8:	81 72 80    	mov.w     0xe50, w1
    8cda:	00 10 20    	mov.w     #0x100, w0
    8cdc:	00 80 60    	and.w     w1, w0, w0
    8cde:	00 00 e0    	cp0.w     w0
    8ce0:	15 00 32    	bra       Z, 0x8d0c <.L17>
    8ce2:	e1 4a 80    	mov.w     0x95c, w1
    8ce4:	f0 4e 80    	mov.w     0x9de, w0
    8ce6:	00 8f 50    	sub.w     w1, w0, [w14]
    8ce8:	1e 00 78    	mov.w     [w14], w0
    8cea:	cf 80 de    	asr.w     w0, #0xf, w1
    8cec:	5f c4 07    	rcall     0x15ac <___floatsisf>
    8cee:	d2 cc 2c    	mov.w     #0xcccd, w2
    8cf0:	c3 e4 23    	mov.w     #0x3e4c, w3
    8cf2:	87 c4 07    	rcall     0x1602 <___mulsf3>
    8cf4:	ba c4 07    	rcall     0x166a <___fixsfsi>
    8cf6:	10 07 98    	mov.w     w0, [w14+2]
    8cf8:	f6 fd 07    	rcall     0x88e6 <_canStabilizeInverted>
    8cfa:	00 04 e0    	cp0.b     w0
    8cfc:	09 00 32    	bra       Z, 0x8d10 <.L22>
    8cfe:	90 75 80    	mov.w     0xeb2, w0
    8d00:	e2 0f 50    	sub.w     w0, #0x2, [w15]
    8d02:	06 00 3a    	bra       NZ, 0x8d10 <.L22>
    8d04:	1e 00 90    	mov.w     [w14+2], w0
    8d06:	00 00 ea    	neg.w     w0, w0
    8d08:	10 07 98    	mov.w     w0, [w14+2]
    8d0a:	02 00 37    	bra       0x8d10 <.L22>

00008d0c <.L17>:
    8d0c:	00 00 eb    	clr.w     w0
    8d0e:	10 07 98    	mov.w     w0, [w14+2]

00008d10 <.L22>:
    8d10:	ee 00 90    	mov.w     [w14+12], w1
    8d12:	2e 00 90    	mov.w     [w14+4], w0
    8d14:	81 00 50    	sub.w     w0, w1, w1
    8d16:	4e 00 90    	mov.w     [w14+8], w0
    8d18:	80 80 40    	add.w     w1, w0, w1
    8d1a:	1e 00 90    	mov.w     [w14+2], w0
    8d1c:	00 80 40    	add.w     w1, w0, w0
    8d1e:	00 73 88    	mov.w     w0, 0xe60
    8d20:	00 80 fa    	ulnk      
    8d22:	00 00 06    	return    

00008d24 <_hoverYawCntrl>:
    8d24:	0e 00 fa    	lnk       #0xe
    8d26:	80 72 80    	mov.w     0xe50, w0
    8d28:	01 10 20    	mov.w     #0x100, w1
    8d2a:	01 00 60    	and.w     w0, w1, w0
    8d2c:	00 00 e0    	cp0.w     w0
    8d2e:	1d 00 32    	bra       Z, 0x8d6a <.L25>
    8d30:	11 5b 80    	mov.w     0xb62, w1
    8d32:	a0 36 85    	mov.w     0xa6d4, w0
    8d34:	01 80 b9    	mul.ss    w0, w1, w0
    8d36:	40 07 98    	mov.w     w0, [w14+8]
    8d38:	51 07 98    	mov.w     w1, [w14+10]
    8d3a:	d1 75 80    	mov.w     0xeba, w1
    8d3c:	00 08 20    	mov.w     #0x80, w0
    8d3e:	00 80 60    	and.w     w1, w0, w0
    8d40:	00 00 e0    	cp0.w     w0
    8d42:	05 00 32    	bra       Z, 0x8d4e <.L27>
    8d44:	01 4b 80    	mov.w     0x960, w1
    8d46:	10 4f 80    	mov.w     0x9e2, w0
    8d48:	80 80 50    	sub.w     w1, w0, w1
    8d4a:	61 07 98    	mov.w     w1, [w14+12]
    8d4c:	02 00 37    	bra       0x8d52 <.L29>

00008d4e <.L27>:
    8d4e:	00 00 eb    	clr.w     w0
    8d50:	60 07 98    	mov.w     w0, [w14+12]

00008d52 <.L29>:
    8d52:	6e 00 90    	mov.w     [w14+12], w0
    8d54:	10 07 98    	mov.w     w0, [w14+2]
    8d56:	1e 00 90    	mov.w     [w14+2], w0
    8d58:	43 00 dd    	sl.w      w0, #0x3, w0
    8d5a:	00 0f 78    	mov.w     w0, [w14]
    8d5c:	91 36 85    	mov.w     0xa6d2, w1
    8d5e:	80 58 80    	mov.w     0xb10, w0
    8d60:	1e 00 40    	add.w     w0, [w14], w0
    8d62:	01 80 b9    	mul.ss    w0, w1, w0
    8d64:	20 07 98    	mov.w     w0, [w14+4]
    8d66:	31 07 98    	mov.w     w1, [w14+6]
    8d68:	06 00 37    	bra       0x8d76 <.L30>

00008d6a <.L25>:
    8d6a:	60 00 b8    	mul.uu    w0, #0x0, w0
    8d6c:	40 07 98    	mov.w     w0, [w14+8]
    8d6e:	51 07 98    	mov.w     w1, [w14+10]
    8d70:	60 00 b8    	mul.uu    w0, #0x0, w0
    8d72:	20 07 98    	mov.w     w0, [w14+4]
    8d74:	31 07 98    	mov.w     w1, [w14+6]

00008d76 <.L30>:
    8d76:	3e 00 90    	mov.w     [w14+6], w0
    8d78:	de 00 90    	mov.w     [w14+10], w1
    8d7a:	01 00 50    	sub.w     w0, w1, w0
    8d7c:	00 73 88    	mov.w     w0, 0xe60
    8d7e:	00 80 fa    	ulnk      
    8d80:	00 00 06    	return    

00008d82 <_rollCntrl>:
    8d82:	00 00 fa    	lnk       #0x0
    8d84:	b4 fd 07    	rcall     0x88ee <_canStabilizeHover>
    8d86:	00 04 e0    	cp0.b     w0
    8d88:	05 00 32    	bra       Z, 0x8d94 <.L2>
    8d8a:	90 75 80    	mov.w     0xeb2, w0
    8d8c:	e4 0f 50    	sub.w     w0, #0x4, [w15]
    8d8e:	02 00 3a    	bra       NZ, 0x8d94 <.L2>
    8d90:	4d 00 07    	rcall     0x8e2c <_hoverRollCntrl>
    8d92:	01 00 37    	bra       0x8d96 <.L6>

00008d94 <.L2>:
    8d94:	02 00 07    	rcall     0x8d9a <_normalRollCntrl>

00008d96 <.L6>:
    8d96:	00 80 fa    	ulnk      
    8d98:	00 00 06    	return    

00008d9a <_normalRollCntrl>:
    8d9a:	10 00 fa    	lnk       #0x10
    8d9c:	60 00 b8    	mul.uu    w0, #0x0, w0
    8d9e:	20 07 98    	mov.w     w0, [w14+4]
    8da0:	31 07 98    	mov.w     w1, [w14+6]
    8da2:	a1 fd 07    	rcall     0x88e6 <_canStabilizeInverted>
    8da4:	00 04 e0    	cp0.b     w0
    8da6:	04 00 32    	bra       Z, 0x8db0 <.L8>
    8da8:	a0 75 80    	mov.w     0xeb4, w0
    8daa:	62 00 60    	and.w     w0, #0x2, w0
    8dac:	00 00 e0    	cp0.w     w0
    8dae:	05 00 3a    	bra       NZ, 0x8dba <.L10>

00008db0 <.L8>:
    8db0:	80 58 80    	mov.w     0xb10, w0
    8db2:	10 07 98    	mov.w     w0, [w14+2]
    8db4:	10 5b 80    	mov.w     0xb62, w0
    8db6:	00 0f 78    	mov.w     w0, [w14]
    8db8:	05 00 37    	bra       0x8dc4 <.L11>

00008dba <.L10>:
    8dba:	80 58 80    	mov.w     0xb10, w0
    8dbc:	00 00 ea    	neg.w     w0, w0
    8dbe:	10 07 98    	mov.w     w0, [w14+2]
    8dc0:	10 5b 80    	mov.w     0xb62, w0
    8dc2:	00 0f ea    	neg.w     w0, [w14]

00008dc4 <.L11>:
    8dc4:	80 72 80    	mov.w     0xe50, w0
    8dc6:	01 08 20    	mov.w     #0x80, w1
    8dc8:	01 00 60    	and.w     w0, w1, w0
    8dca:	00 00 e0    	cp0.w     w0
    8dcc:	03 00 32    	bra       Z, 0x8dd4 <.L12>
    8dce:	10 c6 b3    	mov.b     #0x61, w0
    8dd0:	c7 f2 07    	rcall     0x7360 <_determine_navigation_deflection>
    8dd2:	30 07 98    	mov.w     w0, [w14+6]

00008dd4 <.L12>:
    8dd4:	80 72 80    	mov.w     0xe50, w0
    8dd6:	01 10 20    	mov.w     #0x100, w1
    8dd8:	01 00 60    	and.w     w0, w1, w0
    8dda:	00 00 e0    	cp0.w     w0
    8ddc:	0f 00 32    	bra       Z, 0x8dfc <.L14>
    8dde:	01 5b 80    	mov.w     0xb60, w1
    8de0:	40 36 85    	mov.w     0xa6c8, w0
    8de2:	01 80 b9    	mul.ss    w0, w1, w0
    8de4:	40 07 98    	mov.w     w0, [w14+8]
    8de6:	51 07 98    	mov.w     w1, [w14+10]
    8de8:	2e 01 90    	mov.w     [w14+4], w2
    8dea:	be 01 90    	mov.w     [w14+6], w3
    8dec:	31 36 85    	mov.w     0xa6c6, w1
    8dee:	1e 00 90    	mov.w     [w14+2], w0
    8df0:	01 80 b9    	mul.ss    w0, w1, w0
    8df2:	02 00 40    	add.w     w0, w2, w0
    8df4:	83 80 48    	addc.w    w1, w3, w1
    8df6:	20 07 98    	mov.w     w0, [w14+4]
    8df8:	31 07 98    	mov.w     w1, [w14+6]
    8dfa:	03 00 37    	bra       0x8e02 <.L16>

00008dfc <.L14>:
    8dfc:	60 00 b8    	mul.uu    w0, #0x0, w0
    8dfe:	40 07 98    	mov.w     w0, [w14+8]
    8e00:	51 07 98    	mov.w     w1, [w14+10]

00008e02 <.L16>:
    8e02:	80 72 80    	mov.w     0xe50, w0
    8e04:	01 10 20    	mov.w     #0x100, w1
    8e06:	01 00 60    	and.w     w0, w1, w0
    8e08:	00 00 e0    	cp0.w     w0
    8e0a:	05 00 32    	bra       Z, 0x8e16 <.L17>
    8e0c:	20 36 85    	mov.w     0xa6c4, w0
    8e0e:	1e 80 b9    	mul.ss    w0, [w14], w0
    8e10:	60 07 98    	mov.w     w0, [w14+12]
    8e12:	71 07 98    	mov.w     w1, [w14+14]
    8e14:	03 00 37    	bra       0x8e1c <.L19>

00008e16 <.L17>:
    8e16:	60 00 b8    	mul.uu    w0, #0x0, w0
    8e18:	60 07 98    	mov.w     w0, [w14+12]
    8e1a:	71 07 98    	mov.w     w1, [w14+14]

00008e1c <.L19>:
    8e1c:	be 00 90    	mov.w     [w14+6], w1
    8e1e:	5e 00 90    	mov.w     [w14+10], w0
    8e20:	80 80 50    	sub.w     w1, w0, w1
    8e22:	7e 00 90    	mov.w     [w14+14], w0
    8e24:	00 80 50    	sub.w     w1, w0, w0
    8e26:	f0 72 88    	mov.w     w0, 0xe5e
    8e28:	00 80 fa    	ulnk      
    8e2a:	00 00 06    	return    

00008e2c <_hoverRollCntrl>:
    8e2c:	08 00 fa    	lnk       #0x8
    8e2e:	80 72 80    	mov.w     0xe50, w0
    8e30:	01 10 20    	mov.w     #0x100, w1
    8e32:	01 00 60    	and.w     w0, w1, w0
    8e34:	00 00 e0    	cp0.w     w0
    8e36:	19 00 32    	bra       Z, 0x8e6a <.L22>
    8e38:	80 72 80    	mov.w     0xe50, w0
    8e3a:	01 08 20    	mov.w     #0x80, w1
    8e3c:	01 00 60    	and.w     w0, w1, w0
    8e3e:	00 00 e0    	cp0.w     w0
    8e40:	0c 00 32    	bra       Z, 0x8e5a <.L24>
    8e42:	c0 73 80    	mov.w     0xe78, w0
    8e44:	ea 0f 50    	sub.w     w0, #0xa, [w15]
    8e46:	04 00 34    	bra       LE, 0x8e50 <.L26>
    8e48:	80 c6 b3    	mov.b     #0x68, w0
    8e4a:	8a f2 07    	rcall     0x7360 <_determine_navigation_deflection>
    8e4c:	30 07 98    	mov.w     w0, [w14+6]
    8e4e:	02 00 37    	bra       0x8e54 <.L28>

00008e50 <.L26>:
    8e50:	00 00 eb    	clr.w     w0
    8e52:	30 07 98    	mov.w     w0, [w14+6]

00008e54 <.L28>:
    8e54:	3e 00 90    	mov.w     [w14+6], w0
    8e56:	00 0f 78    	mov.w     w0, [w14]
    8e58:	02 00 37    	bra       0x8e5e <.L29>

00008e5a <.L24>:
    8e5a:	00 00 eb    	clr.w     w0
    8e5c:	00 0f 78    	mov.w     w0, [w14]

00008e5e <.L29>:
    8e5e:	01 5b 80    	mov.w     0xb60, w1
    8e60:	60 36 85    	mov.w     0xa6cc, w0
    8e62:	01 80 b9    	mul.ss    w0, w1, w0
    8e64:	10 07 98    	mov.w     w0, [w14+2]
    8e66:	21 07 98    	mov.w     w1, [w14+4]
    8e68:	05 00 37    	bra       0x8e74 <.L30>

00008e6a <.L22>:
    8e6a:	00 00 eb    	clr.w     w0
    8e6c:	00 0f 78    	mov.w     w0, [w14]
    8e6e:	60 00 b8    	mul.uu    w0, #0x0, w0
    8e70:	10 07 98    	mov.w     w0, [w14+2]
    8e72:	21 07 98    	mov.w     w1, [w14+4]

00008e74 <.L30>:
    8e74:	2e 00 90    	mov.w     [w14+4], w0
    8e76:	1e 00 10    	subr.w    w0, [w14], w0
    8e78:	f0 72 88    	mov.w     w0, 0xe5e
    8e7a:	00 80 fa    	ulnk      
    8e7c:	00 00 06    	return    

00008e7e <_gpsoutline>:
    8e7e:	08 00 fa    	lnk       #0x8
    8e80:	20 07 98    	mov.w     w0, [w14+4]
    8e82:	00 00 eb    	clr.w     w0
    8e84:	10 07 98    	mov.w     w0, [w14+2]
    8e86:	02 00 37    	bra       0x8e8c <.L2>

00008e88 <.L3>:
    8e88:	1e 40 78    	mov.b     [w14], w0
    8e8a:	0b ee 07    	rcall     0x6aa2 <_udb_gps_send_char>

00008e8c <.L2>:
    8e8c:	1e 00 90    	mov.w     [w14+2], w0
    8e8e:	80 00 78    	mov.w     w0, w1
    8e90:	2e 00 90    	mov.w     [w14+4], w0
    8e92:	00 80 40    	add.w     w1, w0, w0
    8e94:	10 4f 78    	mov.b     [w0], [w14]
    8e96:	1e 40 78    	mov.b     [w14], w0
    8e98:	60 47 98    	mov.b     w0, [w14+6]
    8e9a:	6e 40 90    	mov.b     [w14+6], w0
    8e9c:	00 04 e0    	cp0.b     w0
    8e9e:	02 00 32    	bra       Z, 0x8ea4 <.L4>
    8ea0:	10 c0 b3    	mov.b     #0x1, w0
    8ea2:	60 47 98    	mov.b     w0, [w14+6]

00008ea4 <.L4>:
    8ea4:	6e 40 90    	mov.b     [w14+6], w0
    8ea6:	9e 00 90    	mov.w     [w14+2], w1
    8ea8:	81 00 e8    	inc.w     w1, w1
    8eaa:	11 07 98    	mov.w     w1, [w14+2]
    8eac:	00 04 e0    	cp0.b     w0
    8eae:	ec ff 3a    	bra       NZ, 0x8e88 <.L3>
    8eb0:	00 80 fa    	ulnk      
    8eb2:	00 00 06    	return    

00008eb4 <_gpsoutbin>:
    8eb4:	06 00 fa    	lnk       #0x6
    8eb6:	10 07 98    	mov.w     w0, [w14+2]
    8eb8:	21 07 98    	mov.w     w1, [w14+4]
    8eba:	00 00 eb    	clr.w     w0
    8ebc:	00 0f 78    	mov.w     w0, [w14]
    8ebe:	07 00 37    	bra       0x8ece <.L8>

00008ec0 <.L9>:
    8ec0:	1e 00 78    	mov.w     [w14], w0
    8ec2:	80 00 78    	mov.w     w0, w1
    8ec4:	2e 00 90    	mov.w     [w14+4], w0
    8ec6:	00 80 40    	add.w     w1, w0, w0
    8ec8:	10 40 78    	mov.b     [w0], w0
    8eca:	eb ed 07    	rcall     0x6aa2 <_udb_gps_send_char>
    8ecc:	1e 0f e8    	inc.w     [w14], [w14]

00008ece <.L8>:
    8ece:	1e 00 90    	mov.w     [w14+2], w0
    8ed0:	9e 0f 10    	subr.w    w0, [w14], [w15]
    8ed2:	f6 ff 35    	bra       LT, 0x8ec0 <.L9>
    8ed4:	00 80 fa    	ulnk      
    8ed6:	00 00 06    	return    

00008ed8 <_udb_gps_callback_received_char>:
    8ed8:	02 00 fa    	lnk       #0x2
    8eda:	00 4f 78    	mov.b     w0, [w14]
    8edc:	61 75 80    	mov.w     0xeac, w1
    8ede:	1e 40 78    	mov.b     [w14], w0
    8ee0:	01 00 01    	call      w1
    8ee2:	00 80 fa    	ulnk      
    8ee4:	00 00 06    	return    

00008ee6 <_udb_background_callback_triggered>:
    8ee6:	04 00 fa    	lnk       #0x4
    8ee8:	a8 fd 07    	rcall     0x8a3a <_estYawDrift>
    8eea:	38 f9 07    	rcall     0x815c <_gps_nav_valid>
    8eec:	00 04 e0    	cp0.b     w0
    8eee:	31 00 32    	bra       Z, 0x8f52 <.L15>
    8ef0:	00 00 eb    	clr.w     w0
    8ef2:	f0 64 88    	mov.w     w0, 0xc9e
    8ef4:	02 65 80    	mov.w     0xca0, w2
    8ef6:	13 65 80    	mov.w     0xca2, w3
    8ef8:	60 65 80    	mov.w     0xcac, w0
    8efa:	71 65 80    	mov.w     0xcae, w1
    8efc:	00 00 51    	sub.w     w2, w0, w0
    8efe:	81 80 59    	subb.w    w3, w1, w1
    8f00:	a2 05 20    	mov.w     #0x5a, w2
    8f02:	03 00 20    	mov.w     #0x0, w3
    8f04:	44 c3 07    	rcall     0x158e <___divsi3>
    8f06:	00 8f be    	mov.d     w0, [w14]
    8f08:	1e 00 78    	mov.w     [w14], w0
    8f0a:	00 70 88    	mov.w     w0, 0xe00
    8f0c:	22 65 80    	mov.w     0xca4, w2
    8f0e:	33 65 80    	mov.w     0xca6, w3
    8f10:	80 65 80    	mov.w     0xcb0, w0
    8f12:	91 65 80    	mov.w     0xcb2, w1
    8f14:	00 00 51    	sub.w     w2, w0, w0
    8f16:	81 80 59    	subb.w    w3, w1, w1
    8f18:	a2 05 20    	mov.w     #0x5a, w2
    8f1a:	03 00 20    	mov.w     #0x0, w3
    8f1c:	38 c3 07    	rcall     0x158e <___divsi3>
    8f1e:	00 8f be    	mov.d     w0, [w14]
    8f20:	9e 00 78    	mov.w     [w14], w1
    8f22:	70 70 80    	mov.w     0xe0e, w0
    8f24:	01 80 b9    	mul.ss    w0, w1, w0
    8f26:	42 09 dd    	sl.w      w1, #0x2, w2
    8f28:	ce 00 de    	lsr.w     w0, #0xe, w1
    8f2a:	81 00 71    	ior.w     w2, w1, w1
    8f2c:	42 00 dd    	sl.w      w0, #0x2, w0
    8f2e:	00 8f be    	mov.d     w0, [w14]
    8f30:	1e 00 90    	mov.w     [w14+2], w0
    8f32:	f0 6f 88    	mov.w     w0, 0xdfe
    8f34:	42 65 80    	mov.w     0xca8, w2
    8f36:	53 65 80    	mov.w     0xcaa, w3
    8f38:	a0 65 80    	mov.w     0xcb4, w0
    8f3a:	b1 65 80    	mov.w     0xcb6, w1
    8f3c:	00 00 51    	sub.w     w2, w0, w0
    8f3e:	81 80 59    	subb.w    w3, w1, w1
    8f40:	42 06 20    	mov.w     #0x64, w2
    8f42:	03 00 20    	mov.w     #0x0, w3
    8f44:	24 c3 07    	rcall     0x158e <___divsi3>
    8f46:	00 8f be    	mov.d     w0, [w14]
    8f48:	1e 00 78    	mov.w     [w14], w0
    8f4a:	10 70 88    	mov.w     w0, 0xe02
    8f4c:	c2 f0 07    	rcall     0x70d2 <_dcm_callback_gps_location_updated>
    8f4e:	cb f6 07    	rcall     0x7ce6 <_estimateWind>
    8f50:	02 00 37    	bra       0x8f56 <.L18>

00008f52 <.L15>:
    8f52:	a0 00 20    	mov.w     #0xa, w0
    8f54:	f0 64 88    	mov.w     w0, 0xc9e

00008f56 <.L18>:
    8f56:	00 80 fa    	ulnk      
    8f58:	00 00 06    	return    

00008f5a <_cam_pitchServoLimit>:
unsigned char  counter_slow_down = 40  ;             // 
#endif

long cam_pitchServoLimit(long pwm_pulse)
{
    8f5a:	04 00 fa    	lnk       #0x4
    8f5c:	00 8f be    	mov.d     w0, [w14]
	if ( pwm_pulse > pitch_servo_pwm_max) pwm_pulse = pitch_servo_pwm_max ;
    8f5e:	80 35 85    	mov.w     0xa6b0, w0
    8f60:	cf 80 de    	asr.w     w0, #0xf, w1
    8f62:	be 0f 50    	sub.w     w0, [w14++], [w15]
    8f64:	ae 8f 58    	subb.w    w1, [w14--], [w15]
    8f66:	03 00 3d    	bra       GE, 0x8f6e <.L2>
    8f68:	80 35 85    	mov.w     0xa6b0, w0
    8f6a:	cf 80 de    	asr.w     w0, #0xf, w1
    8f6c:	00 8f be    	mov.d     w0, [w14]

00008f6e <.L2>:
	if ( pwm_pulse < pitch_servo_pwm_min) pwm_pulse = pitch_servo_pwm_min ;
    8f6e:	90 35 85    	mov.w     0xa6b2, w0
    8f70:	cf 80 de    	asr.w     w0, #0xf, w1
    8f72:	be 0f 50    	sub.w     w0, [w14++], [w15]
    8f74:	ae 8f 58    	subb.w    w1, [w14--], [w15]
    8f76:	03 00 34    	bra       LE, 0x8f7e <.L4>
    8f78:	90 35 85    	mov.w     0xa6b2, w0
    8f7a:	cf 80 de    	asr.w     w0, #0xf, w1
    8f7c:	00 8f be    	mov.d     w0, [w14]

00008f7e <.L4>:
	return(pwm_pulse) ;
    8f7e:	1e 00 be    	mov.d     [w14], w0
}
    8f80:	00 80 fa    	ulnk      
    8f82:	00 00 06    	return    

00008f84 <_cam_yawServoLimit>:

long cam_yawServoLimit(long pwm_pulse)
{
    8f84:	04 00 fa    	lnk       #0x4
    8f86:	00 8f be    	mov.d     w0, [w14]
	if ( pwm_pulse > yaw_servo_pwm_max) pwm_pulse = yaw_servo_pwm_max ;
    8f88:	a0 35 85    	mov.w     0xa6b4, w0
    8f8a:	cf 80 de    	asr.w     w0, #0xf, w1
    8f8c:	be 0f 50    	sub.w     w0, [w14++], [w15]
    8f8e:	ae 8f 58    	subb.w    w1, [w14--], [w15]
    8f90:	03 00 3d    	bra       GE, 0x8f98 <.L8>
    8f92:	a0 35 85    	mov.w     0xa6b4, w0
    8f94:	cf 80 de    	asr.w     w0, #0xf, w1
    8f96:	00 8f be    	mov.d     w0, [w14]

00008f98 <.L8>:
	if ( pwm_pulse < yaw_servo_pwm_min) pwm_pulse = yaw_servo_pwm_min ;
    8f98:	b0 35 85    	mov.w     0xa6b6, w0
    8f9a:	cf 80 de    	asr.w     w0, #0xf, w1
    8f9c:	be 0f 50    	sub.w     w0, [w14++], [w15]
    8f9e:	ae 8f 58    	subb.w    w1, [w14--], [w15]
    8fa0:	03 00 34    	bra       LE, 0x8fa8 <.L10>
    8fa2:	b0 35 85    	mov.w     0xa6b6, w0
    8fa4:	cf 80 de    	asr.w     w0, #0xf, w1
    8fa6:	00 8f be    	mov.d     w0, [w14]

00008fa8 <.L10>:
	return(pwm_pulse) ;
    8fa8:	1e 00 be    	mov.d     [w14], w0
}
    8faa:	00 80 fa    	ulnk      
    8fac:	00 00 06    	return    

00008fae <_set_camera_view>:


void set_camera_view( struct relative3D current_view )
{
    8fae:	06 00 fa    	lnk       #0x6
    8fb0:	00 0f 78    	mov.w     w0, [w14]
    8fb2:	11 07 98    	mov.w     w1, [w14+2]
    8fb4:	22 07 98    	mov.w     w2, [w14+4]
	view_location.x = current_view.x ;
    8fb6:	1e 00 78    	mov.w     [w14], w0
    8fb8:	30 71 88    	mov.w     w0, 0xe26
	view_location.y = current_view.y ;
    8fba:	1e 00 90    	mov.w     [w14+2], w0
    8fbc:	40 71 88    	mov.w     w0, 0xe28
	view_location.z = current_view.z ;
    8fbe:	2e 00 90    	mov.w     [w14+4], w0
    8fc0:	50 71 88    	mov.w     w0, 0xe2a
}
    8fc2:	00 80 fa    	ulnk      
    8fc4:	00 00 06    	return    

00008fc6 <_compute_camera_view>:


void compute_camera_view (void)
{
    8fc6:	00 00 fa    	lnk       #0x0
#if ( DEADRECKONING == 1 )
	camera_view.x = view_location.x - IMUlocationx._.W1 ;
    8fc8:	31 71 80    	mov.w     0xe26, w1
    8fca:	60 67 80    	mov.w     0xcec, w0
    8fcc:	00 80 50    	sub.w     w1, w0, w0
    8fce:	60 71 88    	mov.w     w0, 0xe2c
	camera_view.y = view_location.y - IMUlocationy._.W1 ;
    8fd0:	41 71 80    	mov.w     0xe28, w1
    8fd2:	80 67 80    	mov.w     0xcf0, w0
    8fd4:	00 80 50    	sub.w     w1, w0, w0
    8fd6:	70 71 88    	mov.w     w0, 0xe2e
	camera_view.z = view_location.z - IMUlocationz._.W1 ;
    8fd8:	51 71 80    	mov.w     0xe2a, w1
    8fda:	a0 67 80    	mov.w     0xcf4, w0
    8fdc:	00 80 50    	sub.w     w1, w0, w0
    8fde:	80 71 88    	mov.w     w0, 0xe30
#else
	camera_view.x = view_location.x - GPSlocation.x ;
	camera_view.y = view_location.y - GPSlocation.y ;
	camera_view.z = view_location.z - GPSlocation.z ;
#endif
}
    8fe0:	00 80 fa    	ulnk      
    8fe2:	00 00 06    	return    

00008fe4 <_cameraCntrl>:


void cameraCntrl( void )
{
    8fe4:	00 00 fa    	lnk       #0x0

#if ( USE_CAMERA_STABILIZATION == 1 )

	union longbbbb cam ;
	int cam_pitch16 = 0;		  // pitch accumalator in 16 bit byte circular.
	int cam_yaw16   = 0;		  // yaw   accumalator in 16 bit byte circular.
	signed char cam_yaw8 = 0;     // An 8 bit version of cam_yaw to use with sine(), cosine()

	struct relative2D matrix_accum  = { 0, 0 }    ;   // Temporary variable to keep intermediate results of functions.
	fractional cam_vector_ground[]  = { 0, 0 ,0 } ;   // Vector to camera target from within ground coordinate reference.
	fractional cam_vector_plane[]   = { 0, 0, 0 } ;	  // Vector to camera target from within plane's coordinate reference
	fractional rmat_transpose[]     = {RMAX, 0, 0, 0, RMAX, 0, 0, 0, RMAX} ;


	// In Manual Mode 
	
	if ( flags._.GPS_steering == 0 && flags._.pitch_feedback == 0 )
	{
		// set camera to default position
		// Pitch Servo
		cam_pitch_servo_pwm_delta =  - pitch_offset_centred_pwm ;		
		// Yaw Servo	
		cam_yaw_servo_pwm_delta = - yaw_offset_centred_pwm  ;
	}
	else
	{
	 	// Stabilised Mode
		if ( flags._.GPS_steering == 0 && flags._.pitch_feedback == 1 )
		{
			// Stabilised mode is actually the most complex translation. It requires a 
			// a mix of settings from the ground reference and the plane's reference.
			// Against the ground reference, the camera has to stay at a constant pitch to the horizontal
			// Against the plane reference, the camera has to keep at a constant yaw. e.g. straight ahead.
			// Maths: 
			// Calculate the Yaw angle of the Plane in the ground reference. 
			// Use the desired pitch of the camera, to create a camera view vector with reference to the ground
			// Convert the camera view vector back to the plane's frame of reference.
			// Calculate pitch and yaw for the camera servos.
			
			// Yaw
			// "Aviation Convention - Ground" frame of reference
			matrix_accum.x =   rmat[4] ;
			matrix_accum.y =   rmat[1] ;
			cam_yaw8 =  rect_to_polar(&matrix_accum); //
			
			// camera_view uses the "UAV Devboard - Earth" reference
			// The next lines overide waypoint camera views for stablized mode.
			//cam_yaw8 = (char) (cam_yaw16 >> 8) ;
			camera_view.x =   - sine(cam_yaw8) ;
			camera_view.y =     cosine(cam_yaw8) ;
			camera_view.z =   - tan_pitch_in_stabilized_mode ;
		}		
		
		// Waypoint Mode and Stabilized Mode (and RTL)
		
		// The maths here is as follows. 
		// Take a vector defined in the earth reference (camera_view),
		// and rotate into the plane's reference. This requires the use of the inverse
		// of rmat which is also the transpose of the rmat matrix.
		// Then calculate each of the angles for yaw and pitch in the plane's reference. (roll not implemented at this time).
		// Finally, convert camera angles in yaw and pitch to servo rotation angles.
		
		// Convert externally requested camera view into a structure of type fractional 
		// Convert from "UAV Devboard - Ground" convention to "Aviation Convention - Ground"
		cam_vector_ground[0] = - camera_view.x ;
		cam_vector_ground[1] =   camera_view.y ;
		cam_vector_ground[2] = - camera_view.z ; 

		// Rotate camera vector from ground reference into plane reference
		udb_setDSPLibInUse(true) ;
		MatrixTranspose(3, 3, rmat_transpose, rmat ) ;	
		// It does not matter that the result of the following operation is not the expected magnitude
		// because the code only uses the ratios of X,Y,Z relative to each other to calculate angles.
		MatrixMultiply( 3 , 3 , 1 , cam_vector_plane , rmat_transpose , cam_vector_ground ) ;
		udb_setDSPLibInUse(false) ;
		
		// Convert camera vector which is now in plane's coordinate reference, to a Yaw angle with respect to front of plane.
		matrix_accum.x =   cam_vector_plane[0]  ;
		matrix_accum.y =   cam_vector_plane[1]  ; 
		cam_yaw16 = rect_to_polar16(&matrix_accum) - 16384 ; // subtract 90 degrees so yaw measured in line with fuselage

#if  (CAM_TESTING_OVERIDE == 1 )
		cam_test_timer-- ;
		if ( cam_test_timer <= 0 )
		{
			cam_test_timer = CAM_TEST_TIMER ;
			cam_test_yaw = cam_test_yaw * -1; // reverse the angle of test
		}
		cam_yaw16 = cam_test_yaw ;
#endif
		
		// Convert camera vector (which is in plane's coordinaet reference) to a pitch angle.
		matrix_accum.y = cam_vector_plane[2] ;
		cam_pitch16 = rect_to_polar16(&matrix_accum) ; // Note matrix_accum.x is the left over result of yaw call to rect_to_polar16

#if  (CAM_TESTING_OVERIDE == 1 )
		cam_pitch16 = cam_testing_pitch_angle ; 
#endif

		// One day, insert special logic for when camera nearly pointing straight down 
		// to prevent large movements of camera on yaw for small changes in roll and pitch.
		// if ( pitch > 15000 || pitch < -15000 ) // 16383 is close to 90 degrees.
		
		// Calculate signal to send to pitch servo
#if  ( CAM_PITCH_TEST_GRANULARITY == 1 )
		// Move camera by smallest pitch granular amount, continuously. (testing for blurring of camera picture)
		if (counter_slow_down-- == 0)
		{
			if (pitch_servo_out-- < -500 ) pitch_servo_out = 500 ;  // A 22.5 degree movement either side of servo centre for a 90 degree servo
			counter_slow_down = 40 ;
		}
		cam_pitch_servo_pwm_delta = pitch_servo_out ;		
#else	
		cam.WW = __builtin_mulss(cam_pitch16, pitch_servo_high_ratio) + 0x8000 ;
		cam_pitch_servo_pwm_delta = cam._.W1 - pitch_offset_centred_pwm ;
#endif		
		// Calculate signal to send to yaw servo
		cam.WW = __builtin_mulss(cam_yaw16 , yaw_servo_high_ratio) + 0x8000 ; 		
		cam_yaw_servo_pwm_delta = cam._.W1 - yaw_offset_centred_pwm ; 	
	}
#endif
}

    8fe6:	00 80 fa    	ulnk      
    8fe8:	00 00 06    	return    

00008fea <_MDSFIR>:
_MDSFIR:
; ..............................................................................
; Entry context save of selected registers

         PUSH  MODCON            ; save context of MODCON
    8fea:	46 00 f8    	push      0x46
         PUSH  w8                ; save context of w8
    8fec:	88 1f 78    	mov.w     w8, [w15++]
         PUSH  w10               ; save context of w10
    8fee:	8a 1f 78    	mov.w     w10, [w15++]
         PUSH  XMODSRT           ; save context of XMODSRT
    8ff0:	48 00 f8    	push      0x48
         PUSH  XMODEND           ; save context of XMODEND
    8ff2:	4a 00 f8    	push      0x4a
         PUSH  YMODSRT           ; save context of YMODSRT
    8ff4:	4c 00 f8    	push      0x4c
         PUSH  YMODEND           ; save context of YMODEND
    8ff6:	4e 00 f8    	push      0x4e
         PUSH  CORCON            ; save context of CORCON
    8ff8:	44 00 f8    	push      0x44
         PUSH  PSVPAG            ; save context of PSVPAG
    8ffa:	34 00 f8    	push      0x34
		 push  w1				 ; save return value (pointer to output buffer)
    8ffc:	81 1f 78    	mov.w     w1, [w15++]


; ..............................................................................; 
; Check if filter-taps are stored in Program Space or Data Space and enable
; PSV and set up PSVPAG accordingly

         MOV   [w3+oTapsPage], W10
    8ffe:	33 05 90    	mov.w     [w3+6], w10
         MOV   #0xFF00, W8
    9000:	08 f0 2f    	mov.w     #0xff00, w8
         CP    W8, W10           ; perform w8-w10 (if w10 = FF00 then do not enable PSV)
    9002:	0a 40 e1    	cp.w      w8, w10
         BRA   Z, no_psv         ; branch if compare true (coefficients are in data space) 
    9004:	03 00 32    	bra       Z, 0x900c <no_psv>
         MOV   #0x00B4,W8        ; Enable enable Program Space Visibility, 
    9006:	48 0b 20    	mov.w     #0xb4, w8
                                 ; Accumulator A Saturation and Data Space write Saturation
                                 ;    as bits 2, 5 and 7 are set in CORCON
                                 ; Also note bits 2, 5 and 7 are in low order byte which is
                                 ;   the first byte of a 2 byte word in a little endian 
                                 ;   processor such as the dsPIC30
                                 ; also, enable unbiased (convergent) rounding mode,
                                 ; 1.39 saturation enabled, fractional mult.
         MOV   w10, PSVPAG       ; PSVPAG = Program Space page containing filter taps
    9008:	aa 01 88    	mov.w     w10, 0x34
         BRA   SetupPointers     
    900a:	01 00 37    	bra       0x900e <SetupPointers>

0000900c <no_psv>:

no_psv:
         MOV   #0x00B0,w8        ; Enable Accumulator A Saturation and 
    900c:	08 0b 20    	mov.w     #0xb0, w8

0000900e <SetupPointers>:
                                 ; Data Space write Saturation 
                                 ;    as bits 5 and 7 are set in CORCON
; ..............................................................................;
; Setup pointers and modulo addressing

SetupPointers:
		 MOV   W8, CORCON		; set PSV and saturation options
    900e:	28 02 88    	mov.w     w8, 0x44

         MOV  [w3+oTapsEnd],w8	
    9010:	23 04 90    	mov.w     [w3+4], w8
         MOV  w8, XMODEND		; XMODEND = end address of filter coefficients
    9012:	58 02 88    	mov.w     w8, 0x4a
         MOV  [w3+oTapsBase],w8	; w8 = base address of taps/filter coefficients
    9014:	13 04 90    	mov.w     [w3+2], w8
         MOV  w8, XMODSRT		; XMODSRT = base address of filter coefficients
    9016:	48 02 88    	mov.w     w8, 0x48

         MOV  [w3+oDelayEnd],w10	
    9018:	53 05 90    	mov.w     [w3+10], w10
         MOV  w10, YMODEND		; YMODEND = end address of delay line
    901a:	7a 02 88    	mov.w     w10, 0x4e
         MOV  [w3+oDelayBase],w10	
    901c:	43 05 90    	mov.w     [w3+8], w10
         MOV  w10, YMODSRT		; YMODSRT = base address of delay line
    901e:	6a 02 88    	mov.w     w10, 0x4c

         MOV  [w3+oNumTaps],w4
    9020:	03 02 90    	mov.w     [w3+0], w4

         SUB  w4,#3, w4			; w4 = numTaps-3 (for do loop control)
    9022:	63 02 52    	sub.w     w4, #0x3, w4
		 
		 MOV   #0xC0A8, w10		; set XMD = W8 and YMD = W10
    9024:	8a 0a 2c    	mov.w     #0xc0a8, w10
         MOV   w10, MODCON		; enable X & Y Modulus
    9026:	3a 02 88    	mov.w     w10, 0x46
         
         DEC  w0,w0				; w3 is do loop counter - set to 1 less than count
    9028:	00 00 e9    	dec.w     w0, w0
         MOV  [w3+oDelayPtr],w10 ; w10 = pointer to current delay sample
    902a:	63 05 90    	mov.w     [w3+12], w10
         				
;..............................................................................		 
; Perform Block FIR filtering
		 
         
         DO   w0, blockLoop				; loop until all input samples have been processed
    902c:	00 80 08    	do        w0, 0x903c <blockLoop>
    902e:	06 00 00 
         MOV  [w2++],[w10]				; store new sample into delay line
    9030:	32 0d 78    	mov.w     [w2++], [w10]

; clear a, prefetch tap and sample pair, update ptrs
         CLR   a, [w8]+=2, w5, [w10]+=2, w6
    9032:	46 18 c3    	clr       A, [w8]+=2, w5, [w10]+=2, w6

         REPEAT w4						; perform macs (except for last two)
    9034:	04 80 09    	repeat    w4
         MAC  w5*w6, a, [w8]+=2, w5, [w10]+=2, w6
    9036:	46 18 c4    	mac       w5 * w6, A, [w8]+=2, w5, [w10]+=2, w6

         MAC  w5*w6, a, [w8]+=2, w5, [w10], w6	; perform second-to-last MAC
    9038:	42 18 c4    	mac       w5 * w6, A, [w8]+=2, w5, [w10], w6
         MAC  w5*w6, a					; perform last MAC
    903a:	12 01 c4    	mac       w5 * w6, A

0000903c <blockLoop>:


		; round and store result in AccA to output buffer
blockLoop:
         SAC.R  a,[w1++]				; this is the last instruction in the loop controlled
    903c:	31 00 cd    	sac.r     A, #0x0, [w1++]
										; by W3

         MOV  w10,[w3+oDelayPtr]		; update delay line pointer
    903e:	ea 01 98    	mov.w     w10, [w3+12]
										; note: that the delay line pointer can have multiple
										; wraps depending on the number of input samples
;---------------------------------------------------------------------------------

; ..............................................................................		 
; Cleanup(Context restore of selected registers)
         CLR MODCON						; disable modulo addressing
    9040:	46 20 ef    	clr.w     0x46
         NOP
    9042:	00 00 00    	nop       
	     pop  w0						; restore return value (pointer to output buffer)
    9044:	4f 00 78    	mov.w     [--w15], w0
         POP  PSVPAG					; restore context of PSVPAG
    9046:	34 00 f9    	pop       0x34
         POP  CORCON					; restore context of CORCON
    9048:	44 00 f9    	pop       0x44
         POP  YMODEND					; restore context of YMODEND
    904a:	4e 00 f9    	pop       0x4e
         POP  YMODSRT					; restore context of YMODSRT
    904c:	4c 00 f9    	pop       0x4c
         POP  XMODEND					; restore context of XMODEND
    904e:	4a 00 f9    	pop       0x4a
         POP  XMODSRT					; restore context of XMODSRT
    9050:	48 00 f9    	pop       0x48
         POP  w10						; restore context of w10
    9052:	4f 05 78    	mov.w     [--w15], w10
         POP  w8						; restore context of w8
    9054:	4f 04 78    	mov.w     [--w15], w8
         POP  MODCON					; restore context of MODCON
    9056:	46 00 f9    	pop       0x46
         NOP
    9058:	00 00 00    	nop       
         RETURN							; exit from  _BlockFir
    905a:	00 00 06    	return    

0000905c <_MDSFIRDelayInit>:
    905c:	c0 00 90    	mov.w     [w0+8], w1
    905e:	00 00 90    	mov.w     [w0+0], w0
    9060:	00 00 e9    	dec.w     w0, w0
    9062:	00 80 09    	repeat    w0
    9064:	80 18 eb    	clr.w     [w1++]
    9066:	00 00 06    	return    

00009068 <_superSample>:
        .global  _superSample

         .text
_superSample:
		push	W8			; save c runtime regs
    9068:	88 1f 78    	mov.w     w8, [w15++]
		push	W9			; save c runtime regs
    906a:	89 1f 78    	mov.w     w9, [w15++]
;;		push	W10			; save c runtime regs
;;		push	W11			; save c runtime regs
;;		push	W12			; save c runtime regs
		push	W13			; save c runtime regs
    906c:	8d 1f 78    	mov.w     w13, [w15++]
		mov		W0, W13		; move source address
    906e:	80 06 78    	mov.w     w0, w13
		push	W1			; save destination
    9070:	81 1f 78    	mov.w     w1, [w15++]

		mov		#0, W0		; clear all accumulators
    9072:	00 00 20    	mov.w     #0x0, w0
		mov		#0, W1		; clear all accumulators
    9074:	01 00 20    	mov.w     #0x0, w1
		mov		#0, W2		; clear all accumulators
    9076:	02 00 20    	mov.w     #0x0, w2
		mov		#0, W3		; clear all accumulators
    9078:	03 00 20    	mov.w     #0x0, w3
		mov		#0, W4		; clear all accumulators
    907a:	04 00 20    	mov.w     #0x0, w4
		mov		#0, W5		; clear all accumulators
    907c:	05 00 20    	mov.w     #0x0, w5
		mov		#0, W6		; clear all accumulators
    907e:	06 00 20    	mov.w     #0x0, w6
		mov		#0, W7		; clear all accumulators
    9080:	07 00 20    	mov.w     #0x0, w7
		mov		#0, W8		; clear all accumulators
    9082:	08 00 20    	mov.w     #0x0, w8
		mov		#0, W9		; clear all accumulators
    9084:	09 00 20    	mov.w     #0x0, w9

00009086 <ACC_S>:
;;		mov		#0, W11		; clear all accumulators
;;		mov		#0, W10		; clear all accumulators
;;		mov		#0, W12		; clear all accumulators

ACC_S:	DO		#15, ACC_E	; add em all up
    9086:	0f 00 08    	do        #0xf, 0x909c <ACC_E>
    9088:	09 00 00 
		ADD		W0, [W13++], W0
    908a:	3d 00 40    	add.w     w0, [w13++], w0
		ADD		W1, [W13++], W1
    908c:	bd 80 40    	add.w     w1, [w13++], w1
		ADD		W2, [W13++], W2
    908e:	3d 01 41    	add.w     w2, [w13++], w2
		ADD		W3, [W13++], W3
    9090:	bd 81 41    	add.w     w3, [w13++], w3
		ADD		W4, [W13++], W4
    9092:	3d 02 42    	add.w     w4, [w13++], w4
		ADD		W5, [W13++], W5
    9094:	bd 82 42    	add.w     w5, [w13++], w5
		ADD		W6, [W13++], W6
    9096:	3d 03 43    	add.w     w6, [w13++], w6
		ADD		W7, [W13++], W7
    9098:	bd 83 43    	add.w     w7, [w13++], w7
		ADD		W8, [W13++], W8
    909a:	3d 04 44    	add.w     w8, [w13++], w8

0000909c <ACC_E>:
ACC_E:	ADD		W9, [W13++], W9		;; accululate each value steping pointer
    909c:	bd 84 44    	add.w     w9, [w13++], w9
;;		ADD		W10, [W13++], W10
;;		ADD		W11, [W13++], W11
;;		ADD		W13, [W13++], W12

		POP		W13					;; restore destination
    909e:	cf 06 78    	mov.w     [--w15], w13
		MOV		W0, [W13++]			;; store each value steping pointer
    90a0:	80 1e 78    	mov.w     w0, [w13++]
		MOV		W1, [W13++]
    90a2:	81 1e 78    	mov.w     w1, [w13++]
		MOV		W2, [W13++]
    90a4:	82 1e 78    	mov.w     w2, [w13++]
		MOV		W3, [W13++]
    90a6:	83 1e 78    	mov.w     w3, [w13++]
		MOV		W4, [W13++]
    90a8:	84 1e 78    	mov.w     w4, [w13++]
		MOV		W5, [W13++]
    90aa:	85 1e 78    	mov.w     w5, [w13++]
		MOV		W6, [W13++]
    90ac:	86 1e 78    	mov.w     w6, [w13++]
		MOV		W7, [W13++]
    90ae:	87 1e 78    	mov.w     w7, [w13++]
		MOV		W8, [W13++]
    90b0:	88 1e 78    	mov.w     w8, [w13++]
		MOV		W9, [W13++]
    90b2:	89 1e 78    	mov.w     w9, [w13++]
;;		LSR		W0, [W13++]
;;		LSR		W1, [W13++]
;;		LSR		W2, [W13++]
;;		LSR		W3, [W13++]
;;		LSR		W4, [W13++]
;;		LSR		W5, [W13++]
;;		LSR		W6, [W13++]
;;		LSR		W7, [W13++]
;;		LSR		W8, [W13++]
;;		LSR		W9, [W13++]			;; store each value steping pointer
;;		LSR		W10, [W13++]
;;		LSR		W11, [W13++]
;;		LSR		W13, [W13++]

		pop		W13			; save c runtime regs
    90b4:	cf 06 78    	mov.w     [--w15], w13
;;		pop		W12			; save c runtime regs
;;		pop		W11			; save c runtime regs
;;		pop		W10			; save c runtime regs
		pop		W9			; save c runtime regs
    90b6:	cf 04 78    	mov.w     [--w15], w9
		pop		W8			; save c runtime regs
    90b8:	4f 04 78    	mov.w     [--w15], w8

		return
    90ba:	00 00 06    	return    
Disassembly of section .filter_aspgconst:

000090c0 <filter_aspgTaps>:
    90c0:	0b 00 00    	nop       
    90c2:	04 00 00    	nop       
    90c4:	e6 ff 00    	nop       
    90c6:	a4 ff 00    	nop       
    90c8:	45 ff 00    	nop       
    90ca:	de fe 00    	nop       
    90cc:	9e fe 00    	nop       
    90ce:	c1 fe 00    	nop       
    90d0:	88 ff 00    	nop       
    90d2:	21 01 00    	nop       
    90d4:	99 03 00    	nop       
    90d6:	c5 06 00    	nop       
    90d8:	48 0a 00    	nop       
    90da:	a2 0d 00    	nop       
    90dc:	44 10 00    	nop       
    90de:	b7 11 00    	nop       
    90e0:	b7 11 00    	nop       
    90e2:	44 10 00    	nop       
    90e4:	a2 0d 00    	nop       
    90e6:	48 0a 00    	nop       
    90e8:	c5 06 00    	nop       
    90ea:	99 03 00    	nop       
    90ec:	21 01 00    	nop       
    90ee:	88 ff 00    	nop       
    90f0:	c1 fe 00    	nop       
    90f2:	9e fe 00    	nop       
    90f4:	de fe 00    	nop       
    90f6:	45 ff 00    	nop       
    90f8:	a4 ff 00    	nop       
    90fa:	e6 ff 00    	nop       
    90fc:	04 00 00    	nop       
    90fe:	0b 00 00    	nop       
Disassembly of section .filter_aspg_I2Cconst:

00009100 <filter_aspg_I2CTaps>:
    9100:	ec ff 00    	nop       
    9102:	e9 ff 00    	nop       
    9104:	0c 00 00    	nop       
    9106:	61 00 00    	nop       
    9108:	c8 00 00    	nop       
    910a:	ea 00 00    	nop       
    910c:	64 00 00    	nop       
    910e:	0e ff 00    	nop       
    9110:	47 fd 00    	nop       
    9112:	13 fc 00    	nop       
    9114:	c4 fc 00    	nop       
    9116:	5d 00 00    	nop       
    9118:	e8 06 00    	nop       
    911a:	21 0f 00    	nop       
    911c:	c1 16 00    	nop       
    911e:	5a 1b 00    	nop       
    9120:	5a 1b 00    	nop       
    9122:	c1 16 00    	nop       
    9124:	21 0f 00    	nop       
    9126:	e8 06 00    	nop       
    9128:	5d 00 00    	nop       
    912a:	c4 fc 00    	nop       
    912c:	13 fc 00    	nop       
    912e:	47 fd 00    	nop       
    9130:	0e ff 00    	nop       
    9132:	64 00 00    	nop       
    9134:	ea 00 00    	nop       
    9136:	c8 00 00    	nop       
    9138:	61 00 00    	nop       
    913a:	0c 00 00    	nop       
    913c:	e9 ff 00    	nop       
    913e:	ec ff 00    	nop       
Disassembly of section .text:

00009140 <_main>:

int main (void)
{
	RCON = 0;
	udb_init() ;
    9140:	00 00 fa    	lnk       #0x0
	dcm_init() ;
    9142:	00 00 eb    	clr.w     w0
    9144:	00 3a 88    	mov.w     w0, 0x740
	init_servoPrepare() ;
    9146:	d5 f4 07    	rcall     0x7af2 <_udb_init>
	init_states() ;
    9148:	06 f7 07    	rcall     0x7f56 <_dcm_init>
	init_behavior() ;
    914a:	09 fd 07    	rcall     0x8b5e <_init_servoPrepare>
	init_serial() ;
    914c:	bc ed 07    	rcall     0x6cc6 <_init_states>
	
    914e:	af fb 07    	rcall     0x88ae <_init_behavior>
	udb_run() ;
    9150:	85 e2 07    	rcall     0x565c <_init_serial>
	// This never returns.
	
    9152:	10 f5 07    	rcall     0x7b74 <_udb_run>
	return 0 ;
}
    9154:	00 00 eb    	clr.w     w0
    9156:	00 80 fa    	ulnk      
    9158:	00 00 06    	return    

0000915a <_averageSample>:
    915a:	00 02 78    	mov.w     w0, w4
    915c:	81 02 78    	mov.w     w1, w5
    915e:	61 83 50    	sub.w     w1, #0x1, w6
    9160:	12 01 c3    	clr       A

00009162 <ACC_S>:
    9162:	06 80 09    	repeat    w6
    9164:	b4 03 c9    	add       [w4++], #0x7, A
    9166:	49 00 c8    	sftac     A, #0x9
    9168:	21 01 80    	mov.w     0x24, w1
    916a:	10 01 80    	mov.w     0x22, w0
    916c:	11 00 09    	repeat    #0x11
    916e:	45 08 d8    	div.sd    w0, w5
    9170:	00 00 00    	nop       
    9172:	00 00 06    	return    
